 ecompile

 Timestamp is 4743ce55 (Tue Nov 20 22:21:09 2007)

 Preferred load address is 00400000

 Start         Length     Name                   Class
 0001:00000000 0007c7f2H .text                   CODE
 0001:0007c800 000068e2H .text$x                 CODE
 0001:000830f0 00000ca3H .text$yc                CODE
 0001:00083da0 000006d4H .text$yd                CODE
 0002:00000000 000001c0H .idata$5                DATA
 0002:000001c0 00008b00H .rdata                  DATA
 0002:00008cc0 00000041H .rdata$debug            DATA
 0002:00008d04 00001584H .rdata$r                DATA
 0002:0000a290 00000804H .rdata$sxdata           DATA
 0002:0000aa94 00000004H .rtc$IAA                DATA
 0002:0000aa98 00000004H .rtc$IZZ                DATA
 0002:0000aa9c 00000004H .rtc$TAA                DATA
 0002:0000aaa0 00000004H .rtc$TZZ                DATA
 0002:0000aaa4 000077f8H .xdata$x                DATA
 0002:0001229c 00000028H .idata$2                DATA
 0002:000122c4 00000014H .idata$3                DATA
 0002:000122d8 000001c0H .idata$4                DATA
 0002:00012498 000007f0H .idata$6                DATA
 0002:00012c88 00000000H .edata                  DATA
 0003:00000000 00000004H .CRT$XCA                DATA
 0003:00000004 00000004H .CRT$XCAA               DATA
 0003:00000008 00000160H .CRT$XCU                DATA
 0003:00000168 00000004H .CRT$XCZ                DATA
 0003:0000016c 00000004H .CRT$XIA                DATA
 0003:00000170 00000010H .CRT$XIC                DATA
 0003:00000180 00000004H .CRT$XIY                DATA
 0003:00000184 00000004H .CRT$XIZ                DATA
 0003:00000188 00000004H .CRT$XPA                DATA
 0003:0000018c 00000004H .CRT$XPX                DATA
 0003:00000190 00000004H .CRT$XPZ                DATA
 0003:00000194 00000004H .CRT$XTA                DATA
 0003:00000198 00000004H .CRT$XTB                DATA
 0003:0000019c 00000004H .CRT$XTZ                DATA
 0003:000001a0 00005200H .data                   DATA
 0003:000053a0 00003778H .bss                    DATA
 0004:00000000 00000020H STLPORT_NO_INIT         DATA
 0005:00000000 000000a0H .rsrc$01                DATA
 0005:000000a0 000008c0H .rsrc$02                DATA

  Address         Publics by Value              Rva+Base     Lib:Object

 0000:00000000       __except_list              00000000     <absolute>
 0000:00000201       ___safe_se_handler_count   00000201     <absolute>
 0001:00000000       ?__copy_trivial@_STL@@YAPAXPBX0PAX@Z 00401000 f i ecompile.obj
 0001:00000030       ?__stl_new@_STL@@YAPAXI@Z  00401030 f i ecompile.obj
 0001:00000040       ?__stl_delete@_STL@@YAXPAX@Z 00401040 f i ecompile.obj
 0001:00000050       ?_Destroy@_STL@@YAXPAD0@Z  00401050 f i ecompile.obj
 0001:00000060       ?uninitialized_copy@_STL@@YAPADPBD0PAD@Z 00401060 f i ecompile.obj
 0001:00000090       ?_M_initialize@_STLP_mutex_base@_STL@@QAEXXZ 00401090 f i ecompile.obj
 0001:000000a0       ?_M_destroy@_STLP_mutex_base@_STL@@QAEXXZ 004010a0 f i ecompile.obj
 0001:000000b0       ??0_STLP_mutex@_STL@@QAE@XZ 004010b0 f i ecompile.obj
 0001:000000c0       ??1_STLP_mutex@_STL@@QAE@XZ 004010c0 f i ecompile.obj
 0001:000000d0       ?to_char_type@?$char_traits@D@_STL@@SADABH@Z 004010d0 f i ecompile.obj
 0001:000000e0       ?to_int_type@?$char_traits@D@_STL@@SAHABD@Z 004010e0 f i ecompile.obj
 0001:000000f0       ?compare@?$char_traits@D@_STL@@SAHPBD0I@Z 004010f0 f i ecompile.obj
 0001:00000110       ?length@?$char_traits@D@_STL@@SAIPBD@Z 00401110 f i ecompile.obj
 0001:00000130       ?assign@?$char_traits@D@_STL@@SAXAADABD@Z 00401130 f i ecompile.obj
 0001:00000140       ??0runtime_error@_STL@@QAE@ABV?$basic_string@DV?$char_traits@D@_STL@@V?$allocator@D@2@@1@@Z 00401140 f i ecompile.obj
 0001:00000160       ??_Eruntime_error@_STL@@UAEPAXI@Z 00401160 f i ecompile.obj
 0001:00000160       ??_Gruntime_error@_STL@@UAEPAXI@Z 00401160 f i ecompile.obj
 0001:00000180       ?is@?$ctype@D@_STL@@QBE_NW4mask@ctype_base@2@D@Z 00401180 f i ecompile.obj
 0001:000001a0       ?widen@?$ctype@D@_STL@@QBEDD@Z 004011a0 f i ecompile.obj
 0001:000001b0       ?flags@ios_base@_STL@@QBEHXZ 004011b0 f i ecompile.obj
 0001:000001c0       ?flags@ios_base@_STL@@QAEHH@Z 004011c0 f i ecompile.obj
 0001:000001d0       ?precision@ios_base@_STL@@QAEHH@Z 004011d0 f i ecompile.obj
 0001:000001e0       ?width@ios_base@_STL@@QBEHXZ 004011e0 f i ecompile.obj
 0001:000001f0       ?width@ios_base@_STL@@QAEHH@Z 004011f0 f i ecompile.obj
 0001:00000200       ?getloc@ios_base@_STL@@QBE?AVlocale@2@XZ 00401200 f i ecompile.obj
 0001:00000220       ?rdstate@ios_base@_STL@@QBEHXZ 00401220 f i ecompile.obj
 0001:00000230       ?good@ios_base@_STL@@QBE_NXZ 00401230 f i ecompile.obj
 0001:00000240       ?fail@ios_base@_STL@@QBE_NXZ 00401240 f i ecompile.obj
 0001:00000250       ?_M_setstate_nothrow@ios_base@_STL@@IAEXH@Z 00401250 f i ecompile.obj
 0001:00000260       ?_M_clear_nothrow@ios_base@_STL@@IAEXH@Z 00401260 f i ecompile.obj
 0001:00000270       ?_M_get_exception_mask@ios_base@_STL@@IBEHXZ 00401270 f i ecompile.obj
 0001:00000280       ?_M_set_exception_mask@ios_base@_STL@@IAEXH@Z 00401280 f i ecompile.obj
 0001:00000290       ?_M_check_exception_mask@ios_base@_STL@@IAEXXZ 00401290 f i ecompile.obj
 0001:000002a0       ?_M_ctype_facet@ios_base@_STL@@QBEPBVfacet@locale@2@XZ 004012a0 f i ecompile.obj
 0001:000002b0       ?_FILE_I_begin@_STL@@YAPADPBU_iobuf@@@Z 004012b0 f i ecompile.obj
 0001:000002c0       ?_FILE_I_next@_STL@@YAPADPBU_iobuf@@@Z 004012c0 f i ecompile.obj
 0001:000002d0       ?_FILE_I_end@_STL@@YAPADPBU_iobuf@@@Z 004012d0 f i ecompile.obj
 0001:000002e0       ?_FILE_I_avail@_STL@@YAHPBU_iobuf@@@Z 004012e0 f i ecompile.obj
 0001:000002f0       ?_FILE_I_postincr@_STL@@YAAADPAU_iobuf@@@Z 004012f0 f i ecompile.obj
 0001:00000300       ?_FILE_I_predecr@_STL@@YAAADPAU_iobuf@@@Z 00401300 f i ecompile.obj
 0001:00000310       ?_FILE_I_bump@_STL@@YAXPAU_iobuf@@H@Z 00401310 f i ecompile.obj
 0001:00000320       ?_FILE_I_set@_STL@@YAXPAU_iobuf@@PAD11@Z 00401320 f i ecompile.obj
 0001:00000340       ?_FILE_O_avail@_STL@@YAHPBU_iobuf@@@Z 00401340 f i ecompile.obj
 0001:00000350       ?_FILE_O_postincr@_STL@@YAAADPAU_iobuf@@@Z 00401350 f i ecompile.obj
 0001:00000360       ?_FILE_O_set@_STL@@YAXPAU_iobuf@@PAD11@Z 00401360 f i ecompile.obj
 0001:00000380       ??0?$basic_streambuf@DV?$char_traits@D@_STL@@@_STL@@IAE@XZ 00401380 f i ecompile.obj
 0001:000003c0       ?gptr@?$basic_streambuf@DV?$char_traits@D@_STL@@@_STL@@IBEPADXZ 004013c0 f i ecompile.obj
 0001:000003d0       ?egptr@?$basic_streambuf@DV?$char_traits@D@_STL@@@_STL@@IBEPADXZ 004013d0 f i ecompile.obj
 0001:000003e0       ?setg@?$basic_streambuf@DV?$char_traits@D@_STL@@@_STL@@IAEXPAD00@Z 004013e0 f i ecompile.obj
 0001:00000400       ?_M_gptr@?$basic_streambuf@DV?$char_traits@D@_STL@@@_STL@@QBEPADXZ 00401400 f i ecompile.obj
 0001:00000410       ?_M_egptr@?$basic_streambuf@DV?$char_traits@D@_STL@@@_STL@@QBEPADXZ 00401410 f i ecompile.obj
 0001:00000420       ?_M_gbump@?$basic_streambuf@DV?$char_traits@D@_STL@@@_STL@@QAEXH@Z 00401420 f i ecompile.obj
 0001:00000430       ?setp@?$basic_streambuf@DV?$char_traits@D@_STL@@@_STL@@IAEXPAD0@Z 00401430 f i ecompile.obj
 0001:00000450       ?pubsync@?$basic_streambuf@DV?$char_traits@D@_STL@@@_STL@@QAEHXZ 00401450 f i ecompile.obj
 0001:00000460       ?sputc@?$basic_streambuf@DV?$char_traits@D@_STL@@@_STL@@QAEHD@Z 00401460 f i ecompile.obj
 0001:000004a0       ?sputn@?$basic_streambuf@DV?$char_traits@D@_STL@@@_STL@@QAEHPBDH@Z 004014a0 f i ecompile.obj
 0001:000004b0       ?_M_sputnc@?$basic_streambuf@DV?$char_traits@D@_STL@@@_STL@@QAEHDH@Z 004014b0 f i ecompile.obj
 0001:000004c0       ?sbumpc@?$basic_streambuf@DV?$char_traits@D@_STL@@@_STL@@QAEHXZ 004014c0 f i ecompile.obj
 0001:000004e0       ?sgetc@?$basic_streambuf@DV?$char_traits@D@_STL@@@_STL@@QAEHXZ 004014e0 f i ecompile.obj
 0001:00000500       ?sputbackc@?$basic_streambuf@DV?$char_traits@D@_STL@@@_STL@@QAEHD@Z 00401500 f i ecompile.obj
 0001:00000540       ??_G?$basic_streambuf@DV?$char_traits@D@_STL@@@_STL@@UAEPAXI@Z 00401540 f i ecompile.obj
 0001:00000540       ??_E?$basic_streambuf@DV?$char_traits@D@_STL@@@_STL@@UAEPAXI@Z 00401540 f i ecompile.obj
 0001:00000560       ?unshift@?$codecvt@DDH@_STL@@QBE?AW4result@codecvt_base@2@AAHPAD1AAPAD@Z 00401560 f i ecompile.obj
 0001:00000570       ?encoding@?$codecvt@DDH@_STL@@QBEHXZ 00401570 f i ecompile.obj
 0001:00000580       ?always_noconv@?$codecvt@DDH@_STL@@QBE_NXZ 00401580 f i ecompile.obj
 0001:00000590       ?max_length@?$codecvt@DDH@_STL@@QBEHXZ 00401590 f i ecompile.obj
 0001:000005a0       ?__is_open@_Filebuf_base@_STL@@QBE_NXZ 004015a0 f i ecompile.obj
 0001:000005b0       ?dir@Package@@QBEABV?$basic_string@DV?$char_traits@D@_STL@@V?$allocator@D@2@@_STL@@XZ 004015b0 f i ecompile.obj
 0001:000005c0       ?setQuiet@Parser@@QAEXH@Z  004015c0 f i ecompile.obj
 0001:000005d0       ?setVerbosityLevel@Compiler@@SAXH@Z 004015d0 f i ecompile.obj
 0001:000005e0       ?setIncludeCompileMode@Compiler@@QAEXXZ 004015e0 f i ecompile.obj
 0001:000005f0       ?GetInstrFunc@Executor@@SAP81@AEXABVInstruction@@@ZABVToken@@@Z 004015f0 f   ecompile.obj
 0001:00000620       ?setting_value@@YA_NPBD@Z  00401620 f   ecompile.obj
 0001:00000640       ?eof@?$__char_traits_base@DH@_STL@@SAHXZ 00401640 f i ecompile.obj
 0001:00000650       ??A?$basic_string@DV?$char_traits@D@_STL@@V?$allocator@D@2@@_STL@@QAEAADI@Z 00401650 f i ecompile.obj
 0001:00000660       ?c_str@?$basic_string@DV?$char_traits@D@_STL@@V?$allocator@D@2@@_STL@@QBEPBDXZ 00401660 f i ecompile.obj
 0001:00000670       ??0?$allocator@D@_STL@@QAE@XZ 00401670 f i ecompile.obj
 0001:00000680       ??1?$allocator@D@_STL@@QAE@XZ 00401680 f i ecompile.obj
 0001:00000690       ?_M_write@?$basic_filebuf@DV?$char_traits@D@_STL@@@_STL@@QAE_NPADH@Z 00401690 f i ecompile.obj
 0001:000006a0       ??1?$basic_istream@DV?$char_traits@D@_STL@@@_STL@@UAE@XZ 004016a0 f i ecompile.obj
 0001:000006b0       ??1?$basic_ios@DV?$char_traits@D@_STL@@@_STL@@UAE@XZ 004016b0 f i ecompile.obj
 0001:000006c0       ??6?$basic_ostream@DV?$char_traits@D@_STL@@@_STL@@QAEAAV01@P6AAAV01@AAV01@@Z@Z 004016c0 f i ecompile.obj
 0001:000006d0       ?size@?$vector@PAVPackage@@V?$allocator@PAVPackage@@@_STL@@@_STL@@QBEIXZ 004016d0 f i ecompile.obj
 0001:000006e0       ?size@?$vector@V?$basic_string@DV?$char_traits@D@_STL@@V?$allocator@D@2@@_STL@@V?$allocator@V?$basic_string@DV?$char_traits@D@_STL@@V?$allocator@D@2@@_STL@@@2@@_STL@@QBEIXZ 004016e0 f i ecompile.obj
 0001:00000700       ??_E?$basic_ios@DV?$char_traits@D@_STL@@@_STL@@UAEPAXI@Z 00401700 f i ecompile.obj
 0001:00000700       ??_G?$basic_ios@DV?$char_traits@D@_STL@@@_STL@@UAEPAXI@Z 00401700 f i ecompile.obj
 0001:00000720       ?begin@?$basic_string@DV?$char_traits@D@_STL@@V?$allocator@D@2@@_STL@@QAEPADXZ 00401720 f i ecompile.obj
 0001:00000730       ?size@?$basic_string@DV?$char_traits@D@_STL@@V?$allocator@D@2@@_STL@@QBEIXZ 00401730 f i ecompile.obj
 0001:00000740       ?is_open@?$basic_filebuf@DV?$char_traits@D@_STL@@@_STL@@QBE_NXZ 00401740 f i ecompile.obj
 0001:00000750       ?open@?$basic_filebuf@DV?$char_traits@D@_STL@@@_STL@@QAEPAV12@PBDH@Z 00401750 f i ecompile.obj
 0001:00000770       ?begin@?$vector@PAVPackage@@V?$allocator@PAVPackage@@@_STL@@@_STL@@QAEPAPAVPackage@@XZ 00401770 f i ecompile.obj
 0001:00000780       ?begin@?$vector@V?$basic_string@DV?$char_traits@D@_STL@@V?$allocator@D@2@@_STL@@V?$allocator@V?$basic_string@DV?$char_traits@D@_STL@@V?$allocator@D@2@@_STL@@@2@@_STL@@QAEPAV?$basic_string@DV?$char_traits@D@_STL@@V?$allocator@D@2@@2@XZ 00401780 f i ecompile.obj
 0001:00000790       ?rdbuf@?$basic_ifstream@DV?$char_traits@D@_STL@@@_STL@@QBEPAV?$basic_filebuf@DV?$char_traits@D@_STL@@@2@XZ 00401790 f i ecompile.obj
 0001:000007a0       ??1?$_STLP_alloc_proxy@PADDV?$allocator@D@_STL@@@_STL@@QAE@XZ 004017a0 f i ecompile.obj
 0001:000007b0       ?copy@?$__char_traits_base@DH@_STL@@SAPADPADPBDI@Z 004017b0 f i ecompile.obj
 0001:000007e0       ?end@?$basic_string@DV?$char_traits@D@_STL@@V?$allocator@D@2@@_STL@@QAEPADXZ 004017e0 f i ecompile.obj
 0001:000007f0       ?max_size@?$_String_base@DV?$allocator@D@_STL@@@_STL@@QBEIXZ 004017f0 f i ecompile.obj
 0001:00000800       ?move@?$__char_traits_base@DH@_STL@@SAPADPADPBDI@Z 00401800 f i ecompile.obj
 0001:00000820       ?rdbuf@?$basic_ios@DV?$char_traits@D@_STL@@@_STL@@QBEPAV?$basic_streambuf@DV?$char_traits@D@_STL@@@2@XZ 00401820 f i ecompile.obj
 0001:00000830       ?deallocate@?$__node_alloc@$00$0A@@_STL@@SAXPAXI@Z 00401830 f i ecompile.obj
 0001:00000860       ??$min@I@_STL@@YAABIABI0@Z 00401860 f i ecompile.obj
 0001:00000880       ??$min@H@_STL@@YAABHABH0@Z 00401880 f i ecompile.obj
 0001:000008a0       ?_M_throw_length_error@?$_String_base@DV?$allocator@D@_STL@@@_STL@@QBEXXZ 004018a0 f i ecompile.obj
 0001:000008b0       ?_M_throw_out_of_range@?$_String_base@DV?$allocator@D@_STL@@@_STL@@QBEXXZ 004018b0 f i ecompile.obj
 0001:000008c0       ??0?$basic_ios@DV?$char_traits@D@_STL@@@_STL@@IAE@XZ 004018c0 f i ecompile.obj
 0001:000008e0       ??1?$basic_ostream@DV?$char_traits@D@_STL@@@_STL@@UAE@XZ 004018e0 f i ecompile.obj
 0001:000008f0       ?eq@?$__char_traits_base@DH@_STL@@SA_NABD0@Z 004018f0 f i ecompile.obj
 0001:00000910       ?eq_int_type@?$__char_traits_base@DH@_STL@@SA_NABH0@Z 00401910 f i ecompile.obj
 0001:00000930       ?data@?$basic_string@DV?$char_traits@D@_STL@@V?$allocator@D@2@@_STL@@QBEPBDXZ 00401930 f i ecompile.obj
 0001:00000940       ?tie@?$basic_ios@DV?$char_traits@D@_STL@@@_STL@@QAEPAV?$basic_ostream@DV?$char_traits@D@_STL@@@2@PAV32@@Z 00401940 f i ecompile.obj
 0001:00000950       ?fill@?$basic_ios@DV?$char_traits@D@_STL@@@_STL@@QBEDXZ 00401950 f i ecompile.obj
 0001:00000960       ?fill@?$basic_ios@DV?$char_traits@D@_STL@@@_STL@@QAEDD@Z 00401960 f i ecompile.obj
 0001:00000970       ??Bsentry@?$basic_ostream@DV?$char_traits@D@_STL@@@_STL@@QBE_NXZ 00401970 f i ecompile.obj
 0001:00000980       ?put@?$num_put@DV?$ostreambuf_iterator@DV?$char_traits@D@_STL@@@_STL@@@_STL@@QBE?AV?$ostreambuf_iterator@DV?$char_traits@D@_STL@@@2@V32@AAVios_base@2@DJ@Z 00401980 f i ecompile.obj
 0001:000009b0       ?put@?$num_put@DV?$ostreambuf_iterator@DV?$char_traits@D@_STL@@@_STL@@@_STL@@QBE?AV?$ostreambuf_iterator@DV?$char_traits@D@_STL@@@2@V32@AAVios_base@2@DK@Z 004019b0 f i ecompile.obj
 0001:000009e0       ?put@?$num_put@DV?$ostreambuf_iterator@DV?$char_traits@D@_STL@@@_STL@@@_STL@@QBE?AV?$ostreambuf_iterator@DV?$char_traits@D@_STL@@@2@V32@AAVios_base@2@DN@Z 004019e0 f i ecompile.obj
 0001:00000a10       ??0?$ostreambuf_iterator@DV?$char_traits@D@_STL@@@_STL@@QAE@PAV?$basic_streambuf@DV?$char_traits@D@_STL@@@1@@Z 00401a10 f i ecompile.obj
 0001:00000a30       ?failed@?$ostreambuf_iterator@DV?$char_traits@D@_STL@@@_STL@@QBE_NXZ 00401a30 f i ecompile.obj
 0001:00000a40       ?_M_terminate_string_aux@?$basic_string@DV?$char_traits@D@_STL@@V?$allocator@D@2@@_STL@@AAEXABU__true_type@2@@Z 00401a40 f i ecompile.obj
 0001:00000a50       ??0?$allocator@D@_STL@@QAE@ABV01@@Z 00401a50 f i ecompile.obj
 0001:00000a60       ??0?$_STLP_alloc_proxy@PADDV?$allocator@D@_STL@@@_STL@@QAE@ABV?$allocator@D@1@PAD@Z 00401a60 f i ecompile.obj
 0001:00000a70       ?allocate@?$__node_alloc@$00$0A@@_STL@@SAPAXI@Z 00401a70 f i ecompile.obj
 0001:00000a90       ?_M_exit_input_mode@?$basic_filebuf@DV?$char_traits@D@_STL@@@_STL@@AAEXXZ 00401a90 f i ecompile.obj
 0001:00000ac0       ?_M_deallocate_buffers@?$basic_filebuf@DV?$char_traits@D@_STL@@@_STL@@AAEXXZ 00401ac0 f i ecompile.obj
 0001:00000b00       ?widen@?$basic_ios@DV?$char_traits@D@_STL@@@_STL@@QBEDD@Z 00401b00 f i ecompile.obj
 0001:00000b10       ?_M_handle_exception@?$basic_ios@DV?$char_traits@D@_STL@@@_STL@@QAEXH@Z 00401b10 f i ecompile.obj
 0001:00000b30       ??$__stlp_string_fill@DV?$char_traits@D@_STL@@@_STL@@YA_NAAV?$basic_ostream@DV?$char_traits@D@_STL@@@0@PAV?$basic_streambuf@DV?$char_traits@D@_STL@@@0@I@Z 00401b30 f i ecompile.obj
 0001:00000b90       ??$use_facet@V?$num_put@DV?$ostreambuf_iterator@DV?$char_traits@D@_STL@@@_STL@@@_STL@@@_STL@@YAABV?$num_put@DV?$ostreambuf_iterator@DV?$char_traits@D@_STL@@@_STL@@@0@ABVlocale@0@@Z 00401b90 f i ecompile.obj
 0001:00000ba0       ?tie@?$basic_ios@DV?$char_traits@D@_STL@@@_STL@@QBEPAV?$basic_ostream@DV?$char_traits@D@_STL@@@2@XZ 00401ba0 f i ecompile.obj
 0001:00000bb0       ?_S_eof@?$basic_ios@DV?$char_traits@D@_STL@@@_STL@@SA_NH@Z 00401bb0 f i ecompile.obj
 0001:00000bc0       ??R?$_Eq_traits@V?$char_traits@D@_STL@@@_STL@@QBE_NABD0@Z 00401bc0 f i ecompile.obj
 0001:00000be0       ??1sentry@?$basic_istream@DV?$char_traits@D@_STL@@@_STL@@QAE@XZ 00401be0 f i ecompile.obj
 0001:00000bf0       ??Bsentry@?$basic_istream@DV?$char_traits@D@_STL@@@_STL@@QBE_NXZ 00401bf0 f i ecompile.obj
 0001:00000c00       ?_M_null@?$basic_string@DV?$char_traits@D@_STL@@V?$allocator@D@2@@_STL@@SADXZ 00401c00 f i ecompile.obj
 0001:00000c10       ?empty@?$basic_string@DV?$char_traits@D@_STL@@V?$allocator@D@2@@_STL@@QBE_NXZ 00401c10 f i ecompile.obj
 0001:00000c20       ?_M_construct_null_aux@?$basic_string@DV?$char_traits@D@_STL@@V?$allocator@D@2@@_STL@@AAEXPADABU__true_type@2@@Z 00401c20 f i ecompile.obj
 0001:00000c30       ?_M_unshift@?$basic_filebuf@DV?$char_traits@D@_STL@@@_STL@@AAE_NXZ 00401c30 f i ecompile.obj
 0001:00000cb0       ??$max@H@_STL@@YAABHABH0@Z 00401cb0 f i ecompile.obj
 0001:00000cd0       ??$use_facet@V?$codecvt@DDH@_STL@@@_STL@@YAABV?$codecvt@DDH@0@ABVlocale@0@@Z 00401cd0 f i ecompile.obj
 0001:00000ce0       ??$max@I@_STL@@YAABIABI0@Z 00401ce0 f i ecompile.obj
 0001:00000d00       ?capacity@?$basic_string@DV?$char_traits@D@_STL@@V?$allocator@D@2@@_STL@@QBEIXZ 00401d00 f i ecompile.obj
 0001:00000d10       ?_M_copy@?$basic_string@DV?$char_traits@D@_STL@@V?$allocator@D@2@@_STL@@AAEXPBD0PAD@Z 00401d10 f i ecompile.obj
 0001:00000d40       ?_M_move@?$basic_string@DV?$char_traits@D@_STL@@V?$allocator@D@2@@_STL@@AAEXPBD0PAD@Z 00401d40 f i ecompile.obj
 0001:00000d60       ??0?$reverse_iterator@PBD@_STL@@QAE@PBD@Z 00401d60 f i ecompile.obj
 0001:00000d70       ??0?$reverse_iterator@PBD@_STL@@QAE@ABV01@@Z 00401d70 f i ecompile.obj
 0001:00000d80       ?base@?$reverse_iterator@PBD@_STL@@QBEPBDXZ 00401d80 f i ecompile.obj
 0001:00000d90       ??$?8PBD@_STL@@YA_NABV?$reverse_iterator@PBD@0@0@Z 00401d90 f i ecompile.obj
 0001:00000db0       ??$_M_inside@PBD@?$basic_string@DV?$char_traits@D@_STL@@V?$allocator@D@2@@_STL@@ABE_NPBD@Z 00401db0 f i ecompile.obj
 0001:00000dd0       ??0?$reverse_iterator@PBD@_STL@@QAE@XZ 00401dd0 f i ecompile.obj
 0001:00000de0       ??4?$reverse_iterator@PBD@_STL@@QAEAAV01@ABV01@@Z 00401de0 f i ecompile.obj
 0001:00000df0       ??D?$reverse_iterator@PBD@_STL@@QBEABDXZ 00401df0 f i ecompile.obj
 0001:00000e00       ??E?$reverse_iterator@PBD@_STL@@QAEAAV01@XZ 00401e00 f i ecompile.obj
 0001:00000e10       ?_Ret@?$_BothPtrType@PADPAD@_STL@@SA?AU__true_type@2@XZ 00401e10 f i ecompile.obj
 0001:00000e20       ??0?$_Is_not_wspace@V?$char_traits@D@_STL@@@_STL@@QAE@PBV?$ctype@D@1@@Z 00401e20 f i ecompile.obj
 0001:00000e30       ??0?$_Scan_for_not_wspace@V?$char_traits@D@_STL@@@_STL@@QAE@PBV?$ctype@D@1@@Z 00401e30 f i ecompile.obj
 0001:00000e40       ??$__distance@PBD@_STL@@YAHABQBD0ABUrandom_access_iterator_tag@0@@Z 00401e40 f i ecompile.obj
 0001:00000e50       ??$__distance@PAD@_STL@@YAHABQAD0ABUrandom_access_iterator_tag@0@@Z 00401e50 f i ecompile.obj
 0001:00000e60       ??$?9PBD@_STL@@YA_NABV?$reverse_iterator@PBD@0@0@Z 00401e60 f i ecompile.obj
 0001:00000e80       ??$__advance@PBDH@_STL@@YAXAAPBDHABUrandom_access_iterator_tag@0@@Z 00401e80 f i ecompile.obj
 0001:00000e90       ??R?$_Is_not_wspace@V?$char_traits@D@_STL@@@_STL@@QBE_ND@Z 00401e90 f i ecompile.obj
 0001:00000eb0       ??R?$_Scan_for_not_wspace@V?$char_traits@D@_STL@@@_STL@@QBEPBDPBD0@Z 00401eb0 f i ecompile.obj
 0001:00000ed0       ?_Ret@?$_OKToMemCpy@DD@_STL@@SA?AU__true_type@2@XZ 00401ed0 f i ecompile.obj
 0001:00000ee0       ??$_IsOKToMemCpy@DD@_STL@@YA?AU?$_OKToMemCpy@DD@0@PAD0@Z 00401ee0 f i ecompile.obj
 0001:00000ef0       ??$__copy_ptrs@PADPAD@_STL@@YAPADPAD00ABU__true_type@0@@Z 00401ef0 f i ecompile.obj
 0001:00000f20       ??Bios_base@_STL@@QBEPAXXZ 00401f20 f i ecompile.obj
 0001:00000f30       ??A?$vector@PAVPackage@@V?$allocator@PAVPackage@@@_STL@@@_STL@@QAEAAPAVPackage@@I@Z 00401f30 f i ecompile.obj
 0001:00000f40       ??A?$vector@V?$basic_string@DV?$char_traits@D@_STL@@V?$allocator@D@2@@_STL@@V?$allocator@V?$basic_string@DV?$char_traits@D@_STL@@V?$allocator@D@2@@_STL@@@2@@_STL@@QAEAAV?$basic_string@DV?$char_traits@D@_STL@@V?$allocator@D@2@@1@I@Z 00401f40 f i ecompile.obj
 0001:00000f50       ?is_open@?$basic_ifstream@DV?$char_traits@D@_STL@@@_STL@@QAE_NXZ 00401f50 f i ecompile.obj
 0001:00000f60       ??_G?$basic_istream@DV?$char_traits@D@_STL@@@_STL@@UAEPAXI@Z 00401f60 f i ecompile.obj
 0001:00000f60       ??_E?$basic_istream@DV?$char_traits@D@_STL@@@_STL@@UAEPAXI@Z 00401f60 f i ecompile.obj
 0001:00000f90       ?max_size@?$basic_string@DV?$char_traits@D@_STL@@V?$allocator@D@2@@_STL@@QBEIXZ 00401f90 f i ecompile.obj
 0001:00000fa0       ?_M_compare@?$basic_string@DV?$char_traits@D@_STL@@V?$allocator@D@2@@_STL@@SAHPBD000@Z 00401fa0 f i ecompile.obj
 0001:00001000       ?erase@?$basic_string@DV?$char_traits@D@_STL@@V?$allocator@D@2@@_STL@@QAEPADPAD0@Z 00402000 f i ecompile.obj
 0001:00001040       ?clear@?$basic_ios@DV?$char_traits@D@_STL@@@_STL@@QAEXH@Z 00402040 f i ecompile.obj
 0001:00001060       ?deallocate@?$allocator@D@_STL@@QAEXPADI@Z 00402060 f i ecompile.obj
 0001:00001090       ??_E?$basic_ostream@DV?$char_traits@D@_STL@@@_STL@@UAEPAXI@Z 00402090 f i ecompile.obj
 0001:00001090       ??_G?$basic_ostream@DV?$char_traits@D@_STL@@@_STL@@UAEPAXI@Z 00402090 f i ecompile.obj
 0001:000010c0       ?get_allocator@?$basic_string@DV?$char_traits@D@_STL@@V?$allocator@D@2@@_STL@@QBE?AV?$allocator@D@2@XZ 004020c0 f i ecompile.obj
 0001:000010d0       ?_M_terminate_string@?$basic_string@DV?$char_traits@D@_STL@@V?$allocator@D@2@@_STL@@AAEXXZ 004020d0 f i ecompile.obj
 0001:000010e0       ??0?$_String_base@DV?$allocator@D@_STL@@@_STL@@QAE@ABV?$allocator@D@1@@Z 004020e0 f i ecompile.obj
 0001:00001110       ?allocate@?$allocator@D@_STL@@QAEPADIPBX@Z 00402110 f i ecompile.obj
 0001:00001140       ?_M_allocate_block@?$_String_base@DV?$allocator@D@_STL@@@_STL@@QAEXI@Z 00402140 f i ecompile.obj
 0001:000011a0       ?close@?$basic_filebuf@DV?$char_traits@D@_STL@@@_STL@@QAEPAV12@XZ 004021a0 f i ecompile.obj
 0001:00001280       ?_M_setup_codecvt@?$basic_filebuf@DV?$char_traits@D@_STL@@@_STL@@AAEXABVlocale@2@@Z 00402280 f i ecompile.obj
 0001:000012f0       ?rdbuf@?$basic_ios@DV?$char_traits@D@_STL@@@_STL@@QAEPAV?$basic_streambuf@DV?$char_traits@D@_STL@@@2@PAV32@@Z 004022f0 f i ecompile.obj
 0001:00001320       ?clear@?$basic_string@DV?$char_traits@D@_STL@@V?$allocator@D@2@@_STL@@QAEXXZ 00402320 f i ecompile.obj
 0001:00001330       ?_M_construct_null@?$basic_string@DV?$char_traits@D@_STL@@V?$allocator@D@2@@_STL@@AAEXPAD@Z 00402330 f i ecompile.obj
 0001:00001340       ??$distance@PBD@_STL@@YAHABQBD0@Z 00402340 f i ecompile.obj
 0001:00001350       ??$distance@PAD@_STL@@YAHABQAD0@Z 00402350 f i ecompile.obj
 0001:00001360       ??$search@V?$reverse_iterator@PBD@_STL@@V12@U?$_Eq_traits@V?$char_traits@D@_STL@@@2@@_STL@@YA?AV?$reverse_iterator@PBD@0@V10@000U?$_Eq_traits@V?$char_traits@D@_STL@@@0@@Z 00402360 f i ecompile.obj
 0001:00001420       ??$advance@PBDH@_STL@@YAXAAPBDH@Z 00402420 f i ecompile.obj
 0001:00001430       ??$__copy_aux@PADPAD@_STL@@YAPADPAD00ABU__true_type@0@@Z 00402430 f i ecompile.obj
 0001:00001460       ?compare@?$basic_string@DV?$char_traits@D@_STL@@V?$allocator@D@2@@_STL@@QBEHPBD@Z 00402460 f i ecompile.obj
 0001:000014d0       ?setstate@?$basic_ios@DV?$char_traits@D@_STL@@@_STL@@QAEXH@Z 004024d0 f i ecompile.obj
 0001:00001500       ?_M_deallocate_block@?$_String_base@DV?$allocator@D@_STL@@@_STL@@QAEXXZ 00402500 f i ecompile.obj
 0001:00001530       ??0?$basic_filebuf@DV?$char_traits@D@_STL@@@_STL@@QAE@XZ 00402530 f i ecompile.obj
 0001:00001640       ?showmanyc@?$basic_filebuf@DV?$char_traits@D@_STL@@@_STL@@MAEHXZ 00402640 f i ecompile.obj
 0001:000016b0       ?underflow@?$basic_filebuf@DV?$char_traits@D@_STL@@@_STL@@MAEHXZ 004026b0 f i ecompile.obj
 0001:000016c0       ?pbackfail@?$basic_filebuf@DV?$char_traits@D@_STL@@@_STL@@MAEHH@Z 004026c0 f i ecompile.obj
 0001:000017b0       ?sync@?$basic_filebuf@DV?$char_traits@D@_STL@@@_STL@@MAEHXZ 004027b0 f i ecompile.obj
 0001:000017d0       ??1?$basic_filebuf@DV?$char_traits@D@_STL@@@_STL@@UAE@XZ 004027d0 f i ecompile.obj
 0001:00001850       ?setbuf@?$basic_filebuf@DV?$char_traits@D@_STL@@@_STL@@MAEPAV?$basic_streambuf@DV?$char_traits@D@_STL@@@2@PADH@Z 00402850 f i ecompile.obj
 0001:000018b0       ?_M_allocate_buffers@?$basic_filebuf@DV?$char_traits@D@_STL@@@_STL@@AAE_NPADH@Z 004028b0 f i ecompile.obj
 0001:00001990       ?seekoff@?$basic_filebuf@DV?$char_traits@D@_STL@@@_STL@@MAE?AV?$fpos@H@2@JHH@Z 00402990 f i ecompile.obj
 0001:00001d20       ??$count@PADD@_STL@@YAHPAD0ABD@Z 00402d20 f i ecompile.obj
 0001:00001d50       ??1?$_Filebuf_Tmp_Buf@D@_STL@@QAE@XZ 00402d50 f i ecompile.obj
 0001:00001d60       ?_M_seek_return@?$basic_filebuf@DV?$char_traits@D@_STL@@@_STL@@AAE?AV?$fpos@H@2@JH@Z 00402d60 f i ecompile.obj
 0001:00001dd0       ?_M_seek_init@?$basic_filebuf@DV?$char_traits@D@_STL@@@_STL@@AAE_N_N@Z 00402dd0 f i ecompile.obj
 0001:00001e40       ?_M_exit_putback_mode@?$basic_filebuf@DV?$char_traits@D@_STL@@@_STL@@AAEXXZ 00402e40 f i ecompile.obj
 0001:00001e70       ?seekpos@?$basic_filebuf@DV?$char_traits@D@_STL@@@_STL@@MAE?AV?$fpos@H@2@V32@H@Z 00402e70 f i ecompile.obj
 0001:00001f40       ?imbue@?$basic_filebuf@DV?$char_traits@D@_STL@@@_STL@@MAEXABVlocale@2@@Z 00402f40 f i ecompile.obj
 0001:00001f60       ??_G?$basic_filebuf@DV?$char_traits@D@_STL@@@_STL@@UAEPAXI@Z 00402f60 f i ecompile.obj
 0001:00001f60       ??_E?$basic_filebuf@DV?$char_traits@D@_STL@@@_STL@@UAEPAXI@Z 00402f60 f i ecompile.obj
 0001:00001f80       ?flush@?$basic_ostream@DV?$char_traits@D@_STL@@@_STL@@QAEAAV12@XZ 00402f80 f i ecompile.obj
 0001:00001fd0       ??1sentry@?$basic_ostream@DV?$char_traits@D@_STL@@@_STL@@QAE@XZ 00402fd0 f i ecompile.obj
 0001:00001ff0       ??0?$_String_base@DV?$allocator@D@_STL@@@_STL@@QAE@ABV?$allocator@D@1@I@Z 00402ff0 f i ecompile.obj
 0001:00002030       ??$_M_init@DV?$char_traits@D@_STL@@@_STL@@YA_NAAV?$basic_ostream@DV?$char_traits@D@_STL@@@0@@Z 00403030 f i ecompile.obj
 0001:00002090       ??$_M_range_initialize@PBD@?$basic_string@DV?$char_traits@D@_STL@@V?$allocator@D@2@@_STL@@AAEXPBD0ABUforward_iterator_tag@1@@Z 00403090 f i ecompile.obj
 0001:000020d0       ??$__find_end@PBDPBDU?$_Eq_traits@V?$char_traits@D@_STL@@@_STL@@@_STL@@YAPBDPBD000ABUbidirectional_iterator_tag@0@1U?$_Eq_traits@V?$char_traits@D@_STL@@@0@@Z 004030d0 f i ecompile.obj
 0001:00002130       ??$_M_init_noskip@DV?$char_traits@D@_STL@@@_STL@@YA_NAAV?$basic_istream@DV?$char_traits@D@_STL@@@0@@Z 00403130 f i ecompile.obj
 0001:000021a0       ??$__uninitialized_copy@PADPAD@_STL@@YAPADPAD00ABU__true_type@0@@Z 004031a0 f i ecompile.obj
 0001:000021d0       ??$_M_ignore_unbuffered@DV?$char_traits@D@_STL@@U?$_Is_not_wspace@V?$char_traits@D@_STL@@@2@@_STL@@YAXPAV?$basic_istream@DV?$char_traits@D@_STL@@@0@PAV?$basic_streambuf@DV?$char_traits@D@_STL@@@0@U?$_Is_not_wspace@V?$char_traits@D@_STL@@@0@_N3@Z 004031d0 f i ecompile.obj
 0001:00002310       ??1?$basic_ofstream@DV?$char_traits@D@_STL@@@_STL@@UAE@XZ 00403310 f i ecompile.obj
 0001:00002380       ??1?$basic_ifstream@DV?$char_traits@D@_STL@@@_STL@@UAE@XZ 00403380 f i ecompile.obj
 0001:000023f0       ??1?$_String_base@DV?$allocator@D@_STL@@@_STL@@QAE@XZ 004033f0 f i ecompile.obj
 0001:00002420       ??0?$basic_string@DV?$char_traits@D@_STL@@V?$allocator@D@2@@_STL@@QAE@XZ 00403420 f i ecompile.obj
 0001:00002490       ?overflow@?$basic_filebuf@DV?$char_traits@D@_STL@@@_STL@@MAEHH@Z 00403490 f i ecompile.obj
 0001:000025c0       ?_M_output_error@?$basic_filebuf@DV?$char_traits@D@_STL@@@_STL@@AAEHXZ 004035c0 f i ecompile.obj
 0001:000025e0       ?_M_switch_to_output_mode@?$basic_filebuf@DV?$char_traits@D@_STL@@@_STL@@AAE_NXZ 004035e0 f i ecompile.obj
 0001:00002660       ??0?$basic_string@DV?$char_traits@D@_STL@@V?$allocator@D@2@@_STL@@QAE@U_String_reserve_t@1@IABV?$allocator@D@1@@Z 00403660 f i ecompile.obj
 0001:00002690       ??0sentry@?$basic_ostream@DV?$char_traits@D@_STL@@@_STL@@QAE@AAV12@@Z 00403690 f i ecompile.obj
 0001:000026b0       ??$_M_range_initialize@PBD@?$basic_string@DV?$char_traits@D@_STL@@V?$allocator@D@2@@_STL@@AAEXPBD0@Z 004036b0 f i ecompile.obj
 0001:000026f0       ??$find_end@PBDPBDU?$_Eq_traits@V?$char_traits@D@_STL@@@_STL@@@_STL@@YAPBDPBD000U?$_Eq_traits@V?$char_traits@D@_STL@@@0@@Z 004036f0 f i ecompile.obj
 0001:00002750       ?_M_put_nowiden@?$basic_ostream@DV?$char_traits@D@_STL@@@_STL@@QAEXPBD@Z 00403750 f i ecompile.obj
 0001:00002910       ?put@?$basic_ostream@DV?$char_traits@D@_STL@@@_STL@@QAEAAV12@D@Z 00403910 f i ecompile.obj
 0001:00002a20       ??$uninitialized_copy@PADPAD@_STL@@YAPADPAD00@Z 00403a20 f i ecompile.obj
 0001:00002a50       ??$append@PAD@?$basic_string@DV?$char_traits@D@_STL@@V?$allocator@D@2@@_STL@@AAEAAV01@PAD0ABUforward_iterator_tag@1@@Z 00403a50 f i ecompile.obj
 0001:00002bb0       ??$_M_ignore_buffered@DV?$char_traits@D@_STL@@U?$_Is_not_wspace@V?$char_traits@D@_STL@@@2@U?$_Scan_for_not_wspace@V?$char_traits@D@_STL@@@2@@_STL@@YAXPAV?$basic_istream@DV?$char_traits@D@_STL@@@0@PAV?$basic_streambuf@DV?$char_traits@D@_STL@@@0@U?$_Is_not_wspace@V?$char_traits@D@_STL@@@0@U?$_Scan_for_not_wspace@V?$char_traits@D@_STL@@@0@_N4@Z 00403bb0 f i ecompile.obj
 0001:00002d20       ??$insert@PBD@?$basic_string@DV?$char_traits@D@_STL@@V?$allocator@D@2@@_STL@@AAEXPADPBD1ABUforward_iterator_tag@1@@Z 00403d20 f i ecompile.obj
 0001:00002f20       ??_D?$basic_ofstream@DV?$char_traits@D@_STL@@@_STL@@QAEXXZ 00403f20 f i ecompile.obj
 0001:00002f40       ??_D?$basic_ifstream@DV?$char_traits@D@_STL@@@_STL@@QAEXXZ 00403f40 f i ecompile.obj
 0001:00002f60       ??1?$basic_string@DV?$char_traits@D@_STL@@V?$allocator@D@2@@_STL@@QAE@XZ 00403f60 f i ecompile.obj
 0001:00002f90       ??_E?$basic_ofstream@DV?$char_traits@D@_STL@@@_STL@@UAEPAXI@Z 00403f90 f i ecompile.obj
 0001:00002f90       ??_G?$basic_ofstream@DV?$char_traits@D@_STL@@@_STL@@UAEPAXI@Z 00403f90 f i ecompile.obj
 0001:00002fd0       ??_G?$basic_ifstream@DV?$char_traits@D@_STL@@@_STL@@UAEPAXI@Z 00403fd0 f i ecompile.obj
 0001:00002fd0       ??_E?$basic_ifstream@DV?$char_traits@D@_STL@@@_STL@@UAEPAXI@Z 00403fd0 f i ecompile.obj
 0001:00003010       ??0?$basic_string@DV?$char_traits@D@_STL@@V?$allocator@D@2@@_STL@@QAE@PBDABV?$allocator@D@1@@Z 00404010 f i ecompile.obj
 0001:000030a0       ?rfind@?$basic_string@DV?$char_traits@D@_STL@@V?$allocator@D@2@@_STL@@QBEIPBDII@Z 004040a0 f i ecompile.obj
 0001:00003120       ??$?6V?$char_traits@D@_STL@@@_STL@@YAAAV?$basic_ostream@DV?$char_traits@D@_STL@@@0@AAV10@PBD@Z 00404120 f i ecompile.obj
 0001:00003140       ??$endl@DV?$char_traits@D@_STL@@@_STL@@YAAAV?$basic_ostream@DV?$char_traits@D@_STL@@@0@AAV10@@Z 00404140 f i ecompile.obj
 0001:000031a0       ??$?6DV?$char_traits@D@_STL@@V?$allocator@D@1@@_STL@@YAAAV?$basic_ostream@DV?$char_traits@D@_STL@@@0@AAV10@ABV?$basic_string@DV?$char_traits@D@_STL@@V?$allocator@D@2@@0@@Z 004041a0 f i ecompile.obj
 0001:000032c0       ??$_M_put_num@DV?$char_traits@D@_STL@@K@_STL@@YAAAV?$basic_ostream@DV?$char_traits@D@_STL@@@0@AAV10@K@Z 004042c0 f i ecompile.obj
 0001:00003400       ??$_M_put_num@DV?$char_traits@D@_STL@@J@_STL@@YAAAV?$basic_ostream@DV?$char_traits@D@_STL@@@0@AAV10@J@Z 00404400 f i ecompile.obj
 0001:00003540       ??$_M_put_num@DV?$char_traits@D@_STL@@N@_STL@@YAAAV?$basic_ostream@DV?$char_traits@D@_STL@@@0@AAV10@N@Z 00404540 f i ecompile.obj
 0001:00003680       ?reserve@?$basic_string@DV?$char_traits@D@_STL@@V?$allocator@D@2@@_STL@@QAEXI@Z 00404680 f i ecompile.obj
 0001:00003750       ??$_M_range_initialize@PAD@?$basic_string@DV?$char_traits@D@_STL@@V?$allocator@D@2@@_STL@@AAEXPAD0ABUforward_iterator_tag@1@@Z 00404750 f i ecompile.obj
 0001:00003790       ??$append@PBD@?$basic_string@DV?$char_traits@D@_STL@@V?$allocator@D@2@@_STL@@AAEAAV01@PBD0ABUforward_iterator_tag@1@@Z 00404790 f i ecompile.obj
 0001:000038f0       ??$_M_append_dispatch@PAD@?$basic_string@DV?$char_traits@D@_STL@@V?$allocator@D@2@@_STL@@AAEAAV01@PAD0ABU__false_type@1@@Z 004048f0 f i ecompile.obj
 0001:00003900       ?_M_skip_whitespace@?$basic_istream@DV?$char_traits@D@_STL@@@_STL@@QAEX_N@Z 00404900 f i ecompile.obj
 0001:00003980       ??$_M_insert_dispatch@PBD@?$basic_string@DV?$char_traits@D@_STL@@V?$allocator@D@2@@_STL@@AAEXPADPBD1ABU__false_type@1@@Z 00404980 f i ecompile.obj
 0001:00003990       ?grouping@?$numpunct@D@_STL@@QBE?AV?$basic_string@DV?$char_traits@D@_STL@@V?$allocator@D@2@@2@XZ 00404990 f i ecompile.obj
 0001:000039b0       ?usage@@YAXXZ              004049b0 f   ecompile.obj
 0001:00003ce0       ?compile_inc@@YAXPBD@Z     00404ce0 f   ecompile.obj
 0001:00003df0       ??0__Named_exception@_STL@@QAE@ABV01@@Z 00404df0 f i ecompile.obj
 0001:00003e20       ??_G__Named_exception@_STL@@UAEPAXI@Z 00404e20 f i ecompile.obj
 0001:00003e20       ??_E__Named_exception@_STL@@UAEPAXI@Z 00404e20 f i ecompile.obj
 0001:00003e40       ??0runtime_error@_STL@@QAE@ABV01@@Z 00404e40 f i ecompile.obj
 0001:00003e70       ?rfind@?$basic_string@DV?$char_traits@D@_STL@@V?$allocator@D@2@@_STL@@QBEIPBDI@Z 00404e70 f i ecompile.obj
 0001:00003ea0       ??6?$basic_ostream@DV?$char_traits@D@_STL@@@_STL@@QAEAAV01@I@Z 00404ea0 f i ecompile.obj
 0001:00003ec0       ??6?$basic_ostream@DV?$char_traits@D@_STL@@@_STL@@QAEAAV01@J@Z 00404ec0 f i ecompile.obj
 0001:00003ee0       ??6?$basic_ostream@DV?$char_traits@D@_STL@@@_STL@@QAEAAV01@K@Z 00404ee0 f i ecompile.obj
 0001:00003f00       ??6?$basic_ostream@DV?$char_traits@D@_STL@@@_STL@@QAEAAV01@N@Z 00404f00 f i ecompile.obj
 0001:00003f20       ??$_M_range_initialize@PAD@?$basic_string@DV?$char_traits@D@_STL@@V?$allocator@D@2@@_STL@@AAEXPAD0@Z 00404f20 f i ecompile.obj
 0001:00003f60       ??$_M_initialize_dispatch@PAD@?$basic_string@DV?$char_traits@D@_STL@@V?$allocator@D@2@@_STL@@AAEXPAD0ABU__false_type@1@@Z 00404f60 f i ecompile.obj
 0001:00003fa0       ??$_M_append_dispatch@PBD@?$basic_string@DV?$char_traits@D@_STL@@V?$allocator@D@2@@_STL@@AAEAAV01@PBD0ABU__false_type@1@@Z 00404fa0 f i ecompile.obj
 0001:00003fb0       ??$append@PAD@?$basic_string@DV?$char_traits@D@_STL@@V?$allocator@D@2@@_STL@@QAEAAV01@PAD0@Z 00404fb0 f i ecompile.obj
 0001:00003fd0       ?push_back@?$basic_string@DV?$char_traits@D@_STL@@V?$allocator@D@2@@_STL@@QAEXD@Z 00404fd0 f i ecompile.obj
 0001:00004030       ??$_M_init_skip@DV?$char_traits@D@_STL@@@_STL@@YA_NAAV?$basic_istream@DV?$char_traits@D@_STL@@@0@@Z 00405030 f i ecompile.obj
 0001:00004090       ??$insert@PBD@?$basic_string@DV?$char_traits@D@_STL@@V?$allocator@D@2@@_STL@@QAEXPADPBD1@Z 00405090 f i ecompile.obj
 0001:000040b0       ??$replace@PBD@?$basic_string@DV?$char_traits@D@_STL@@V?$allocator@D@2@@_STL@@AAEAAV01@PAD0PBD1ABUforward_iterator_tag@1@@Z 004050b0 f i ecompile.obj
 0001:00004150       ??0?$basic_string@DV?$char_traits@D@_STL@@V?$allocator@D@2@@_STL@@QAE@ABV01@@Z 00405150 f i ecompile.obj
 0001:000041d0       ??$?0PAD@?$basic_string@DV?$char_traits@D@_STL@@V?$allocator@D@2@@_STL@@QAE@PAD0ABV?$allocator@D@1@@Z 004051d0 f i ecompile.obj
 0001:00004250       ??$append@PBD@?$basic_string@DV?$char_traits@D@_STL@@V?$allocator@D@2@@_STL@@QAEAAV01@PBD0@Z 00405250 f i ecompile.obj
 0001:00004270       ?append@?$basic_string@DV?$char_traits@D@_STL@@V?$allocator@D@2@@_STL@@QAEAAV12@ABV12@@Z 00405270 f i ecompile.obj
 0001:00004290       ??$_M_assign_dispatch@PAD@?$basic_string@DV?$char_traits@D@_STL@@V?$allocator@D@2@@_STL@@AAEAAV01@PAD0ABU__false_type@1@@Z 00405290 f i ecompile.obj
 0001:00004300       ??0sentry@?$basic_istream@DV?$char_traits@D@_STL@@@_STL@@QAE@AAV12@_N@Z 00405300 f i ecompile.obj
 0001:00004340       ??$replace@PBD@?$basic_string@DV?$char_traits@D@_STL@@V?$allocator@D@2@@_STL@@AAEAAV01@PAD0PBD1ABUrandom_access_iterator_tag@1@@Z 00405340 f i ecompile.obj
 0001:00004470       ?substr@?$basic_string@DV?$char_traits@D@_STL@@V?$allocator@D@2@@_STL@@QBE?AV12@II@Z 00405470 f i ecompile.obj
 0001:000044e0       ?assign@?$basic_string@DV?$char_traits@D@_STL@@V?$allocator@D@2@@_STL@@QAEAAV12@PBD0@Z 004054e0 f i ecompile.obj
 0001:00004580       ??$?HDV?$char_traits@D@_STL@@V?$allocator@D@1@@_STL@@YA?AV?$basic_string@DV?$char_traits@D@_STL@@V?$allocator@D@2@@0@PBDABV10@@Z 00405580 f i ecompile.obj
 0001:00004690       ??$?HDV?$char_traits@D@_STL@@V?$allocator@D@1@@_STL@@YA?AV?$basic_string@DV?$char_traits@D@_STL@@V?$allocator@D@2@@0@ABV10@0@Z 00405690 f i ecompile.obj
 0001:00004790       ??$?HDV?$char_traits@D@_STL@@V?$allocator@D@1@@_STL@@YA?AV?$basic_string@DV?$char_traits@D@_STL@@V?$allocator@D@2@@0@ABV10@PBD@Z 00405790 f i ecompile.obj
 0001:000048a0       ??$assign@PAD@?$basic_string@DV?$char_traits@D@_STL@@V?$allocator@D@2@@_STL@@QAEAAV01@PAD0@Z 004058a0 f i ecompile.obj
 0001:000048c0       ??$getline@DV?$char_traits@D@_STL@@V?$allocator@D@2@@_STL@@YAAAV?$basic_istream@DV?$char_traits@D@_STL@@@0@AAV10@AAV?$basic_string@DV?$char_traits@D@_STL@@V?$allocator@D@2@@0@D@Z 004058c0 f i ecompile.obj
 0001:000049f0       ??$_M_replace_dispatch@PBD@?$basic_string@DV?$char_traits@D@_STL@@V?$allocator@D@2@@_STL@@AAEAAV01@PAD0PBD1ABU__false_type@1@@Z 004059f0 f i ecompile.obj
 0001:00004a00       ?read_config_file@@YAXHQAPAD@Z 00405a00 f   ecompile.obj
 0001:00004c60       ??4?$basic_string@DV?$char_traits@D@_STL@@V?$allocator@D@2@@_STL@@QAEAAV01@ABV01@@Z 00405c60 f i ecompile.obj
 0001:00004c90       ?assign@?$basic_string@DV?$char_traits@D@_STL@@V?$allocator@D@2@@_STL@@QAEAAV12@PBD@Z 00405c90 f i ecompile.obj
 0001:00004cc0       ??$getline@DV?$char_traits@D@_STL@@V?$allocator@D@2@@_STL@@YAAAV?$basic_istream@DV?$char_traits@D@_STL@@@0@AAV10@AAV?$basic_string@DV?$char_traits@D@_STL@@V?$allocator@D@2@@0@@Z 00405cc0 f i ecompile.obj
 0001:00004cf0       ??$replace@PBD@?$basic_string@DV?$char_traits@D@_STL@@V?$allocator@D@2@@_STL@@QAEAAV01@PAD0PBD1@Z 00405cf0 f i ecompile.obj
 0001:00004d20       ?imbue@?$basic_ios@DV?$char_traits@D@_STL@@@_STL@@QAE?AVlocale@2@ABV32@@Z 00405d20 f i ecompile.obj
 0001:00004e30       ?readargs@@YAHHPAPAD@Z     00405e30 f   ecompile.obj
 0001:00005220       ?replace@?$basic_string@DV?$char_traits@D@_STL@@V?$allocator@D@2@@_STL@@QAEAAV12@IIPBD@Z 00406220 f i ecompile.obj
 0001:000052d0       ?init@?$basic_ios@DV?$char_traits@D@_STL@@@_STL@@IAEXPAV?$basic_streambuf@DV?$char_traits@D@_STL@@@2@@Z 004062d0 f i ecompile.obj
 0001:00005390       ??0?$basic_ostream@DV?$char_traits@D@_STL@@@_STL@@QAE@PAV?$basic_streambuf@DV?$char_traits@D@_STL@@@1@@Z 00406390 f i ecompile.obj
 0001:00005420       ??0?$basic_ofstream@DV?$char_traits@D@_STL@@@_STL@@QAE@PBDH@Z 00406420 f i ecompile.obj
 0001:00005520       ??0?$basic_istream@DV?$char_traits@D@_STL@@@_STL@@QAE@PAV?$basic_streambuf@DV?$char_traits@D@_STL@@@1@@Z 00406520 f i ecompile.obj
 0001:000055b0       ?generate_wordlist@@YAXXZ  004065b0 f   ecompile.obj
 0001:00005660       ??0?$basic_ifstream@DV?$char_traits@D@_STL@@@_STL@@QAE@PBDH@Z 00406660 f i ecompile.obj
 0001:00005770       ?compile_file@@YA_NPBD@Z   00406770 f   ecompile.obj
 0001:00006240       ?compile_file_wrapper@@YAXPBD@Z 00407240 f   ecompile.obj
 0001:000062e0       ?recurse_compile@@YAXV?$basic_string@DV?$char_traits@D@_STL@@V?$allocator@D@2@@_STL@@@Z 004072e0 f   ecompile.obj
 0001:00006800       ?recurse_compile_inc@@YAXV?$basic_string@DV?$char_traits@D@_STL@@V?$allocator@D@2@@_STL@@@Z 00407800 f   ecompile.obj
 0001:00006ad0       ?AutoCompile@@YAXXZ        00407ad0 f   ecompile.obj
 0001:00006b60       ?run@@YA_NHPAPAD@Z         00407b60 f   ecompile.obj
 0001:00006f70       ?xmain@@YAHHQAPAD@Z        00407f70 f   ecompile.obj
 0001:00007070       ?provides_system_home_page@Package@@QBE_NXZ 00408070 f   plib:pkg.obj
 0001:00007080       ??2@YAPAXIPAX@Z            00408080 f i plib:pkg.obj
 0001:00007090       ??3@YAXPAX0@Z              00408090 f i plib:pkg.obj
 0001:000070a0       ?__set@__ptr_base@_STL@@QAEXPAX@Z 004080a0 f i plib:pkg.obj
 0001:000070b0       ??A?$basic_string@DV?$char_traits@D@_STL@@V?$allocator@D@2@@_STL@@QBEABDI@Z 004080b0 f i plib:pkg.obj
 0001:000070c0       ?size@?$vector@UElem@PackageList@@V?$allocator@UElem@PackageList@@@_STL@@@_STL@@QBEIXZ 004080c0 f i plib:pkg.obj
 0001:000070e0       ??0?$allocator@UElem@PackageList@@@_STL@@QAE@XZ 004080e0 f i plib:pkg.obj
 0001:000070f0       ??1?$allocator@UElem@PackageList@@@_STL@@QAE@XZ 004080f0 f i plib:pkg.obj
 0001:00007100       ?end@?$vector@PAVPackage@@V?$allocator@PAVPackage@@@_STL@@@_STL@@QAEPAPAVPackage@@XZ 00408100 f i plib:pkg.obj
 0001:00007110       ??0?$allocator@PAVPackage@@@_STL@@QAE@XZ 00408110 f i plib:pkg.obj
 0001:00007120       ??1?$allocator@PAVPackage@@@_STL@@QAE@XZ 00408120 f i plib:pkg.obj
 0001:00007130       ??0?$_Rb_tree_iterator@U?$pair@$$CBV?$basic_string@DV?$char_traits@D@_STL@@V?$allocator@D@2@@_STL@@PAVPackage@@@_STL@@U?$_Nonconst_traits@U?$pair@$$CBV?$basic_string@DV?$char_traits@D@_STL@@V?$allocator@D@2@@_STL@@PAVPackage@@@_STL@@@2@@_STL@@QAE@ABU01@@Z 00408130 f i plib:pkg.obj
 0001:00007140       ??D?$_Rb_tree_iterator@U?$pair@$$CBV?$basic_string@DV?$char_traits@D@_STL@@V?$allocator@D@2@@_STL@@PAVPackage@@@_STL@@U?$_Nonconst_traits@U?$pair@$$CBV?$basic_string@DV?$char_traits@D@_STL@@V?$allocator@D@2@@_STL@@PAVPackage@@@_STL@@@2@@_STL@@QBEAAU?$pair@$$CBV?$basic_string@DV?$char_traits@D@_STL@@V?$allocator@D@2@@_STL@@PAVPackage@@@1@XZ 00408140 f i plib:pkg.obj
 0001:00007150       ??E?$_Rb_tree_iterator@U?$pair@$$CBV?$basic_string@DV?$char_traits@D@_STL@@V?$allocator@D@2@@_STL@@PAVPackage@@@_STL@@U?$_Nonconst_traits@U?$pair@$$CBV?$basic_string@DV?$char_traits@D@_STL@@V?$allocator@D@2@@_STL@@PAVPackage@@@_STL@@@2@@_STL@@QAEAAU01@XZ 00408150 f i plib:pkg.obj
 0001:00007170       ?get@?$auto_ptr@VPackage@@@_STL@@QBEPAVPackage@@XZ 00408170 f i plib:pkg.obj
 0001:00007180       ??C?$auto_ptr@VPackage@@@_STL@@QBEPAVPackage@@XZ 00408180 f i plib:pkg.obj
 0001:00007190       ??0?$auto_ptr@VPackage@@@_STL@@QAE@PAVPackage@@@Z 00408190 f i plib:pkg.obj
 0001:000071a0       ?begin@?$vector@UElem@PackageList@@V?$allocator@UElem@PackageList@@@_STL@@@_STL@@QBEPBUElem@PackageList@@XZ 004081a0 f i plib:pkg.obj
 0001:000071b0       ??0?$allocator@U?$pair@$$CBV?$basic_string@DV?$char_traits@D@_STL@@V?$allocator@D@2@@_STL@@PAVPackage@@@_STL@@@_STL@@QAE@XZ 004081b0 f i plib:pkg.obj
 0001:000071c0       ??1?$allocator@U?$pair@$$CBV?$basic_string@DV?$char_traits@D@_STL@@V?$allocator@D@2@@_STL@@PAVPackage@@@_STL@@@_STL@@QAE@XZ 004081c0 f i plib:pkg.obj
 0001:000071d0       ??1?$_STLP_alloc_proxy@PAUElem@PackageList@@U12@V?$allocator@UElem@PackageList@@@_STL@@@_STL@@QAE@XZ 004081d0 f i plib:pkg.obj
 0001:000071e0       ??1?$_STLP_alloc_proxy@PAPAVPackage@@PAV1@V?$allocator@PAVPackage@@@_STL@@@_STL@@QAE@XZ 004081e0 f i plib:pkg.obj
 0001:000071f0       ?_M_set@?$vector@UElem@PackageList@@V?$allocator@UElem@PackageList@@@_STL@@@_STL@@IAEXPAUElem@PackageList@@00@Z 004081f0 f i plib:pkg.obj
 0001:00007210       ?_M_set@?$vector@PAVPackage@@V?$allocator@PAVPackage@@@_STL@@@_STL@@IAEXPAPAVPackage@@00@Z 00408210 f i plib:pkg.obj
 0001:00007230       ?_M_root@?$_Rb_tree@V?$basic_string@DV?$char_traits@D@_STL@@V?$allocator@D@2@@_STL@@U?$pair@$$CBV?$basic_string@DV?$char_traits@D@_STL@@V?$allocator@D@2@@_STL@@PAVPackage@@@2@U?$_Select1st@U?$pair@$$CBV?$basic_string@DV?$char_traits@D@_STL@@V?$allocator@D@2@@_STL@@PAVPackage@@@_STL@@@2@Vci_cmp_pred@@V?$allocator@U?$pair@$$CBV?$basic_string@DV?$char_traits@D@_STL@@V?$allocator@D@2@@_STL@@PAVPackage@@@_STL@@@2@@_STL@@IBEAAPAU?$_Rb_tree_node@U?$pair@$$CBV?$basic_string@DV?$char_traits@D@_STL@@V?$allocator@D@2@@_STL@@PAVPackage@@@_STL@@@2@XZ 00408230 f i plib:pkg.obj
 0001:00007240       ?_M_leftmost@?$_Rb_tree@V?$basic_string@DV?$char_traits@D@_STL@@V?$allocator@D@2@@_STL@@U?$pair@$$CBV?$basic_string@DV?$char_traits@D@_STL@@V?$allocator@D@2@@_STL@@PAVPackage@@@2@U?$_Select1st@U?$pair@$$CBV?$basic_string@DV?$char_traits@D@_STL@@V?$allocator@D@2@@_STL@@PAVPackage@@@_STL@@@2@Vci_cmp_pred@@V?$allocator@U?$pair@$$CBV?$basic_string@DV?$char_traits@D@_STL@@V?$allocator@D@2@@_STL@@PAVPackage@@@_STL@@@2@@_STL@@IBEAAPAU?$_Rb_tree_node@U?$pair@$$CBV?$basic_string@DV?$char_traits@D@_STL@@V?$allocator@D@2@@_STL@@PAVPackage@@@_STL@@@2@XZ 00408240 f i plib:pkg.obj
 0001:00007250       ?_M_rightmost@?$_Rb_tree@V?$basic_string@DV?$char_traits@D@_STL@@V?$allocator@D@2@@_STL@@U?$pair@$$CBV?$basic_string@DV?$char_traits@D@_STL@@V?$allocator@D@2@@_STL@@PAVPackage@@@2@U?$_Select1st@U?$pair@$$CBV?$basic_string@DV?$char_traits@D@_STL@@V?$allocator@D@2@@_STL@@PAVPackage@@@_STL@@@2@Vci_cmp_pred@@V?$allocator@U?$pair@$$CBV?$basic_string@DV?$char_traits@D@_STL@@V?$allocator@D@2@@_STL@@PAVPackage@@@_STL@@@2@@_STL@@IBEAAPAU?$_Rb_tree_node@U?$pair@$$CBV?$basic_string@DV?$char_traits@D@_STL@@V?$allocator@D@2@@_STL@@PAVPackage@@@_STL@@@2@XZ 00408250 f i plib:pkg.obj
 0001:00007260       ??1?$allocator@U?$_Rb_tree_node@U?$pair@$$CBV?$basic_string@DV?$char_traits@D@_STL@@V?$allocator@D@2@@_STL@@PAVPackage@@@_STL@@@_STL@@@_STL@@QAE@XZ 00408260 f i plib:pkg.obj
 0001:00007270       ??0?$_Rb_tree_iterator@U?$pair@$$CBV?$basic_string@DV?$char_traits@D@_STL@@V?$allocator@D@2@@_STL@@PAVPackage@@@_STL@@U?$_Nonconst_traits@U?$pair@$$CBV?$basic_string@DV?$char_traits@D@_STL@@V?$allocator@D@2@@_STL@@PAVPackage@@@_STL@@@2@@_STL@@QAE@PAU?$_Rb_tree_node@U?$pair@$$CBV?$basic_string@DV?$char_traits@D@_STL@@V?$allocator@D@2@@_STL@@PAVPackage@@@_STL@@@1@@Z 00408270 f i plib:pkg.obj
 0001:00007280       ??0?$allocator@UElem@PackageList@@@_STL@@QAE@ABV01@@Z 00408280 f i plib:pkg.obj
 0001:00007290       ??0?$allocator@PAVPackage@@@_STL@@QAE@ABV01@@Z 00408290 f i plib:pkg.obj
 0001:000072a0       ??8_Rb_tree_base_iterator@_STL@@QBE_NABU01@@Z 004082a0 f i plib:pkg.obj
 0001:000072b0       ?_S_color@?$_Rb_tree@V?$basic_string@DV?$char_traits@D@_STL@@V?$allocator@D@2@@_STL@@U?$pair@$$CBV?$basic_string@DV?$char_traits@D@_STL@@V?$allocator@D@2@@_STL@@PAVPackage@@@2@U?$_Select1st@U?$pair@$$CBV?$basic_string@DV?$char_traits@D@_STL@@V?$allocator@D@2@@_STL@@PAVPackage@@@_STL@@@2@Vci_cmp_pred@@V?$allocator@U?$pair@$$CBV?$basic_string@DV?$char_traits@D@_STL@@V?$allocator@D@2@@_STL@@PAVPackage@@@_STL@@@2@@_STL@@KAAA_NPAU?$_Rb_tree_node@U?$pair@$$CBV?$basic_string@DV?$char_traits@D@_STL@@V?$allocator@D@2@@_STL@@PAVPackage@@@_STL@@@2@@Z 004082b0 f i plib:pkg.obj
 0001:000072c0       ??9_Rb_tree_base_iterator@_STL@@QBE_NABU01@@Z 004082c0 f i plib:pkg.obj
 0001:000072e0       ??0?$allocator@U?$_Rb_tree_node@U?$pair@$$CBV?$basic_string@DV?$char_traits@D@_STL@@V?$allocator@D@2@@_STL@@PAVPackage@@@_STL@@@_STL@@@_STL@@QAE@ABV01@@Z 004082e0 f i plib:pkg.obj
 0001:000072f0       ??Rci_cmp_pred@@QBE_NABV?$basic_string@DV?$char_traits@D@_STL@@V?$allocator@D@2@@_STL@@0@Z 004082f0 f i plib:pkg.obj
 0001:00007320       ?name@Package@@QBEABV?$basic_string@DV?$char_traits@D@_STL@@V?$allocator@D@2@@_STL@@XZ 00408320 f i plib:pkg.obj
 0001:00007330       ?version@Package@@QBEABV?$basic_string@DV?$char_traits@D@_STL@@V?$allocator@D@2@@_STL@@XZ 00408330 f i plib:pkg.obj
 0001:00007340       ??$ForEach@V?$vector@PAVPackage@@V?$allocator@PAVPackage@@@_STL@@@_STL@@PAVPackage@@@@YAXAAV?$vector@PAVPackage@@V?$allocator@PAVPackage@@@_STL@@@_STL@@P6AXPAVPackage@@@Z@Z 00408340 f i plib:pkg.obj
 0001:00007370       ??$_Construct@PAVPackage@@PAV1@@_STL@@YAXPAPAVPackage@@ABQAV1@@Z 00408370 f i plib:pkg.obj
 0001:00007390       ??$__copy_ptrs@PAPAVPackage@@PAPAV1@@_STL@@YAPAPAVPackage@@PAPAV1@00ABU__true_type@0@@Z 00408390 f i plib:pkg.obj
 0001:000073c0       ??$_Destroy@PAVPackage@@@_STL@@YAXPAPAVPackage@@@Z 004083c0 f i plib:pkg.obj
 0001:000073d0       ??$fill_n@PAPAVPackage@@IPAV1@@_STL@@YAPAPAVPackage@@PAPAV1@IABQAV1@@Z 004083d0 f i plib:pkg.obj
 0001:000073f0       ??$?0U?$pair@$$CBV?$basic_string@DV?$char_traits@D@_STL@@V?$allocator@D@2@@_STL@@PAVPackage@@@_STL@@@?$allocator@U?$_Rb_tree_node@U?$pair@$$CBV?$basic_string@DV?$char_traits@D@_STL@@V?$allocator@D@2@@_STL@@PAVPackage@@@_STL@@@_STL@@@_STL@@QAE@ABV?$allocator@U?$pair@$$CBV?$basic_string@DV?$char_traits@D@_STL@@V?$allocator@D@2@@_STL@@PAVPackage@@@_STL@@@1@@Z 004083f0 f i plib:pkg.obj
 0001:00007400       ?empty@?$vector@PAVPackage@@V?$allocator@PAVPackage@@@_STL@@@_STL@@QBE_NXZ 00408400 f i plib:pkg.obj
 0001:00007410       ?back@?$vector@PAVPackage@@V?$allocator@PAVPackage@@@_STL@@@_STL@@QAEAAPAVPackage@@XZ 00408410 f i plib:pkg.obj
 0001:00007420       ?pop_back@?$vector@PAVPackage@@V?$allocator@PAVPackage@@@_STL@@@_STL@@QAEXXZ 00408420 f i plib:pkg.obj
 0001:00007430       ?_S_left@?$_Rb_tree@V?$basic_string@DV?$char_traits@D@_STL@@V?$allocator@D@2@@_STL@@U?$pair@$$CBV?$basic_string@DV?$char_traits@D@_STL@@V?$allocator@D@2@@_STL@@PAVPackage@@@2@U?$_Select1st@U?$pair@$$CBV?$basic_string@DV?$char_traits@D@_STL@@V?$allocator@D@2@@_STL@@PAVPackage@@@_STL@@@2@Vci_cmp_pred@@V?$allocator@U?$pair@$$CBV?$basic_string@DV?$char_traits@D@_STL@@V?$allocator@D@2@@_STL@@PAVPackage@@@_STL@@@2@@_STL@@KAAAPAU?$_Rb_tree_node@U?$pair@$$CBV?$basic_string@DV?$char_traits@D@_STL@@V?$allocator@D@2@@_STL@@PAVPackage@@@_STL@@@2@PAU32@@Z 00408430 f i plib:pkg.obj
 0001:00007440       ?_S_right@?$_Rb_tree@V?$basic_string@DV?$char_traits@D@_STL@@V?$allocator@D@2@@_STL@@U?$pair@$$CBV?$basic_string@DV?$char_traits@D@_STL@@V?$allocator@D@2@@_STL@@PAVPackage@@@2@U?$_Select1st@U?$pair@$$CBV?$basic_string@DV?$char_traits@D@_STL@@V?$allocator@D@2@@_STL@@PAVPackage@@@_STL@@@2@Vci_cmp_pred@@V?$allocator@U?$pair@$$CBV?$basic_string@DV?$char_traits@D@_STL@@V?$allocator@D@2@@_STL@@PAVPackage@@@_STL@@@2@@_STL@@KAAAPAU?$_Rb_tree_node@U?$pair@$$CBV?$basic_string@DV?$char_traits@D@_STL@@V?$allocator@D@2@@_STL@@PAVPackage@@@_STL@@@2@PAU32@@Z 00408440 f i plib:pkg.obj
 0001:00007450       ??F?$_Rb_tree_iterator@U?$pair@$$CBV?$basic_string@DV?$char_traits@D@_STL@@V?$allocator@D@2@@_STL@@PAVPackage@@@_STL@@U?$_Nonconst_traits@U?$pair@$$CBV?$basic_string@DV?$char_traits@D@_STL@@V?$allocator@D@2@@_STL@@PAVPackage@@@_STL@@@2@@_STL@@QAEAAU01@XZ 00408450 f i plib:pkg.obj
 0001:00007470       ??0?$binder2nd@U?$equal_to@PAVPackage@@@_STL@@@_STL@@QAE@ABU?$equal_to@PAVPackage@@@1@ABQAVPackage@@@Z 00408470 f i plib:pkg.obj
 0001:00007480       ??0?$pair@U?$_Rb_tree_iterator@U?$pair@$$CBV?$basic_string@DV?$char_traits@D@_STL@@V?$allocator@D@2@@_STL@@PAVPackage@@@_STL@@U?$_Nonconst_traits@U?$pair@$$CBV?$basic_string@DV?$char_traits@D@_STL@@V?$allocator@D@2@@_STL@@PAVPackage@@@_STL@@@2@@_STL@@_N@_STL@@QAE@ABU?$_Rb_tree_iterator@U?$pair@$$CBV?$basic_string@DV?$char_traits@D@_STL@@V?$allocator@D@2@@_STL@@PAVPackage@@@_STL@@U?$_Nonconst_traits@U?$pair@$$CBV?$basic_string@DV?$char_traits@D@_STL@@V?$allocator@D@2@@_STL@@PAVPackage@@@_STL@@@2@@1@AB_N@Z 00408480 f i plib:pkg.obj
 0001:000074a0       ??0?$_Eq_char_bound@V?$char_traits@D@_STL@@@_STL@@QAE@D@Z 004084a0 f i plib:pkg.obj
 0001:000074b0       ??R?$_Select1st@U?$pair@$$CBV?$basic_string@DV?$char_traits@D@_STL@@V?$allocator@D@2@@_STL@@PAVPackage@@@_STL@@@_STL@@QBEABV?$basic_string@DV?$char_traits@D@_STL@@V?$allocator@D@2@@1@ABU?$pair@$$CBV?$basic_string@DV?$char_traits@D@_STL@@V?$allocator@D@2@@_STL@@PAVPackage@@@1@@Z 004084b0 f i plib:pkg.obj
 0001:000074c0       ?_S_value@?$_Rb_tree@V?$basic_string@DV?$char_traits@D@_STL@@V?$allocator@D@2@@_STL@@U?$pair@$$CBV?$basic_string@DV?$char_traits@D@_STL@@V?$allocator@D@2@@_STL@@PAVPackage@@@2@U?$_Select1st@U?$pair@$$CBV?$basic_string@DV?$char_traits@D@_STL@@V?$allocator@D@2@@_STL@@PAVPackage@@@_STL@@@2@Vci_cmp_pred@@V?$allocator@U?$pair@$$CBV?$basic_string@DV?$char_traits@D@_STL@@V?$allocator@D@2@@_STL@@PAVPackage@@@_STL@@@2@@_STL@@KAAAU?$pair@$$CBV?$basic_string@DV?$char_traits@D@_STL@@V?$allocator@D@2@@_STL@@PAVPackage@@@2@PAU?$_Rb_tree_node@U?$pair@$$CBV?$basic_string@DV?$char_traits@D@_STL@@V?$allocator@D@2@@_STL@@PAVPackage@@@_STL@@@2@@Z 004084c0 f i plib:pkg.obj
 0001:000074d0       ?_S_parent@?$_Rb_tree@V?$basic_string@DV?$char_traits@D@_STL@@V?$allocator@D@2@@_STL@@U?$pair@$$CBV?$basic_string@DV?$char_traits@D@_STL@@V?$allocator@D@2@@_STL@@PAVPackage@@@2@U?$_Select1st@U?$pair@$$CBV?$basic_string@DV?$char_traits@D@_STL@@V?$allocator@D@2@@_STL@@PAVPackage@@@_STL@@@2@Vci_cmp_pred@@V?$allocator@U?$pair@$$CBV?$basic_string@DV?$char_traits@D@_STL@@V?$allocator@D@2@@_STL@@PAVPackage@@@_STL@@@2@@_STL@@KAAAPAU?$_Rb_tree_node@U?$pair@$$CBV?$basic_string@DV?$char_traits@D@_STL@@V?$allocator@D@2@@_STL@@PAVPackage@@@_STL@@@2@PAU32@@Z 004084d0 f i plib:pkg.obj
 0001:000074e0       ??R?$equal_to@PAVPackage@@@_STL@@QBE_NABQAVPackage@@0@Z 004084e0 f i plib:pkg.obj
 0001:00007500       ?_M_set_ptrs@?$basic_stringbuf@DV?$char_traits@D@_STL@@V?$allocator@D@2@@_STL@@AAEXXZ 00408500 f i plib:pkg.obj
 0001:00007560       ??$__destroy_aux@PAPAVPackage@@@_STL@@YAXPAPAVPackage@@0ABU__true_type@0@@Z 00408560 f i plib:pkg.obj
 0001:00007570       ??R?$_Eq_char_bound@V?$char_traits@D@_STL@@@_STL@@QBE_NABD@Z 00408570 f i plib:pkg.obj
 0001:00007580       ?compare_versions@@YAXABV?$basic_string@DV?$char_traits@D@_STL@@V?$allocator@D@2@@_STL@@0AA_N1@Z 00408580 f   plib:pkg.obj
 0001:00007640       ?check_version2@@YA_NABV?$basic_string@DV?$char_traits@D@_STL@@V?$allocator@D@2@@_STL@@0@Z 00408640 f   plib:pkg.obj
 0001:00007680       ??7ios_base@_STL@@QBE_NXZ  00408680 f i plib:pkg.obj
 0001:00007690       ??A?$vector@UElem@PackageList@@V?$allocator@UElem@PackageList@@@_STL@@@_STL@@QBEABUElem@PackageList@@I@Z 00408690 f i plib:pkg.obj
 0001:000076a0       ?erase@?$vector@PAVPackage@@V?$allocator@PAVPackage@@@_STL@@@_STL@@QAEPAPAVPackage@@PAPAV3@@Z 004086a0 f i plib:pkg.obj
 0001:000076d0       ?release@?$auto_ptr@VPackage@@@_STL@@QAEPAVPackage@@XZ 004086d0 f i plib:pkg.obj
 0001:000076e0       ?begin@?$_Rb_tree@V?$basic_string@DV?$char_traits@D@_STL@@V?$allocator@D@2@@_STL@@U?$pair@$$CBV?$basic_string@DV?$char_traits@D@_STL@@V?$allocator@D@2@@_STL@@PAVPackage@@@2@U?$_Select1st@U?$pair@$$CBV?$basic_string@DV?$char_traits@D@_STL@@V?$allocator@D@2@@_STL@@PAVPackage@@@_STL@@@2@Vci_cmp_pred@@V?$allocator@U?$pair@$$CBV?$basic_string@DV?$char_traits@D@_STL@@V?$allocator@D@2@@_STL@@PAVPackage@@@_STL@@@2@@_STL@@QAE?AU?$_Rb_tree_iterator@U?$pair@$$CBV?$basic_string@DV?$char_traits@D@_STL@@V?$allocator@D@2@@_STL@@PAVPackage@@@_STL@@U?$_Nonconst_traits@U?$pair@$$CBV?$basic_string@DV?$char_traits@D@_STL@@V?$allocator@D@2@@_STL@@PAVPackage@@@_STL@@@2@@2@XZ 004086e0 f i plib:pkg.obj
 0001:000076f0       ?end@?$_Rb_tree@V?$basic_string@DV?$char_traits@D@_STL@@V?$allocator@D@2@@_STL@@U?$pair@$$CBV?$basic_string@DV?$char_traits@D@_STL@@V?$allocator@D@2@@_STL@@PAVPackage@@@2@U?$_Select1st@U?$pair@$$CBV?$basic_string@DV?$char_traits@D@_STL@@V?$allocator@D@2@@_STL@@PAVPackage@@@_STL@@@2@Vci_cmp_pred@@V?$allocator@U?$pair@$$CBV?$basic_string@DV?$char_traits@D@_STL@@V?$allocator@D@2@@_STL@@PAVPackage@@@_STL@@@2@@_STL@@QAE?AU?$_Rb_tree_iterator@U?$pair@$$CBV?$basic_string@DV?$char_traits@D@_STL@@V?$allocator@D@2@@_STL@@PAVPackage@@@_STL@@U?$_Nonconst_traits@U?$pair@$$CBV?$basic_string@DV?$char_traits@D@_STL@@V?$allocator@D@2@@_STL@@PAVPackage@@@_STL@@@2@@2@XZ 004086f0 f i plib:pkg.obj
 0001:00007700       ??1?$_STLP_alloc_proxy@PAU?$_Rb_tree_node@U?$pair@$$CBV?$basic_string@DV?$char_traits@D@_STL@@V?$allocator@D@2@@_STL@@PAVPackage@@@_STL@@@_STL@@U12@V?$allocator@U?$_Rb_tree_node@U?$pair@$$CBV?$basic_string@DV?$char_traits@D@_STL@@V?$allocator@D@2@@_STL@@PAVPackage@@@_STL@@@_STL@@@2@@_STL@@QAE@XZ 00408700 f i plib:pkg.obj
 0001:00007710       ?allocate@?$allocator@UElem@PackageList@@@_STL@@QAEPAUElem@PackageList@@IPBX@Z 00408710 f i plib:pkg.obj
 0001:00007750       ?deallocate@?$allocator@UElem@PackageList@@@_STL@@QAEXPAUElem@PackageList@@I@Z 00408750 f i plib:pkg.obj
 0001:00007790       ??0?$_STLP_alloc_proxy@PAUElem@PackageList@@U12@V?$allocator@UElem@PackageList@@@_STL@@@_STL@@QAE@ABV?$allocator@UElem@PackageList@@@1@PAUElem@PackageList@@@Z 00408790 f i plib:pkg.obj
 0001:000077a0       ?allocate@?$allocator@PAVPackage@@@_STL@@QAEPAPAVPackage@@IPBX@Z 004087a0 f i plib:pkg.obj
 0001:000077d0       ?deallocate@?$allocator@PAVPackage@@@_STL@@QAEXPAPAVPackage@@I@Z 004087d0 f i plib:pkg.obj
 0001:00007800       ??0?$_STLP_alloc_proxy@PAPAVPackage@@PAV1@V?$allocator@PAVPackage@@@_STL@@@_STL@@QAE@ABV?$allocator@PAVPackage@@@1@PAPAVPackage@@@Z 00408800 f i plib:pkg.obj
 0001:00007810       ?_M_empty_initialize@?$_Rb_tree@V?$basic_string@DV?$char_traits@D@_STL@@V?$allocator@D@2@@_STL@@U?$pair@$$CBV?$basic_string@DV?$char_traits@D@_STL@@V?$allocator@D@2@@_STL@@PAVPackage@@@2@U?$_Select1st@U?$pair@$$CBV?$basic_string@DV?$char_traits@D@_STL@@V?$allocator@D@2@@_STL@@PAVPackage@@@_STL@@@2@Vci_cmp_pred@@V?$allocator@U?$pair@$$CBV?$basic_string@DV?$char_traits@D@_STL@@V?$allocator@D@2@@_STL@@PAVPackage@@@_STL@@@2@@_STL@@AAEXXZ 00408810 f i plib:pkg.obj
 0001:00007830       ?deallocate@?$allocator@U?$_Rb_tree_node@U?$pair@$$CBV?$basic_string@DV?$char_traits@D@_STL@@V?$allocator@D@2@@_STL@@PAVPackage@@@_STL@@@_STL@@@_STL@@QAEXPAU?$_Rb_tree_node@U?$pair@$$CBV?$basic_string@DV?$char_traits@D@_STL@@V?$allocator@D@2@@_STL@@PAVPackage@@@_STL@@@2@I@Z 00408830 f i plib:pkg.obj
 0001:00007860       ??0?$_STLP_alloc_proxy@PAU?$_Rb_tree_node@U?$pair@$$CBV?$basic_string@DV?$char_traits@D@_STL@@V?$allocator@D@2@@_STL@@PAVPackage@@@_STL@@@_STL@@U12@V?$allocator@U?$_Rb_tree_node@U?$pair@$$CBV?$basic_string@DV?$char_traits@D@_STL@@V?$allocator@D@2@@_STL@@PAVPackage@@@_STL@@@_STL@@@2@@_STL@@QAE@ABV?$allocator@U?$_Rb_tree_node@U?$pair@$$CBV?$basic_string@DV?$char_traits@D@_STL@@V?$allocator@D@2@@_STL@@PAVPackage@@@_STL@@@_STL@@@1@PAU?$_Rb_tree_node@U?$pair@$$CBV?$basic_string@DV?$char_traits@D@_STL@@V?$allocator@D@2@@_STL@@PAVPackage@@@_STL@@@1@@Z 00408860 f i plib:pkg.obj
 0001:00007870       ?allocate@?$allocator@U?$_Rb_tree_node@U?$pair@$$CBV?$basic_string@DV?$char_traits@D@_STL@@V?$allocator@D@2@@_STL@@PAVPackage@@@_STL@@@_STL@@@_STL@@QAEPAU?$_Rb_tree_node@U?$pair@$$CBV?$basic_string@DV?$char_traits@D@_STL@@V?$allocator@D@2@@_STL@@PAVPackage@@@_STL@@@2@IPBX@Z 00408870 f i plib:pkg.obj
 0001:000078a0       ??$bind2nd@U?$equal_to@PAVPackage@@@_STL@@PAVPackage@@@_STL@@YA?AV?$binder2nd@U?$equal_to@PAVPackage@@@_STL@@@0@ABU?$equal_to@PAVPackage@@@0@ABQAVPackage@@@Z 004088a0 f i plib:pkg.obj
 0001:000078b0       ??$?8DV?$char_traits@D@_STL@@V?$allocator@D@1@@_STL@@YA_NABV?$basic_string@DV?$char_traits@D@_STL@@V?$allocator@D@2@@0@PBD@Z 004088b0 f i plib:pkg.obj
 0001:000078f0       ?_S_key@?$_Rb_tree@V?$basic_string@DV?$char_traits@D@_STL@@V?$allocator@D@2@@_STL@@U?$pair@$$CBV?$basic_string@DV?$char_traits@D@_STL@@V?$allocator@D@2@@_STL@@PAVPackage@@@2@U?$_Select1st@U?$pair@$$CBV?$basic_string@DV?$char_traits@D@_STL@@V?$allocator@D@2@@_STL@@PAVPackage@@@_STL@@@2@Vci_cmp_pred@@V?$allocator@U?$pair@$$CBV?$basic_string@DV?$char_traits@D@_STL@@V?$allocator@D@2@@_STL@@PAVPackage@@@_STL@@@2@@_STL@@KAABV?$basic_string@DV?$char_traits@D@_STL@@V?$allocator@D@2@@2@PAU?$_Rb_tree_node@U?$pair@$$CBV?$basic_string@DV?$char_traits@D@_STL@@V?$allocator@D@2@@_STL@@PAVPackage@@@_STL@@@2@@Z 004088f0 f i plib:pkg.obj
 0001:00007900       ?_S_key@?$_Rb_tree@V?$basic_string@DV?$char_traits@D@_STL@@V?$allocator@D@2@@_STL@@U?$pair@$$CBV?$basic_string@DV?$char_traits@D@_STL@@V?$allocator@D@2@@_STL@@PAVPackage@@@2@U?$_Select1st@U?$pair@$$CBV?$basic_string@DV?$char_traits@D@_STL@@V?$allocator@D@2@@_STL@@PAVPackage@@@_STL@@@2@Vci_cmp_pred@@V?$allocator@U?$pair@$$CBV?$basic_string@DV?$char_traits@D@_STL@@V?$allocator@D@2@@_STL@@PAVPackage@@@_STL@@@2@@_STL@@KAABV?$basic_string@DV?$char_traits@D@_STL@@V?$allocator@D@2@@2@PAU_Rb_tree_node_base@2@@Z 00408900 f i plib:pkg.obj
 0001:00007910       ??$__destroy@PAPAVPackage@@PAV1@@_STL@@YAXPAPAVPackage@@00@Z 00408910 f i plib:pkg.obj
 0001:00007920       ??$_M_find@V?$basic_string@DV?$char_traits@D@_STL@@V?$allocator@D@2@@_STL@@@?$_Rb_tree@V?$basic_string@DV?$char_traits@D@_STL@@V?$allocator@D@2@@_STL@@U?$pair@$$CBV?$basic_string@DV?$char_traits@D@_STL@@V?$allocator@D@2@@_STL@@PAVPackage@@@2@U?$_Select1st@U?$pair@$$CBV?$basic_string@DV?$char_traits@D@_STL@@V?$allocator@D@2@@_STL@@PAVPackage@@@_STL@@@2@Vci_cmp_pred@@V?$allocator@U?$pair@$$CBV?$basic_string@DV?$char_traits@D@_STL@@V?$allocator@D@2@@_STL@@PAVPackage@@@_STL@@@2@@_STL@@ABEPAU?$_Rb_tree_node@U?$pair@$$CBV?$basic_string@DV?$char_traits@D@_STL@@V?$allocator@D@2@@_STL@@PAVPackage@@@_STL@@@1@ABV?$basic_string@DV?$char_traits@D@_STL@@V?$allocator@D@2@@1@@Z 00408920 f i plib:pkg.obj
 0001:00007980       ??R?$binder2nd@U?$equal_to@PAVPackage@@@_STL@@@_STL@@QBE_NAAPAVPackage@@@Z 00408980 f i plib:pkg.obj
 0001:000079a0       ??$__find_if@PBDU?$_Eq_char_bound@V?$char_traits@D@_STL@@@_STL@@@_STL@@YAPBDPBD0U?$_Eq_char_bound@V?$char_traits@D@_STL@@@0@ABUrandom_access_iterator_tag@0@@Z 004089a0 f i plib:pkg.obj
 0001:00007a10       ??$__find_if@PAPAVPackage@@V?$binder2nd@U?$equal_to@PAVPackage@@@_STL@@@_STL@@@_STL@@YAPAPAVPackage@@PAPAV1@0V?$binder2nd@U?$equal_to@PAVPackage@@@_STL@@@0@ABUrandom_access_iterator_tag@0@@Z 00408a10 f i plib:pkg.obj
 0001:00007a90       ?begin@?$map@V?$basic_string@DV?$char_traits@D@_STL@@V?$allocator@D@2@@_STL@@PAVPackage@@Vci_cmp_pred@@V?$allocator@U?$pair@$$CBV?$basic_string@DV?$char_traits@D@_STL@@V?$allocator@D@2@@_STL@@PAVPackage@@@_STL@@@2@@_STL@@QAE?AU?$_Rb_tree_iterator@U?$pair@$$CBV?$basic_string@DV?$char_traits@D@_STL@@V?$allocator@D@2@@_STL@@PAVPackage@@@_STL@@U?$_Nonconst_traits@U?$pair@$$CBV?$basic_string@DV?$char_traits@D@_STL@@V?$allocator@D@2@@_STL@@PAVPackage@@@_STL@@@2@@2@XZ 00408a90 f i plib:pkg.obj
 0001:00007aa0       ?end@?$map@V?$basic_string@DV?$char_traits@D@_STL@@V?$allocator@D@2@@_STL@@PAVPackage@@Vci_cmp_pred@@V?$allocator@U?$pair@$$CBV?$basic_string@DV?$char_traits@D@_STL@@V?$allocator@D@2@@_STL@@PAVPackage@@@_STL@@@2@@_STL@@QAE?AU?$_Rb_tree_iterator@U?$pair@$$CBV?$basic_string@DV?$char_traits@D@_STL@@V?$allocator@D@2@@_STL@@PAVPackage@@@_STL@@U?$_Nonconst_traits@U?$pair@$$CBV?$basic_string@DV?$char_traits@D@_STL@@V?$allocator@D@2@@_STL@@PAVPackage@@@_STL@@@2@@2@XZ 00408aa0 f i plib:pkg.obj
 0001:00007ab0       ??0?$_Vector_base@UElem@PackageList@@V?$allocator@UElem@PackageList@@@_STL@@@_STL@@QAE@ABV?$allocator@UElem@PackageList@@@1@@Z 00408ab0 f i plib:pkg.obj
 0001:00007ae0       ??1?$_Vector_base@UElem@PackageList@@V?$allocator@UElem@PackageList@@@_STL@@@_STL@@QAE@XZ 00408ae0 f i plib:pkg.obj
 0001:00007b30       ??0?$_Vector_base@PAVPackage@@V?$allocator@PAVPackage@@@_STL@@@_STL@@QAE@ABV?$allocator@PAVPackage@@@1@@Z 00408b30 f i plib:pkg.obj
 0001:00007b60       ??1?$_Vector_base@PAVPackage@@V?$allocator@PAVPackage@@@_STL@@@_STL@@QAE@XZ 00408b60 f i plib:pkg.obj
 0001:00007b90       ??1?$_Rb_tree_base@U?$pair@$$CBV?$basic_string@DV?$char_traits@D@_STL@@V?$allocator@D@2@@_STL@@PAVPackage@@@_STL@@V?$allocator@U?$pair@$$CBV?$basic_string@DV?$char_traits@D@_STL@@V?$allocator@D@2@@_STL@@PAVPackage@@@_STL@@@2@@_STL@@QAE@XZ 00408b90 f i plib:pkg.obj
 0001:00007bb0       ??0?$_Rb_tree_base@U?$pair@$$CBV?$basic_string@DV?$char_traits@D@_STL@@V?$allocator@D@2@@_STL@@PAVPackage@@@_STL@@V?$allocator@U?$pair@$$CBV?$basic_string@DV?$char_traits@D@_STL@@V?$allocator@D@2@@_STL@@PAVPackage@@@_STL@@@2@@_STL@@QAE@ABV?$allocator@U?$pair@$$CBV?$basic_string@DV?$char_traits@D@_STL@@V?$allocator@D@2@@_STL@@PAVPackage@@@_STL@@@1@@Z 00408bb0 f i plib:pkg.obj
 0001:00007be0       ??$_Destroy@PAPAVPackage@@@_STL@@YAXPAPAVPackage@@0@Z 00408be0 f i plib:pkg.obj
 0001:00007bf0       ??$find@V?$basic_string@DV?$char_traits@D@_STL@@V?$allocator@D@2@@_STL@@@?$_Rb_tree@V?$basic_string@DV?$char_traits@D@_STL@@V?$allocator@D@2@@_STL@@U?$pair@$$CBV?$basic_string@DV?$char_traits@D@_STL@@V?$allocator@D@2@@_STL@@PAVPackage@@@2@U?$_Select1st@U?$pair@$$CBV?$basic_string@DV?$char_traits@D@_STL@@V?$allocator@D@2@@_STL@@PAVPackage@@@_STL@@@2@Vci_cmp_pred@@V?$allocator@U?$pair@$$CBV?$basic_string@DV?$char_traits@D@_STL@@V?$allocator@D@2@@_STL@@PAVPackage@@@_STL@@@2@@_STL@@QAE?AU?$_Rb_tree_iterator@U?$pair@$$CBV?$basic_string@DV?$char_traits@D@_STL@@V?$allocator@D@2@@_STL@@PAVPackage@@@_STL@@U?$_Nonconst_traits@U?$pair@$$CBV?$basic_string@DV?$char_traits@D@_STL@@V?$allocator@D@2@@_STL@@PAVPackage@@@_STL@@@2@@1@ABV?$basic_string@DV?$char_traits@D@_STL@@V?$allocator@D@2@@1@@Z 00408bf0 f i plib:pkg.obj
 0001:00007c10       ??$find_if@PBDU?$_Eq_char_bound@V?$char_traits@D@_STL@@@_STL@@@_STL@@YAPBDPBD0U?$_Eq_char_bound@V?$char_traits@D@_STL@@@0@@Z 00408c10 f i plib:pkg.obj
 0001:00007c30       ??$find_if@PAPAVPackage@@V?$binder2nd@U?$equal_to@PAVPackage@@@_STL@@@_STL@@@_STL@@YAPAPAVPackage@@PAPAV1@0V?$binder2nd@U?$equal_to@PAVPackage@@@_STL@@@0@@Z 00408c30 f i plib:pkg.obj
 0001:00007c60       ??$remove_copy_if@PAPAVPackage@@PAPAV1@V?$binder2nd@U?$equal_to@PAVPackage@@@_STL@@@_STL@@@_STL@@YAPAPAVPackage@@PAPAV1@00V?$binder2nd@U?$equal_to@PAVPackage@@@_STL@@@0@@Z 00408c60 f i plib:pkg.obj
 0001:00007c90       ??0?$vector@UElem@PackageList@@V?$allocator@UElem@PackageList@@@_STL@@@_STL@@QAE@ABV?$allocator@UElem@PackageList@@@1@@Z 00408c90 f i plib:pkg.obj
 0001:00007ca0       ??0?$vector@PAVPackage@@V?$allocator@PAVPackage@@@_STL@@@_STL@@QAE@ABV?$allocator@PAVPackage@@@1@@Z 00408ca0 f i plib:pkg.obj
 0001:00007cb0       ??1?$vector@PAVPackage@@V?$allocator@PAVPackage@@@_STL@@@_STL@@QAE@XZ 00408cb0 f i plib:pkg.obj
 0001:00007ce0       ?find@?$map@V?$basic_string@DV?$char_traits@D@_STL@@V?$allocator@D@2@@_STL@@PAVPackage@@Vci_cmp_pred@@V?$allocator@U?$pair@$$CBV?$basic_string@DV?$char_traits@D@_STL@@V?$allocator@D@2@@_STL@@PAVPackage@@@_STL@@@2@@_STL@@QAE?AU?$_Rb_tree_iterator@U?$pair@$$CBV?$basic_string@DV?$char_traits@D@_STL@@V?$allocator@D@2@@_STL@@PAVPackage@@@_STL@@U?$_Nonconst_traits@U?$pair@$$CBV?$basic_string@DV?$char_traits@D@_STL@@V?$allocator@D@2@@_STL@@PAVPackage@@@_STL@@@2@@2@ABV?$basic_string@DV?$char_traits@D@_STL@@V?$allocator@D@2@@2@@Z 00408ce0 f i plib:pkg.obj
 0001:00007d00       ??0?$_Rb_tree@V?$basic_string@DV?$char_traits@D@_STL@@V?$allocator@D@2@@_STL@@U?$pair@$$CBV?$basic_string@DV?$char_traits@D@_STL@@V?$allocator@D@2@@_STL@@PAVPackage@@@2@U?$_Select1st@U?$pair@$$CBV?$basic_string@DV?$char_traits@D@_STL@@V?$allocator@D@2@@_STL@@PAVPackage@@@_STL@@@2@Vci_cmp_pred@@V?$allocator@U?$pair@$$CBV?$basic_string@DV?$char_traits@D@_STL@@V?$allocator@D@2@@_STL@@PAVPackage@@@_STL@@@2@@_STL@@QAE@ABVci_cmp_pred@@ABV?$allocator@U?$pair@$$CBV?$basic_string@DV?$char_traits@D@_STL@@V?$allocator@D@2@@_STL@@PAVPackage@@@_STL@@@1@@Z 00408d00 f i plib:pkg.obj
 0001:00007d40       ?_M_clear@?$vector@PAVPackage@@V?$allocator@PAVPackage@@@_STL@@@_STL@@IAEXXZ 00408d40 f i plib:pkg.obj
 0001:00007d70       ?find@?$basic_string@DV?$char_traits@D@_STL@@V?$allocator@D@2@@_STL@@QBEIDI@Z 00408d70 f i plib:pkg.obj
 0001:00007dc0       ??$remove_if@PAPAVPackage@@V?$binder2nd@U?$equal_to@PAVPackage@@@_STL@@@_STL@@@_STL@@YAPAPAVPackage@@PAPAV1@0V?$binder2nd@U?$equal_to@PAVPackage@@@_STL@@@0@@Z 00408dc0 f i plib:pkg.obj
 0001:00007e00       ?find_package@@YAPAVPackage@@ABV?$basic_string@DV?$char_traits@D@_STL@@V?$allocator@D@2@@_STL@@@Z 00408e00 f   plib:pkg.obj
 0001:00007e20       ??6?$basic_ostream@DV?$char_traits@D@_STL@@@_STL@@QAEAAV01@G@Z 00408e20 f i plib:pkg.obj
 0001:00007e40       ?_M_insert_overflow@?$vector@PAVPackage@@V?$allocator@PAVPackage@@@_STL@@@_STL@@IAEXPAPAVPackage@@ABQAV3@ABU__true_type@2@I_N@Z 00408e40 f i plib:pkg.obj
 0001:00007f50       ??1?$basic_stringbuf@DV?$char_traits@D@_STL@@V?$allocator@D@2@@_STL@@UAE@XZ 00408f50 f i plib:pkg.obj
 0001:00007fd0       ?underflow@?$basic_stringbuf@DV?$char_traits@D@_STL@@V?$allocator@D@2@@_STL@@MAEHXZ 00408fd0 f i plib:pkg.obj
 0001:00007ff0       ?uflow@?$basic_stringbuf@DV?$char_traits@D@_STL@@V?$allocator@D@2@@_STL@@MAEHXZ 00408ff0 f i plib:pkg.obj
 0001:00008020       ?pbackfail@?$basic_stringbuf@DV?$char_traits@D@_STL@@V?$allocator@D@2@@_STL@@MAEHH@Z 00409020 f i plib:pkg.obj
 0001:00008090       ??1?$basic_istringstream@DV?$char_traits@D@_STL@@V?$allocator@D@2@@_STL@@UAE@XZ 00409090 f i plib:pkg.obj
 0001:000080f0       ??_E?$basic_stringbuf@DV?$char_traits@D@_STL@@V?$allocator@D@2@@_STL@@UAEPAXI@Z 004090f0 f i plib:pkg.obj
 0001:000080f0       ??_G?$basic_stringbuf@DV?$char_traits@D@_STL@@V?$allocator@D@2@@_STL@@UAEPAXI@Z 004090f0 f i plib:pkg.obj
 0001:00008110       ?test_check_version@@YAXXZ 00409110 f   plib:pkg.obj
 0001:00008d00       ??_D?$basic_istringstream@DV?$char_traits@D@_STL@@V?$allocator@D@2@@_STL@@QAEXXZ 00409d00 f i plib:pkg.obj
 0001:00008d20       ??0Elem@PackageList@@QAE@XZ 00409d20 f i plib:pkg.obj
 0001:00008d70       ??1Elem@PackageList@@QAE@XZ 00409d70 f i plib:pkg.obj
 0001:00008e10       ??1?$pair@$$CBV?$basic_string@DV?$char_traits@D@_STL@@V?$allocator@D@2@@_STL@@PAVPackage@@@_STL@@QAE@XZ 00409e10 f i plib:pkg.obj
 0001:00008e40       ?push_back@?$vector@PAVPackage@@V?$allocator@PAVPackage@@@_STL@@@_STL@@QAEXABQAVPackage@@@Z 00409e40 f i plib:pkg.obj
 0001:00008e80       ??_G?$basic_istringstream@DV?$char_traits@D@_STL@@V?$allocator@D@2@@_STL@@UAEPAXI@Z 00409e80 f i plib:pkg.obj
 0001:00008e80       ??_E?$basic_istringstream@DV?$char_traits@D@_STL@@V?$allocator@D@2@@_STL@@UAEPAXI@Z 00409e80 f i plib:pkg.obj
 0001:00008eb0       ??0Elem@PackageList@@QAE@ABU01@@Z 00409eb0 f i plib:pkg.obj
 0001:00008f10       ??_G?$pair@$$CBV?$basic_string@DV?$char_traits@D@_STL@@V?$allocator@D@2@@_STL@@PAVPackage@@@_STL@@QAEPAXI@Z 00409f10 f i plib:pkg.obj
 0001:00008f30       ??0?$basic_stringbuf@DV?$char_traits@D@_STL@@V?$allocator@D@2@@_STL@@QAE@ABV?$basic_string@DV?$char_traits@D@_STL@@V?$allocator@D@2@@1@H@Z 00409f30 f i plib:pkg.obj
 0001:00008fc0       ??0?$pair@$$CBV?$basic_string@DV?$char_traits@D@_STL@@V?$allocator@D@2@@_STL@@PAVPackage@@@_STL@@QAE@ABU01@@Z 00409fc0 f i plib:pkg.obj
 0001:00008fe0       ??_GElem@PackageList@@QAEPAXI@Z 00409fe0 f i plib:pkg.obj
 0001:00009000       ??0?$pair@$$CBV?$basic_string@DV?$char_traits@D@_STL@@V?$allocator@D@2@@_STL@@PAVPackage@@@_STL@@QAE@ABV?$basic_string@DV?$char_traits@D@_STL@@V?$allocator@D@2@@1@ABQAVPackage@@@Z 0040a000 f i plib:pkg.obj
 0001:00009020       ?overflow@?$basic_stringbuf@DV?$char_traits@D@_STL@@V?$allocator@D@2@@_STL@@MAEHH@Z 0040a020 f i plib:pkg.obj
 0001:00009110       ?_M_append_buffer@?$basic_stringbuf@DV?$char_traits@D@_STL@@V?$allocator@D@2@@_STL@@ABEXXZ 0040a110 f i plib:pkg.obj
 0001:00009170       ?xsputn@?$basic_stringbuf@DV?$char_traits@D@_STL@@V?$allocator@D@2@@_STL@@MAEHPBDH@Z 0040a170 f i plib:pkg.obj
 0001:000092c0       ?_M_xsputnc@?$basic_stringbuf@DV?$char_traits@D@_STL@@V?$allocator@D@2@@_STL@@MAEHDH@Z 0040a2c0 f i plib:pkg.obj
 0001:00009420       ?append@?$basic_string@DV?$char_traits@D@_STL@@V?$allocator@D@2@@_STL@@QAEAAV12@ID@Z 0040a420 f i plib:pkg.obj
 0001:000094d0       ?setbuf@?$basic_stringbuf@DV?$char_traits@D@_STL@@V?$allocator@D@2@@_STL@@MAEPAV?$basic_streambuf@DV?$char_traits@D@_STL@@@2@PADH@Z 0040a4d0 f i plib:pkg.obj
 0001:000095a0       ?seekoff@?$basic_stringbuf@DV?$char_traits@D@_STL@@V?$allocator@D@2@@_STL@@MAE?AV?$fpos@H@2@JHH@Z 0040a5a0 f i plib:pkg.obj
 0001:00009720       ?seekpos@?$basic_stringbuf@DV?$char_traits@D@_STL@@V?$allocator@D@2@@_STL@@MAE?AV?$fpos@H@2@V32@H@Z 0040a720 f i plib:pkg.obj
 0001:00009850       ??$?5DV?$char_traits@D@_STL@@V?$allocator@D@1@@_STL@@YAAAV?$basic_istream@DV?$char_traits@D@_STL@@@0@AAV10@AAV?$basic_string@DV?$char_traits@D@_STL@@V?$allocator@D@2@@0@@Z 0040a850 f i plib:pkg.obj
 0001:00009a00       ??$_Construct@UElem@PackageList@@U12@@_STL@@YAXPAUElem@PackageList@@ABU12@@Z 0040aa00 f i plib:pkg.obj
 0001:00009a50       ??$_Destroy@U?$pair@$$CBV?$basic_string@DV?$char_traits@D@_STL@@V?$allocator@D@2@@_STL@@PAVPackage@@@_STL@@@_STL@@YAXPAU?$pair@$$CBV?$basic_string@DV?$char_traits@D@_STL@@V?$allocator@D@2@@_STL@@PAVPackage@@@0@@Z 0040aa50 f i plib:pkg.obj
 0001:00009a60       ??$_Construct@U?$pair@$$CBV?$basic_string@DV?$char_traits@D@_STL@@V?$allocator@D@2@@_STL@@PAVPackage@@@_STL@@U12@@_STL@@YAXPAU?$pair@$$CBV?$basic_string@DV?$char_traits@D@_STL@@V?$allocator@D@2@@_STL@@PAVPackage@@@0@ABU10@@Z 0040aa60 f i plib:pkg.obj
 0001:00009ab0       ??$_Destroy@UElem@PackageList@@@_STL@@YAXPAUElem@PackageList@@@Z 0040aab0 f i plib:pkg.obj
 0001:00009ac0       ??4?$basic_string@DV?$char_traits@D@_STL@@V?$allocator@D@2@@_STL@@QAEAAV01@PBD@Z 0040aac0 f i plib:pkg.obj
 0001:00009af0       ?erase@?$_Rb_tree@V?$basic_string@DV?$char_traits@D@_STL@@V?$allocator@D@2@@_STL@@U?$pair@$$CBV?$basic_string@DV?$char_traits@D@_STL@@V?$allocator@D@2@@_STL@@PAVPackage@@@2@U?$_Select1st@U?$pair@$$CBV?$basic_string@DV?$char_traits@D@_STL@@V?$allocator@D@2@@_STL@@PAVPackage@@@_STL@@@2@Vci_cmp_pred@@V?$allocator@U?$pair@$$CBV?$basic_string@DV?$char_traits@D@_STL@@V?$allocator@D@2@@_STL@@PAVPackage@@@_STL@@@2@@_STL@@QAEXU?$_Rb_tree_iterator@U?$pair@$$CBV?$basic_string@DV?$char_traits@D@_STL@@V?$allocator@D@2@@_STL@@PAVPackage@@@_STL@@U?$_Nonconst_traits@U?$pair@$$CBV?$basic_string@DV?$char_traits@D@_STL@@V?$allocator@D@2@@_STL@@PAVPackage@@@_STL@@@2@@2@@Z 0040aaf0 f i plib:pkg.obj
 0001:00009b40       ?_M_erase@?$_Rb_tree@V?$basic_string@DV?$char_traits@D@_STL@@V?$allocator@D@2@@_STL@@U?$pair@$$CBV?$basic_string@DV?$char_traits@D@_STL@@V?$allocator@D@2@@_STL@@PAVPackage@@@2@U?$_Select1st@U?$pair@$$CBV?$basic_string@DV?$char_traits@D@_STL@@V?$allocator@D@2@@_STL@@PAVPackage@@@_STL@@@2@Vci_cmp_pred@@V?$allocator@U?$pair@$$CBV?$basic_string@DV?$char_traits@D@_STL@@V?$allocator@D@2@@_STL@@PAVPackage@@@_STL@@@2@@_STL@@AAEXPAU?$_Rb_tree_node@U?$pair@$$CBV?$basic_string@DV?$char_traits@D@_STL@@V?$allocator@D@2@@_STL@@PAVPackage@@@_STL@@@2@@Z 0040ab40 f i plib:pkg.obj
 0001:00009b80       ?_M_create_node@?$_Rb_tree@V?$basic_string@DV?$char_traits@D@_STL@@V?$allocator@D@2@@_STL@@U?$pair@$$CBV?$basic_string@DV?$char_traits@D@_STL@@V?$allocator@D@2@@_STL@@PAVPackage@@@2@U?$_Select1st@U?$pair@$$CBV?$basic_string@DV?$char_traits@D@_STL@@V?$allocator@D@2@@_STL@@PAVPackage@@@_STL@@@2@Vci_cmp_pred@@V?$allocator@U?$pair@$$CBV?$basic_string@DV?$char_traits@D@_STL@@V?$allocator@D@2@@_STL@@PAVPackage@@@_STL@@@2@@_STL@@IAEPAU?$_Rb_tree_node@U?$pair@$$CBV?$basic_string@DV?$char_traits@D@_STL@@V?$allocator@D@2@@_STL@@PAVPackage@@@_STL@@@2@ABU?$pair@$$CBV?$basic_string@DV?$char_traits@D@_STL@@V?$allocator@D@2@@_STL@@PAVPackage@@@2@@Z 0040ab80 f i plib:pkg.obj
 0001:00009c00       ??$__destroy_aux@PAUElem@PackageList@@@_STL@@YAXPAUElem@PackageList@@0ABU__false_type@0@@Z 0040ac00 f i plib:pkg.obj
 0001:00009c30       ?desc@Package@@QBE?AV?$basic_string@DV?$char_traits@D@_STL@@V?$allocator@D@2@@_STL@@XZ 0040ac30 f   plib:pkg.obj
 0001:00009d20       ?check_dependencies@Package@@QBEXXZ 0040ad20 f   plib:pkg.obj
 0001:0000a230       ?check_conflicts@Package@@QBEXXZ 0040b230 f   plib:pkg.obj
 0001:0000a4a0       ?check_deps_for_package@@YAXPAVPackage@@@Z 0040b4a0 f   plib:pkg.obj
 0001:0000a4c0       ?check_package_deps@@YAXXZ 0040b4c0 f   plib:pkg.obj
 0001:0000a4f0       ?erase@?$map@V?$basic_string@DV?$char_traits@D@_STL@@V?$allocator@D@2@@_STL@@PAVPackage@@Vci_cmp_pred@@V?$allocator@U?$pair@$$CBV?$basic_string@DV?$char_traits@D@_STL@@V?$allocator@D@2@@_STL@@PAVPackage@@@_STL@@@2@@_STL@@QAEXU?$_Rb_tree_iterator@U?$pair@$$CBV?$basic_string@DV?$char_traits@D@_STL@@V?$allocator@D@2@@_STL@@PAVPackage@@@_STL@@U?$_Nonconst_traits@U?$pair@$$CBV?$basic_string@DV?$char_traits@D@_STL@@V?$allocator@D@2@@_STL@@PAVPackage@@@_STL@@@2@@2@@Z 0040b4f0 f i plib:pkg.obj
 0001:0000a540       ?clear@?$_Rb_tree@V?$basic_string@DV?$char_traits@D@_STL@@V?$allocator@D@2@@_STL@@U?$pair@$$CBV?$basic_string@DV?$char_traits@D@_STL@@V?$allocator@D@2@@_STL@@PAVPackage@@@2@U?$_Select1st@U?$pair@$$CBV?$basic_string@DV?$char_traits@D@_STL@@V?$allocator@D@2@@_STL@@PAVPackage@@@_STL@@@2@Vci_cmp_pred@@V?$allocator@U?$pair@$$CBV?$basic_string@DV?$char_traits@D@_STL@@V?$allocator@D@2@@_STL@@PAVPackage@@@_STL@@@2@@_STL@@QAEXXZ 0040b540 f i plib:pkg.obj
 0001:0000a580       ?_M_insert@?$_Rb_tree@V?$basic_string@DV?$char_traits@D@_STL@@V?$allocator@D@2@@_STL@@U?$pair@$$CBV?$basic_string@DV?$char_traits@D@_STL@@V?$allocator@D@2@@_STL@@PAVPackage@@@2@U?$_Select1st@U?$pair@$$CBV?$basic_string@DV?$char_traits@D@_STL@@V?$allocator@D@2@@_STL@@PAVPackage@@@_STL@@@2@Vci_cmp_pred@@V?$allocator@U?$pair@$$CBV?$basic_string@DV?$char_traits@D@_STL@@V?$allocator@D@2@@_STL@@PAVPackage@@@_STL@@@2@@_STL@@AAE?AU?$_Rb_tree_iterator@U?$pair@$$CBV?$basic_string@DV?$char_traits@D@_STL@@V?$allocator@D@2@@_STL@@PAVPackage@@@_STL@@U?$_Nonconst_traits@U?$pair@$$CBV?$basic_string@DV?$char_traits@D@_STL@@V?$allocator@D@2@@_STL@@PAVPackage@@@_STL@@@2@@2@PAU_Rb_tree_node_base@2@0ABU?$pair@$$CBV?$basic_string@DV?$char_traits@D@_STL@@V?$allocator@D@2@@_STL@@PAVPackage@@@2@0@Z 0040b580 f i plib:pkg.obj
 0001:0000a630       ??$__destroy@PAUElem@PackageList@@U12@@_STL@@YAXPAUElem@PackageList@@00@Z 0040b630 f i plib:pkg.obj
 0001:0000a660       ?remove_package@@YAXPAVPackage@@@Z 0040b660 f   plib:pkg.obj
 0001:0000a730       ?pkgdef_split@@YA_NABV?$basic_string@DV?$char_traits@D@_STL@@V?$allocator@D@2@@_STL@@PBVPackage@@PAPBV3@PAV12@@Z 0040b730 f   plib:pkg.obj
 0001:0000a990       ?GetPackageCfgPath@@YA?AV?$basic_string@DV?$char_traits@D@_STL@@V?$allocator@D@2@@_STL@@PAVPackage@@V12@@Z 0040b990 f   plib:pkg.obj
 0001:0000abd0       ??1?$_Rb_tree@V?$basic_string@DV?$char_traits@D@_STL@@V?$allocator@D@2@@_STL@@U?$pair@$$CBV?$basic_string@DV?$char_traits@D@_STL@@V?$allocator@D@2@@_STL@@PAVPackage@@@2@U?$_Select1st@U?$pair@$$CBV?$basic_string@DV?$char_traits@D@_STL@@V?$allocator@D@2@@_STL@@PAVPackage@@@_STL@@@2@Vci_cmp_pred@@V?$allocator@U?$pair@$$CBV?$basic_string@DV?$char_traits@D@_STL@@V?$allocator@D@2@@_STL@@PAVPackage@@@_STL@@@2@@_STL@@QAE@XZ 0040bbd0 f i plib:pkg.obj
 0001:0000ac50       ?insert_unique@?$_Rb_tree@V?$basic_string@DV?$char_traits@D@_STL@@V?$allocator@D@2@@_STL@@U?$pair@$$CBV?$basic_string@DV?$char_traits@D@_STL@@V?$allocator@D@2@@_STL@@PAVPackage@@@2@U?$_Select1st@U?$pair@$$CBV?$basic_string@DV?$char_traits@D@_STL@@V?$allocator@D@2@@_STL@@PAVPackage@@@_STL@@@2@Vci_cmp_pred@@V?$allocator@U?$pair@$$CBV?$basic_string@DV?$char_traits@D@_STL@@V?$allocator@D@2@@_STL@@PAVPackage@@@_STL@@@2@@_STL@@QAE?AU?$pair@U?$_Rb_tree_iterator@U?$pair@$$CBV?$basic_string@DV?$char_traits@D@_STL@@V?$allocator@D@2@@_STL@@PAVPackage@@@_STL@@U?$_Nonconst_traits@U?$pair@$$CBV?$basic_string@DV?$char_traits@D@_STL@@V?$allocator@D@2@@_STL@@PAVPackage@@@_STL@@@2@@_STL@@_N@2@ABU?$pair@$$CBV?$basic_string@DV?$char_traits@D@_STL@@V?$allocator@D@2@@_STL@@PAVPackage@@@2@@Z 0040bc50 f i plib:pkg.obj
 0001:0000ad20       ??$_Destroy@PAUElem@PackageList@@@_STL@@YAXPAUElem@PackageList@@0@Z 0040bd20 f i plib:pkg.obj
 0001:0000ad50       ??$__uninitialized_copy@PAUElem@PackageList@@PAU12@@_STL@@YAPAUElem@PackageList@@PAU12@00ABU__false_type@0@@Z 0040bd50 f i plib:pkg.obj
 0001:0000ade0       ??$__uninitialized_fill_n@PAUElem@PackageList@@IU12@@_STL@@YAPAUElem@PackageList@@PAU12@IABU12@ABU__false_type@0@@Z 0040bde0 f i plib:pkg.obj
 0001:0000ae80       ??1?$map@V?$basic_string@DV?$char_traits@D@_STL@@V?$allocator@D@2@@_STL@@PAVPackage@@Vci_cmp_pred@@V?$allocator@U?$pair@$$CBV?$basic_string@DV?$char_traits@D@_STL@@V?$allocator@D@2@@_STL@@PAVPackage@@@_STL@@@2@@_STL@@QAE@XZ 0040be80 f i plib:pkg.obj
 0001:0000ae90       ?load_packaged_cfgs@@YAXPBD0P6AXPBVPackage@@AAVConfigElem@@@Z@Z 0040be90 f   plib:pkg.obj
 0001:0000aff0       ?load_all_cfgs@@YAXPBD0P6AXPBVPackage@@AAVConfigElem@@@Z@Z 0040bff0 f   plib:pkg.obj
 0001:0000b170       ??1?$vector@UElem@PackageList@@V?$allocator@UElem@PackageList@@@_STL@@@_STL@@QAE@XZ 0040c170 f i plib:pkg.obj
 0001:0000b220       ??0?$map@V?$basic_string@DV?$char_traits@D@_STL@@V?$allocator@D@2@@_STL@@PAVPackage@@Vci_cmp_pred@@V?$allocator@U?$pair@$$CBV?$basic_string@DV?$char_traits@D@_STL@@V?$allocator@D@2@@_STL@@PAVPackage@@@_STL@@@2@@_STL@@QAE@XZ 0040c220 f i plib:pkg.obj
 0001:0000b260       ?insert@?$map@V?$basic_string@DV?$char_traits@D@_STL@@V?$allocator@D@2@@_STL@@PAVPackage@@Vci_cmp_pred@@V?$allocator@U?$pair@$$CBV?$basic_string@DV?$char_traits@D@_STL@@V?$allocator@D@2@@_STL@@PAVPackage@@@_STL@@@2@@_STL@@QAE?AU?$pair@U?$_Rb_tree_iterator@U?$pair@$$CBV?$basic_string@DV?$char_traits@D@_STL@@V?$allocator@D@2@@_STL@@PAVPackage@@@_STL@@U?$_Nonconst_traits@U?$pair@$$CBV?$basic_string@DV?$char_traits@D@_STL@@V?$allocator@D@2@@_STL@@PAVPackage@@@_STL@@@2@@_STL@@_N@2@ABU?$pair@$$CBV?$basic_string@DV?$char_traits@D@_STL@@V?$allocator@D@2@@_STL@@PAVPackage@@@2@@Z 0040c260 f i plib:pkg.obj
 0001:0000b280       ?_M_clear@?$vector@UElem@PackageList@@V?$allocator@UElem@PackageList@@@_STL@@@_STL@@IAEXXZ 0040c280 f i plib:pkg.obj
 0001:0000b2f0       ??1PackageList@@QAE@XZ     0040c2f0 f i plib:pkg.obj
 0001:0000b300       ??1Package@@QAE@XZ         0040c300 f i plib:pkg.obj
 0001:0000b420       ?_M_insert_overflow@?$vector@UElem@PackageList@@V?$allocator@UElem@PackageList@@@_STL@@@_STL@@IAEXPAUElem@PackageList@@ABU34@ABU__false_type@2@I_N@Z 0040c420 f i plib:pkg.obj
 0001:0000b580       ??0?$basic_istringstream@DV?$char_traits@D@_STL@@V?$allocator@D@2@@_STL@@QAE@ABV?$basic_string@DV?$char_traits@D@_STL@@V?$allocator@D@2@@1@H@Z 0040c580 f i plib:pkg.obj
 0001:0000b650       ??_GPackage@@QAEPAXI@Z     0040c650 f i plib:pkg.obj
 0001:0000b670       ?push_back@?$vector@UElem@PackageList@@V?$allocator@UElem@PackageList@@@_STL@@@_STL@@QAEXABUElem@PackageList@@@Z 0040c670 f i plib:pkg.obj
 0001:0000b6b0       ??1?$auto_ptr@VPackage@@@_STL@@QAE@XZ 0040c6b0 f i plib:pkg.obj
 0001:0000b6d0       ??$delete_all@V?$vector@PAVPackage@@V?$allocator@PAVPackage@@@_STL@@@_STL@@@@YAXAAV?$vector@PAVPackage@@V?$allocator@PAVPackage@@@_STL@@@_STL@@@Z 0040c6d0 f i plib:pkg.obj
 0001:0000b710       ??0PackageList@@AAE@AAVConfigElem@@PBD@Z 0040c710 f   plib:pkg.obj
 0001:0000b9a0       ??0Package@@QAE@ABV?$basic_string@DV?$char_traits@D@_STL@@V?$allocator@D@2@@_STL@@AAVConfigElem@@@Z 0040c9a0 f   plib:pkg.obj
 0001:0000bb50       ?check_replacements@Package@@QBE_NXZ 0040cb50 f   plib:pkg.obj
 0001:0000bd70       ?load_package@@YAXABV?$basic_string@DV?$char_traits@D@_STL@@V?$allocator@D@2@@_STL@@AAVConfigElem@@_N@Z 0040cd70 f   plib:pkg.obj
 0001:0000c1d0       ?load_packages@@YAXV?$basic_string@DV?$char_traits@D@_STL@@V?$allocator@D@2@@_STL@@_N@Z 0040d1d0 f   plib:pkg.obj
 0001:0000c630       ?check_replaced_packages@@YAXPAVPackage@@@Z 0040d630 f   plib:pkg.obj
 0001:0000c640       ?replace_packages@@YAXXZ   0040d640 f   plib:pkg.obj
 0001:0000c680       ?load_packages@@YAXXZ      0040d680 f   plib:pkg.obj
 0001:0000c920       ?unload_packages@@YAXXZ    0040d920 f   plib:pkg.obj
 0001:0000c930       ?__copy_trivial_backward@_STL@@YAPAXPBX0PAX@Z 0040d930 f i bscript:compiler.obj
 0001:0000c960       ?fill@_STL@@YAXPAE0ABE@Z   0040d960 f i bscript:compiler.obj
 0001:0000c990       ?_FILE_O_begin@_STL@@YAPADPBU_iobuf@@@Z 0040d990 f i bscript:compiler.obj
 0001:0000c9a0       ?_FILE_O_next@_STL@@YAPADPBU_iobuf@@@Z 0040d9a0 f i bscript:compiler.obj
 0001:0000c9b0       ?_FILE_O_end@_STL@@YAPADPBU_iobuf@@@Z 0040d9b0 f i bscript:compiler.obj
 0001:0000c9c0       ?pbase@?$basic_streambuf@DV?$char_traits@D@_STL@@@_STL@@IBEPADXZ 0040d9c0 f i bscript:compiler.obj
 0001:0000c9d0       ?pptr@?$basic_streambuf@DV?$char_traits@D@_STL@@@_STL@@IBEPADXZ 0040d9d0 f i bscript:compiler.obj
 0001:0000c9e0       ?epptr@?$basic_streambuf@DV?$char_traits@D@_STL@@@_STL@@IBEPADXZ 0040d9e0 f i bscript:compiler.obj
 0001:0000c9f0       ?_M_bump_down@_Bit_iterator_base@_STL@@QAEXXZ 0040d9f0 f i bscript:compiler.obj
 0001:0000ca10       ??6@YAAAV?$basic_ostream@DV?$char_traits@D@_STL@@@_STL@@AAV01@ABVCompilerContext@@@Z 0040da10 f i bscript:compiler.obj
 0001:0000ca30       ?length@SymbolContainer@@QBEIXZ 0040da30 f i bscript:compiler.obj
 0001:0000ca40       ?setlength@SymbolContainer@@QAEXI@Z 0040da40 f i bscript:compiler.obj
 0001:0000ca50       ?setcount@StoredTokenContainer@@QAEXI@Z 0040da50 f i bscript:compiler.obj
 0001:0000ca60       ?count@StoredTokenContainer@@QBEIXZ 0040da60 f i bscript:compiler.obj
 0001:0000ca70       ?next@StoredTokenContainer@@QAEIXZ 0040da70 f i bscript:compiler.obj
 0001:0000ca80       ?tokval@Token@@QBEPBDXZ    0040da80 f i bscript:compiler.obj
 0001:0000ca90       ??1Parser@@UAE@XZ          0040da90 f i bscript:compiler.obj
 0001:0000caa0       ??_GParser@@UAEPAXI@Z      0040daa0 f i bscript:compiler.obj
 0001:0000caa0       ??_EParser@@UAEPAXI@Z      0040daa0 f i bscript:compiler.obj
 0001:0000cac0       ??1SmartParser@@UAE@XZ     0040dac0 f i bscript:compiler.obj
 0001:0000cad0       ??0SmartParser@@QAE@AAV?$basic_ostream@DV?$char_traits@D@_STL@@@_STL@@@Z 0040dad0 f i bscript:compiler.obj
 0001:0000caf0       ?isLegal@SmartParser@@UAEHAAVToken@@@Z 0040daf0 f i bscript:compiler.obj
 0001:0000cb00       ?isUserFunc@SmartParser@@UAEHAAVToken@@PAPAVUserFunction@@@Z 0040db00 f i bscript:compiler.obj
 0001:0000cb10       ??_ESmartParser@@UAEPAXI@Z 0040db10 f i bscript:compiler.obj
 0001:0000cb10       ??_GSmartParser@@UAEPAXI@Z 0040db10 f i bscript:compiler.obj
 0001:0000cb30       ?add_ref@ref_counted@@QAEIXZ 0040db30 f i bscript:compiler.obj
 0001:0000cb40       ?release@ref_counted@@QAEIXZ 0040db40 f i bscript:compiler.obj
 0001:0000cb50       ??_GToken@@QAEPAXI@Z       0040db50 f i bscript:compiler.obj
 0001:0000cb70       ?optimize_long_operation@@YAPAVToken@@PAV1@0@Z 0040db70 f   bscript:compiler.obj
 0001:0000cca0       ?optimize_double_operation@@YAPAVToken@@PAV1@0@Z 0040dca0 f   bscript:compiler.obj
 0001:0000cd10       ?optimize_string_operation@@YAPAVToken@@PAV1@0@Z 0040dd10 f   bscript:compiler.obj
 0001:0000cd20       ??0Candidate@@QAE@HH@Z     0040dd20 f i bscript:compiler.obj
 0001:0000cd40       ?readCurLine@Compiler@@QAEXAAVCompilerContext@@@Z 0040dd40 f   bscript:compiler.obj
 0001:0000cd90       ??_GFunctionalityModule@@QAEPAXI@Z 0040dd90 f i bscript:compiler.obj
 0001:0000cdb0       ?is_web_script@@YA_NPBD@Z  0040ddb0 f   bscript:compiler.obj
 0001:0000ce10       ?length@?$basic_string@DV?$char_traits@D@_STL@@V?$allocator@D@2@@_STL@@QBEIXZ 0040de10 f i bscript:compiler.obj
 0001:0000ce20       ??0?$allocator@V?$basic_string@DV?$char_traits@D@_STL@@V?$allocator@D@2@@_STL@@@_STL@@QAE@XZ 0040de20 f i bscript:compiler.obj
 0001:0000ce30       ??1?$allocator@V?$basic_string@DV?$char_traits@D@_STL@@V?$allocator@D@2@@_STL@@@_STL@@QAE@XZ 0040de30 f i bscript:compiler.obj
 0001:0000ce40       ?begin@?$vector@PAVToken@@V?$allocator@PAVToken@@@_STL@@@_STL@@QAEPAPAVToken@@XZ 0040de40 f i bscript:compiler.obj
 0001:0000ce50       ?end@?$vector@PAVToken@@V?$allocator@PAVToken@@@_STL@@@_STL@@QAEPAPAVToken@@XZ 0040de50 f i bscript:compiler.obj
 0001:0000ce60       ?size@?$vector@PAVToken@@V?$allocator@PAVToken@@@_STL@@@_STL@@QBEIXZ 0040de60 f i bscript:compiler.obj
 0001:0000ce70       ?empty@?$vector@PAVToken@@V?$allocator@PAVToken@@@_STL@@@_STL@@QBE_NXZ 0040de70 f i bscript:compiler.obj
 0001:0000ce80       ??A?$vector@PAVToken@@V?$allocator@PAVToken@@@_STL@@@_STL@@QAEAAPAVToken@@I@Z 0040de80 f i bscript:compiler.obj
 0001:0000ce90       ?front@?$vector@PAVToken@@V?$allocator@PAVToken@@@_STL@@@_STL@@QAEAAPAVToken@@XZ 0040de90 f i bscript:compiler.obj
 0001:0000cea0       ?back@?$vector@PAVToken@@V?$allocator@PAVToken@@@_STL@@@_STL@@QAEAAPAVToken@@XZ 0040dea0 f i bscript:compiler.obj
 0001:0000ceb0       ??0?$allocator@PAVToken@@@_STL@@QAE@XZ 0040deb0 f i bscript:compiler.obj
 0001:0000cec0       ??1?$allocator@PAVToken@@@_STL@@QAE@XZ 0040dec0 f i bscript:compiler.obj
 0001:0000ced0       ?begin@?$vector@VUserParam@@V?$allocator@VUserParam@@@_STL@@@_STL@@QAEPAVUserParam@@XZ 0040ded0 f i bscript:compiler.obj
 0001:0000cee0       ?end@?$vector@VUserParam@@V?$allocator@VUserParam@@@_STL@@@_STL@@QAEPAVUserParam@@XZ 0040dee0 f i bscript:compiler.obj
 0001:0000cef0       ?size@?$vector@VUserParam@@V?$allocator@VUserParam@@@_STL@@@_STL@@QBEIXZ 0040def0 f i bscript:compiler.obj
 0001:0000cf10       ??A?$vector@VUserParam@@V?$allocator@VUserParam@@@_STL@@@_STL@@QAEAAVUserParam@@I@Z 0040df10 f i bscript:compiler.obj
 0001:0000cf30       ?back@?$vector@VUserParam@@V?$allocator@VUserParam@@@_STL@@@_STL@@QAEAAVUserParam@@XZ 0040df30 f i bscript:compiler.obj
 0001:0000cf40       ?begin@?$vector@IV?$allocator@I@_STL@@@_STL@@QBEPBIXZ 0040df40 f i bscript:compiler.obj
 0001:0000cf50       ?end@?$vector@IV?$allocator@I@_STL@@@_STL@@QBEPBIXZ 0040df50 f i bscript:compiler.obj
 0001:0000cf60       ?size@?$vector@IV?$allocator@I@_STL@@@_STL@@QBEIXZ 0040df60 f i bscript:compiler.obj
 0001:0000cf70       ?empty@?$vector@IV?$allocator@I@_STL@@@_STL@@QBE_NXZ 0040df70 f i bscript:compiler.obj
 0001:0000cf80       ??0?$allocator@I@_STL@@QAE@XZ 0040df80 f i bscript:compiler.obj
 0001:0000cf90       ??1?$allocator@I@_STL@@QAE@XZ 0040df90 f i bscript:compiler.obj
 0001:0000cfa0       ?size@?$vector@PAVFunctionalityModule@@V?$allocator@PAVFunctionalityModule@@@_STL@@@_STL@@QBEIXZ 0040dfa0 f i bscript:compiler.obj
 0001:0000cfb0       ?size@?$vector@UVariable@@V?$allocator@UVariable@@@_STL@@@_STL@@QBEIXZ 0040dfb0 f i bscript:compiler.obj
 0001:0000cfd0       ??0?$allocator@UVariable@@@_STL@@QAE@XZ 0040dfd0 f i bscript:compiler.obj
 0001:0000cfe0       ??1?$allocator@UVariable@@@_STL@@QAE@XZ 0040dfe0 f i bscript:compiler.obj
 0001:0000cff0       ?size@?$vector@UBlockDesc@@V?$allocator@UBlockDesc@@@_STL@@@_STL@@QBEIXZ 0040dff0 f i bscript:compiler.obj
 0001:0000d010       ??0?$allocator@UBlockDesc@@@_STL@@QAE@XZ 0040e010 f i bscript:compiler.obj
 0001:0000d020       ??1?$allocator@UBlockDesc@@@_STL@@QAE@XZ 0040e020 f i bscript:compiler.obj
 0001:0000d030       ??C?$ref_ptr@VEScriptProgram@@@@QBEPAVEScriptProgram@@XZ 0040e030 f i bscript:compiler.obj
 0001:0000d040       ??D?$ref_ptr@VEScriptProgram@@@@QBEAAVEScriptProgram@@XZ 0040e040 f i bscript:compiler.obj
 0001:0000d050       ?empty@?$vector@PADV?$allocator@PAD@_STL@@@_STL@@QBE_NXZ 0040e050 f i bscript:compiler.obj
 0001:0000d060       ??0?$allocator@PAD@_STL@@QAE@XZ 0040e060 f i bscript:compiler.obj
 0001:0000d070       ??1?$allocator@PAD@_STL@@QAE@XZ 0040e070 f i bscript:compiler.obj
 0001:0000d080       ?begin@?$vector@UCandidate@@V?$allocator@UCandidate@@@_STL@@@_STL@@QAEPAUCandidate@@XZ 0040e080 f i bscript:compiler.obj
 0001:0000d090       ?end@?$vector@UCandidate@@V?$allocator@UCandidate@@@_STL@@@_STL@@QAEPAUCandidate@@XZ 0040e090 f i bscript:compiler.obj
 0001:0000d0a0       ?size@?$vector@UCandidate@@V?$allocator@UCandidate@@@_STL@@@_STL@@QBEIXZ 0040e0a0 f i bscript:compiler.obj
 0001:0000d0c0       ??A?$vector@UCandidate@@V?$allocator@UCandidate@@@_STL@@@_STL@@QAEAAUCandidate@@I@Z 0040e0c0 f i bscript:compiler.obj
 0001:0000d0d0       ??0?$allocator@UCandidate@@@_STL@@QAE@XZ 0040e0d0 f i bscript:compiler.obj
 0001:0000d0e0       ??1?$allocator@UCandidate@@@_STL@@QAE@XZ 0040e0e0 f i bscript:compiler.obj
 0001:0000d0f0       ??D?$_Rb_tree_iterator@U?$pair@$$CBV?$basic_string@DV?$char_traits@D@_STL@@V?$allocator@D@2@@_STL@@VUserFunction@@@_STL@@U?$_Nonconst_traits@U?$pair@$$CBV?$basic_string@DV?$char_traits@D@_STL@@V?$allocator@D@2@@_STL@@VUserFunction@@@_STL@@@2@@_STL@@QBEAAU?$pair@$$CBV?$basic_string@DV?$char_traits@D@_STL@@V?$allocator@D@2@@_STL@@VUserFunction@@@1@XZ 0040e0f0 f i bscript:compiler.obj
 0001:0000d100       ??E?$_Rb_tree_iterator@U?$pair@$$CBV?$basic_string@DV?$char_traits@D@_STL@@V?$allocator@D@2@@_STL@@VUserFunction@@@_STL@@U?$_Nonconst_traits@U?$pair@$$CBV?$basic_string@DV?$char_traits@D@_STL@@V?$allocator@D@2@@_STL@@VUserFunction@@@_STL@@@2@@_STL@@QAEAAU01@XZ 0040e100 f i bscript:compiler.obj
 0001:0000d120       ??D?$_Rb_tree_iterator@U?$pair@$$CBV?$basic_string@DV?$char_traits@D@_STL@@V?$allocator@D@2@@_STL@@VExpression@@@_STL@@U?$_Nonconst_traits@U?$pair@$$CBV?$basic_string@DV?$char_traits@D@_STL@@V?$allocator@D@2@@_STL@@VExpression@@@_STL@@@2@@_STL@@QBEAAU?$pair@$$CBV?$basic_string@DV?$char_traits@D@_STL@@V?$allocator@D@2@@_STL@@VExpression@@@1@XZ 0040e120 f i bscript:compiler.obj
 0001:0000d130       ??E?$_Rb_tree_iterator@U?$pair@$$CBV?$basic_string@DV?$char_traits@D@_STL@@V?$allocator@D@2@@_STL@@VExpression@@@_STL@@U?$_Nonconst_traits@U?$pair@$$CBV?$basic_string@DV?$char_traits@D@_STL@@V?$allocator@D@2@@_STL@@VExpression@@@_STL@@@2@@_STL@@QAEAAU01@XZ 0040e130 f i bscript:compiler.obj
 0001:0000d150       ??D?$_Rb_tree_iterator@U?$pair@$$CBV?$basic_string@DV?$char_traits@D@_STL@@V?$allocator@D@2@@_STL@@VToken@@@_STL@@U?$_Const_traits@U?$pair@$$CBV?$basic_string@DV?$char_traits@D@_STL@@V?$allocator@D@2@@_STL@@VToken@@@_STL@@@2@@_STL@@QBEABU?$pair@$$CBV?$basic_string@DV?$char_traits@D@_STL@@V?$allocator@D@2@@_STL@@VToken@@@1@XZ 0040e150 f i bscript:compiler.obj
 0001:0000d160       ?size@?$vector@EV?$allocator@E@_STL@@@_STL@@QBEIXZ 0040e160 f i bscript:compiler.obj
 0001:0000d170       ??0?$allocator@E@_STL@@QAE@XZ 0040e170 f i bscript:compiler.obj
 0001:0000d180       ??1?$allocator@E@_STL@@QAE@XZ 0040e180 f i bscript:compiler.obj
 0001:0000d190       ??0?$auto_ptr@VFunctionalityModule@@@_STL@@QAE@PAVFunctionalityModule@@@Z 0040e190 f i bscript:compiler.obj
 0001:0000d1a0       ??0?$auto_ptr@VUserFunction@@@_STL@@QAE@PAVUserFunction@@@Z 0040e1a0 f i bscript:compiler.obj
 0001:0000d1b0       ??_GUserFunction@@QAEPAXI@Z 0040e1b0 f i bscript:compiler.obj
 0001:0000d1d0       ??F?$_Bit_iter@U_Bit_reference@_STL@@PAU12@@_STL@@QAEAAU01@XZ 0040e1d0 f i bscript:compiler.obj
 0001:0000d1f0       ?begin@?$vector@V?$basic_string@DV?$char_traits@D@_STL@@V?$allocator@D@2@@_STL@@V?$allocator@V?$basic_string@DV?$char_traits@D@_STL@@V?$allocator@D@2@@_STL@@@2@@_STL@@QBEPBV?$basic_string@DV?$char_traits@D@_STL@@V?$allocator@D@2@@2@XZ 0040e1f0 f i bscript:compiler.obj
 0001:0000d200       ?end@?$vector@V?$basic_string@DV?$char_traits@D@_STL@@V?$allocator@D@2@@_STL@@V?$allocator@V?$basic_string@DV?$char_traits@D@_STL@@V?$allocator@D@2@@_STL@@@2@@_STL@@QAEPAV?$basic_string@DV?$char_traits@D@_STL@@V?$allocator@D@2@@2@XZ 0040e200 f i bscript:compiler.obj
 0001:0000d210       ?begin@?$vector@PAVToken@@V?$allocator@PAVToken@@@_STL@@@_STL@@QBEPBQAVToken@@XZ 0040e210 f i bscript:compiler.obj
 0001:0000d220       ??0?$_Deque_iterator@PAVToken@@U?$_Nonconst_traits@PAVToken@@@_STL@@@_STL@@QAE@ABU01@@Z 0040e220 f i bscript:compiler.obj
 0001:0000d250       ?begin@?$vector@IV?$allocator@I@_STL@@@_STL@@QAEPAIXZ 0040e250 f i bscript:compiler.obj
 0001:0000d260       ?end@?$vector@IV?$allocator@I@_STL@@@_STL@@QAEPAIXZ 0040e260 f i bscript:compiler.obj
 0001:0000d270       ?begin@?$vector@PAVFunctionalityModule@@V?$allocator@PAVFunctionalityModule@@@_STL@@@_STL@@QAEPAPAVFunctionalityModule@@XZ 0040e270 f i bscript:compiler.obj
 0001:0000d280       ?end@?$vector@PAVFunctionalityModule@@V?$allocator@PAVFunctionalityModule@@@_STL@@@_STL@@QAEPAPAVFunctionalityModule@@XZ 0040e280 f i bscript:compiler.obj
 0001:0000d290       ?begin@?$vector@UVariable@@V?$allocator@UVariable@@@_STL@@@_STL@@QAEPAUVariable@@XZ 0040e290 f i bscript:compiler.obj
 0001:0000d2a0       ?begin@?$vector@UVariable@@V?$allocator@UVariable@@@_STL@@@_STL@@QBEPBUVariable@@XZ 0040e2a0 f i bscript:compiler.obj
 0001:0000d2b0       ?end@?$vector@UVariable@@V?$allocator@UVariable@@@_STL@@@_STL@@QAEPAUVariable@@XZ 0040e2b0 f i bscript:compiler.obj
 0001:0000d2c0       ?begin@?$vector@UBlockDesc@@V?$allocator@UBlockDesc@@@_STL@@@_STL@@QAEPAUBlockDesc@@XZ 0040e2c0 f i bscript:compiler.obj
 0001:0000d2d0       ?end@?$vector@UBlockDesc@@V?$allocator@UBlockDesc@@@_STL@@@_STL@@QAEPAUBlockDesc@@XZ 0040e2d0 f i bscript:compiler.obj
 0001:0000d2e0       ?end@?$vector@UBlockDesc@@V?$allocator@UBlockDesc@@@_STL@@@_STL@@QBEPBUBlockDesc@@XZ 0040e2e0 f i bscript:compiler.obj
 0001:0000d2f0       ?add_ref@?$ref_ptr@VEScriptProgram@@@@IAEXXZ 0040e2f0 f i bscript:compiler.obj
 0001:0000d300       ??0?$allocator@U?$pair@$$CBV?$basic_string@DV?$char_traits@D@_STL@@V?$allocator@D@2@@_STL@@VUserFunction@@@_STL@@@_STL@@QAE@XZ 0040e300 f i bscript:compiler.obj
 0001:0000d310       ??1?$allocator@U?$pair@$$CBV?$basic_string@DV?$char_traits@D@_STL@@V?$allocator@D@2@@_STL@@VUserFunction@@@_STL@@@_STL@@QAE@XZ 0040e310 f i bscript:compiler.obj
 0001:0000d320       ??0?$allocator@U?$pair@$$CBV?$basic_string@DV?$char_traits@D@_STL@@V?$allocator@D@2@@_STL@@VToken@@@_STL@@@_STL@@QAE@XZ 0040e320 f i bscript:compiler.obj
 0001:0000d330       ??1?$allocator@U?$pair@$$CBV?$basic_string@DV?$char_traits@D@_STL@@V?$allocator@D@2@@_STL@@VToken@@@_STL@@@_STL@@QAE@XZ 0040e330 f i bscript:compiler.obj
 0001:0000d340       ?end@?$vector@PADV?$allocator@PAD@_STL@@@_STL@@QAEPAPADXZ 0040e340 f i bscript:compiler.obj
 0001:0000d350       ??0?$_Rb_tree_iterator@U?$pair@$$CBV?$basic_string@DV?$char_traits@D@_STL@@V?$allocator@D@2@@_STL@@VUserFunction@@@_STL@@U?$_Nonconst_traits@U?$pair@$$CBV?$basic_string@DV?$char_traits@D@_STL@@V?$allocator@D@2@@_STL@@VUserFunction@@@_STL@@@2@@_STL@@QAE@ABU01@@Z 0040e350 f i bscript:compiler.obj
 0001:0000d360       ?empty@?$_Rb_tree@V?$basic_string@DV?$char_traits@D@_STL@@V?$allocator@D@2@@_STL@@U?$pair@$$CBV?$basic_string@DV?$char_traits@D@_STL@@V?$allocator@D@2@@_STL@@VExpression@@@2@U?$_Select1st@U?$pair@$$CBV?$basic_string@DV?$char_traits@D@_STL@@V?$allocator@D@2@@_STL@@VExpression@@@_STL@@@2@U?$less@V?$basic_string@DV?$char_traits@D@_STL@@V?$allocator@D@2@@_STL@@@2@V?$allocator@U?$pair@$$CBV?$basic_string@DV?$char_traits@D@_STL@@V?$allocator@D@2@@_STL@@VExpression@@@_STL@@@2@@_STL@@QBE_NXZ 0040e360 f i bscript:compiler.obj
 0001:0000d370       ?size@?$_Rb_tree@V?$basic_string@DV?$char_traits@D@_STL@@V?$allocator@D@2@@_STL@@U?$pair@$$CBV?$basic_string@DV?$char_traits@D@_STL@@V?$allocator@D@2@@_STL@@VExpression@@@2@U?$_Select1st@U?$pair@$$CBV?$basic_string@DV?$char_traits@D@_STL@@V?$allocator@D@2@@_STL@@VExpression@@@_STL@@@2@U?$less@V?$basic_string@DV?$char_traits@D@_STL@@V?$allocator@D@2@@_STL@@@2@V?$allocator@U?$pair@$$CBV?$basic_string@DV?$char_traits@D@_STL@@V?$allocator@D@2@@_STL@@VExpression@@@_STL@@@2@@_STL@@QBEIXZ 0040e370 f i bscript:compiler.obj
 0001:0000d380       ??0?$allocator@U?$pair@$$CBV?$basic_string@DV?$char_traits@D@_STL@@V?$allocator@D@2@@_STL@@VExpression@@@_STL@@@_STL@@QAE@XZ 0040e380 f i bscript:compiler.obj
 0001:0000d390       ??1?$allocator@U?$pair@$$CBV?$basic_string@DV?$char_traits@D@_STL@@V?$allocator@D@2@@_STL@@VExpression@@@_STL@@@_STL@@QAE@XZ 0040e390 f i bscript:compiler.obj
 0001:0000d3a0       ??0?$_Rb_tree_iterator@U?$pair@$$CBV?$basic_string@DV?$char_traits@D@_STL@@V?$allocator@D@2@@_STL@@VExpression@@@_STL@@U?$_Nonconst_traits@U?$pair@$$CBV?$basic_string@DV?$char_traits@D@_STL@@V?$allocator@D@2@@_STL@@VExpression@@@_STL@@@2@@_STL@@QAE@ABU01@@Z 0040e3a0 f i bscript:compiler.obj
 0001:0000d3b0       ?begin@?$vector@EV?$allocator@E@_STL@@@_STL@@QAEPAEXZ 0040e3b0 f i bscript:compiler.obj
 0001:0000d3c0       ?get@?$auto_ptr@VFunctionalityModule@@@_STL@@QBEPAVFunctionalityModule@@XZ 0040e3c0 f i bscript:compiler.obj
 0001:0000d3d0       ?get@?$auto_ptr@VUserFunction@@@_STL@@QBEPAVUserFunction@@XZ 0040e3d0 f i bscript:compiler.obj
 0001:0000d3e0       ??0?$pair@U?$_Rb_tree_iterator@V?$basic_string@DV?$char_traits@D@_STL@@V?$allocator@D@2@@_STL@@U?$_Const_traits@V?$basic_string@DV?$char_traits@D@_STL@@V?$allocator@D@2@@_STL@@@2@@_STL@@_N@_STL@@QAE@ABU?$_Rb_tree_iterator@V?$basic_string@DV?$char_traits@D@_STL@@V?$allocator@D@2@@_STL@@U?$_Const_traits@V?$basic_string@DV?$char_traits@D@_STL@@V?$allocator@D@2@@_STL@@@2@@1@AB_N@Z 0040e3e0 f i bscript:compiler.obj
 0001:0000d400       ??1?$_STLP_alloc_proxy@PAV?$basic_string@DV?$char_traits@D@_STL@@V?$allocator@D@2@@_STL@@V12@V?$allocator@V?$basic_string@DV?$char_traits@D@_STL@@V?$allocator@D@2@@_STL@@@2@@_STL@@QAE@XZ 0040e400 f i bscript:compiler.obj
 0001:0000d410       ??1?$_STLP_alloc_proxy@PAPAVToken@@PAV1@V?$allocator@PAVToken@@@_STL@@@_STL@@QAE@XZ 0040e410 f i bscript:compiler.obj
 0001:0000d420       ??1?$_STLP_alloc_proxy@PAIIV?$allocator@I@_STL@@@_STL@@QAE@XZ 0040e420 f i bscript:compiler.obj
 0001:0000d430       ??1?$_STLP_alloc_proxy@PAUVariable@@U1@V?$allocator@UVariable@@@_STL@@@_STL@@QAE@XZ 0040e430 f i bscript:compiler.obj
 0001:0000d440       ??1?$_STLP_alloc_proxy@PAUBlockDesc@@U1@V?$allocator@UBlockDesc@@@_STL@@@_STL@@QAE@XZ 0040e440 f i bscript:compiler.obj
 0001:0000d450       ??_GEScriptProgram@@AAEPAXI@Z 0040e450 f i bscript:compiler.obj
 0001:0000d470       ??1?$_STLP_alloc_proxy@PAPADPADV?$allocator@PAD@_STL@@@_STL@@QAE@XZ 0040e470 f i bscript:compiler.obj
 0001:0000d480       ??1?$_STLP_alloc_proxy@PAUCandidate@@U1@V?$allocator@UCandidate@@@_STL@@@_STL@@QAE@XZ 0040e480 f i bscript:compiler.obj
 0001:0000d490       ??1?$_STLP_alloc_proxy@PAEEV?$allocator@E@_STL@@@_STL@@QAE@XZ 0040e490 f i bscript:compiler.obj
 0001:0000d4a0       ?_M_set@?$vector@V?$basic_string@DV?$char_traits@D@_STL@@V?$allocator@D@2@@_STL@@V?$allocator@V?$basic_string@DV?$char_traits@D@_STL@@V?$allocator@D@2@@_STL@@@2@@_STL@@IAEXPAV?$basic_string@DV?$char_traits@D@_STL@@V?$allocator@D@2@@2@00@Z 0040e4a0 f i bscript:compiler.obj
 0001:0000d4c0       ?_M_set@?$vector@PAVToken@@V?$allocator@PAVToken@@@_STL@@@_STL@@IAEXPAPAVToken@@00@Z 0040e4c0 f i bscript:compiler.obj
 0001:0000d4e0       ??D?$_Deque_iterator@PAVToken@@U?$_Nonconst_traits@PAVToken@@@_STL@@@_STL@@QBEAAPAVToken@@XZ 0040e4e0 f i bscript:compiler.obj
 0001:0000d4f0       ?_M_set@?$vector@IV?$allocator@I@_STL@@@_STL@@IAEXPAI00@Z 0040e4f0 f i bscript:compiler.obj
 0001:0000d510       ?_M_set@?$vector@PAVFunctionalityModule@@V?$allocator@PAVFunctionalityModule@@@_STL@@@_STL@@IAEXPAPAVFunctionalityModule@@00@Z 0040e510 f i bscript:compiler.obj
 0001:0000d530       ?size@?$vector@UEPExportedFunction@@V?$allocator@UEPExportedFunction@@@_STL@@@_STL@@QBEIXZ 0040e530 f i bscript:compiler.obj
 0001:0000d550       ?_M_set@?$vector@UEPExportedFunction@@V?$allocator@UEPExportedFunction@@@_STL@@@_STL@@IAEXPAUEPExportedFunction@@00@Z 0040e550 f i bscript:compiler.obj
 0001:0000d570       ?_M_set@?$vector@UVariable@@V?$allocator@UVariable@@@_STL@@@_STL@@IAEXPAUVariable@@00@Z 0040e570 f i bscript:compiler.obj
 0001:0000d590       ?_M_set@?$vector@UBlockDesc@@V?$allocator@UBlockDesc@@@_STL@@@_STL@@IAEXPAUBlockDesc@@00@Z 0040e590 f i bscript:compiler.obj
 0001:0000d5b0       ?_M_root@?$_Rb_tree@V?$basic_string@DV?$char_traits@D@_STL@@V?$allocator@D@2@@_STL@@V12@U?$_Identity@V?$basic_string@DV?$char_traits@D@_STL@@V?$allocator@D@2@@_STL@@@2@Vci_cmp_pred@@V?$allocator@V?$basic_string@DV?$char_traits@D@_STL@@V?$allocator@D@2@@_STL@@@2@@_STL@@IBEAAPAU?$_Rb_tree_node@V?$basic_string@DV?$char_traits@D@_STL@@V?$allocator@D@2@@_STL@@@2@XZ 0040e5b0 f i bscript:compiler.obj
 0001:0000d5c0       ?_M_leftmost@?$_Rb_tree@V?$basic_string@DV?$char_traits@D@_STL@@V?$allocator@D@2@@_STL@@V12@U?$_Identity@V?$basic_string@DV?$char_traits@D@_STL@@V?$allocator@D@2@@_STL@@@2@Vci_cmp_pred@@V?$allocator@V?$basic_string@DV?$char_traits@D@_STL@@V?$allocator@D@2@@_STL@@@2@@_STL@@IBEAAPAU?$_Rb_tree_node@V?$basic_string@DV?$char_traits@D@_STL@@V?$allocator@D@2@@_STL@@@2@XZ 0040e5c0 f i bscript:compiler.obj
 0001:0000d5d0       ?_M_rightmost@?$_Rb_tree@V?$basic_string@DV?$char_traits@D@_STL@@V?$allocator@D@2@@_STL@@V12@U?$_Identity@V?$basic_string@DV?$char_traits@D@_STL@@V?$allocator@D@2@@_STL@@@2@Vci_cmp_pred@@V?$allocator@V?$basic_string@DV?$char_traits@D@_STL@@V?$allocator@D@2@@_STL@@@2@@_STL@@IBEAAPAU?$_Rb_tree_node@V?$basic_string@DV?$char_traits@D@_STL@@V?$allocator@D@2@@_STL@@@2@XZ 0040e5d0 f i bscript:compiler.obj
 0001:0000d5e0       ??1?$allocator@U?$_Rb_tree_node@V?$basic_string@DV?$char_traits@D@_STL@@V?$allocator@D@2@@_STL@@@_STL@@@_STL@@QAE@XZ 0040e5e0 f i bscript:compiler.obj
 0001:0000d5f0       ?_M_root@?$_Rb_tree@V?$basic_string@DV?$char_traits@D@_STL@@V?$allocator@D@2@@_STL@@U?$pair@$$CBV?$basic_string@DV?$char_traits@D@_STL@@V?$allocator@D@2@@_STL@@VUserFunction@@@2@U?$_Select1st@U?$pair@$$CBV?$basic_string@DV?$char_traits@D@_STL@@V?$allocator@D@2@@_STL@@VUserFunction@@@_STL@@@2@Vci_cmp_pred@@V?$allocator@U?$pair@$$CBV?$basic_string@DV?$char_traits@D@_STL@@V?$allocator@D@2@@_STL@@VUserFunction@@@_STL@@@2@@_STL@@IBEAAPAU?$_Rb_tree_node@U?$pair@$$CBV?$basic_string@DV?$char_traits@D@_STL@@V?$allocator@D@2@@_STL@@VUserFunction@@@_STL@@@2@XZ 0040e5f0 f i bscript:compiler.obj
 0001:0000d600       ?_M_leftmost@?$_Rb_tree@V?$basic_string@DV?$char_traits@D@_STL@@V?$allocator@D@2@@_STL@@U?$pair@$$CBV?$basic_string@DV?$char_traits@D@_STL@@V?$allocator@D@2@@_STL@@VUserFunction@@@2@U?$_Select1st@U?$pair@$$CBV?$basic_string@DV?$char_traits@D@_STL@@V?$allocator@D@2@@_STL@@VUserFunction@@@_STL@@@2@Vci_cmp_pred@@V?$allocator@U?$pair@$$CBV?$basic_string@DV?$char_traits@D@_STL@@V?$allocator@D@2@@_STL@@VUserFunction@@@_STL@@@2@@_STL@@IBEAAPAU?$_Rb_tree_node@U?$pair@$$CBV?$basic_string@DV?$char_traits@D@_STL@@V?$allocator@D@2@@_STL@@VUserFunction@@@_STL@@@2@XZ 0040e600 f i bscript:compiler.obj
 0001:0000d610       ?_M_rightmost@?$_Rb_tree@V?$basic_string@DV?$char_traits@D@_STL@@V?$allocator@D@2@@_STL@@U?$pair@$$CBV?$basic_string@DV?$char_traits@D@_STL@@V?$allocator@D@2@@_STL@@VUserFunction@@@2@U?$_Select1st@U?$pair@$$CBV?$basic_string@DV?$char_traits@D@_STL@@V?$allocator@D@2@@_STL@@VUserFunction@@@_STL@@@2@Vci_cmp_pred@@V?$allocator@U?$pair@$$CBV?$basic_string@DV?$char_traits@D@_STL@@V?$allocator@D@2@@_STL@@VUserFunction@@@_STL@@@2@@_STL@@IBEAAPAU?$_Rb_tree_node@U?$pair@$$CBV?$basic_string@DV?$char_traits@D@_STL@@V?$allocator@D@2@@_STL@@VUserFunction@@@_STL@@@2@XZ 0040e610 f i bscript:compiler.obj
 0001:0000d620       ?key_comp@?$_Rb_tree@V?$basic_string@DV?$char_traits@D@_STL@@V?$allocator@D@2@@_STL@@U?$pair@$$CBV?$basic_string@DV?$char_traits@D@_STL@@V?$allocator@D@2@@_STL@@VUserFunction@@@2@U?$_Select1st@U?$pair@$$CBV?$basic_string@DV?$char_traits@D@_STL@@V?$allocator@D@2@@_STL@@VUserFunction@@@_STL@@@2@Vci_cmp_pred@@V?$allocator@U?$pair@$$CBV?$basic_string@DV?$char_traits@D@_STL@@V?$allocator@D@2@@_STL@@VUserFunction@@@_STL@@@2@@_STL@@QBE?AVci_cmp_pred@@XZ 0040e620 f i bscript:compiler.obj
 0001:0000d630       ??1?$allocator@U?$_Rb_tree_node@U?$pair@$$CBV?$basic_string@DV?$char_traits@D@_STL@@V?$allocator@D@2@@_STL@@VUserFunction@@@_STL@@@_STL@@@_STL@@QAE@XZ 0040e630 f i bscript:compiler.obj
 0001:0000d640       ?_M_root@?$_Rb_tree@V?$basic_string@DV?$char_traits@D@_STL@@V?$allocator@D@2@@_STL@@U?$pair@$$CBV?$basic_string@DV?$char_traits@D@_STL@@V?$allocator@D@2@@_STL@@VToken@@@2@U?$_Select1st@U?$pair@$$CBV?$basic_string@DV?$char_traits@D@_STL@@V?$allocator@D@2@@_STL@@VToken@@@_STL@@@2@U?$less@V?$basic_string@DV?$char_traits@D@_STL@@V?$allocator@D@2@@_STL@@@2@V?$allocator@U?$pair@$$CBV?$basic_string@DV?$char_traits@D@_STL@@V?$allocator@D@2@@_STL@@VToken@@@_STL@@@2@@_STL@@IBEAAPAU?$_Rb_tree_node@U?$pair@$$CBV?$basic_string@DV?$char_traits@D@_STL@@V?$allocator@D@2@@_STL@@VToken@@@_STL@@@2@XZ 0040e640 f i bscript:compiler.obj
 0001:0000d650       ?_M_leftmost@?$_Rb_tree@V?$basic_string@DV?$char_traits@D@_STL@@V?$allocator@D@2@@_STL@@U?$pair@$$CBV?$basic_string@DV?$char_traits@D@_STL@@V?$allocator@D@2@@_STL@@VToken@@@2@U?$_Select1st@U?$pair@$$CBV?$basic_string@DV?$char_traits@D@_STL@@V?$allocator@D@2@@_STL@@VToken@@@_STL@@@2@U?$less@V?$basic_string@DV?$char_traits@D@_STL@@V?$allocator@D@2@@_STL@@@2@V?$allocator@U?$pair@$$CBV?$basic_string@DV?$char_traits@D@_STL@@V?$allocator@D@2@@_STL@@VToken@@@_STL@@@2@@_STL@@IBEAAPAU?$_Rb_tree_node@U?$pair@$$CBV?$basic_string@DV?$char_traits@D@_STL@@V?$allocator@D@2@@_STL@@VToken@@@_STL@@@2@XZ 0040e650 f i bscript:compiler.obj
 0001:0000d660       ?_M_rightmost@?$_Rb_tree@V?$basic_string@DV?$char_traits@D@_STL@@V?$allocator@D@2@@_STL@@U?$pair@$$CBV?$basic_string@DV?$char_traits@D@_STL@@V?$allocator@D@2@@_STL@@VToken@@@2@U?$_Select1st@U?$pair@$$CBV?$basic_string@DV?$char_traits@D@_STL@@V?$allocator@D@2@@_STL@@VToken@@@_STL@@@2@U?$less@V?$basic_string@DV?$char_traits@D@_STL@@V?$allocator@D@2@@_STL@@@2@V?$allocator@U?$pair@$$CBV?$basic_string@DV?$char_traits@D@_STL@@V?$allocator@D@2@@_STL@@VToken@@@_STL@@@2@@_STL@@IBEAAPAU?$_Rb_tree_node@U?$pair@$$CBV?$basic_string@DV?$char_traits@D@_STL@@V?$allocator@D@2@@_STL@@VToken@@@_STL@@@2@XZ 0040e660 f i bscript:compiler.obj
 0001:0000d670       ??1?$allocator@U?$_Rb_tree_node@U?$pair@$$CBV?$basic_string@DV?$char_traits@D@_STL@@V?$allocator@D@2@@_STL@@VToken@@@_STL@@@_STL@@@_STL@@QAE@XZ 0040e670 f i bscript:compiler.obj
 0001:0000d680       ?size@?$vector@PADV?$allocator@PAD@_STL@@@_STL@@QBEIXZ 0040e680 f i bscript:compiler.obj
 0001:0000d690       ?_M_set@?$vector@PADV?$allocator@PAD@_STL@@@_STL@@IAEXPAPAD00@Z 0040e690 f i bscript:compiler.obj
 0001:0000d6b0       ?_M_set@?$vector@UCandidate@@V?$allocator@UCandidate@@@_STL@@@_STL@@IAEXPAUCandidate@@00@Z 0040e6b0 f i bscript:compiler.obj
 0001:0000d6d0       ??0?$_Rb_tree_iterator@U?$pair@$$CBV?$basic_string@DV?$char_traits@D@_STL@@V?$allocator@D@2@@_STL@@VUserFunction@@@_STL@@U?$_Nonconst_traits@U?$pair@$$CBV?$basic_string@DV?$char_traits@D@_STL@@V?$allocator@D@2@@_STL@@VUserFunction@@@_STL@@@2@@_STL@@QAE@PAU?$_Rb_tree_node@U?$pair@$$CBV?$basic_string@DV?$char_traits@D@_STL@@V?$allocator@D@2@@_STL@@VUserFunction@@@_STL@@@1@@Z 0040e6d0 f i bscript:compiler.obj
 0001:0000d6e0       ?_M_root@?$_Rb_tree@V?$basic_string@DV?$char_traits@D@_STL@@V?$allocator@D@2@@_STL@@U?$pair@$$CBV?$basic_string@DV?$char_traits@D@_STL@@V?$allocator@D@2@@_STL@@VExpression@@@2@U?$_Select1st@U?$pair@$$CBV?$basic_string@DV?$char_traits@D@_STL@@V?$allocator@D@2@@_STL@@VExpression@@@_STL@@@2@U?$less@V?$basic_string@DV?$char_traits@D@_STL@@V?$allocator@D@2@@_STL@@@2@V?$allocator@U?$pair@$$CBV?$basic_string@DV?$char_traits@D@_STL@@V?$allocator@D@2@@_STL@@VExpression@@@_STL@@@2@@_STL@@IBEAAPAU?$_Rb_tree_node@U?$pair@$$CBV?$basic_string@DV?$char_traits@D@_STL@@V?$allocator@D@2@@_STL@@VExpression@@@_STL@@@2@XZ 0040e6e0 f i bscript:compiler.obj
 0001:0000d6f0       ?_M_leftmost@?$_Rb_tree@V?$basic_string@DV?$char_traits@D@_STL@@V?$allocator@D@2@@_STL@@U?$pair@$$CBV?$basic_string@DV?$char_traits@D@_STL@@V?$allocator@D@2@@_STL@@VExpression@@@2@U?$_Select1st@U?$pair@$$CBV?$basic_string@DV?$char_traits@D@_STL@@V?$allocator@D@2@@_STL@@VExpression@@@_STL@@@2@U?$less@V?$basic_string@DV?$char_traits@D@_STL@@V?$allocator@D@2@@_STL@@@2@V?$allocator@U?$pair@$$CBV?$basic_string@DV?$char_traits@D@_STL@@V?$allocator@D@2@@_STL@@VExpression@@@_STL@@@2@@_STL@@IBEAAPAU?$_Rb_tree_node@U?$pair@$$CBV?$basic_string@DV?$char_traits@D@_STL@@V?$allocator@D@2@@_STL@@VExpression@@@_STL@@@2@XZ 0040e6f0 f i bscript:compiler.obj
 0001:0000d700       ?_M_rightmost@?$_Rb_tree@V?$basic_string@DV?$char_traits@D@_STL@@V?$allocator@D@2@@_STL@@U?$pair@$$CBV?$basic_string@DV?$char_traits@D@_STL@@V?$allocator@D@2@@_STL@@VExpression@@@2@U?$_Select1st@U?$pair@$$CBV?$basic_string@DV?$char_traits@D@_STL@@V?$allocator@D@2@@_STL@@VExpression@@@_STL@@@2@U?$less@V?$basic_string@DV?$char_traits@D@_STL@@V?$allocator@D@2@@_STL@@@2@V?$allocator@U?$pair@$$CBV?$basic_string@DV?$char_traits@D@_STL@@V?$allocator@D@2@@_STL@@VExpression@@@_STL@@@2@@_STL@@IBEAAPAU?$_Rb_tree_node@U?$pair@$$CBV?$basic_string@DV?$char_traits@D@_STL@@V?$allocator@D@2@@_STL@@VExpression@@@_STL@@@2@XZ 0040e700 f i bscript:compiler.obj
 0001:0000d710       ?key_comp@?$_Rb_tree@V?$basic_string@DV?$char_traits@D@_STL@@V?$allocator@D@2@@_STL@@U?$pair@$$CBV?$basic_string@DV?$char_traits@D@_STL@@V?$allocator@D@2@@_STL@@VExpression@@@2@U?$_Select1st@U?$pair@$$CBV?$basic_string@DV?$char_traits@D@_STL@@V?$allocator@D@2@@_STL@@VExpression@@@_STL@@@2@U?$less@V?$basic_string@DV?$char_traits@D@_STL@@V?$allocator@D@2@@_STL@@@2@V?$allocator@U?$pair@$$CBV?$basic_string@DV?$char_traits@D@_STL@@V?$allocator@D@2@@_STL@@VExpression@@@_STL@@@2@@_STL@@QBE?AU?$less@V?$basic_string@DV?$char_traits@D@_STL@@V?$allocator@D@2@@_STL@@@2@XZ 0040e710 f i bscript:compiler.obj
 0001:0000d720       ??1?$allocator@U?$_Rb_tree_node@U?$pair@$$CBV?$basic_string@DV?$char_traits@D@_STL@@V?$allocator@D@2@@_STL@@VExpression@@@_STL@@@_STL@@@_STL@@QAE@XZ 0040e720 f i bscript:compiler.obj
 0001:0000d730       ??0?$_Rb_tree_iterator@U?$pair@$$CBV?$basic_string@DV?$char_traits@D@_STL@@V?$allocator@D@2@@_STL@@VExpression@@@_STL@@U?$_Nonconst_traits@U?$pair@$$CBV?$basic_string@DV?$char_traits@D@_STL@@V?$allocator@D@2@@_STL@@VExpression@@@_STL@@@2@@_STL@@QAE@PAU?$_Rb_tree_node@U?$pair@$$CBV?$basic_string@DV?$char_traits@D@_STL@@V?$allocator@D@2@@_STL@@VExpression@@@_STL@@@1@@Z 0040e730 f i bscript:compiler.obj
 0001:0000d740       ??0?$_Rb_tree_iterator@U?$pair@$$CBV?$basic_string@DV?$char_traits@D@_STL@@V?$allocator@D@2@@_STL@@VToken@@@_STL@@U?$_Const_traits@U?$pair@$$CBV?$basic_string@DV?$char_traits@D@_STL@@V?$allocator@D@2@@_STL@@VToken@@@_STL@@@2@@_STL@@QAE@PAU?$_Rb_tree_node@U?$pair@$$CBV?$basic_string@DV?$char_traits@D@_STL@@V?$allocator@D@2@@_STL@@VToken@@@_STL@@@1@@Z 0040e740 f i bscript:compiler.obj
 0001:0000d750       ??0?$_Rb_tree_iterator@U?$pair@$$CBV?$basic_string@DV?$char_traits@D@_STL@@V?$allocator@D@2@@_STL@@VToken@@@_STL@@U?$_Nonconst_traits@U?$pair@$$CBV?$basic_string@DV?$char_traits@D@_STL@@V?$allocator@D@2@@_STL@@VToken@@@_STL@@@2@@_STL@@QAE@PAU?$_Rb_tree_node@U?$pair@$$CBV?$basic_string@DV?$char_traits@D@_STL@@V?$allocator@D@2@@_STL@@VToken@@@_STL@@@1@@Z 0040e750 f i bscript:compiler.obj
 0001:0000d760       ?_M_set@?$vector@EV?$allocator@E@_STL@@@_STL@@IAEXPAE00@Z 0040e760 f i bscript:compiler.obj
 0001:0000d780       ??0?$_Rb_tree_iterator@V?$basic_string@DV?$char_traits@D@_STL@@V?$allocator@D@2@@_STL@@U?$_Const_traits@V?$basic_string@DV?$char_traits@D@_STL@@V?$allocator@D@2@@_STL@@@2@@_STL@@QAE@PAU?$_Rb_tree_node@V?$basic_string@DV?$char_traits@D@_STL@@V?$allocator@D@2@@_STL@@@1@@Z 0040e780 f i bscript:compiler.obj
 0001:0000d790       ??1?$_STLP_alloc_proxy@IPAVToken@@V?$allocator@PAVToken@@@_STL@@@_STL@@QAE@XZ 0040e790 f i bscript:compiler.obj
 0001:0000d7a0       ??0?$allocator@V?$basic_string@DV?$char_traits@D@_STL@@V?$allocator@D@2@@_STL@@@_STL@@QAE@ABV01@@Z 0040e7a0 f i bscript:compiler.obj
 0001:0000d7b0       ??0?$allocator@PAVToken@@@_STL@@QAE@ABV01@@Z 0040e7b0 f i bscript:compiler.obj
 0001:0000d7c0       ?get_allocator@?$deque@PAVToken@@V?$allocator@PAVToken@@@_STL@@@_STL@@QBE?AV?$allocator@PAVToken@@@2@XZ 0040e7c0 f i bscript:compiler.obj
 0001:0000d7d0       ??1?$allocator@PAPAVToken@@@_STL@@QAE@XZ 0040e7d0 f i bscript:compiler.obj
 0001:0000d7e0       ??0?$_STLP_alloc_proxy@IPAVToken@@V?$allocator@PAVToken@@@_STL@@@_STL@@QAE@ABV?$allocator@PAVToken@@@1@I@Z 0040e7e0 f i bscript:compiler.obj
 0001:0000d7f0       ??1?$allocator@VUserParam@@@_STL@@QAE@XZ 0040e7f0 f i bscript:compiler.obj
 0001:0000d800       ??0?$allocator@I@_STL@@QAE@ABV01@@Z 0040e800 f i bscript:compiler.obj
 0001:0000d810       ??0?$allocator@UVariable@@@_STL@@QAE@ABV01@@Z 0040e810 f i bscript:compiler.obj
 0001:0000d820       ??0?$allocator@UBlockDesc@@@_STL@@QAE@ABV01@@Z 0040e820 f i bscript:compiler.obj
 0001:0000d830       ?_S_color@?$_Rb_tree@V?$basic_string@DV?$char_traits@D@_STL@@V?$allocator@D@2@@_STL@@V12@U?$_Identity@V?$basic_string@DV?$char_traits@D@_STL@@V?$allocator@D@2@@_STL@@@2@Vci_cmp_pred@@V?$allocator@V?$basic_string@DV?$char_traits@D@_STL@@V?$allocator@D@2@@_STL@@@2@@_STL@@KAAA_NPAU?$_Rb_tree_node@V?$basic_string@DV?$char_traits@D@_STL@@V?$allocator@D@2@@_STL@@@2@@Z 0040e830 f i bscript:compiler.obj
 0001:0000d840       ?_S_color@?$_Rb_tree@V?$basic_string@DV?$char_traits@D@_STL@@V?$allocator@D@2@@_STL@@U?$pair@$$CBV?$basic_string@DV?$char_traits@D@_STL@@V?$allocator@D@2@@_STL@@VUserFunction@@@2@U?$_Select1st@U?$pair@$$CBV?$basic_string@DV?$char_traits@D@_STL@@V?$allocator@D@2@@_STL@@VUserFunction@@@_STL@@@2@Vci_cmp_pred@@V?$allocator@U?$pair@$$CBV?$basic_string@DV?$char_traits@D@_STL@@V?$allocator@D@2@@_STL@@VUserFunction@@@_STL@@@2@@_STL@@KAAA_NPAU?$_Rb_tree_node@U?$pair@$$CBV?$basic_string@DV?$char_traits@D@_STL@@V?$allocator@D@2@@_STL@@VUserFunction@@@_STL@@@2@@Z 0040e840 f i bscript:compiler.obj
 0001:0000d850       ?_S_color@?$_Rb_tree@V?$basic_string@DV?$char_traits@D@_STL@@V?$allocator@D@2@@_STL@@U?$pair@$$CBV?$basic_string@DV?$char_traits@D@_STL@@V?$allocator@D@2@@_STL@@VToken@@@2@U?$_Select1st@U?$pair@$$CBV?$basic_string@DV?$char_traits@D@_STL@@V?$allocator@D@2@@_STL@@VToken@@@_STL@@@2@U?$less@V?$basic_string@DV?$char_traits@D@_STL@@V?$allocator@D@2@@_STL@@@2@V?$allocator@U?$pair@$$CBV?$basic_string@DV?$char_traits@D@_STL@@V?$allocator@D@2@@_STL@@VToken@@@_STL@@@2@@_STL@@KAAA_NPAU?$_Rb_tree_node@U?$pair@$$CBV?$basic_string@DV?$char_traits@D@_STL@@V?$allocator@D@2@@_STL@@VToken@@@_STL@@@2@@Z 0040e850 f i bscript:compiler.obj
 0001:0000d860       ??0?$allocator@PAD@_STL@@QAE@ABV01@@Z 0040e860 f i bscript:compiler.obj
 0001:0000d870       ??0?$allocator@UCandidate@@@_STL@@QAE@ABV01@@Z 0040e870 f i bscript:compiler.obj
 0001:0000d880       ?_S_color@?$_Rb_tree@V?$basic_string@DV?$char_traits@D@_STL@@V?$allocator@D@2@@_STL@@U?$pair@$$CBV?$basic_string@DV?$char_traits@D@_STL@@V?$allocator@D@2@@_STL@@VExpression@@@2@U?$_Select1st@U?$pair@$$CBV?$basic_string@DV?$char_traits@D@_STL@@V?$allocator@D@2@@_STL@@VExpression@@@_STL@@@2@U?$less@V?$basic_string@DV?$char_traits@D@_STL@@V?$allocator@D@2@@_STL@@@2@V?$allocator@U?$pair@$$CBV?$basic_string@DV?$char_traits@D@_STL@@V?$allocator@D@2@@_STL@@VExpression@@@_STL@@@2@@_STL@@KAAA_NPAU?$_Rb_tree_node@U?$pair@$$CBV?$basic_string@DV?$char_traits@D@_STL@@V?$allocator@D@2@@_STL@@VExpression@@@_STL@@@2@@Z 0040e880 f i bscript:compiler.obj
 0001:0000d890       ??E?$_Rb_tree_iterator@U?$pair@$$CBV?$basic_string@DV?$char_traits@D@_STL@@V?$allocator@D@2@@_STL@@VExpression@@@_STL@@U?$_Nonconst_traits@U?$pair@$$CBV?$basic_string@DV?$char_traits@D@_STL@@V?$allocator@D@2@@_STL@@VExpression@@@_STL@@@2@@_STL@@QAE?AU01@H@Z 0040e890 f i bscript:compiler.obj
 0001:0000d8b0       ??0?$allocator@E@_STL@@QAE@ABV01@@Z 0040e8b0 f i bscript:compiler.obj
 0001:0000d8c0       ??0?$pair@U?$_Rb_tree_iterator@U?$pair@$$CBV?$basic_string@DV?$char_traits@D@_STL@@V?$allocator@D@2@@_STL@@VExpression@@@_STL@@U?$_Nonconst_traits@U?$pair@$$CBV?$basic_string@DV?$char_traits@D@_STL@@V?$allocator@D@2@@_STL@@VExpression@@@_STL@@@2@@_STL@@U12@@_STL@@QAE@ABU?$_Rb_tree_iterator@U?$pair@$$CBV?$basic_string@DV?$char_traits@D@_STL@@V?$allocator@D@2@@_STL@@VExpression@@@_STL@@U?$_Nonconst_traits@U?$pair@$$CBV?$basic_string@DV?$char_traits@D@_STL@@V?$allocator@D@2@@_STL@@VExpression@@@_STL@@@2@@1@0@Z 0040e8c0 f i bscript:compiler.obj
 0001:0000d8e0       ??1?$_STLP_alloc_proxy@PAVUserParam@@V1@V?$allocator@VUserParam@@@_STL@@@_STL@@QAE@XZ 0040e8e0 f i bscript:compiler.obj
 0001:0000d8f0       ??0?$_Deque_iterator_base@PAVToken@@@_STL@@QAE@XZ 0040e8f0 f i bscript:compiler.obj
 0001:0000d900       ?_M_set_node@?$_Deque_iterator_base@PAVToken@@@_STL@@QAEXPAPAPAVToken@@@Z 0040e900 f i bscript:compiler.obj
 0001:0000d920       ??0?$allocator@PAPAVToken@@@_STL@@QAE@ABV01@@Z 0040e920 f i bscript:compiler.obj
 0001:0000d930       ??0?$allocator@VUserParam@@@_STL@@QAE@ABV01@@Z 0040e930 f i bscript:compiler.obj
 0001:0000d940       ?allocate@?$allocator@VUserParam@@@_STL@@QAEPAVUserParam@@IPBX@Z 0040e940 f i bscript:compiler.obj
 0001:0000d980       ?deallocate@?$allocator@VUserParam@@@_STL@@QAEXPAVUserParam@@I@Z 0040e980 f i bscript:compiler.obj
 0001:0000d9c0       ??0?$_STLP_alloc_proxy@PAVUserParam@@V1@V?$allocator@VUserParam@@@_STL@@@_STL@@QAE@ABV?$allocator@VUserParam@@@1@PAVUserParam@@@Z 0040e9c0 f i bscript:compiler.obj
 0001:0000d9d0       ??0?$allocator@U?$_Rb_tree_node@V?$basic_string@DV?$char_traits@D@_STL@@V?$allocator@D@2@@_STL@@@_STL@@@_STL@@QAE@ABV01@@Z 0040e9d0 f i bscript:compiler.obj
 0001:0000d9e0       ?_S_left@?$_Rb_tree@V?$basic_string@DV?$char_traits@D@_STL@@V?$allocator@D@2@@_STL@@U?$pair@$$CBV?$basic_string@DV?$char_traits@D@_STL@@V?$allocator@D@2@@_STL@@VUserFunction@@@2@U?$_Select1st@U?$pair@$$CBV?$basic_string@DV?$char_traits@D@_STL@@V?$allocator@D@2@@_STL@@VUserFunction@@@_STL@@@2@Vci_cmp_pred@@V?$allocator@U?$pair@$$CBV?$basic_string@DV?$char_traits@D@_STL@@V?$allocator@D@2@@_STL@@VUserFunction@@@_STL@@@2@@_STL@@KAAAPAU?$_Rb_tree_node@U?$pair@$$CBV?$basic_string@DV?$char_traits@D@_STL@@V?$allocator@D@2@@_STL@@VUserFunction@@@_STL@@@2@PAU32@@Z 0040e9e0 f i bscript:compiler.obj
 0001:0000d9f0       ?_S_right@?$_Rb_tree@V?$basic_string@DV?$char_traits@D@_STL@@V?$allocator@D@2@@_STL@@U?$pair@$$CBV?$basic_string@DV?$char_traits@D@_STL@@V?$allocator@D@2@@_STL@@VUserFunction@@@2@U?$_Select1st@U?$pair@$$CBV?$basic_string@DV?$char_traits@D@_STL@@V?$allocator@D@2@@_STL@@VUserFunction@@@_STL@@@2@Vci_cmp_pred@@V?$allocator@U?$pair@$$CBV?$basic_string@DV?$char_traits@D@_STL@@V?$allocator@D@2@@_STL@@VUserFunction@@@_STL@@@2@@_STL@@KAAAPAU?$_Rb_tree_node@U?$pair@$$CBV?$basic_string@DV?$char_traits@D@_STL@@V?$allocator@D@2@@_STL@@VUserFunction@@@_STL@@@2@PAU32@@Z 0040e9f0 f i bscript:compiler.obj
 0001:0000da00       ??0?$allocator@U?$_Rb_tree_node@U?$pair@$$CBV?$basic_string@DV?$char_traits@D@_STL@@V?$allocator@D@2@@_STL@@VUserFunction@@@_STL@@@_STL@@@_STL@@QAE@ABV01@@Z 0040ea00 f i bscript:compiler.obj
 0001:0000da10       ??0?$allocator@U?$_Rb_tree_node@U?$pair@$$CBV?$basic_string@DV?$char_traits@D@_STL@@V?$allocator@D@2@@_STL@@VToken@@@_STL@@@_STL@@@_STL@@QAE@ABV01@@Z 0040ea10 f i bscript:compiler.obj
 0001:0000da20       ?_S_left@?$_Rb_tree@V?$basic_string@DV?$char_traits@D@_STL@@V?$allocator@D@2@@_STL@@U?$pair@$$CBV?$basic_string@DV?$char_traits@D@_STL@@V?$allocator@D@2@@_STL@@VExpression@@@2@U?$_Select1st@U?$pair@$$CBV?$basic_string@DV?$char_traits@D@_STL@@V?$allocator@D@2@@_STL@@VExpression@@@_STL@@@2@U?$less@V?$basic_string@DV?$char_traits@D@_STL@@V?$allocator@D@2@@_STL@@@2@V?$allocator@U?$pair@$$CBV?$basic_string@DV?$char_traits@D@_STL@@V?$allocator@D@2@@_STL@@VExpression@@@_STL@@@2@@_STL@@KAAAPAU?$_Rb_tree_node@U?$pair@$$CBV?$basic_string@DV?$char_traits@D@_STL@@V?$allocator@D@2@@_STL@@VExpression@@@_STL@@@2@PAU32@@Z 0040ea20 f i bscript:compiler.obj
 0001:0000da30       ?_S_right@?$_Rb_tree@V?$basic_string@DV?$char_traits@D@_STL@@V?$allocator@D@2@@_STL@@U?$pair@$$CBV?$basic_string@DV?$char_traits@D@_STL@@V?$allocator@D@2@@_STL@@VExpression@@@2@U?$_Select1st@U?$pair@$$CBV?$basic_string@DV?$char_traits@D@_STL@@V?$allocator@D@2@@_STL@@VExpression@@@_STL@@@2@U?$less@V?$basic_string@DV?$char_traits@D@_STL@@V?$allocator@D@2@@_STL@@@2@V?$allocator@U?$pair@$$CBV?$basic_string@DV?$char_traits@D@_STL@@V?$allocator@D@2@@_STL@@VExpression@@@_STL@@@2@@_STL@@KAAAPAU?$_Rb_tree_node@U?$pair@$$CBV?$basic_string@DV?$char_traits@D@_STL@@V?$allocator@D@2@@_STL@@VExpression@@@_STL@@@2@PAU32@@Z 0040ea30 f i bscript:compiler.obj
 0001:0000da40       ??0?$allocator@U?$_Rb_tree_node@U?$pair@$$CBV?$basic_string@DV?$char_traits@D@_STL@@V?$allocator@D@2@@_STL@@VExpression@@@_STL@@@_STL@@@_STL@@QAE@ABV01@@Z 0040ea40 f i bscript:compiler.obj
 0001:0000da50       ??0?$_Deque_iterator@PAVToken@@U?$_Const_traits@PAVToken@@@_STL@@@_STL@@QAE@ABU?$_Deque_iterator@PAVToken@@U?$_Nonconst_traits@PAVToken@@@_STL@@@1@@Z 0040ea50 f i bscript:compiler.obj
 0001:0000da80       ?_M_subtract@?$_Deque_iterator_base@PAVToken@@@_STL@@QBEHABU12@@Z 0040ea80 f i bscript:compiler.obj
 0001:0000dab0       ?_S_value@?$_Rb_tree@V?$basic_string@DV?$char_traits@D@_STL@@V?$allocator@D@2@@_STL@@U?$pair@$$CBV?$basic_string@DV?$char_traits@D@_STL@@V?$allocator@D@2@@_STL@@VUserFunction@@@2@U?$_Select1st@U?$pair@$$CBV?$basic_string@DV?$char_traits@D@_STL@@V?$allocator@D@2@@_STL@@VUserFunction@@@_STL@@@2@Vci_cmp_pred@@V?$allocator@U?$pair@$$CBV?$basic_string@DV?$char_traits@D@_STL@@V?$allocator@D@2@@_STL@@VUserFunction@@@_STL@@@2@@_STL@@KAAAU?$pair@$$CBV?$basic_string@DV?$char_traits@D@_STL@@V?$allocator@D@2@@_STL@@VUserFunction@@@2@PAU?$_Rb_tree_node@U?$pair@$$CBV?$basic_string@DV?$char_traits@D@_STL@@V?$allocator@D@2@@_STL@@VUserFunction@@@_STL@@@2@@Z 0040eab0 f i bscript:compiler.obj
 0001:0000dac0       ?_S_value@?$_Rb_tree@V?$basic_string@DV?$char_traits@D@_STL@@V?$allocator@D@2@@_STL@@U?$pair@$$CBV?$basic_string@DV?$char_traits@D@_STL@@V?$allocator@D@2@@_STL@@VExpression@@@2@U?$_Select1st@U?$pair@$$CBV?$basic_string@DV?$char_traits@D@_STL@@V?$allocator@D@2@@_STL@@VExpression@@@_STL@@@2@U?$less@V?$basic_string@DV?$char_traits@D@_STL@@V?$allocator@D@2@@_STL@@@2@V?$allocator@U?$pair@$$CBV?$basic_string@DV?$char_traits@D@_STL@@V?$allocator@D@2@@_STL@@VExpression@@@_STL@@@2@@_STL@@KAAAU?$pair@$$CBV?$basic_string@DV?$char_traits@D@_STL@@V?$allocator@D@2@@_STL@@VExpression@@@2@PAU?$_Rb_tree_node@U?$pair@$$CBV?$basic_string@DV?$char_traits@D@_STL@@V?$allocator@D@2@@_STL@@VExpression@@@_STL@@@2@@Z 0040eac0 f i bscript:compiler.obj
 0001:0000dad0       ??R?$_Select1st@U?$pair@$$CBV?$basic_string@DV?$char_traits@D@_STL@@V?$allocator@D@2@@_STL@@VUserFunction@@@_STL@@@_STL@@QBEABV?$basic_string@DV?$char_traits@D@_STL@@V?$allocator@D@2@@1@ABU?$pair@$$CBV?$basic_string@DV?$char_traits@D@_STL@@V?$allocator@D@2@@_STL@@VUserFunction@@@1@@Z 0040ead0 f i bscript:compiler.obj
 0001:0000dae0       ??R?$_Select1st@U?$pair@$$CBV?$basic_string@DV?$char_traits@D@_STL@@V?$allocator@D@2@@_STL@@VExpression@@@_STL@@@_STL@@QBEABV?$basic_string@DV?$char_traits@D@_STL@@V?$allocator@D@2@@1@ABU?$pair@$$CBV?$basic_string@DV?$char_traits@D@_STL@@V?$allocator@D@2@@_STL@@VExpression@@@1@@Z 0040eae0 f i bscript:compiler.obj
 0001:0000daf0       ??$stringicmp@V?$basic_string@DV?$char_traits@D@_STL@@V?$allocator@D@2@@_STL@@V12@@@YAHABV?$basic_string@DV?$char_traits@D@_STL@@V?$allocator@D@2@@_STL@@0@Z 0040eaf0 f i bscript:compiler.obj
 0001:0000db10       ??$_Construct@PAVToken@@PAV1@@_STL@@YAXPAPAVToken@@ABQAV1@@Z 0040eb10 f i bscript:compiler.obj
 0001:0000db30       ??$_Destroy@PAVToken@@@_STL@@YAXPAPAVToken@@@Z 0040eb30 f i bscript:compiler.obj
 0001:0000db40       ??$__copy_ptrs@PAPAVToken@@PAPAV1@@_STL@@YAPAPAVToken@@PAPAV1@00ABU__true_type@0@@Z 0040eb40 f i bscript:compiler.obj
 0001:0000db70       ??$_Construct@II@_STL@@YAXPAIABI@Z 0040eb70 f i bscript:compiler.obj
 0001:0000db90       ??$_Destroy@I@_STL@@YAXPAI@Z 0040eb90 f i bscript:compiler.obj
 0001:0000dba0       ??$_Construct@PAVFunctionalityModule@@PAV1@@_STL@@YAXPAPAVFunctionalityModule@@ABQAV1@@Z 0040eba0 f i bscript:compiler.obj
 0001:0000dbc0       ??$_Destroy@PAVFunctionalityModule@@@_STL@@YAXPAPAVFunctionalityModule@@@Z 0040ebc0 f i bscript:compiler.obj
 0001:0000dbd0       ??$_Construct@PADPAD@_STL@@YAXPAPADABQAD@Z 0040ebd0 f i bscript:compiler.obj
 0001:0000dbf0       ??$_Destroy@PAD@_STL@@YAXPAPAD@Z 0040ebf0 f i bscript:compiler.obj
 0001:0000dc00       ??$_Construct@UCandidate@@U1@@_STL@@YAXPAUCandidate@@ABU1@@Z 0040ec00 f i bscript:compiler.obj
 0001:0000dc20       ??$_Construct@EE@_STL@@YAXPAEABE@Z 0040ec20 f i bscript:compiler.obj
 0001:0000dc40       ??$fill_n@PAPAVToken@@IPAV1@@_STL@@YAPAPAVToken@@PAPAV1@IABQAV1@@Z 0040ec40 f i bscript:compiler.obj
 0001:0000dc60       ??$?8PAVToken@@@_STL@@YA_NABU?$_Deque_iterator_base@PAVToken@@@0@0@Z 0040ec60 f i bscript:compiler.obj
 0001:0000dc80       ??$fill_n@PAIII@_STL@@YAPAIPAIIABI@Z 0040ec80 f i bscript:compiler.obj
 0001:0000dca0       ??$fill_n@PAPAVFunctionalityModule@@IPAV1@@_STL@@YAPAPAVFunctionalityModule@@PAPAV1@IABQAV1@@Z 0040eca0 f i bscript:compiler.obj
 0001:0000dcc0       ??$fill_n@PAPADIPAD@_STL@@YAPAPADPAPADIABQAD@Z 0040ecc0 f i bscript:compiler.obj
 0001:0000dce0       ??$fill_n@I@_STL@@YAPAEPAEIABE@Z 0040ece0 f i bscript:compiler.obj
 0001:0000dd20       ??$?0PAVToken@@@?$allocator@PAPAVToken@@@_STL@@QAE@ABV?$allocator@PAVToken@@@1@@Z 0040ed20 f i bscript:compiler.obj
 0001:0000dd30       ??$?0V?$basic_string@DV?$char_traits@D@_STL@@V?$allocator@D@2@@_STL@@@?$allocator@U?$_Rb_tree_node@V?$basic_string@DV?$char_traits@D@_STL@@V?$allocator@D@2@@_STL@@@_STL@@@_STL@@QAE@ABV?$allocator@V?$basic_string@DV?$char_traits@D@_STL@@V?$allocator@D@2@@_STL@@@1@@Z 0040ed30 f i bscript:compiler.obj
 0001:0000dd40       ??$?0U?$pair@$$CBV?$basic_string@DV?$char_traits@D@_STL@@V?$allocator@D@2@@_STL@@VUserFunction@@@_STL@@@?$allocator@U?$_Rb_tree_node@U?$pair@$$CBV?$basic_string@DV?$char_traits@D@_STL@@V?$allocator@D@2@@_STL@@VUserFunction@@@_STL@@@_STL@@@_STL@@QAE@ABV?$allocator@U?$pair@$$CBV?$basic_string@DV?$char_traits@D@_STL@@V?$allocator@D@2@@_STL@@VUserFunction@@@_STL@@@1@@Z 0040ed40 f i bscript:compiler.obj
 0001:0000dd50       ??$?0U?$pair@$$CBV?$basic_string@DV?$char_traits@D@_STL@@V?$allocator@D@2@@_STL@@VToken@@@_STL@@@?$allocator@U?$_Rb_tree_node@U?$pair@$$CBV?$basic_string@DV?$char_traits@D@_STL@@V?$allocator@D@2@@_STL@@VToken@@@_STL@@@_STL@@@_STL@@QAE@ABV?$allocator@U?$pair@$$CBV?$basic_string@DV?$char_traits@D@_STL@@V?$allocator@D@2@@_STL@@VToken@@@_STL@@@1@@Z 0040ed50 f i bscript:compiler.obj
 0001:0000dd60       ??$?0U?$pair@$$CBV?$basic_string@DV?$char_traits@D@_STL@@V?$allocator@D@2@@_STL@@VExpression@@@_STL@@@?$allocator@U?$_Rb_tree_node@U?$pair@$$CBV?$basic_string@DV?$char_traits@D@_STL@@V?$allocator@D@2@@_STL@@VExpression@@@_STL@@@_STL@@@_STL@@QAE@ABV?$allocator@U?$pair@$$CBV?$basic_string@DV?$char_traits@D@_STL@@V?$allocator@D@2@@_STL@@VExpression@@@_STL@@@1@@Z 0040ed60 f i bscript:compiler.obj
 0001:0000dd70       ?begin@?$basic_string@DV?$char_traits@D@_STL@@V?$allocator@D@2@@_STL@@QBEPBDXZ 0040ed70 f i bscript:compiler.obj
 0001:0000dd80       ?end@?$basic_string@DV?$char_traits@D@_STL@@V?$allocator@D@2@@_STL@@QBEPBDXZ 0040ed80 f i bscript:compiler.obj
 0001:0000dd90       ?buffer_size@?$_Deque_base@PAVToken@@V?$allocator@PAVToken@@@_STL@@@_STL@@SAIXZ 0040ed90 f i bscript:compiler.obj
 0001:0000dda0       ?allocate@?$allocator@PAPAVToken@@@_STL@@QAEPAPAPAVToken@@IPBX@Z 0040eda0 f i bscript:compiler.obj
 0001:0000ddd0       ?deallocate@?$allocator@PAPAVToken@@@_STL@@QAEXPAPAPAVToken@@I@Z 0040edd0 f i bscript:compiler.obj
 0001:0000de00       ?capacity@?$vector@VUserParam@@V?$allocator@VUserParam@@@_STL@@@_STL@@QBEIXZ 0040ee00 f i bscript:compiler.obj
 0001:0000de20       ?capacity@?$vector@IV?$allocator@I@_STL@@@_STL@@QBEIXZ 0040ee20 f i bscript:compiler.obj
 0001:0000de30       ?_S_left@?$_Rb_tree@V?$basic_string@DV?$char_traits@D@_STL@@V?$allocator@D@2@@_STL@@V12@U?$_Identity@V?$basic_string@DV?$char_traits@D@_STL@@V?$allocator@D@2@@_STL@@@2@Vci_cmp_pred@@V?$allocator@V?$basic_string@DV?$char_traits@D@_STL@@V?$allocator@D@2@@_STL@@@2@@_STL@@KAAAPAU?$_Rb_tree_node@V?$basic_string@DV?$char_traits@D@_STL@@V?$allocator@D@2@@_STL@@@2@PAU32@@Z 0040ee30 f i bscript:compiler.obj
 0001:0000de40       ?_S_right@?$_Rb_tree@V?$basic_string@DV?$char_traits@D@_STL@@V?$allocator@D@2@@_STL@@V12@U?$_Identity@V?$basic_string@DV?$char_traits@D@_STL@@V?$allocator@D@2@@_STL@@@2@Vci_cmp_pred@@V?$allocator@V?$basic_string@DV?$char_traits@D@_STL@@V?$allocator@D@2@@_STL@@@2@@_STL@@KAAAPAU?$_Rb_tree_node@V?$basic_string@DV?$char_traits@D@_STL@@V?$allocator@D@2@@_STL@@@2@PAU32@@Z 0040ee40 f i bscript:compiler.obj
 0001:0000de50       ?_S_right@?$_Rb_tree@V?$basic_string@DV?$char_traits@D@_STL@@V?$allocator@D@2@@_STL@@U?$pair@$$CBV?$basic_string@DV?$char_traits@D@_STL@@V?$allocator@D@2@@_STL@@VUserFunction@@@2@U?$_Select1st@U?$pair@$$CBV?$basic_string@DV?$char_traits@D@_STL@@V?$allocator@D@2@@_STL@@VUserFunction@@@_STL@@@2@Vci_cmp_pred@@V?$allocator@U?$pair@$$CBV?$basic_string@DV?$char_traits@D@_STL@@V?$allocator@D@2@@_STL@@VUserFunction@@@_STL@@@2@@_STL@@KAAAPAU?$_Rb_tree_node@U?$pair@$$CBV?$basic_string@DV?$char_traits@D@_STL@@V?$allocator@D@2@@_STL@@VUserFunction@@@_STL@@@2@PAU_Rb_tree_node_base@2@@Z 0040ee50 f i bscript:compiler.obj
 0001:0000de60       ?_S_key@?$_Rb_tree@V?$basic_string@DV?$char_traits@D@_STL@@V?$allocator@D@2@@_STL@@U?$pair@$$CBV?$basic_string@DV?$char_traits@D@_STL@@V?$allocator@D@2@@_STL@@VUserFunction@@@2@U?$_Select1st@U?$pair@$$CBV?$basic_string@DV?$char_traits@D@_STL@@V?$allocator@D@2@@_STL@@VUserFunction@@@_STL@@@2@Vci_cmp_pred@@V?$allocator@U?$pair@$$CBV?$basic_string@DV?$char_traits@D@_STL@@V?$allocator@D@2@@_STL@@VUserFunction@@@_STL@@@2@@_STL@@KAABV?$basic_string@DV?$char_traits@D@_STL@@V?$allocator@D@2@@2@PAU_Rb_tree_node_base@2@@Z 0040ee60 f i bscript:compiler.obj
 0001:0000de70       ?size@?$_Rb_tree@V?$basic_string@DV?$char_traits@D@_STL@@V?$allocator@D@2@@_STL@@U?$pair@$$CBV?$basic_string@DV?$char_traits@D@_STL@@V?$allocator@D@2@@_STL@@VUserFunction@@@2@U?$_Select1st@U?$pair@$$CBV?$basic_string@DV?$char_traits@D@_STL@@V?$allocator@D@2@@_STL@@VUserFunction@@@_STL@@@2@Vci_cmp_pred@@V?$allocator@U?$pair@$$CBV?$basic_string@DV?$char_traits@D@_STL@@V?$allocator@D@2@@_STL@@VUserFunction@@@_STL@@@2@@_STL@@QBEIXZ 0040ee70 f i bscript:compiler.obj
 0001:0000de80       ?_S_left@?$_Rb_tree@V?$basic_string@DV?$char_traits@D@_STL@@V?$allocator@D@2@@_STL@@U?$pair@$$CBV?$basic_string@DV?$char_traits@D@_STL@@V?$allocator@D@2@@_STL@@VToken@@@2@U?$_Select1st@U?$pair@$$CBV?$basic_string@DV?$char_traits@D@_STL@@V?$allocator@D@2@@_STL@@VToken@@@_STL@@@2@U?$less@V?$basic_string@DV?$char_traits@D@_STL@@V?$allocator@D@2@@_STL@@@2@V?$allocator@U?$pair@$$CBV?$basic_string@DV?$char_traits@D@_STL@@V?$allocator@D@2@@_STL@@VToken@@@_STL@@@2@@_STL@@KAAAPAU?$_Rb_tree_node@U?$pair@$$CBV?$basic_string@DV?$char_traits@D@_STL@@V?$allocator@D@2@@_STL@@VToken@@@_STL@@@2@PAU32@@Z 0040ee80 f i bscript:compiler.obj
 0001:0000de90       ?_S_right@?$_Rb_tree@V?$basic_string@DV?$char_traits@D@_STL@@V?$allocator@D@2@@_STL@@U?$pair@$$CBV?$basic_string@DV?$char_traits@D@_STL@@V?$allocator@D@2@@_STL@@VToken@@@2@U?$_Select1st@U?$pair@$$CBV?$basic_string@DV?$char_traits@D@_STL@@V?$allocator@D@2@@_STL@@VToken@@@_STL@@@2@U?$less@V?$basic_string@DV?$char_traits@D@_STL@@V?$allocator@D@2@@_STL@@@2@V?$allocator@U?$pair@$$CBV?$basic_string@DV?$char_traits@D@_STL@@V?$allocator@D@2@@_STL@@VToken@@@_STL@@@2@@_STL@@KAAAPAU?$_Rb_tree_node@U?$pair@$$CBV?$basic_string@DV?$char_traits@D@_STL@@V?$allocator@D@2@@_STL@@VToken@@@_STL@@@2@PAU32@@Z 0040ee90 f i bscript:compiler.obj
 0001:0000dea0       ?begin@?$_Rb_tree@V?$basic_string@DV?$char_traits@D@_STL@@V?$allocator@D@2@@_STL@@U?$pair@$$CBV?$basic_string@DV?$char_traits@D@_STL@@V?$allocator@D@2@@_STL@@VToken@@@2@U?$_Select1st@U?$pair@$$CBV?$basic_string@DV?$char_traits@D@_STL@@V?$allocator@D@2@@_STL@@VToken@@@_STL@@@2@U?$less@V?$basic_string@DV?$char_traits@D@_STL@@V?$allocator@D@2@@_STL@@@2@V?$allocator@U?$pair@$$CBV?$basic_string@DV?$char_traits@D@_STL@@V?$allocator@D@2@@_STL@@VToken@@@_STL@@@2@@_STL@@QAE?AU?$_Rb_tree_iterator@U?$pair@$$CBV?$basic_string@DV?$char_traits@D@_STL@@V?$allocator@D@2@@_STL@@VToken@@@_STL@@U?$_Nonconst_traits@U?$pair@$$CBV?$basic_string@DV?$char_traits@D@_STL@@V?$allocator@D@2@@_STL@@VToken@@@_STL@@@2@@2@XZ 0040eea0 f i bscript:compiler.obj
 0001:0000deb0       ??F?$_Rb_tree_iterator@U?$pair@$$CBV?$basic_string@DV?$char_traits@D@_STL@@V?$allocator@D@2@@_STL@@VUserFunction@@@_STL@@U?$_Nonconst_traits@U?$pair@$$CBV?$basic_string@DV?$char_traits@D@_STL@@V?$allocator@D@2@@_STL@@VUserFunction@@@_STL@@@2@@_STL@@QAEAAU01@XZ 0040eeb0 f i bscript:compiler.obj
 0001:0000ded0       ?_S_right@?$_Rb_tree@V?$basic_string@DV?$char_traits@D@_STL@@V?$allocator@D@2@@_STL@@U?$pair@$$CBV?$basic_string@DV?$char_traits@D@_STL@@V?$allocator@D@2@@_STL@@VExpression@@@2@U?$_Select1st@U?$pair@$$CBV?$basic_string@DV?$char_traits@D@_STL@@V?$allocator@D@2@@_STL@@VExpression@@@_STL@@@2@U?$less@V?$basic_string@DV?$char_traits@D@_STL@@V?$allocator@D@2@@_STL@@@2@V?$allocator@U?$pair@$$CBV?$basic_string@DV?$char_traits@D@_STL@@V?$allocator@D@2@@_STL@@VExpression@@@_STL@@@2@@_STL@@KAAAPAU?$_Rb_tree_node@U?$pair@$$CBV?$basic_string@DV?$char_traits@D@_STL@@V?$allocator@D@2@@_STL@@VExpression@@@_STL@@@2@PAU_Rb_tree_node_base@2@@Z 0040eed0 f i bscript:compiler.obj
 0001:0000dee0       ?_S_key@?$_Rb_tree@V?$basic_string@DV?$char_traits@D@_STL@@V?$allocator@D@2@@_STL@@U?$pair@$$CBV?$basic_string@DV?$char_traits@D@_STL@@V?$allocator@D@2@@_STL@@VExpression@@@2@U?$_Select1st@U?$pair@$$CBV?$basic_string@DV?$char_traits@D@_STL@@V?$allocator@D@2@@_STL@@VExpression@@@_STL@@@2@U?$less@V?$basic_string@DV?$char_traits@D@_STL@@V?$allocator@D@2@@_STL@@@2@V?$allocator@U?$pair@$$CBV?$basic_string@DV?$char_traits@D@_STL@@V?$allocator@D@2@@_STL@@VExpression@@@_STL@@@2@@_STL@@KAABV?$basic_string@DV?$char_traits@D@_STL@@V?$allocator@D@2@@2@PAU_Rb_tree_node_base@2@@Z 0040eee0 f i bscript:compiler.obj
 0001:0000def0       ??F?$_Rb_tree_iterator@U?$pair@$$CBV?$basic_string@DV?$char_traits@D@_STL@@V?$allocator@D@2@@_STL@@VExpression@@@_STL@@U?$_Nonconst_traits@U?$pair@$$CBV?$basic_string@DV?$char_traits@D@_STL@@V?$allocator@D@2@@_STL@@VExpression@@@_STL@@@2@@_STL@@QAEAAU01@XZ 0040eef0 f i bscript:compiler.obj
 0001:0000df10       ??F?$_Rb_tree_iterator@U?$pair@$$CBV?$basic_string@DV?$char_traits@D@_STL@@V?$allocator@D@2@@_STL@@VToken@@@_STL@@U?$_Nonconst_traits@U?$pair@$$CBV?$basic_string@DV?$char_traits@D@_STL@@V?$allocator@D@2@@_STL@@VToken@@@_STL@@@2@@_STL@@QAEAAU01@XZ 0040ef10 f i bscript:compiler.obj
 0001:0000df30       ??0?$_Rb_tree_iterator@V?$basic_string@DV?$char_traits@D@_STL@@V?$allocator@D@2@@_STL@@U?$_Nonconst_traits@V?$basic_string@DV?$char_traits@D@_STL@@V?$allocator@D@2@@_STL@@@2@@_STL@@QAE@PAU?$_Rb_tree_node@V?$basic_string@DV?$char_traits@D@_STL@@V?$allocator@D@2@@_STL@@@1@@Z 0040ef30 f i bscript:compiler.obj
 0001:0000df40       ??F?$_Rb_tree_iterator@V?$basic_string@DV?$char_traits@D@_STL@@V?$allocator@D@2@@_STL@@U?$_Nonconst_traits@V?$basic_string@DV?$char_traits@D@_STL@@V?$allocator@D@2@@_STL@@@2@@_STL@@QAEAAU01@XZ 0040ef40 f i bscript:compiler.obj
 0001:0000df60       ??R?$_Identity@V?$basic_string@DV?$char_traits@D@_STL@@V?$allocator@D@2@@_STL@@@_STL@@QBEABV?$basic_string@DV?$char_traits@D@_STL@@V?$allocator@D@2@@1@ABV21@@Z 0040ef60 f i bscript:compiler.obj
 0001:0000df70       ??R?$_Select1st@U?$pair@$$CBV?$basic_string@DV?$char_traits@D@_STL@@V?$allocator@D@2@@_STL@@VToken@@@_STL@@@_STL@@QBEABV?$basic_string@DV?$char_traits@D@_STL@@V?$allocator@D@2@@1@ABU?$pair@$$CBV?$basic_string@DV?$char_traits@D@_STL@@V?$allocator@D@2@@_STL@@VToken@@@1@@Z 0040ef70 f i bscript:compiler.obj
 0001:0000df80       ?_Ret@?$_BothPtrType@PBQAVToken@@PAPAV1@@_STL@@SA?AU__true_type@2@XZ 0040ef80 f i bscript:compiler.obj
 0001:0000df90       ?_Ret@?$_BothPtrType@U?$_Deque_iterator@PAVToken@@U?$_Const_traits@PAVToken@@@_STL@@@_STL@@U?$_Deque_iterator@PAVToken@@U?$_Nonconst_traits@PAVToken@@@_STL@@@2@@_STL@@SA?AU__false_type@2@XZ 0040ef90 f i bscript:compiler.obj
 0001:0000dfa0       ?_Ret@?$_BothPtrType@PBIPAI@_STL@@SA?AU__true_type@2@XZ 0040efa0 f i bscript:compiler.obj
 0001:0000dfb0       ?_M_set@?$vector@VUserParam@@V?$allocator@VUserParam@@@_STL@@@_STL@@IAEXPAVUserParam@@00@Z 0040efb0 f i bscript:compiler.obj
 0001:0000dfd0       ?_S_value@?$_Rb_tree@V?$basic_string@DV?$char_traits@D@_STL@@V?$allocator@D@2@@_STL@@V12@U?$_Identity@V?$basic_string@DV?$char_traits@D@_STL@@V?$allocator@D@2@@_STL@@@2@Vci_cmp_pred@@V?$allocator@V?$basic_string@DV?$char_traits@D@_STL@@V?$allocator@D@2@@_STL@@@2@@_STL@@KAAAV?$basic_string@DV?$char_traits@D@_STL@@V?$allocator@D@2@@2@PAU?$_Rb_tree_node@V?$basic_string@DV?$char_traits@D@_STL@@V?$allocator@D@2@@_STL@@@2@@Z 0040efd0 f i bscript:compiler.obj
 0001:0000dfe0       ?_S_value@?$_Rb_tree@V?$basic_string@DV?$char_traits@D@_STL@@V?$allocator@D@2@@_STL@@U?$pair@$$CBV?$basic_string@DV?$char_traits@D@_STL@@V?$allocator@D@2@@_STL@@VToken@@@2@U?$_Select1st@U?$pair@$$CBV?$basic_string@DV?$char_traits@D@_STL@@V?$allocator@D@2@@_STL@@VToken@@@_STL@@@2@U?$less@V?$basic_string@DV?$char_traits@D@_STL@@V?$allocator@D@2@@_STL@@@2@V?$allocator@U?$pair@$$CBV?$basic_string@DV?$char_traits@D@_STL@@V?$allocator@D@2@@_STL@@VToken@@@_STL@@@2@@_STL@@KAAAU?$pair@$$CBV?$basic_string@DV?$char_traits@D@_STL@@V?$allocator@D@2@@_STL@@VToken@@@2@PAU?$_Rb_tree_node@U?$pair@$$CBV?$basic_string@DV?$char_traits@D@_STL@@V?$allocator@D@2@@_STL@@VToken@@@_STL@@@2@@Z 0040efe0 f i bscript:compiler.obj
 0001:0000dff0       ??0?$_Rb_tree_iterator@U?$pair@$$CBV?$basic_string@DV?$char_traits@D@_STL@@V?$allocator@D@2@@_STL@@VToken@@@_STL@@U?$_Nonconst_traits@U?$pair@$$CBV?$basic_string@DV?$char_traits@D@_STL@@V?$allocator@D@2@@_STL@@VToken@@@_STL@@@2@@_STL@@QAE@ABU01@@Z 0040eff0 f i bscript:compiler.obj
 0001:0000e000       ??0?$_Rb_tree_iterator@V?$basic_string@DV?$char_traits@D@_STL@@V?$allocator@D@2@@_STL@@U?$_Nonconst_traits@V?$basic_string@DV?$char_traits@D@_STL@@V?$allocator@D@2@@_STL@@@2@@_STL@@QAE@ABU01@@Z 0040f000 f i bscript:compiler.obj
 0001:0000e010       ??$__copy_ptrs@PBIPAI@_STL@@YAPAIPBI0PAIABU__true_type@0@@Z 0040f010 f i bscript:compiler.obj
 0001:0000e040       ??$__distance@U?$_Rb_tree_iterator@U?$pair@$$CBV?$basic_string@DV?$char_traits@D@_STL@@V?$allocator@D@2@@_STL@@VExpression@@@_STL@@U?$_Nonconst_traits@U?$pair@$$CBV?$basic_string@DV?$char_traits@D@_STL@@V?$allocator@D@2@@_STL@@VExpression@@@_STL@@@2@@_STL@@@_STL@@YAHABU?$_Rb_tree_iterator@U?$pair@$$CBV?$basic_string@DV?$char_traits@D@_STL@@V?$allocator@D@2@@_STL@@VExpression@@@_STL@@U?$_Nonconst_traits@U?$pair@$$CBV?$basic_string@DV?$char_traits@D@_STL@@V?$allocator@D@2@@_STL@@VExpression@@@_STL@@@2@@0@0ABUinput_iterator_tag@0@@Z 0040f040 f i bscript:compiler.obj
 0001:0000e070       ?_S_parent@?$_Rb_tree@V?$basic_string@DV?$char_traits@D@_STL@@V?$allocator@D@2@@_STL@@V12@U?$_Identity@V?$basic_string@DV?$char_traits@D@_STL@@V?$allocator@D@2@@_STL@@@2@Vci_cmp_pred@@V?$allocator@V?$basic_string@DV?$char_traits@D@_STL@@V?$allocator@D@2@@_STL@@@2@@_STL@@KAAAPAU?$_Rb_tree_node@V?$basic_string@DV?$char_traits@D@_STL@@V?$allocator@D@2@@_STL@@@2@PAU32@@Z 0040f070 f i bscript:compiler.obj
 0001:0000e080       ?_S_parent@?$_Rb_tree@V?$basic_string@DV?$char_traits@D@_STL@@V?$allocator@D@2@@_STL@@U?$pair@$$CBV?$basic_string@DV?$char_traits@D@_STL@@V?$allocator@D@2@@_STL@@VUserFunction@@@2@U?$_Select1st@U?$pair@$$CBV?$basic_string@DV?$char_traits@D@_STL@@V?$allocator@D@2@@_STL@@VUserFunction@@@_STL@@@2@Vci_cmp_pred@@V?$allocator@U?$pair@$$CBV?$basic_string@DV?$char_traits@D@_STL@@V?$allocator@D@2@@_STL@@VUserFunction@@@_STL@@@2@@_STL@@KAAAPAU?$_Rb_tree_node@U?$pair@$$CBV?$basic_string@DV?$char_traits@D@_STL@@V?$allocator@D@2@@_STL@@VUserFunction@@@_STL@@@2@PAU32@@Z 0040f080 f i bscript:compiler.obj
 0001:0000e090       ?_S_parent@?$_Rb_tree@V?$basic_string@DV?$char_traits@D@_STL@@V?$allocator@D@2@@_STL@@U?$pair@$$CBV?$basic_string@DV?$char_traits@D@_STL@@V?$allocator@D@2@@_STL@@VToken@@@2@U?$_Select1st@U?$pair@$$CBV?$basic_string@DV?$char_traits@D@_STL@@V?$allocator@D@2@@_STL@@VToken@@@_STL@@@2@U?$less@V?$basic_string@DV?$char_traits@D@_STL@@V?$allocator@D@2@@_STL@@@2@V?$allocator@U?$pair@$$CBV?$basic_string@DV?$char_traits@D@_STL@@V?$allocator@D@2@@_STL@@VToken@@@_STL@@@2@@_STL@@KAAAPAU?$_Rb_tree_node@U?$pair@$$CBV?$basic_string@DV?$char_traits@D@_STL@@V?$allocator@D@2@@_STL@@VToken@@@_STL@@@2@PAU32@@Z 0040f090 f i bscript:compiler.obj
 0001:0000e0a0       ?_S_parent@?$_Rb_tree@V?$basic_string@DV?$char_traits@D@_STL@@V?$allocator@D@2@@_STL@@U?$pair@$$CBV?$basic_string@DV?$char_traits@D@_STL@@V?$allocator@D@2@@_STL@@VExpression@@@2@U?$_Select1st@U?$pair@$$CBV?$basic_string@DV?$char_traits@D@_STL@@V?$allocator@D@2@@_STL@@VExpression@@@_STL@@@2@U?$less@V?$basic_string@DV?$char_traits@D@_STL@@V?$allocator@D@2@@_STL@@@2@V?$allocator@U?$pair@$$CBV?$basic_string@DV?$char_traits@D@_STL@@V?$allocator@D@2@@_STL@@VExpression@@@_STL@@@2@@_STL@@KAAAPAU?$_Rb_tree_node@U?$pair@$$CBV?$basic_string@DV?$char_traits@D@_STL@@V?$allocator@D@2@@_STL@@VExpression@@@_STL@@@2@PAU32@@Z 0040f0a0 f i bscript:compiler.obj
 0001:0000e0b0       ??0?$pair@U?$_Rb_tree_iterator@U?$pair@$$CBV?$basic_string@DV?$char_traits@D@_STL@@V?$allocator@D@2@@_STL@@VUserFunction@@@_STL@@U?$_Nonconst_traits@U?$pair@$$CBV?$basic_string@DV?$char_traits@D@_STL@@V?$allocator@D@2@@_STL@@VUserFunction@@@_STL@@@2@@_STL@@_N@_STL@@QAE@ABU?$_Rb_tree_iterator@U?$pair@$$CBV?$basic_string@DV?$char_traits@D@_STL@@V?$allocator@D@2@@_STL@@VUserFunction@@@_STL@@U?$_Nonconst_traits@U?$pair@$$CBV?$basic_string@DV?$char_traits@D@_STL@@V?$allocator@D@2@@_STL@@VUserFunction@@@_STL@@@2@@1@AB_N@Z 0040f0b0 f i bscript:compiler.obj
 0001:0000e0d0       ??0?$pair@U?$_Rb_tree_iterator@U?$pair@$$CBV?$basic_string@DV?$char_traits@D@_STL@@V?$allocator@D@2@@_STL@@VExpression@@@_STL@@U?$_Nonconst_traits@U?$pair@$$CBV?$basic_string@DV?$char_traits@D@_STL@@V?$allocator@D@2@@_STL@@VExpression@@@_STL@@@2@@_STL@@_N@_STL@@QAE@ABU?$_Rb_tree_iterator@U?$pair@$$CBV?$basic_string@DV?$char_traits@D@_STL@@V?$allocator@D@2@@_STL@@VExpression@@@_STL@@U?$_Nonconst_traits@U?$pair@$$CBV?$basic_string@DV?$char_traits@D@_STL@@V?$allocator@D@2@@_STL@@VExpression@@@_STL@@@2@@1@AB_N@Z 0040f0d0 f i bscript:compiler.obj
 0001:0000e0f0       ?_Ret@?$_OKToMemCpy@PAVToken@@PAV1@@_STL@@SA?AU__true_type@2@XZ 0040f0f0 f i bscript:compiler.obj
 0001:0000e100       ?_Ret@?$_OKToMemCpy@II@_STL@@SA?AU__true_type@2@XZ 0040f100 f i bscript:compiler.obj
 0001:0000e110       ??$__destroy_aux@PAPAVToken@@@_STL@@YAXPAPAVToken@@0ABU__true_type@0@@Z 0040f110 f i bscript:compiler.obj
 0001:0000e120       ??$__destroy_aux@U?$_Deque_iterator@PAVToken@@U?$_Nonconst_traits@PAVToken@@@_STL@@@_STL@@@_STL@@YAXU?$_Deque_iterator@PAVToken@@U?$_Nonconst_traits@PAVToken@@@_STL@@@0@0ABU__true_type@0@@Z 0040f120 f i bscript:compiler.obj
 0001:0000e130       ??$__destroy_aux@PAI@_STL@@YAXPAI0ABU__true_type@0@@Z 0040f130 f i bscript:compiler.obj
 0001:0000e140       ??$__destroy_aux@PAPAD@_STL@@YAXPAPAD0ABU__true_type@0@@Z 0040f140 f i bscript:compiler.obj
 0001:0000e150       ??$__destroy_aux@PAE@_STL@@YAXPAE0ABU__true_type@0@@Z 0040f150 f i bscript:compiler.obj
 0001:0000e160       ??$_IsOKToMemCpy@PAVToken@@PAV1@@_STL@@YA?AU?$_OKToMemCpy@PAVToken@@PAV1@@0@PAPAVToken@@0@Z 0040f160 f i bscript:compiler.obj
 0001:0000e170       ??$__copy_ptrs@PBQAVToken@@PAPAV1@@_STL@@YAPAPAVToken@@PBQAV1@0PAPAV1@ABU__true_type@0@@Z 0040f170 f i bscript:compiler.obj
 0001:0000e1a0       ??$_IsOKToMemCpy@II@_STL@@YA?AU?$_OKToMemCpy@II@0@PAI0@Z 0040f1a0 f i bscript:compiler.obj
 0001:0000e1b0       ??$__destroy_aux@PAPAVFunctionalityModule@@@_STL@@YAXPAPAVFunctionalityModule@@0ABU__true_type@0@@Z 0040f1b0 f i bscript:compiler.obj
 0001:0000e1c0       ??D?$_Deque_iterator@PAVToken@@U?$_Const_traits@PAVToken@@@_STL@@@_STL@@QBEABQAVToken@@XZ 0040f1c0 f i bscript:compiler.obj
 0001:0000e1d0       ??G?$_Deque_iterator@PAVToken@@U?$_Const_traits@PAVToken@@@_STL@@@_STL@@QBEHABU01@@Z 0040f1d0 f i bscript:compiler.obj
 0001:0000e200       ?_Ret@?$_BothPtrType@PAPAPAVToken@@PAPAPAV1@@_STL@@SA?AU__true_type@2@XZ 0040f200 f i bscript:compiler.obj
 0001:0000e210       ?_M_increment@?$_Deque_iterator_base@PAVToken@@@_STL@@QAEXXZ 0040f210 f i bscript:compiler.obj
 0001:0000e240       ??$_Destroy@UCandidate@@@_STL@@YAXPAUCandidate@@@Z 0040f240 f i bscript:compiler.obj
 0001:0000e250       ?_Ret@?$_OKToMemCpy@PAPAVToken@@PAPAV1@@_STL@@SA?AU__true_type@2@XZ 0040f250 f i bscript:compiler.obj
 0001:0000e260       ??$_IsOKToMemCpy@PAPAVToken@@PAPAV1@@_STL@@YA?AU?$_OKToMemCpy@PAPAVToken@@PAPAV1@@0@PAPAPAVToken@@0@Z 0040f260 f i bscript:compiler.obj
 0001:0000e270       ??$__copy_ptrs@PAPAPAVToken@@PAPAPAV1@@_STL@@YAPAPAPAVToken@@PAPAPAV1@00ABU__true_type@0@@Z 0040f270 f i bscript:compiler.obj
 0001:0000e2a0       ??$__copy_backward_ptrs@PAPAPAVToken@@PAPAPAV1@@_STL@@YAPAPAPAVToken@@PAPAPAV1@00ABU__true_type@0@@Z 0040f2a0 f i bscript:compiler.obj
 0001:0000e2d0       ?inblock@Scope@@QBE_NXZ    0040f2d0 f i bscript:compiler.obj
 0001:0000e300       ?numVariables@Scope@@QBEIXZ 0040f300 f i bscript:compiler.obj
 0001:0000e320       ?inGlobalScope@Compiler@@ABE_NXZ 0040f320 f i bscript:compiler.obj
 0001:0000e350       ?addToken@Compiler@@QAEXAAVToken@@@Z 0040f350 f   bscript:compiler.obj
 0001:0000e360       ?inject@Compiler@@AAEXAAVExpression@@@Z 0040f360 f   bscript:compiler.obj
 0001:0000e390       ?patchoffset@Compiler@@QAEXII@Z 0040f390 f   bscript:compiler.obj
 0001:0000e3f0       ?write@Compiler@@QAEHPBD@Z 0040f3f0 f   bscript:compiler.obj
 0001:0000e400       ?write_dbg@Compiler@@QAEHPBD_N@Z 0040f400 f   bscript:compiler.obj
 0001:0000e410       ?dump@Compiler@@QAEXAAV?$basic_ostream@DV?$char_traits@D@_STL@@@_STL@@@Z 0040f410 f   bscript:compiler.obj
 0001:0000e420       ??A?$vector@V?$basic_string@DV?$char_traits@D@_STL@@V?$allocator@D@2@@_STL@@V?$allocator@V?$basic_string@DV?$char_traits@D@_STL@@V?$allocator@D@2@@_STL@@@2@@_STL@@QBEABV?$basic_string@DV?$char_traits@D@_STL@@V?$allocator@D@2@@1@I@Z 0040f420 f i bscript:compiler.obj
 0001:0000e430       ?back@?$vector@V?$basic_string@DV?$char_traits@D@_STL@@V?$allocator@D@2@@_STL@@V?$allocator@V?$basic_string@DV?$char_traits@D@_STL@@V?$allocator@D@2@@_STL@@@2@@_STL@@QAEAAV?$basic_string@DV?$char_traits@D@_STL@@V?$allocator@D@2@@2@XZ 0040f430 f i bscript:compiler.obj
 0001:0000e440       ??A?$vector@PAVToken@@V?$allocator@PAVToken@@@_STL@@@_STL@@QBEABQAVToken@@I@Z 0040f440 f i bscript:compiler.obj
 0001:0000e450       ?pop_back@?$vector@PAVToken@@V?$allocator@PAVToken@@@_STL@@@_STL@@QAEXXZ 0040f450 f i bscript:compiler.obj
 0001:0000e460       ?erase@?$vector@PAVToken@@V?$allocator@PAVToken@@@_STL@@@_STL@@QAEPAPAVToken@@PAPAV3@@Z 0040f460 f i bscript:compiler.obj
 0001:0000e490       ??A?$vector@IV?$allocator@I@_STL@@@_STL@@QAEAAII@Z 0040f490 f i bscript:compiler.obj
 0001:0000e4a0       ?back@?$vector@IV?$allocator@I@_STL@@@_STL@@QAEAAIXZ 0040f4a0 f i bscript:compiler.obj
 0001:0000e4b0       ?pop_back@?$vector@IV?$allocator@I@_STL@@@_STL@@QAEXXZ 0040f4b0 f i bscript:compiler.obj
 0001:0000e4c0       ??A?$vector@PAVFunctionalityModule@@V?$allocator@PAVFunctionalityModule@@@_STL@@@_STL@@QAEAAPAVFunctionalityModule@@I@Z 0040f4c0 f i bscript:compiler.obj
 0001:0000e4d0       ?back@?$vector@PAVFunctionalityModule@@V?$allocator@PAVFunctionalityModule@@@_STL@@@_STL@@QAEAAPAVFunctionalityModule@@XZ 0040f4d0 f i bscript:compiler.obj
 0001:0000e4e0       ?pop_back@?$vector@PAVFunctionalityModule@@V?$allocator@PAVFunctionalityModule@@@_STL@@@_STL@@QAEXXZ 0040f4e0 f i bscript:compiler.obj
 0001:0000e4f0       ?pop_back@?$vector@_NV?$allocator@_N@_STL@@@_STL@@QAEXXZ 0040f4f0 f i bscript:compiler.obj
 0001:0000e510       ??A?$vector@UVariable@@V?$allocator@UVariable@@@_STL@@@_STL@@QAEAAUVariable@@I@Z 0040f510 f i bscript:compiler.obj
 0001:0000e520       ??A?$vector@UVariable@@V?$allocator@UVariable@@@_STL@@@_STL@@QBEABUVariable@@I@Z 0040f520 f i bscript:compiler.obj
 0001:0000e530       ?back@?$vector@UVariable@@V?$allocator@UVariable@@@_STL@@@_STL@@QAEAAUVariable@@XZ 0040f530 f i bscript:compiler.obj
 0001:0000e540       ??A?$vector@UBlockDesc@@V?$allocator@UBlockDesc@@@_STL@@@_STL@@QAEAAUBlockDesc@@I@Z 0040f540 f i bscript:compiler.obj
 0001:0000e550       ?back@?$vector@UBlockDesc@@V?$allocator@UBlockDesc@@@_STL@@@_STL@@QAEAAUBlockDesc@@XZ 0040f550 f i bscript:compiler.obj
 0001:0000e560       ?back@?$vector@UBlockDesc@@V?$allocator@UBlockDesc@@@_STL@@@_STL@@QBEABUBlockDesc@@XZ 0040f560 f i bscript:compiler.obj
 0001:0000e570       ??0?$ref_ptr@VEScriptProgram@@@@QAE@PAVEScriptProgram@@@Z 0040f570 f i bscript:compiler.obj
 0001:0000e590       ?back@?$vector@PADV?$allocator@PAD@_STL@@@_STL@@QAEAAPADXZ 0040f590 f i bscript:compiler.obj
 0001:0000e5a0       ?pop_back@?$vector@PADV?$allocator@PAD@_STL@@@_STL@@QAEXXZ 0040f5a0 f i bscript:compiler.obj
 0001:0000e5b0       ?empty@?$map@V?$basic_string@DV?$char_traits@D@_STL@@V?$allocator@D@2@@_STL@@VExpression@@U?$less@V?$basic_string@DV?$char_traits@D@_STL@@V?$allocator@D@2@@_STL@@@2@V?$allocator@U?$pair@$$CBV?$basic_string@DV?$char_traits@D@_STL@@V?$allocator@D@2@@_STL@@VExpression@@@_STL@@@2@@_STL@@QBE_NXZ 0040f5b0 f i bscript:compiler.obj
 0001:0000e5c0       ?size@?$map@V?$basic_string@DV?$char_traits@D@_STL@@V?$allocator@D@2@@_STL@@VExpression@@U?$less@V?$basic_string@DV?$char_traits@D@_STL@@V?$allocator@D@2@@_STL@@@2@V?$allocator@U?$pair@$$CBV?$basic_string@DV?$char_traits@D@_STL@@V?$allocator@D@2@@_STL@@VExpression@@@_STL@@@2@@_STL@@QBEIXZ 0040f5c0 f i bscript:compiler.obj
 0001:0000e5d0       ??A?$vector@EV?$allocator@E@_STL@@@_STL@@QAEAAEI@Z 0040f5d0 f i bscript:compiler.obj
 0001:0000e5e0       ?release@?$auto_ptr@VFunctionalityModule@@@_STL@@QAEPAVFunctionalityModule@@XZ 0040f5e0 f i bscript:compiler.obj
 0001:0000e5f0       ??C?$auto_ptr@VFunctionalityModule@@@_STL@@QBEPAVFunctionalityModule@@XZ 0040f5f0 f i bscript:compiler.obj
 0001:0000e600       ??1?$auto_ptr@VFunctionalityModule@@@_STL@@QAE@XZ 0040f600 f i bscript:compiler.obj
 0001:0000e620       ?release@?$auto_ptr@VUserFunction@@@_STL@@QAEPAVUserFunction@@XZ 0040f620 f i bscript:compiler.obj
 0001:0000e630       ??C?$auto_ptr@VUserFunction@@@_STL@@QBEPAVUserFunction@@XZ 0040f630 f i bscript:compiler.obj
 0001:0000e640       ??D?$auto_ptr@VUserFunction@@@_STL@@QBEAAVUserFunction@@XZ 0040f640 f i bscript:compiler.obj
 0001:0000e650       ??1?$auto_ptr@VUserFunction@@@_STL@@QAE@XZ 0040f650 f i bscript:compiler.obj
 0001:0000e670       ?front@?$deque@PAVToken@@V?$allocator@PAVToken@@@_STL@@@_STL@@QAEAAPAVToken@@XZ 0040f670 f i bscript:compiler.obj
 0001:0000e680       ?empty@?$deque@PAVToken@@V?$allocator@PAVToken@@@_STL@@@_STL@@QBE_NXZ 0040f680 f i bscript:compiler.obj
 0001:0000e690       ?end@?$_Rb_tree@V?$basic_string@DV?$char_traits@D@_STL@@V?$allocator@D@2@@_STL@@V12@U?$_Identity@V?$basic_string@DV?$char_traits@D@_STL@@V?$allocator@D@2@@_STL@@@2@Vci_cmp_pred@@V?$allocator@V?$basic_string@DV?$char_traits@D@_STL@@V?$allocator@D@2@@_STL@@@2@@_STL@@QBE?AU?$_Rb_tree_iterator@V?$basic_string@DV?$char_traits@D@_STL@@V?$allocator@D@2@@_STL@@U?$_Const_traits@V?$basic_string@DV?$char_traits@D@_STL@@V?$allocator@D@2@@_STL@@@2@@2@XZ 0040f690 f i bscript:compiler.obj
 0001:0000e6a0       ?release@?$ref_ptr@VEScriptProgram@@@@IAEXXZ 0040f6a0 f i bscript:compiler.obj
 0001:0000e6d0       ?key_comp@?$map@V?$basic_string@DV?$char_traits@D@_STL@@V?$allocator@D@2@@_STL@@VUserFunction@@Vci_cmp_pred@@V?$allocator@U?$pair@$$CBV?$basic_string@DV?$char_traits@D@_STL@@V?$allocator@D@2@@_STL@@VUserFunction@@@_STL@@@2@@_STL@@QBE?AVci_cmp_pred@@XZ 0040f6d0 f i bscript:compiler.obj
 0001:0000e6e0       ?begin@?$_Rb_tree@V?$basic_string@DV?$char_traits@D@_STL@@V?$allocator@D@2@@_STL@@U?$pair@$$CBV?$basic_string@DV?$char_traits@D@_STL@@V?$allocator@D@2@@_STL@@VUserFunction@@@2@U?$_Select1st@U?$pair@$$CBV?$basic_string@DV?$char_traits@D@_STL@@V?$allocator@D@2@@_STL@@VUserFunction@@@_STL@@@2@Vci_cmp_pred@@V?$allocator@U?$pair@$$CBV?$basic_string@DV?$char_traits@D@_STL@@V?$allocator@D@2@@_STL@@VUserFunction@@@_STL@@@2@@_STL@@QAE?AU?$_Rb_tree_iterator@U?$pair@$$CBV?$basic_string@DV?$char_traits@D@_STL@@V?$allocator@D@2@@_STL@@VUserFunction@@@_STL@@U?$_Nonconst_traits@U?$pair@$$CBV?$basic_string@DV?$char_traits@D@_STL@@V?$allocator@D@2@@_STL@@VUserFunction@@@_STL@@@2@@2@XZ 0040f6e0 f i bscript:compiler.obj
 0001:0000e6f0       ?end@?$_Rb_tree@V?$basic_string@DV?$char_traits@D@_STL@@V?$allocator@D@2@@_STL@@U?$pair@$$CBV?$basic_string@DV?$char_traits@D@_STL@@V?$allocator@D@2@@_STL@@VUserFunction@@@2@U?$_Select1st@U?$pair@$$CBV?$basic_string@DV?$char_traits@D@_STL@@V?$allocator@D@2@@_STL@@VUserFunction@@@_STL@@@2@Vci_cmp_pred@@V?$allocator@U?$pair@$$CBV?$basic_string@DV?$char_traits@D@_STL@@V?$allocator@D@2@@_STL@@VUserFunction@@@_STL@@@2@@_STL@@QAE?AU?$_Rb_tree_iterator@U?$pair@$$CBV?$basic_string@DV?$char_traits@D@_STL@@V?$allocator@D@2@@_STL@@VUserFunction@@@_STL@@U?$_Nonconst_traits@U?$pair@$$CBV?$basic_string@DV?$char_traits@D@_STL@@V?$allocator@D@2@@_STL@@VUserFunction@@@_STL@@@2@@2@XZ 0040f6f0 f i bscript:compiler.obj
 0001:0000e700       ?end@?$_Rb_tree@V?$basic_string@DV?$char_traits@D@_STL@@V?$allocator@D@2@@_STL@@U?$pair@$$CBV?$basic_string@DV?$char_traits@D@_STL@@V?$allocator@D@2@@_STL@@VToken@@@2@U?$_Select1st@U?$pair@$$CBV?$basic_string@DV?$char_traits@D@_STL@@V?$allocator@D@2@@_STL@@VToken@@@_STL@@@2@U?$less@V?$basic_string@DV?$char_traits@D@_STL@@V?$allocator@D@2@@_STL@@@2@V?$allocator@U?$pair@$$CBV?$basic_string@DV?$char_traits@D@_STL@@V?$allocator@D@2@@_STL@@VToken@@@_STL@@@2@@_STL@@QAE?AU?$_Rb_tree_iterator@U?$pair@$$CBV?$basic_string@DV?$char_traits@D@_STL@@V?$allocator@D@2@@_STL@@VToken@@@_STL@@U?$_Nonconst_traits@U?$pair@$$CBV?$basic_string@DV?$char_traits@D@_STL@@V?$allocator@D@2@@_STL@@VToken@@@_STL@@@2@@2@XZ 0040f700 f i bscript:compiler.obj
 0001:0000e710       ?end@?$_Rb_tree@V?$basic_string@DV?$char_traits@D@_STL@@V?$allocator@D@2@@_STL@@U?$pair@$$CBV?$basic_string@DV?$char_traits@D@_STL@@V?$allocator@D@2@@_STL@@VToken@@@2@U?$_Select1st@U?$pair@$$CBV?$basic_string@DV?$char_traits@D@_STL@@V?$allocator@D@2@@_STL@@VToken@@@_STL@@@2@U?$less@V?$basic_string@DV?$char_traits@D@_STL@@V?$allocator@D@2@@_STL@@@2@V?$allocator@U?$pair@$$CBV?$basic_string@DV?$char_traits@D@_STL@@V?$allocator@D@2@@_STL@@VToken@@@_STL@@@2@@_STL@@QBE?AU?$_Rb_tree_iterator@U?$pair@$$CBV?$basic_string@DV?$char_traits@D@_STL@@V?$allocator@D@2@@_STL@@VToken@@@_STL@@U?$_Const_traits@U?$pair@$$CBV?$basic_string@DV?$char_traits@D@_STL@@V?$allocator@D@2@@_STL@@VToken@@@_STL@@@2@@2@XZ 0040f710 f i bscript:compiler.obj
 0001:0000e720       ?key_comp@?$map@V?$basic_string@DV?$char_traits@D@_STL@@V?$allocator@D@2@@_STL@@VExpression@@U?$less@V?$basic_string@DV?$char_traits@D@_STL@@V?$allocator@D@2@@_STL@@@2@V?$allocator@U?$pair@$$CBV?$basic_string@DV?$char_traits@D@_STL@@V?$allocator@D@2@@_STL@@VExpression@@@_STL@@@2@@_STL@@QBE?AU?$less@V?$basic_string@DV?$char_traits@D@_STL@@V?$allocator@D@2@@_STL@@@2@XZ 0040f720 f i bscript:compiler.obj
 0001:0000e730       ?begin@?$_Rb_tree@V?$basic_string@DV?$char_traits@D@_STL@@V?$allocator@D@2@@_STL@@U?$pair@$$CBV?$basic_string@DV?$char_traits@D@_STL@@V?$allocator@D@2@@_STL@@VExpression@@@2@U?$_Select1st@U?$pair@$$CBV?$basic_string@DV?$char_traits@D@_STL@@V?$allocator@D@2@@_STL@@VExpression@@@_STL@@@2@U?$less@V?$basic_string@DV?$char_traits@D@_STL@@V?$allocator@D@2@@_STL@@@2@V?$allocator@U?$pair@$$CBV?$basic_string@DV?$char_traits@D@_STL@@V?$allocator@D@2@@_STL@@VExpression@@@_STL@@@2@@_STL@@QAE?AU?$_Rb_tree_iterator@U?$pair@$$CBV?$basic_string@DV?$char_traits@D@_STL@@V?$allocator@D@2@@_STL@@VExpression@@@_STL@@U?$_Nonconst_traits@U?$pair@$$CBV?$basic_string@DV?$char_traits@D@_STL@@V?$allocator@D@2@@_STL@@VExpression@@@_STL@@@2@@2@XZ 0040f730 f i bscript:compiler.obj
 0001:0000e740       ?end@?$_Rb_tree@V?$basic_string@DV?$char_traits@D@_STL@@V?$allocator@D@2@@_STL@@U?$pair@$$CBV?$basic_string@DV?$char_traits@D@_STL@@V?$allocator@D@2@@_STL@@VExpression@@@2@U?$_Select1st@U?$pair@$$CBV?$basic_string@DV?$char_traits@D@_STL@@V?$allocator@D@2@@_STL@@VExpression@@@_STL@@@2@U?$less@V?$basic_string@DV?$char_traits@D@_STL@@V?$allocator@D@2@@_STL@@@2@V?$allocator@U?$pair@$$CBV?$basic_string@DV?$char_traits@D@_STL@@V?$allocator@D@2@@_STL@@VExpression@@@_STL@@@2@@_STL@@QAE?AU?$_Rb_tree_iterator@U?$pair@$$CBV?$basic_string@DV?$char_traits@D@_STL@@V?$allocator@D@2@@_STL@@VExpression@@@_STL@@U?$_Nonconst_traits@U?$pair@$$CBV?$basic_string@DV?$char_traits@D@_STL@@V?$allocator@D@2@@_STL@@VExpression@@@_STL@@@2@@2@XZ 0040f740 f i bscript:compiler.obj
 0001:0000e750       ??1?$_STLP_alloc_proxy@PAU?$_Rb_tree_node@V?$basic_string@DV?$char_traits@D@_STL@@V?$allocator@D@2@@_STL@@@_STL@@U12@V?$allocator@U?$_Rb_tree_node@V?$basic_string@DV?$char_traits@D@_STL@@V?$allocator@D@2@@_STL@@@_STL@@@2@@_STL@@QAE@XZ 0040f750 f i bscript:compiler.obj
 0001:0000e760       ??1?$_STLP_alloc_proxy@PAU?$_Rb_tree_node@U?$pair@$$CBV?$basic_string@DV?$char_traits@D@_STL@@V?$allocator@D@2@@_STL@@VUserFunction@@@_STL@@@_STL@@U12@V?$allocator@U?$_Rb_tree_node@U?$pair@$$CBV?$basic_string@DV?$char_traits@D@_STL@@V?$allocator@D@2@@_STL@@VUserFunction@@@_STL@@@_STL@@@2@@_STL@@QAE@XZ 0040f760 f i bscript:compiler.obj
 0001:0000e770       ??1?$_STLP_alloc_proxy@PAU?$_Rb_tree_node@U?$pair@$$CBV?$basic_string@DV?$char_traits@D@_STL@@V?$allocator@D@2@@_STL@@VToken@@@_STL@@@_STL@@U12@V?$allocator@U?$_Rb_tree_node@U?$pair@$$CBV?$basic_string@DV?$char_traits@D@_STL@@V?$allocator@D@2@@_STL@@VToken@@@_STL@@@_STL@@@2@@_STL@@QAE@XZ 0040f770 f i bscript:compiler.obj
 0001:0000e780       ??1?$_STLP_alloc_proxy@PAU?$_Rb_tree_node@U?$pair@$$CBV?$basic_string@DV?$char_traits@D@_STL@@V?$allocator@D@2@@_STL@@VExpression@@@_STL@@@_STL@@U12@V?$allocator@U?$_Rb_tree_node@U?$pair@$$CBV?$basic_string@DV?$char_traits@D@_STL@@V?$allocator@D@2@@_STL@@VExpression@@@_STL@@@_STL@@@2@@_STL@@QAE@XZ 0040f780 f i bscript:compiler.obj
 0001:0000e790       ?allocate@?$allocator@V?$basic_string@DV?$char_traits@D@_STL@@V?$allocator@D@2@@_STL@@@_STL@@QAEPAV?$basic_string@DV?$char_traits@D@_STL@@V?$allocator@D@2@@2@IPBX@Z 0040f790 f i bscript:compiler.obj
 0001:0000e7d0       ?deallocate@?$allocator@V?$basic_string@DV?$char_traits@D@_STL@@V?$allocator@D@2@@_STL@@@_STL@@QAEXPAV?$basic_string@DV?$char_traits@D@_STL@@V?$allocator@D@2@@2@I@Z 0040f7d0 f i bscript:compiler.obj
 0001:0000e810       ??0?$_STLP_alloc_proxy@PAV?$basic_string@DV?$char_traits@D@_STL@@V?$allocator@D@2@@_STL@@V12@V?$allocator@V?$basic_string@DV?$char_traits@D@_STL@@V?$allocator@D@2@@_STL@@@2@@_STL@@QAE@ABV?$allocator@V?$basic_string@DV?$char_traits@D@_STL@@V?$allocator@D@2@@_STL@@@1@PAV?$basic_string@DV?$char_traits@D@_STL@@V?$allocator@D@2@@1@@Z 0040f810 f i bscript:compiler.obj
 0001:0000e820       ?allocate@?$allocator@PAVToken@@@_STL@@QAEPAPAVToken@@IPBX@Z 0040f820 f i bscript:compiler.obj
 0001:0000e850       ?deallocate@?$allocator@PAVToken@@@_STL@@QAEXPAPAVToken@@I@Z 0040f850 f i bscript:compiler.obj
 0001:0000e880       ??0?$_STLP_alloc_proxy@PAPAVToken@@PAV1@V?$allocator@PAVToken@@@_STL@@@_STL@@QAE@ABV?$allocator@PAVToken@@@1@PAPAVToken@@@Z 0040f880 f i bscript:compiler.obj
 0001:0000e890       ?allocate@?$allocator@I@_STL@@QAEPAIIPBX@Z 0040f890 f i bscript:compiler.obj
 0001:0000e8c0       ?deallocate@?$allocator@I@_STL@@QAEXPAII@Z 0040f8c0 f i bscript:compiler.obj
 0001:0000e8f0       ??0?$_STLP_alloc_proxy@PAIIV?$allocator@I@_STL@@@_STL@@QAE@ABV?$allocator@I@1@PAI@Z 0040f8f0 f i bscript:compiler.obj
 0001:0000e900       ?allocate@?$allocator@PAVFunctionalityModule@@@_STL@@QAEPAPAVFunctionalityModule@@IPBX@Z 0040f900 f i bscript:compiler.obj
 0001:0000e930       ?allocate@?$allocator@UEPExportedFunction@@@_STL@@QAEPAUEPExportedFunction@@IPBX@Z 0040f930 f i bscript:compiler.obj
 0001:0000e970       ?deallocate@?$allocator@UEPExportedFunction@@@_STL@@QAEXPAUEPExportedFunction@@I@Z 0040f970 f i bscript:compiler.obj
 0001:0000e9b0       ?allocate@?$allocator@UVariable@@@_STL@@QAEPAUVariable@@IPBX@Z 0040f9b0 f i bscript:compiler.obj
 0001:0000e9e0       ?deallocate@?$allocator@UVariable@@@_STL@@QAEXPAUVariable@@I@Z 0040f9e0 f i bscript:compiler.obj
 0001:0000ea10       ??0?$_STLP_alloc_proxy@PAUVariable@@U1@V?$allocator@UVariable@@@_STL@@@_STL@@QAE@ABV?$allocator@UVariable@@@1@PAUVariable@@@Z 0040fa10 f i bscript:compiler.obj
 0001:0000ea20       ?allocate@?$allocator@UBlockDesc@@@_STL@@QAEPAUBlockDesc@@IPBX@Z 0040fa20 f i bscript:compiler.obj
 0001:0000ea50       ?deallocate@?$allocator@UBlockDesc@@@_STL@@QAEXPAUBlockDesc@@I@Z 0040fa50 f i bscript:compiler.obj
 0001:0000ea80       ??0?$_STLP_alloc_proxy@PAUBlockDesc@@U1@V?$allocator@UBlockDesc@@@_STL@@@_STL@@QAE@ABV?$allocator@UBlockDesc@@@1@PAUBlockDesc@@@Z 0040fa80 f i bscript:compiler.obj
 0001:0000ea90       ?_M_empty_initialize@?$_Rb_tree@V?$basic_string@DV?$char_traits@D@_STL@@V?$allocator@D@2@@_STL@@V12@U?$_Identity@V?$basic_string@DV?$char_traits@D@_STL@@V?$allocator@D@2@@_STL@@@2@Vci_cmp_pred@@V?$allocator@V?$basic_string@DV?$char_traits@D@_STL@@V?$allocator@D@2@@_STL@@@2@@_STL@@AAEXXZ 0040fa90 f i bscript:compiler.obj
 0001:0000eab0       ?deallocate@?$allocator@U?$_Rb_tree_node@V?$basic_string@DV?$char_traits@D@_STL@@V?$allocator@D@2@@_STL@@@_STL@@@_STL@@QAEXPAU?$_Rb_tree_node@V?$basic_string@DV?$char_traits@D@_STL@@V?$allocator@D@2@@_STL@@@2@I@Z 0040fab0 f i bscript:compiler.obj
 0001:0000eae0       ?_M_empty_initialize@?$_Rb_tree@V?$basic_string@DV?$char_traits@D@_STL@@V?$allocator@D@2@@_STL@@U?$pair@$$CBV?$basic_string@DV?$char_traits@D@_STL@@V?$allocator@D@2@@_STL@@VUserFunction@@@2@U?$_Select1st@U?$pair@$$CBV?$basic_string@DV?$char_traits@D@_STL@@V?$allocator@D@2@@_STL@@VUserFunction@@@_STL@@@2@Vci_cmp_pred@@V?$allocator@U?$pair@$$CBV?$basic_string@DV?$char_traits@D@_STL@@V?$allocator@D@2@@_STL@@VUserFunction@@@_STL@@@2@@_STL@@AAEXXZ 0040fae0 f i bscript:compiler.obj
 0001:0000eb00       ?deallocate@?$allocator@U?$_Rb_tree_node@U?$pair@$$CBV?$basic_string@DV?$char_traits@D@_STL@@V?$allocator@D@2@@_STL@@VUserFunction@@@_STL@@@_STL@@@_STL@@QAEXPAU?$_Rb_tree_node@U?$pair@$$CBV?$basic_string@DV?$char_traits@D@_STL@@V?$allocator@D@2@@_STL@@VUserFunction@@@_STL@@@2@I@Z 0040fb00 f i bscript:compiler.obj
 0001:0000eb30       ?_M_empty_initialize@?$_Rb_tree@V?$basic_string@DV?$char_traits@D@_STL@@V?$allocator@D@2@@_STL@@U?$pair@$$CBV?$basic_string@DV?$char_traits@D@_STL@@V?$allocator@D@2@@_STL@@VToken@@@2@U?$_Select1st@U?$pair@$$CBV?$basic_string@DV?$char_traits@D@_STL@@V?$allocator@D@2@@_STL@@VToken@@@_STL@@@2@U?$less@V?$basic_string@DV?$char_traits@D@_STL@@V?$allocator@D@2@@_STL@@@2@V?$allocator@U?$pair@$$CBV?$basic_string@DV?$char_traits@D@_STL@@V?$allocator@D@2@@_STL@@VToken@@@_STL@@@2@@_STL@@AAEXXZ 0040fb30 f i bscript:compiler.obj
 0001:0000eb50       ?deallocate@?$allocator@U?$_Rb_tree_node@U?$pair@$$CBV?$basic_string@DV?$char_traits@D@_STL@@V?$allocator@D@2@@_STL@@VToken@@@_STL@@@_STL@@@_STL@@QAEXPAU?$_Rb_tree_node@U?$pair@$$CBV?$basic_string@DV?$char_traits@D@_STL@@V?$allocator@D@2@@_STL@@VToken@@@_STL@@@2@I@Z 0040fb50 f i bscript:compiler.obj
 0001:0000eb80       ?allocate@?$allocator@PAD@_STL@@QAEPAPADIPBX@Z 0040fb80 f i bscript:compiler.obj
 0001:0000ebb0       ?deallocate@?$allocator@PAD@_STL@@QAEXPAPADI@Z 0040fbb0 f i bscript:compiler.obj
 0001:0000ebe0       ??0?$_STLP_alloc_proxy@PAPADPADV?$allocator@PAD@_STL@@@_STL@@QAE@ABV?$allocator@PAD@1@PAPAD@Z 0040fbe0 f i bscript:compiler.obj
 0001:0000ebf0       ?allocate@?$allocator@UCandidate@@@_STL@@QAEPAUCandidate@@IPBX@Z 0040fbf0 f i bscript:compiler.obj
 0001:0000ec30       ?deallocate@?$allocator@UCandidate@@@_STL@@QAEXPAUCandidate@@I@Z 0040fc30 f i bscript:compiler.obj
 0001:0000ec70       ??0?$_STLP_alloc_proxy@PAUCandidate@@U1@V?$allocator@UCandidate@@@_STL@@@_STL@@QAE@ABV?$allocator@UCandidate@@@1@PAUCandidate@@@Z 0040fc70 f i bscript:compiler.obj
 0001:0000ec80       ?_M_empty_initialize@?$_Rb_tree@V?$basic_string@DV?$char_traits@D@_STL@@V?$allocator@D@2@@_STL@@U?$pair@$$CBV?$basic_string@DV?$char_traits@D@_STL@@V?$allocator@D@2@@_STL@@VExpression@@@2@U?$_Select1st@U?$pair@$$CBV?$basic_string@DV?$char_traits@D@_STL@@V?$allocator@D@2@@_STL@@VExpression@@@_STL@@@2@U?$less@V?$basic_string@DV?$char_traits@D@_STL@@V?$allocator@D@2@@_STL@@@2@V?$allocator@U?$pair@$$CBV?$basic_string@DV?$char_traits@D@_STL@@V?$allocator@D@2@@_STL@@VExpression@@@_STL@@@2@@_STL@@AAEXXZ 0040fc80 f i bscript:compiler.obj
 0001:0000eca0       ?deallocate@?$allocator@U?$_Rb_tree_node@U?$pair@$$CBV?$basic_string@DV?$char_traits@D@_STL@@V?$allocator@D@2@@_STL@@VExpression@@@_STL@@@_STL@@@_STL@@QAEXPAU?$_Rb_tree_node@U?$pair@$$CBV?$basic_string@DV?$char_traits@D@_STL@@V?$allocator@D@2@@_STL@@VExpression@@@_STL@@@2@I@Z 0040fca0 f i bscript:compiler.obj
 0001:0000ecd0       ?allocate@?$allocator@E@_STL@@QAEPAEIPBX@Z 0040fcd0 f i bscript:compiler.obj
 0001:0000ed00       ?deallocate@?$allocator@E@_STL@@QAEXPAEI@Z 0040fd00 f i bscript:compiler.obj
 0001:0000ed30       ??0?$_STLP_alloc_proxy@PAEEV?$allocator@E@_STL@@@_STL@@QAE@ABV?$allocator@E@1@PAE@Z 0040fd30 f i bscript:compiler.obj
 0001:0000ed40       ??1?$_STLP_alloc_proxy@PAPAPAVToken@@PAPAV1@V?$allocator@PAPAVToken@@@_STL@@@_STL@@QAE@XZ 0040fd40 f i bscript:compiler.obj
 0001:0000ed50       ?get_allocator@?$vector@PAVToken@@V?$allocator@PAVToken@@@_STL@@@_STL@@QBE?AV?$allocator@PAVToken@@@2@XZ 0040fd50 f i bscript:compiler.obj
 0001:0000ed60       ??0?$_Vector_base@PAVToken@@V?$allocator@PAVToken@@@_STL@@@_STL@@QAE@IABV?$allocator@PAVToken@@@1@@Z 0040fd60 f i bscript:compiler.obj
 0001:0000edf0       ?begin@?$deque@PAVToken@@V?$allocator@PAVToken@@@_STL@@@_STL@@QBE?AU?$_Deque_iterator@PAVToken@@U?$_Const_traits@PAVToken@@@_STL@@@2@XZ 0040fdf0 f i bscript:compiler.obj
 0001:0000ee20       ?end@?$deque@PAVToken@@V?$allocator@PAVToken@@@_STL@@@_STL@@QBE?AU?$_Deque_iterator@PAVToken@@U?$_Const_traits@PAVToken@@@_STL@@@2@XZ 0040fe20 f i bscript:compiler.obj
 0001:0000ee50       ??0?$_Deque_iterator@PAVToken@@U?$_Nonconst_traits@PAVToken@@@_STL@@@_STL@@QAE@XZ 0040fe50 f i bscript:compiler.obj
 0001:0000ee60       ?_M_decrement@?$_Deque_iterator_base@PAVToken@@@_STL@@QAEXXZ 0040fe60 f i bscript:compiler.obj
 0001:0000ee90       ??0?$_STLP_alloc_proxy@PAPAPAVToken@@PAPAV1@V?$allocator@PAPAVToken@@@_STL@@@_STL@@QAE@ABV?$allocator@PAPAVToken@@@1@PAPAPAVToken@@@Z 0040fe90 f i bscript:compiler.obj
 0001:0000eea0       ?get_allocator@?$vector@VUserParam@@V?$allocator@VUserParam@@@_STL@@@_STL@@QBE?AV?$allocator@VUserParam@@@2@XZ 0040fea0 f i bscript:compiler.obj
 0001:0000eeb0       ??0?$_Vector_base@VUserParam@@V?$allocator@VUserParam@@@_STL@@@_STL@@QAE@IABV?$allocator@VUserParam@@@1@@Z 0040feb0 f i bscript:compiler.obj
 0001:0000ef20       ??1?$_Vector_base@VUserParam@@V?$allocator@VUserParam@@@_STL@@@_STL@@QAE@XZ 0040ff20 f i bscript:compiler.obj
 0001:0000ef70       ?get_allocator@?$vector@IV?$allocator@I@_STL@@@_STL@@QBE?AV?$allocator@I@2@XZ 0040ff70 f i bscript:compiler.obj
 0001:0000ef80       ??0?$_Vector_base@IV?$allocator@I@_STL@@@_STL@@QAE@IABV?$allocator@I@1@@Z 0040ff80 f i bscript:compiler.obj
 0001:0000f010       ?deallocate@?$allocator@PAVFunctionalityModule@@@_STL@@QAEXPAPAVFunctionalityModule@@I@Z 00410010 f i bscript:compiler.obj
 0001:0000f040       ??0?$_STLP_alloc_proxy@PAU?$_Rb_tree_node@V?$basic_string@DV?$char_traits@D@_STL@@V?$allocator@D@2@@_STL@@@_STL@@U12@V?$allocator@U?$_Rb_tree_node@V?$basic_string@DV?$char_traits@D@_STL@@V?$allocator@D@2@@_STL@@@_STL@@@2@@_STL@@QAE@ABV?$allocator@U?$_Rb_tree_node@V?$basic_string@DV?$char_traits@D@_STL@@V?$allocator@D@2@@_STL@@@_STL@@@1@PAU?$_Rb_tree_node@V?$basic_string@DV?$char_traits@D@_STL@@V?$allocator@D@2@@_STL@@@1@@Z 00410040 f i bscript:compiler.obj
 0001:0000f050       ?allocate@?$allocator@U?$_Rb_tree_node@V?$basic_string@DV?$char_traits@D@_STL@@V?$allocator@D@2@@_STL@@@_STL@@@_STL@@QAEPAU?$_Rb_tree_node@V?$basic_string@DV?$char_traits@D@_STL@@V?$allocator@D@2@@_STL@@@2@IPBX@Z 00410050 f i bscript:compiler.obj
 0001:0000f080       ??0?$_STLP_alloc_proxy@PAU?$_Rb_tree_node@U?$pair@$$CBV?$basic_string@DV?$char_traits@D@_STL@@V?$allocator@D@2@@_STL@@VUserFunction@@@_STL@@@_STL@@U12@V?$allocator@U?$_Rb_tree_node@U?$pair@$$CBV?$basic_string@DV?$char_traits@D@_STL@@V?$allocator@D@2@@_STL@@VUserFunction@@@_STL@@@_STL@@@2@@_STL@@QAE@ABV?$allocator@U?$_Rb_tree_node@U?$pair@$$CBV?$basic_string@DV?$char_traits@D@_STL@@V?$allocator@D@2@@_STL@@VUserFunction@@@_STL@@@_STL@@@1@PAU?$_Rb_tree_node@U?$pair@$$CBV?$basic_string@DV?$char_traits@D@_STL@@V?$allocator@D@2@@_STL@@VUserFunction@@@_STL@@@1@@Z 00410080 f i bscript:compiler.obj
 0001:0000f090       ?allocate@?$allocator@U?$_Rb_tree_node@U?$pair@$$CBV?$basic_string@DV?$char_traits@D@_STL@@V?$allocator@D@2@@_STL@@VUserFunction@@@_STL@@@_STL@@@_STL@@QAEPAU?$_Rb_tree_node@U?$pair@$$CBV?$basic_string@DV?$char_traits@D@_STL@@V?$allocator@D@2@@_STL@@VUserFunction@@@_STL@@@2@IPBX@Z 00410090 f i bscript:compiler.obj
 0001:0000f0c0       ??0?$_STLP_alloc_proxy@PAU?$_Rb_tree_node@U?$pair@$$CBV?$basic_string@DV?$char_traits@D@_STL@@V?$allocator@D@2@@_STL@@VToken@@@_STL@@@_STL@@U12@V?$allocator@U?$_Rb_tree_node@U?$pair@$$CBV?$basic_string@DV?$char_traits@D@_STL@@V?$allocator@D@2@@_STL@@VToken@@@_STL@@@_STL@@@2@@_STL@@QAE@ABV?$allocator@U?$_Rb_tree_node@U?$pair@$$CBV?$basic_string@DV?$char_traits@D@_STL@@V?$allocator@D@2@@_STL@@VToken@@@_STL@@@_STL@@@1@PAU?$_Rb_tree_node@U?$pair@$$CBV?$basic_string@DV?$char_traits@D@_STL@@V?$allocator@D@2@@_STL@@VToken@@@_STL@@@1@@Z 004100c0 f i bscript:compiler.obj
 0001:0000f0d0       ?allocate@?$allocator@U?$_Rb_tree_node@U?$pair@$$CBV?$basic_string@DV?$char_traits@D@_STL@@V?$allocator@D@2@@_STL@@VToken@@@_STL@@@_STL@@@_STL@@QAEPAU?$_Rb_tree_node@U?$pair@$$CBV?$basic_string@DV?$char_traits@D@_STL@@V?$allocator@D@2@@_STL@@VToken@@@_STL@@@2@IPBX@Z 004100d0 f i bscript:compiler.obj
 0001:0000f100       ??0?$_STLP_alloc_proxy@PAU?$_Rb_tree_node@U?$pair@$$CBV?$basic_string@DV?$char_traits@D@_STL@@V?$allocator@D@2@@_STL@@VExpression@@@_STL@@@_STL@@U12@V?$allocator@U?$_Rb_tree_node@U?$pair@$$CBV?$basic_string@DV?$char_traits@D@_STL@@V?$allocator@D@2@@_STL@@VExpression@@@_STL@@@_STL@@@2@@_STL@@QAE@ABV?$allocator@U?$_Rb_tree_node@U?$pair@$$CBV?$basic_string@DV?$char_traits@D@_STL@@V?$allocator@D@2@@_STL@@VExpression@@@_STL@@@_STL@@@1@PAU?$_Rb_tree_node@U?$pair@$$CBV?$basic_string@DV?$char_traits@D@_STL@@V?$allocator@D@2@@_STL@@VExpression@@@_STL@@@1@@Z 00410100 f i bscript:compiler.obj
 0001:0000f110       ?allocate@?$allocator@U?$_Rb_tree_node@U?$pair@$$CBV?$basic_string@DV?$char_traits@D@_STL@@V?$allocator@D@2@@_STL@@VExpression@@@_STL@@@_STL@@@_STL@@QAEPAU?$_Rb_tree_node@U?$pair@$$CBV?$basic_string@DV?$char_traits@D@_STL@@V?$allocator@D@2@@_STL@@VExpression@@@_STL@@@2@IPBX@Z 00410110 f i bscript:compiler.obj
 0001:0000f140       ??G?$_Deque_iterator@PAVToken@@U?$_Nonconst_traits@PAVToken@@@_STL@@@_STL@@QBEHABU01@@Z 00410140 f i bscript:compiler.obj
 0001:0000f170       ?_S_key@?$_Rb_tree@V?$basic_string@DV?$char_traits@D@_STL@@V?$allocator@D@2@@_STL@@U?$pair@$$CBV?$basic_string@DV?$char_traits@D@_STL@@V?$allocator@D@2@@_STL@@VUserFunction@@@2@U?$_Select1st@U?$pair@$$CBV?$basic_string@DV?$char_traits@D@_STL@@V?$allocator@D@2@@_STL@@VUserFunction@@@_STL@@@2@Vci_cmp_pred@@V?$allocator@U?$pair@$$CBV?$basic_string@DV?$char_traits@D@_STL@@V?$allocator@D@2@@_STL@@VUserFunction@@@_STL@@@2@@_STL@@KAABV?$basic_string@DV?$char_traits@D@_STL@@V?$allocator@D@2@@2@PAU?$_Rb_tree_node@U?$pair@$$CBV?$basic_string@DV?$char_traits@D@_STL@@V?$allocator@D@2@@_STL@@VUserFunction@@@_STL@@@2@@Z 00410170 f i bscript:compiler.obj
 0001:0000f180       ?_S_key@?$_Rb_tree@V?$basic_string@DV?$char_traits@D@_STL@@V?$allocator@D@2@@_STL@@U?$pair@$$CBV?$basic_string@DV?$char_traits@D@_STL@@V?$allocator@D@2@@_STL@@VExpression@@@2@U?$_Select1st@U?$pair@$$CBV?$basic_string@DV?$char_traits@D@_STL@@V?$allocator@D@2@@_STL@@VExpression@@@_STL@@@2@U?$less@V?$basic_string@DV?$char_traits@D@_STL@@V?$allocator@D@2@@_STL@@@2@V?$allocator@U?$pair@$$CBV?$basic_string@DV?$char_traits@D@_STL@@V?$allocator@D@2@@_STL@@VExpression@@@_STL@@@2@@_STL@@KAABV?$basic_string@DV?$char_traits@D@_STL@@V?$allocator@D@2@@2@PAU?$_Rb_tree_node@U?$pair@$$CBV?$basic_string@DV?$char_traits@D@_STL@@V?$allocator@D@2@@_STL@@VExpression@@@_STL@@@2@@Z 00410180 f i bscript:compiler.obj
 0001:0000f190       ?_M_pop_back_aux@?$deque@PAVToken@@V?$allocator@PAVToken@@@_STL@@@_STL@@IAEXXZ 00410190 f i bscript:compiler.obj
 0001:0000f1d0       ?_M_pop_front_aux@?$deque@PAVToken@@V?$allocator@PAVToken@@@_STL@@@_STL@@IAEXXZ 004101d0 f i bscript:compiler.obj
 0001:0000f210       ??$?8DV?$char_traits@D@_STL@@V?$allocator@D@1@@_STL@@YA_NABV?$basic_string@DV?$char_traits@D@_STL@@V?$allocator@D@2@@0@0@Z 00410210 f i bscript:compiler.obj
 0001:0000f240       ??$?8DV?$char_traits@D@_STL@@V?$allocator@D@1@@_STL@@YA_NPBDABV?$basic_string@DV?$char_traits@D@_STL@@V?$allocator@D@2@@0@@Z 00410240 f i bscript:compiler.obj
 0001:0000f280       ??$?9DV?$char_traits@D@_STL@@V?$allocator@D@1@@_STL@@YA_NABV?$basic_string@DV?$char_traits@D@_STL@@V?$allocator@D@2@@0@PBD@Z 00410280 f i bscript:compiler.obj
 0001:0000f2d0       ??$?9DV?$char_traits@D@_STL@@V?$allocator@D@1@@_STL@@YA_NABV?$basic_string@DV?$char_traits@D@_STL@@V?$allocator@D@2@@0@0@Z 004102d0 f i bscript:compiler.obj
 0001:0000f320       ??$?MDV?$char_traits@D@_STL@@V?$allocator@D@1@@_STL@@YA_NABV?$basic_string@DV?$char_traits@D@_STL@@V?$allocator@D@2@@0@0@Z 00410320 f i bscript:compiler.obj
 0001:0000f390       ??$distance@U?$_Rb_tree_iterator@U?$pair@$$CBV?$basic_string@DV?$char_traits@D@_STL@@V?$allocator@D@2@@_STL@@VExpression@@@_STL@@U?$_Nonconst_traits@U?$pair@$$CBV?$basic_string@DV?$char_traits@D@_STL@@V?$allocator@D@2@@_STL@@VExpression@@@_STL@@@2@@_STL@@@_STL@@YAHABU?$_Rb_tree_iterator@U?$pair@$$CBV?$basic_string@DV?$char_traits@D@_STL@@V?$allocator@D@2@@_STL@@VExpression@@@_STL@@U?$_Nonconst_traits@U?$pair@$$CBV?$basic_string@DV?$char_traits@D@_STL@@V?$allocator@D@2@@_STL@@VExpression@@@_STL@@@2@@0@0@Z 00410390 f i bscript:compiler.obj
 0001:0000f3c0       ?rend@?$basic_string@DV?$char_traits@D@_STL@@V?$allocator@D@2@@_STL@@QBE?AV?$reverse_iterator@PBD@2@XZ 004103c0 f i bscript:compiler.obj
 0001:0000f3d0       ?_S_key@?$_Rb_tree@V?$basic_string@DV?$char_traits@D@_STL@@V?$allocator@D@2@@_STL@@V12@U?$_Identity@V?$basic_string@DV?$char_traits@D@_STL@@V?$allocator@D@2@@_STL@@@2@Vci_cmp_pred@@V?$allocator@V?$basic_string@DV?$char_traits@D@_STL@@V?$allocator@D@2@@_STL@@@2@@_STL@@KAABV?$basic_string@DV?$char_traits@D@_STL@@V?$allocator@D@2@@2@PAU?$_Rb_tree_node@V?$basic_string@DV?$char_traits@D@_STL@@V?$allocator@D@2@@_STL@@@2@@Z 004103d0 f i bscript:compiler.obj
 0001:0000f3e0       ?_S_key@?$_Rb_tree@V?$basic_string@DV?$char_traits@D@_STL@@V?$allocator@D@2@@_STL@@V12@U?$_Identity@V?$basic_string@DV?$char_traits@D@_STL@@V?$allocator@D@2@@_STL@@@2@Vci_cmp_pred@@V?$allocator@V?$basic_string@DV?$char_traits@D@_STL@@V?$allocator@D@2@@_STL@@@2@@_STL@@KAABV?$basic_string@DV?$char_traits@D@_STL@@V?$allocator@D@2@@2@PAU_Rb_tree_node_base@2@@Z 004103e0 f i bscript:compiler.obj
 0001:0000f3f0       ?begin@?$_Rb_tree@V?$basic_string@DV?$char_traits@D@_STL@@V?$allocator@D@2@@_STL@@V12@U?$_Identity@V?$basic_string@DV?$char_traits@D@_STL@@V?$allocator@D@2@@_STL@@@2@Vci_cmp_pred@@V?$allocator@V?$basic_string@DV?$char_traits@D@_STL@@V?$allocator@D@2@@_STL@@@2@@_STL@@QAE?AU?$_Rb_tree_iterator@V?$basic_string@DV?$char_traits@D@_STL@@V?$allocator@D@2@@_STL@@U?$_Nonconst_traits@V?$basic_string@DV?$char_traits@D@_STL@@V?$allocator@D@2@@_STL@@@2@@2@XZ 004103f0 f i bscript:compiler.obj
 0001:0000f400       ?_S_key@?$_Rb_tree@V?$basic_string@DV?$char_traits@D@_STL@@V?$allocator@D@2@@_STL@@U?$pair@$$CBV?$basic_string@DV?$char_traits@D@_STL@@V?$allocator@D@2@@_STL@@VToken@@@2@U?$_Select1st@U?$pair@$$CBV?$basic_string@DV?$char_traits@D@_STL@@V?$allocator@D@2@@_STL@@VToken@@@_STL@@@2@U?$less@V?$basic_string@DV?$char_traits@D@_STL@@V?$allocator@D@2@@_STL@@@2@V?$allocator@U?$pair@$$CBV?$basic_string@DV?$char_traits@D@_STL@@V?$allocator@D@2@@_STL@@VToken@@@_STL@@@2@@_STL@@KAABV?$basic_string@DV?$char_traits@D@_STL@@V?$allocator@D@2@@2@PAU?$_Rb_tree_node@U?$pair@$$CBV?$basic_string@DV?$char_traits@D@_STL@@V?$allocator@D@2@@_STL@@VToken@@@_STL@@@2@@Z 00410400 f i bscript:compiler.obj
 0001:0000f410       ?_S_key@?$_Rb_tree@V?$basic_string@DV?$char_traits@D@_STL@@V?$allocator@D@2@@_STL@@U?$pair@$$CBV?$basic_string@DV?$char_traits@D@_STL@@V?$allocator@D@2@@_STL@@VToken@@@2@U?$_Select1st@U?$pair@$$CBV?$basic_string@DV?$char_traits@D@_STL@@V?$allocator@D@2@@_STL@@VToken@@@_STL@@@2@U?$less@V?$basic_string@DV?$char_traits@D@_STL@@V?$allocator@D@2@@_STL@@@2@V?$allocator@U?$pair@$$CBV?$basic_string@DV?$char_traits@D@_STL@@V?$allocator@D@2@@_STL@@VToken@@@_STL@@@2@@_STL@@KAABV?$basic_string@DV?$char_traits@D@_STL@@V?$allocator@D@2@@2@PAU_Rb_tree_node_base@2@@Z 00410410 f i bscript:compiler.obj
 0001:0000f420       ??0?$pair@U?$_Rb_tree_iterator@U?$pair@$$CBV?$basic_string@DV?$char_traits@D@_STL@@V?$allocator@D@2@@_STL@@VToken@@@_STL@@U?$_Nonconst_traits@U?$pair@$$CBV?$basic_string@DV?$char_traits@D@_STL@@V?$allocator@D@2@@_STL@@VToken@@@_STL@@@2@@_STL@@_N@_STL@@QAE@ABU?$_Rb_tree_iterator@U?$pair@$$CBV?$basic_string@DV?$char_traits@D@_STL@@V?$allocator@D@2@@_STL@@VToken@@@_STL@@U?$_Nonconst_traits@U?$pair@$$CBV?$basic_string@DV?$char_traits@D@_STL@@V?$allocator@D@2@@_STL@@VToken@@@_STL@@@2@@1@AB_N@Z 00410420 f i bscript:compiler.obj
 0001:0000f440       ??0?$pair@U?$_Rb_tree_iterator@V?$basic_string@DV?$char_traits@D@_STL@@V?$allocator@D@2@@_STL@@U?$_Nonconst_traits@V?$basic_string@DV?$char_traits@D@_STL@@V?$allocator@D@2@@_STL@@@2@@_STL@@_N@_STL@@QAE@ABU?$_Rb_tree_iterator@V?$basic_string@DV?$char_traits@D@_STL@@V?$allocator@D@2@@_STL@@U?$_Nonconst_traits@V?$basic_string@DV?$char_traits@D@_STL@@V?$allocator@D@2@@_STL@@@2@@1@AB_N@Z 00410440 f i bscript:compiler.obj
 0001:0000f460       ?_M_destroy_nodes@?$_Deque_base@PAVToken@@V?$allocator@PAVToken@@@_STL@@@_STL@@IAEXPAPAPAVToken@@0@Z 00410460 f i bscript:compiler.obj
 0001:0000f490       ??$__destroy@PAPAVToken@@PAV1@@_STL@@YAXPAPAVToken@@00@Z 00410490 f i bscript:compiler.obj
 0001:0000f4a0       ??$__destroy@U?$_Deque_iterator@PAVToken@@U?$_Nonconst_traits@PAVToken@@@_STL@@@_STL@@PAVToken@@@_STL@@YAXU?$_Deque_iterator@PAVToken@@U?$_Nonconst_traits@PAVToken@@@_STL@@@0@0PAPAVToken@@@Z 004104a0 f i bscript:compiler.obj
 0001:0000f4b0       ??$__destroy@PAII@_STL@@YAXPAI00@Z 004104b0 f i bscript:compiler.obj
 0001:0000f4c0       ??$_M_find@V?$basic_string@DV?$char_traits@D@_STL@@V?$allocator@D@2@@_STL@@@?$_Rb_tree@V?$basic_string@DV?$char_traits@D@_STL@@V?$allocator@D@2@@_STL@@V12@U?$_Identity@V?$basic_string@DV?$char_traits@D@_STL@@V?$allocator@D@2@@_STL@@@2@Vci_cmp_pred@@V?$allocator@V?$basic_string@DV?$char_traits@D@_STL@@V?$allocator@D@2@@_STL@@@2@@_STL@@ABEPAU?$_Rb_tree_node@V?$basic_string@DV?$char_traits@D@_STL@@V?$allocator@D@2@@_STL@@@1@ABV?$basic_string@DV?$char_traits@D@_STL@@V?$allocator@D@2@@1@@Z 004104c0 f i bscript:compiler.obj
 0001:0000f520       ??$_M_find@V?$basic_string@DV?$char_traits@D@_STL@@V?$allocator@D@2@@_STL@@@?$_Rb_tree@V?$basic_string@DV?$char_traits@D@_STL@@V?$allocator@D@2@@_STL@@U?$pair@$$CBV?$basic_string@DV?$char_traits@D@_STL@@V?$allocator@D@2@@_STL@@VUserFunction@@@2@U?$_Select1st@U?$pair@$$CBV?$basic_string@DV?$char_traits@D@_STL@@V?$allocator@D@2@@_STL@@VUserFunction@@@_STL@@@2@Vci_cmp_pred@@V?$allocator@U?$pair@$$CBV?$basic_string@DV?$char_traits@D@_STL@@V?$allocator@D@2@@_STL@@VUserFunction@@@_STL@@@2@@_STL@@ABEPAU?$_Rb_tree_node@U?$pair@$$CBV?$basic_string@DV?$char_traits@D@_STL@@V?$allocator@D@2@@_STL@@VUserFunction@@@_STL@@@1@ABV?$basic_string@DV?$char_traits@D@_STL@@V?$allocator@D@2@@1@@Z 00410520 f i bscript:compiler.obj
 0001:0000f580       ??$__destroy@PAPADPAD@_STL@@YAXPAPAD00@Z 00410580 f i bscript:compiler.obj
 0001:0000f590       ??$__destroy@PAEE@_STL@@YAXPAE00@Z 00410590 f i bscript:compiler.obj
 0001:0000f5a0       ??$__copy_aux@PBQAVToken@@PAPAV1@@_STL@@YAPAPAVToken@@PBQAV1@0PAPAV1@ABU__true_type@0@@Z 004105a0 f i bscript:compiler.obj
 0001:0000f5d0       ??$__copy_aux@PBIPAI@_STL@@YAPAIPBI0PAIABU__true_type@0@@Z 004105d0 f i bscript:compiler.obj
 0001:0000f600       ??$__destroy@PAPAVFunctionalityModule@@PAV1@@_STL@@YAXPAPAVFunctionalityModule@@00@Z 00410600 f i bscript:compiler.obj
 0001:0000f610       ??$__destroy_aux@PAUCandidate@@@_STL@@YAXPAUCandidate@@0ABU__false_type@0@@Z 00410610 f i bscript:compiler.obj
 0001:0000f620       ??E?$_Deque_iterator@PAVToken@@U?$_Nonconst_traits@PAVToken@@@_STL@@@_STL@@QAEAAU01@XZ 00410620 f i bscript:compiler.obj
 0001:0000f650       ??E?$_Deque_iterator@PAVToken@@U?$_Const_traits@PAVToken@@@_STL@@@_STL@@QAEAAU01@XZ 00410650 f i bscript:compiler.obj
 0001:0000f680       ??$__copy_aux@PAPAPAVToken@@PAPAPAV1@@_STL@@YAPAPAPAVToken@@PAPAPAV1@00ABU__true_type@0@@Z 00410680 f i bscript:compiler.obj
 0001:0000f6b0       ??$__copy_backward_aux@PAPAPAVToken@@PAPAPAV1@@_STL@@YAPAPAPAVToken@@PAPAPAV1@00ABU__true_type@0@@Z 004106b0 f i bscript:compiler.obj
 0001:0000f6e0       ?numVarsInBlock@Scope@@QBEIXZ 004106e0 f i bscript:compiler.obj
 0001:0000f6f0       ?blockdesc@Scope@@QBEABUBlockDesc@@XZ 004106f0 f i bscript:compiler.obj
 0001:0000f700       ?varexists@Scope@@QBE_NABV?$basic_string@DV?$char_traits@D@_STL@@V?$allocator@D@2@@_STL@@AAI@Z 00410700 f   bscript:compiler.obj
 0001:0000f780       ?varexists@Scope@@QBE_NABV?$basic_string@DV?$char_traits@D@_STL@@V?$allocator@D@2@@_STL@@@Z 00410780 f   bscript:compiler.obj
 0001:0000f7e0       ?addvalue@Scope@@QAEXXZ    004107e0 f   bscript:compiler.obj
 0001:0000f7f0       ?get_num_tokens@Expression@@QBEHH@Z 004107f0 f   bscript:compiler.obj
 0001:0000f8f0       ?patchblock_breaks@Compiler@@AAEXI@Z 004108f0 f   bscript:compiler.obj
 0001:0000f970       ?patchblock_continues@Compiler@@AAEXI@Z 00410970 f   bscript:compiler.obj
 0001:0000f9f0       ?emit_leaveblock@Compiler@@AAEXXZ 004109f0 f   bscript:compiler.obj
 0001:0000fa30       ?globalexists@Compiler@@ABE_NABV?$basic_string@DV?$char_traits@D@_STL@@V?$allocator@D@2@@_STL@@AAIPAVCompilerContext@@@Z 00410a30 f   bscript:compiler.obj
 0001:0000fae0       ?varexists@Compiler@@ABE_NABV?$basic_string@DV?$char_traits@D@_STL@@V?$allocator@D@2@@_STL@@@Z 00410ae0 f   bscript:compiler.obj
 0001:0000fb20       ?patch_callers@Compiler@@QAEXAAVUserFunction@@@Z 00410b20 f   bscript:compiler.obj
 0001:0000fbb0       ?empty@?$stack@PAVToken@@V?$deque@PAVToken@@V?$allocator@PAVToken@@@_STL@@@_STL@@@_STL@@QBE_NXZ 00410bb0 f i bscript:compiler.obj
 0001:0000fbc0       ?empty@?$queue@PAVToken@@V?$deque@PAVToken@@V?$allocator@PAVToken@@@_STL@@@_STL@@@_STL@@QBE_NXZ 00410bc0 f i bscript:compiler.obj
 0001:0000fbd0       ?front@?$queue@PAVToken@@V?$deque@PAVToken@@V?$allocator@PAVToken@@@_STL@@@_STL@@@_STL@@QAEAAPAVToken@@XZ 00410bd0 f i bscript:compiler.obj
 0001:0000fbe0       ??1?$ref_ptr@VEScriptProgram@@@@QAE@XZ 00410be0 f i bscript:compiler.obj
 0001:0000fc10       ?begin@?$map@V?$basic_string@DV?$char_traits@D@_STL@@V?$allocator@D@2@@_STL@@VUserFunction@@Vci_cmp_pred@@V?$allocator@U?$pair@$$CBV?$basic_string@DV?$char_traits@D@_STL@@V?$allocator@D@2@@_STL@@VUserFunction@@@_STL@@@2@@_STL@@QAE?AU?$_Rb_tree_iterator@U?$pair@$$CBV?$basic_string@DV?$char_traits@D@_STL@@V?$allocator@D@2@@_STL@@VUserFunction@@@_STL@@U?$_Nonconst_traits@U?$pair@$$CBV?$basic_string@DV?$char_traits@D@_STL@@V?$allocator@D@2@@_STL@@VUserFunction@@@_STL@@@2@@2@XZ 00410c10 f i bscript:compiler.obj
 0001:0000fc20       ?end@?$map@V?$basic_string@DV?$char_traits@D@_STL@@V?$allocator@D@2@@_STL@@VUserFunction@@Vci_cmp_pred@@V?$allocator@U?$pair@$$CBV?$basic_string@DV?$char_traits@D@_STL@@V?$allocator@D@2@@_STL@@VUserFunction@@@_STL@@@2@@_STL@@QAE?AU?$_Rb_tree_iterator@U?$pair@$$CBV?$basic_string@DV?$char_traits@D@_STL@@V?$allocator@D@2@@_STL@@VUserFunction@@@_STL@@U?$_Nonconst_traits@U?$pair@$$CBV?$basic_string@DV?$char_traits@D@_STL@@V?$allocator@D@2@@_STL@@VUserFunction@@@_STL@@@2@@2@XZ 00410c20 f i bscript:compiler.obj
 0001:0000fc30       ?end@?$map@V?$basic_string@DV?$char_traits@D@_STL@@V?$allocator@D@2@@_STL@@VToken@@U?$less@V?$basic_string@DV?$char_traits@D@_STL@@V?$allocator@D@2@@_STL@@@2@V?$allocator@U?$pair@$$CBV?$basic_string@DV?$char_traits@D@_STL@@V?$allocator@D@2@@_STL@@VToken@@@_STL@@@2@@_STL@@QAE?AU?$_Rb_tree_iterator@U?$pair@$$CBV?$basic_string@DV?$char_traits@D@_STL@@V?$allocator@D@2@@_STL@@VToken@@@_STL@@U?$_Nonconst_traits@U?$pair@$$CBV?$basic_string@DV?$char_traits@D@_STL@@V?$allocator@D@2@@_STL@@VToken@@@_STL@@@2@@2@XZ 00410c30 f i bscript:compiler.obj
 0001:0000fc40       ?end@?$map@V?$basic_string@DV?$char_traits@D@_STL@@V?$allocator@D@2@@_STL@@VToken@@U?$less@V?$basic_string@DV?$char_traits@D@_STL@@V?$allocator@D@2@@_STL@@@2@V?$allocator@U?$pair@$$CBV?$basic_string@DV?$char_traits@D@_STL@@V?$allocator@D@2@@_STL@@VToken@@@_STL@@@2@@_STL@@QBE?AU?$_Rb_tree_iterator@U?$pair@$$CBV?$basic_string@DV?$char_traits@D@_STL@@V?$allocator@D@2@@_STL@@VToken@@@_STL@@U?$_Const_traits@U?$pair@$$CBV?$basic_string@DV?$char_traits@D@_STL@@V?$allocator@D@2@@_STL@@VToken@@@_STL@@@2@@2@XZ 00410c40 f i bscript:compiler.obj
 0001:0000fc50       ?begin@?$map@V?$basic_string@DV?$char_traits@D@_STL@@V?$allocator@D@2@@_STL@@VExpression@@U?$less@V?$basic_string@DV?$char_traits@D@_STL@@V?$allocator@D@2@@_STL@@@2@V?$allocator@U?$pair@$$CBV?$basic_string@DV?$char_traits@D@_STL@@V?$allocator@D@2@@_STL@@VExpression@@@_STL@@@2@@_STL@@QAE?AU?$_Rb_tree_iterator@U?$pair@$$CBV?$basic_string@DV?$char_traits@D@_STL@@V?$allocator@D@2@@_STL@@VExpression@@@_STL@@U?$_Nonconst_traits@U?$pair@$$CBV?$basic_string@DV?$char_traits@D@_STL@@V?$allocator@D@2@@_STL@@VExpression@@@_STL@@@2@@2@XZ 00410c50 f i bscript:compiler.obj
 0001:0000fc60       ?end@?$map@V?$basic_string@DV?$char_traits@D@_STL@@V?$allocator@D@2@@_STL@@VExpression@@U?$less@V?$basic_string@DV?$char_traits@D@_STL@@V?$allocator@D@2@@_STL@@@2@V?$allocator@U?$pair@$$CBV?$basic_string@DV?$char_traits@D@_STL@@V?$allocator@D@2@@_STL@@VExpression@@@_STL@@@2@@_STL@@QAE?AU?$_Rb_tree_iterator@U?$pair@$$CBV?$basic_string@DV?$char_traits@D@_STL@@V?$allocator@D@2@@_STL@@VExpression@@@_STL@@U?$_Nonconst_traits@U?$pair@$$CBV?$basic_string@DV?$char_traits@D@_STL@@V?$allocator@D@2@@_STL@@VExpression@@@_STL@@@2@@2@XZ 00410c60 f i bscript:compiler.obj
 0001:0000fc70       ??0?$_Vector_base@V?$basic_string@DV?$char_traits@D@_STL@@V?$allocator@D@2@@_STL@@V?$allocator@V?$basic_string@DV?$char_traits@D@_STL@@V?$allocator@D@2@@_STL@@@2@@_STL@@QAE@ABV?$allocator@V?$basic_string@DV?$char_traits@D@_STL@@V?$allocator@D@2@@_STL@@@1@@Z 00410c70 f i bscript:compiler.obj
 0001:0000fca0       ??1?$_Vector_base@V?$basic_string@DV?$char_traits@D@_STL@@V?$allocator@D@2@@_STL@@V?$allocator@V?$basic_string@DV?$char_traits@D@_STL@@V?$allocator@D@2@@_STL@@@2@@_STL@@QAE@XZ 00410ca0 f i bscript:compiler.obj
 0001:0000fce0       ??0?$_Vector_base@PAVToken@@V?$allocator@PAVToken@@@_STL@@@_STL@@QAE@ABV?$allocator@PAVToken@@@1@@Z 00410ce0 f i bscript:compiler.obj
 0001:0000fd10       ??1?$_Vector_base@PAVToken@@V?$allocator@PAVToken@@@_STL@@@_STL@@QAE@XZ 00410d10 f i bscript:compiler.obj
 0001:0000fd40       ?pop_back@?$deque@PAVToken@@V?$allocator@PAVToken@@@_STL@@@_STL@@QAEXXZ 00410d40 f i bscript:compiler.obj
 0001:0000fd90       ?pop_front@?$deque@PAVToken@@V?$allocator@PAVToken@@@_STL@@@_STL@@QAEXXZ 00410d90 f i bscript:compiler.obj
 0001:0000fde0       ??0?$_Vector_base@IV?$allocator@I@_STL@@@_STL@@QAE@ABV?$allocator@I@1@@Z 00410de0 f i bscript:compiler.obj
 0001:0000fe10       ??1?$_Vector_base@IV?$allocator@I@_STL@@@_STL@@QAE@XZ 00410e10 f i bscript:compiler.obj
 0001:0000fe40       ??0?$_Vector_base@UVariable@@V?$allocator@UVariable@@@_STL@@@_STL@@QAE@ABV?$allocator@UVariable@@@1@@Z 00410e40 f i bscript:compiler.obj
 0001:0000fe70       ??1?$_Vector_base@UVariable@@V?$allocator@UVariable@@@_STL@@@_STL@@QAE@XZ 00410e70 f i bscript:compiler.obj
 0001:0000feb0       ??0?$_Vector_base@UBlockDesc@@V?$allocator@UBlockDesc@@@_STL@@@_STL@@QAE@ABV?$allocator@UBlockDesc@@@1@@Z 00410eb0 f i bscript:compiler.obj
 0001:0000fee0       ??1?$_Vector_base@UBlockDesc@@V?$allocator@UBlockDesc@@@_STL@@@_STL@@QAE@XZ 00410ee0 f i bscript:compiler.obj
 0001:0000ff20       ??1?$_Rb_tree_base@V?$basic_string@DV?$char_traits@D@_STL@@V?$allocator@D@2@@_STL@@V?$allocator@V?$basic_string@DV?$char_traits@D@_STL@@V?$allocator@D@2@@_STL@@@2@@_STL@@QAE@XZ 00410f20 f i bscript:compiler.obj
 0001:0000ff40       ??1?$_Rb_tree_base@U?$pair@$$CBV?$basic_string@DV?$char_traits@D@_STL@@V?$allocator@D@2@@_STL@@VUserFunction@@@_STL@@V?$allocator@U?$pair@$$CBV?$basic_string@DV?$char_traits@D@_STL@@V?$allocator@D@2@@_STL@@VUserFunction@@@_STL@@@2@@_STL@@QAE@XZ 00410f40 f i bscript:compiler.obj
 0001:0000ff60       ??1?$_Rb_tree_base@U?$pair@$$CBV?$basic_string@DV?$char_traits@D@_STL@@V?$allocator@D@2@@_STL@@VToken@@@_STL@@V?$allocator@U?$pair@$$CBV?$basic_string@DV?$char_traits@D@_STL@@V?$allocator@D@2@@_STL@@VToken@@@_STL@@@2@@_STL@@QAE@XZ 00410f60 f i bscript:compiler.obj
 0001:0000ff80       ??R?$less@V?$basic_string@DV?$char_traits@D@_STL@@V?$allocator@D@2@@_STL@@@_STL@@QBE_NABV?$basic_string@DV?$char_traits@D@_STL@@V?$allocator@D@2@@1@0@Z 00410f80 f i bscript:compiler.obj
 0001:0000ffa0       ??0?$_Vector_base@PADV?$allocator@PAD@_STL@@@_STL@@QAE@ABV?$allocator@PAD@1@@Z 00410fa0 f i bscript:compiler.obj
 0001:0000ffd0       ??1?$_Vector_base@PADV?$allocator@PAD@_STL@@@_STL@@QAE@XZ 00410fd0 f i bscript:compiler.obj
 0001:00010000       ??0?$_Vector_base@UCandidate@@V?$allocator@UCandidate@@@_STL@@@_STL@@QAE@ABV?$allocator@UCandidate@@@1@@Z 00411000 f i bscript:compiler.obj
 0001:00010030       ??1?$_Vector_base@UCandidate@@V?$allocator@UCandidate@@@_STL@@@_STL@@QAE@XZ 00411030 f i bscript:compiler.obj
 0001:00010070       ??1?$_Rb_tree_base@U?$pair@$$CBV?$basic_string@DV?$char_traits@D@_STL@@V?$allocator@D@2@@_STL@@VExpression@@@_STL@@V?$allocator@U?$pair@$$CBV?$basic_string@DV?$char_traits@D@_STL@@V?$allocator@D@2@@_STL@@VExpression@@@_STL@@@2@@_STL@@QAE@XZ 00411070 f i bscript:compiler.obj
 0001:00010090       ??0?$_Vector_base@EV?$allocator@E@_STL@@@_STL@@QAE@ABV?$allocator@E@1@@Z 00411090 f i bscript:compiler.obj
 0001:000100c0       ??1?$_Vector_base@EV?$allocator@E@_STL@@@_STL@@QAE@XZ 004110c0 f i bscript:compiler.obj
 0001:000100f0       ??F?$_Deque_iterator@PAVToken@@U?$_Nonconst_traits@PAVToken@@@_STL@@@_STL@@QAEAAU01@XZ 004110f0 f i bscript:compiler.obj
 0001:00010120       ??0?$_Rb_tree_base@V?$basic_string@DV?$char_traits@D@_STL@@V?$allocator@D@2@@_STL@@V?$allocator@V?$basic_string@DV?$char_traits@D@_STL@@V?$allocator@D@2@@_STL@@@2@@_STL@@QAE@ABV?$allocator@V?$basic_string@DV?$char_traits@D@_STL@@V?$allocator@D@2@@_STL@@@1@@Z 00411120 f i bscript:compiler.obj
 0001:00010150       ??0?$_Rb_tree_base@U?$pair@$$CBV?$basic_string@DV?$char_traits@D@_STL@@V?$allocator@D@2@@_STL@@VUserFunction@@@_STL@@V?$allocator@U?$pair@$$CBV?$basic_string@DV?$char_traits@D@_STL@@V?$allocator@D@2@@_STL@@VUserFunction@@@_STL@@@2@@_STL@@QAE@ABV?$allocator@U?$pair@$$CBV?$basic_string@DV?$char_traits@D@_STL@@V?$allocator@D@2@@_STL@@VUserFunction@@@_STL@@@1@@Z 00411150 f i bscript:compiler.obj
 0001:00010180       ??0?$_Rb_tree_base@U?$pair@$$CBV?$basic_string@DV?$char_traits@D@_STL@@V?$allocator@D@2@@_STL@@VToken@@@_STL@@V?$allocator@U?$pair@$$CBV?$basic_string@DV?$char_traits@D@_STL@@V?$allocator@D@2@@_STL@@VToken@@@_STL@@@2@@_STL@@QAE@ABV?$allocator@U?$pair@$$CBV?$basic_string@DV?$char_traits@D@_STL@@V?$allocator@D@2@@_STL@@VToken@@@_STL@@@1@@Z 00411180 f i bscript:compiler.obj
 0001:000101b0       ??0?$_Rb_tree_base@U?$pair@$$CBV?$basic_string@DV?$char_traits@D@_STL@@V?$allocator@D@2@@_STL@@VExpression@@@_STL@@V?$allocator@U?$pair@$$CBV?$basic_string@DV?$char_traits@D@_STL@@V?$allocator@D@2@@_STL@@VExpression@@@_STL@@@2@@_STL@@QAE@ABV?$allocator@U?$pair@$$CBV?$basic_string@DV?$char_traits@D@_STL@@V?$allocator@D@2@@_STL@@VExpression@@@_STL@@@1@@Z 004111b0 f i bscript:compiler.obj
 0001:000101e0       ?size@?$deque@PAVToken@@V?$allocator@PAVToken@@@_STL@@@_STL@@QBEIXZ 004111e0 f i bscript:compiler.obj
 0001:00010210       ?_M_lower_bound@?$_Rb_tree@V?$basic_string@DV?$char_traits@D@_STL@@V?$allocator@D@2@@_STL@@U?$pair@$$CBV?$basic_string@DV?$char_traits@D@_STL@@V?$allocator@D@2@@_STL@@VUserFunction@@@2@U?$_Select1st@U?$pair@$$CBV?$basic_string@DV?$char_traits@D@_STL@@V?$allocator@D@2@@_STL@@VUserFunction@@@_STL@@@2@Vci_cmp_pred@@V?$allocator@U?$pair@$$CBV?$basic_string@DV?$char_traits@D@_STL@@V?$allocator@D@2@@_STL@@VUserFunction@@@_STL@@@2@@_STL@@ABEPAU?$_Rb_tree_node@U?$pair@$$CBV?$basic_string@DV?$char_traits@D@_STL@@V?$allocator@D@2@@_STL@@VUserFunction@@@_STL@@@2@ABV?$basic_string@DV?$char_traits@D@_STL@@V?$allocator@D@2@@2@@Z 00411210 f i bscript:compiler.obj
 0001:00010250       ?_M_lower_bound@?$_Rb_tree@V?$basic_string@DV?$char_traits@D@_STL@@V?$allocator@D@2@@_STL@@U?$pair@$$CBV?$basic_string@DV?$char_traits@D@_STL@@V?$allocator@D@2@@_STL@@VExpression@@@2@U?$_Select1st@U?$pair@$$CBV?$basic_string@DV?$char_traits@D@_STL@@V?$allocator@D@2@@_STL@@VExpression@@@_STL@@@2@U?$less@V?$basic_string@DV?$char_traits@D@_STL@@V?$allocator@D@2@@_STL@@@2@V?$allocator@U?$pair@$$CBV?$basic_string@DV?$char_traits@D@_STL@@V?$allocator@D@2@@_STL@@VExpression@@@_STL@@@2@@_STL@@ABEPAU?$_Rb_tree_node@U?$pair@$$CBV?$basic_string@DV?$char_traits@D@_STL@@V?$allocator@D@2@@_STL@@VExpression@@@_STL@@@2@ABV?$basic_string@DV?$char_traits@D@_STL@@V?$allocator@D@2@@2@@Z 00411250 f i bscript:compiler.obj
 0001:000102e0       ?_M_upper_bound@?$_Rb_tree@V?$basic_string@DV?$char_traits@D@_STL@@V?$allocator@D@2@@_STL@@U?$pair@$$CBV?$basic_string@DV?$char_traits@D@_STL@@V?$allocator@D@2@@_STL@@VExpression@@@2@U?$_Select1st@U?$pair@$$CBV?$basic_string@DV?$char_traits@D@_STL@@V?$allocator@D@2@@_STL@@VExpression@@@_STL@@@2@U?$less@V?$basic_string@DV?$char_traits@D@_STL@@V?$allocator@D@2@@_STL@@@2@V?$allocator@U?$pair@$$CBV?$basic_string@DV?$char_traits@D@_STL@@V?$allocator@D@2@@_STL@@VExpression@@@_STL@@@2@@_STL@@ABEPAU?$_Rb_tree_node@U?$pair@$$CBV?$basic_string@DV?$char_traits@D@_STL@@V?$allocator@D@2@@_STL@@VExpression@@@_STL@@@2@ABV?$basic_string@DV?$char_traits@D@_STL@@V?$allocator@D@2@@2@@Z 004112e0 f i bscript:compiler.obj
 0001:00010370       ??1?$_Deque_base@PAVToken@@V?$allocator@PAVToken@@@_STL@@@_STL@@QAE@XZ 00411370 f i bscript:compiler.obj
 0001:000103c0       ??$_Destroy@PAPAVToken@@@_STL@@YAXPAPAVToken@@0@Z 004113c0 f i bscript:compiler.obj
 0001:000103d0       ??$_Destroy@U?$_Deque_iterator@PAVToken@@U?$_Nonconst_traits@PAVToken@@@_STL@@@_STL@@@_STL@@YAXU?$_Deque_iterator@PAVToken@@U?$_Nonconst_traits@PAVToken@@@_STL@@@0@0@Z 004113d0 f i bscript:compiler.obj
 0001:000103e0       ??$_Destroy@PAI@_STL@@YAXPAI0@Z 004113e0 f i bscript:compiler.obj
 0001:000103f0       ??$find@V?$basic_string@DV?$char_traits@D@_STL@@V?$allocator@D@2@@_STL@@@?$_Rb_tree@V?$basic_string@DV?$char_traits@D@_STL@@V?$allocator@D@2@@_STL@@V12@U?$_Identity@V?$basic_string@DV?$char_traits@D@_STL@@V?$allocator@D@2@@_STL@@@2@Vci_cmp_pred@@V?$allocator@V?$basic_string@DV?$char_traits@D@_STL@@V?$allocator@D@2@@_STL@@@2@@_STL@@QBE?AU?$_Rb_tree_iterator@V?$basic_string@DV?$char_traits@D@_STL@@V?$allocator@D@2@@_STL@@U?$_Const_traits@V?$basic_string@DV?$char_traits@D@_STL@@V?$allocator@D@2@@_STL@@@2@@1@ABV?$basic_string@DV?$char_traits@D@_STL@@V?$allocator@D@2@@1@@Z 004113f0 f i bscript:compiler.obj
 0001:00010410       ??$find@V?$basic_string@DV?$char_traits@D@_STL@@V?$allocator@D@2@@_STL@@@?$_Rb_tree@V?$basic_string@DV?$char_traits@D@_STL@@V?$allocator@D@2@@_STL@@U?$pair@$$CBV?$basic_string@DV?$char_traits@D@_STL@@V?$allocator@D@2@@_STL@@VUserFunction@@@2@U?$_Select1st@U?$pair@$$CBV?$basic_string@DV?$char_traits@D@_STL@@V?$allocator@D@2@@_STL@@VUserFunction@@@_STL@@@2@Vci_cmp_pred@@V?$allocator@U?$pair@$$CBV?$basic_string@DV?$char_traits@D@_STL@@V?$allocator@D@2@@_STL@@VUserFunction@@@_STL@@@2@@_STL@@QAE?AU?$_Rb_tree_iterator@U?$pair@$$CBV?$basic_string@DV?$char_traits@D@_STL@@V?$allocator@D@2@@_STL@@VUserFunction@@@_STL@@U?$_Nonconst_traits@U?$pair@$$CBV?$basic_string@DV?$char_traits@D@_STL@@V?$allocator@D@2@@_STL@@VUserFunction@@@_STL@@@2@@1@ABV?$basic_string@DV?$char_traits@D@_STL@@V?$allocator@D@2@@1@@Z 00411410 f i bscript:compiler.obj
 0001:00010430       ??$_Destroy@PAPAD@_STL@@YAXPAPAD0@Z 00411430 f i bscript:compiler.obj
 0001:00010440       ??$_Destroy@PAE@_STL@@YAXPAE0@Z 00411440 f i bscript:compiler.obj
 0001:00010450       ??$__uninitialized_copy@PBQAVToken@@PAPAV1@@_STL@@YAPAPAVToken@@PBQAV1@0PAPAV1@ABU__true_type@0@@Z 00411450 f i bscript:compiler.obj
 0001:00010480       ??$__uninitialized_copy@PBIPAI@_STL@@YAPAIPBI0PAIABU__true_type@0@@Z 00411480 f i bscript:compiler.obj
 0001:000104b0       ??$_Destroy@PAPAVFunctionalityModule@@@_STL@@YAXPAPAVFunctionalityModule@@0@Z 004114b0 f i bscript:compiler.obj
 0001:000104c0       ??$__find_first_of@V?$reverse_iterator@PBD@_STL@@PBDU?$_Eq_traits@V?$char_traits@D@_STL@@@2@@_STL@@YA?AV?$reverse_iterator@PBD@0@V10@0PBD1U?$_Eq_traits@V?$char_traits@D@_STL@@@0@@Z 004114c0 f i bscript:compiler.obj
 0001:00010510       ?_M_create_nodes@?$_Deque_base@PAVToken@@V?$allocator@PAVToken@@@_STL@@@_STL@@IAEXPAPAPAVToken@@0@Z 00411510 f i bscript:compiler.obj
 0001:00010590       ??$_M_allocate_and_copy@PBI@?$vector@IV?$allocator@I@_STL@@@_STL@@IAEPAIIPBI0@Z 00411590 f i bscript:compiler.obj
 0001:000105e0       ??$_M_find@V?$basic_string@DV?$char_traits@D@_STL@@V?$allocator@D@2@@_STL@@@?$_Rb_tree@V?$basic_string@DV?$char_traits@D@_STL@@V?$allocator@D@2@@_STL@@U?$pair@$$CBV?$basic_string@DV?$char_traits@D@_STL@@V?$allocator@D@2@@_STL@@VToken@@@2@U?$_Select1st@U?$pair@$$CBV?$basic_string@DV?$char_traits@D@_STL@@V?$allocator@D@2@@_STL@@VToken@@@_STL@@@2@U?$less@V?$basic_string@DV?$char_traits@D@_STL@@V?$allocator@D@2@@_STL@@@2@V?$allocator@U?$pair@$$CBV?$basic_string@DV?$char_traits@D@_STL@@V?$allocator@D@2@@_STL@@VToken@@@_STL@@@2@@_STL@@ABEPAU?$_Rb_tree_node@U?$pair@$$CBV?$basic_string@DV?$char_traits@D@_STL@@V?$allocator@D@2@@_STL@@VToken@@@_STL@@@1@ABV?$basic_string@DV?$char_traits@D@_STL@@V?$allocator@D@2@@1@@Z 004115e0 f i bscript:compiler.obj
 0001:000106a0       ??$__destroy@PAUCandidate@@U1@@_STL@@YAXPAUCandidate@@00@Z 004116a0 f i bscript:compiler.obj
 0001:000106b0       ??$_M_find@V?$basic_string@DV?$char_traits@D@_STL@@V?$allocator@D@2@@_STL@@@?$_Rb_tree@V?$basic_string@DV?$char_traits@D@_STL@@V?$allocator@D@2@@_STL@@U?$pair@$$CBV?$basic_string@DV?$char_traits@D@_STL@@V?$allocator@D@2@@_STL@@VExpression@@@2@U?$_Select1st@U?$pair@$$CBV?$basic_string@DV?$char_traits@D@_STL@@V?$allocator@D@2@@_STL@@VExpression@@@_STL@@@2@U?$less@V?$basic_string@DV?$char_traits@D@_STL@@V?$allocator@D@2@@_STL@@@2@V?$allocator@U?$pair@$$CBV?$basic_string@DV?$char_traits@D@_STL@@V?$allocator@D@2@@_STL@@VExpression@@@_STL@@@2@@_STL@@ABEPAU?$_Rb_tree_node@U?$pair@$$CBV?$basic_string@DV?$char_traits@D@_STL@@V?$allocator@D@2@@_STL@@VExpression@@@_STL@@@1@ABV?$basic_string@DV?$char_traits@D@_STL@@V?$allocator@D@2@@1@@Z 004116b0 f i bscript:compiler.obj
 0001:00010770       ??$copy@PAPAPAVToken@@PAPAPAV1@@_STL@@YAPAPAPAVToken@@PAPAPAV1@00@Z 00411770 f i bscript:compiler.obj
 0001:000107a0       ??$copy_backward@PAPAPAVToken@@PAPAPAV1@@_STL@@YAPAPAPAVToken@@PAPAPAV1@00@Z 004117a0 f i bscript:compiler.obj
 0001:000107d0       ??$__copy@U?$_Deque_iterator@PAVToken@@U?$_Const_traits@PAVToken@@@_STL@@@_STL@@U?$_Deque_iterator@PAVToken@@U?$_Nonconst_traits@PAVToken@@@_STL@@@2@H@_STL@@YA?AU?$_Deque_iterator@PAVToken@@U?$_Nonconst_traits@PAVToken@@@_STL@@@0@U?$_Deque_iterator@PAVToken@@U?$_Const_traits@PAVToken@@@_STL@@@0@0U10@ABUrandom_access_iterator_tag@0@PAH@Z 004117d0 f i bscript:compiler.obj
 0001:00010890       ??0?$vector@V?$basic_string@DV?$char_traits@D@_STL@@V?$allocator@D@2@@_STL@@V?$allocator@V?$basic_string@DV?$char_traits@D@_STL@@V?$allocator@D@2@@_STL@@@2@@_STL@@QAE@ABV?$allocator@V?$basic_string@DV?$char_traits@D@_STL@@V?$allocator@D@2@@_STL@@@1@@Z 00411890 f i bscript:compiler.obj
 0001:000108a0       ??0?$vector@PAVToken@@V?$allocator@PAVToken@@@_STL@@@_STL@@QAE@ABV?$allocator@PAVToken@@@1@@Z 004118a0 f i bscript:compiler.obj
 0001:000108b0       ??1?$vector@PAVToken@@V?$allocator@PAVToken@@@_STL@@@_STL@@QAE@XZ 004118b0 f i bscript:compiler.obj
 0001:000108e0       ?erase@?$vector@PAVToken@@V?$allocator@PAVToken@@@_STL@@@_STL@@QAEPAPAVToken@@PAPAV3@0@Z 004118e0 f i bscript:compiler.obj
 0001:00010920       ?pop@?$stack@PAVToken@@V?$deque@PAVToken@@V?$allocator@PAVToken@@@_STL@@@_STL@@@_STL@@QAEXXZ 00411920 f i bscript:compiler.obj
 0001:00010970       ??1?$deque@PAVToken@@V?$allocator@PAVToken@@@_STL@@@_STL@@QAE@XZ 00411970 f i bscript:compiler.obj
 0001:000109c0       ?pop@?$queue@PAVToken@@V?$deque@PAVToken@@V?$allocator@PAVToken@@@_STL@@@_STL@@@_STL@@QAEXXZ 004119c0 f i bscript:compiler.obj
 0001:00010a10       ??0?$vector@IV?$allocator@I@_STL@@@_STL@@QAE@ABV?$allocator@I@1@@Z 00411a10 f i bscript:compiler.obj
 0001:00010a20       ??1?$vector@IV?$allocator@I@_STL@@@_STL@@QAE@XZ 00411a20 f i bscript:compiler.obj
 0001:00010a50       ??0?$vector@UVariable@@V?$allocator@UVariable@@@_STL@@@_STL@@QAE@ABV?$allocator@UVariable@@@1@@Z 00411a50 f i bscript:compiler.obj
 0001:00010a60       ??0?$vector@UBlockDesc@@V?$allocator@UBlockDesc@@@_STL@@@_STL@@QAE@ABV?$allocator@UBlockDesc@@@1@@Z 00411a60 f i bscript:compiler.obj
 0001:00010a70       ?count@?$set@V?$basic_string@DV?$char_traits@D@_STL@@V?$allocator@D@2@@_STL@@Vci_cmp_pred@@V?$allocator@V?$basic_string@DV?$char_traits@D@_STL@@V?$allocator@D@2@@_STL@@@2@@_STL@@QBEIABV?$basic_string@DV?$char_traits@D@_STL@@V?$allocator@D@2@@2@@Z 00411a70 f i bscript:compiler.obj
 0001:00010a90       ?find@?$map@V?$basic_string@DV?$char_traits@D@_STL@@V?$allocator@D@2@@_STL@@VUserFunction@@Vci_cmp_pred@@V?$allocator@U?$pair@$$CBV?$basic_string@DV?$char_traits@D@_STL@@V?$allocator@D@2@@_STL@@VUserFunction@@@_STL@@@2@@_STL@@QAE?AU?$_Rb_tree_iterator@U?$pair@$$CBV?$basic_string@DV?$char_traits@D@_STL@@V?$allocator@D@2@@_STL@@VUserFunction@@@_STL@@U?$_Nonconst_traits@U?$pair@$$CBV?$basic_string@DV?$char_traits@D@_STL@@V?$allocator@D@2@@_STL@@VUserFunction@@@_STL@@@2@@2@ABV?$basic_string@DV?$char_traits@D@_STL@@V?$allocator@D@2@@2@@Z 00411a90 f i bscript:compiler.obj
 0001:00010ab0       ??0?$vector@PADV?$allocator@PAD@_STL@@@_STL@@QAE@ABV?$allocator@PAD@1@@Z 00411ab0 f i bscript:compiler.obj
 0001:00010ac0       ??1?$vector@PADV?$allocator@PAD@_STL@@@_STL@@QAE@XZ 00411ac0 f i bscript:compiler.obj
 0001:00010af0       ??0?$vector@UCandidate@@V?$allocator@UCandidate@@@_STL@@@_STL@@QAE@ABV?$allocator@UCandidate@@@1@@Z 00411af0 f i bscript:compiler.obj
 0001:00010b00       ??0?$vector@EV?$allocator@E@_STL@@@_STL@@QAE@ABV?$allocator@E@1@@Z 00411b00 f i bscript:compiler.obj
 0001:00010b10       ??1?$vector@EV?$allocator@E@_STL@@@_STL@@QAE@XZ 00411b10 f i bscript:compiler.obj
 0001:00010b40       ?back@?$deque@PAVToken@@V?$allocator@PAVToken@@@_STL@@@_STL@@QAEAAPAVToken@@XZ 00411b40 f i bscript:compiler.obj
 0001:00010b70       ??0?$_Rb_tree@V?$basic_string@DV?$char_traits@D@_STL@@V?$allocator@D@2@@_STL@@V12@U?$_Identity@V?$basic_string@DV?$char_traits@D@_STL@@V?$allocator@D@2@@_STL@@@2@Vci_cmp_pred@@V?$allocator@V?$basic_string@DV?$char_traits@D@_STL@@V?$allocator@D@2@@_STL@@@2@@_STL@@QAE@ABVci_cmp_pred@@ABV?$allocator@V?$basic_string@DV?$char_traits@D@_STL@@V?$allocator@D@2@@_STL@@@1@@Z 00411b70 f i bscript:compiler.obj
 0001:00010bb0       ??0?$_Rb_tree@V?$basic_string@DV?$char_traits@D@_STL@@V?$allocator@D@2@@_STL@@U?$pair@$$CBV?$basic_string@DV?$char_traits@D@_STL@@V?$allocator@D@2@@_STL@@VUserFunction@@@2@U?$_Select1st@U?$pair@$$CBV?$basic_string@DV?$char_traits@D@_STL@@V?$allocator@D@2@@_STL@@VUserFunction@@@_STL@@@2@Vci_cmp_pred@@V?$allocator@U?$pair@$$CBV?$basic_string@DV?$char_traits@D@_STL@@V?$allocator@D@2@@_STL@@VUserFunction@@@_STL@@@2@@_STL@@QAE@ABVci_cmp_pred@@ABV?$allocator@U?$pair@$$CBV?$basic_string@DV?$char_traits@D@_STL@@V?$allocator@D@2@@_STL@@VUserFunction@@@_STL@@@1@@Z 00411bb0 f i bscript:compiler.obj
 0001:00010bf0       ??0?$_Rb_tree@V?$basic_string@DV?$char_traits@D@_STL@@V?$allocator@D@2@@_STL@@U?$pair@$$CBV?$basic_string@DV?$char_traits@D@_STL@@V?$allocator@D@2@@_STL@@VToken@@@2@U?$_Select1st@U?$pair@$$CBV?$basic_string@DV?$char_traits@D@_STL@@V?$allocator@D@2@@_STL@@VToken@@@_STL@@@2@U?$less@V?$basic_string@DV?$char_traits@D@_STL@@V?$allocator@D@2@@_STL@@@2@V?$allocator@U?$pair@$$CBV?$basic_string@DV?$char_traits@D@_STL@@V?$allocator@D@2@@_STL@@VToken@@@_STL@@@2@@_STL@@QAE@ABU?$less@V?$basic_string@DV?$char_traits@D@_STL@@V?$allocator@D@2@@_STL@@@1@ABV?$allocator@U?$pair@$$CBV?$basic_string@DV?$char_traits@D@_STL@@V?$allocator@D@2@@_STL@@VToken@@@_STL@@@1@@Z 00411bf0 f i bscript:compiler.obj
 0001:00010c30       ??0?$_Rb_tree@V?$basic_string@DV?$char_traits@D@_STL@@V?$allocator@D@2@@_STL@@U?$pair@$$CBV?$basic_string@DV?$char_traits@D@_STL@@V?$allocator@D@2@@_STL@@VExpression@@@2@U?$_Select1st@U?$pair@$$CBV?$basic_string@DV?$char_traits@D@_STL@@V?$allocator@D@2@@_STL@@VExpression@@@_STL@@@2@U?$less@V?$basic_string@DV?$char_traits@D@_STL@@V?$allocator@D@2@@_STL@@@2@V?$allocator@U?$pair@$$CBV?$basic_string@DV?$char_traits@D@_STL@@V?$allocator@D@2@@_STL@@VExpression@@@_STL@@@2@@_STL@@QAE@ABU?$less@V?$basic_string@DV?$char_traits@D@_STL@@V?$allocator@D@2@@_STL@@@1@ABV?$allocator@U?$pair@$$CBV?$basic_string@DV?$char_traits@D@_STL@@V?$allocator@D@2@@_STL@@VExpression@@@_STL@@@1@@Z 00411c30 f i bscript:compiler.obj
 0001:00010c70       ??0?$vector@PAVToken@@V?$allocator@PAVToken@@@_STL@@@_STL@@QAE@ABV01@@Z 00411c70 f i bscript:compiler.obj
 0001:00010cc0       ?_M_clear@?$vector@PAVToken@@V?$allocator@PAVToken@@@_STL@@@_STL@@IAEXXZ 00411cc0 f i bscript:compiler.obj
 0001:00010cf0       ??0?$vector@IV?$allocator@I@_STL@@@_STL@@QAE@ABV01@@Z 00411cf0 f i bscript:compiler.obj
 0001:00010d40       ?_M_clear@?$vector@IV?$allocator@I@_STL@@@_STL@@IAEXXZ 00411d40 f i bscript:compiler.obj
 0001:00010d70       ?_M_clear@?$vector@PAVFunctionalityModule@@V?$allocator@PAVFunctionalityModule@@@_STL@@@_STL@@IAEXXZ 00411d70 f i bscript:compiler.obj
 0001:00010da0       ?lower_bound@?$_Rb_tree@V?$basic_string@DV?$char_traits@D@_STL@@V?$allocator@D@2@@_STL@@U?$pair@$$CBV?$basic_string@DV?$char_traits@D@_STL@@V?$allocator@D@2@@_STL@@VUserFunction@@@2@U?$_Select1st@U?$pair@$$CBV?$basic_string@DV?$char_traits@D@_STL@@V?$allocator@D@2@@_STL@@VUserFunction@@@_STL@@@2@Vci_cmp_pred@@V?$allocator@U?$pair@$$CBV?$basic_string@DV?$char_traits@D@_STL@@V?$allocator@D@2@@_STL@@VUserFunction@@@_STL@@@2@@_STL@@QAE?AU?$_Rb_tree_iterator@U?$pair@$$CBV?$basic_string@DV?$char_traits@D@_STL@@V?$allocator@D@2@@_STL@@VUserFunction@@@_STL@@U?$_Nonconst_traits@U?$pair@$$CBV?$basic_string@DV?$char_traits@D@_STL@@V?$allocator@D@2@@_STL@@VUserFunction@@@_STL@@@2@@2@ABV?$basic_string@DV?$char_traits@D@_STL@@V?$allocator@D@2@@2@@Z 00411da0 f i bscript:compiler.obj
 0001:00010dc0       ?_M_clear@?$vector@PADV?$allocator@PAD@_STL@@@_STL@@IAEXXZ 00411dc0 f i bscript:compiler.obj
 0001:00010df0       ?lower_bound@?$_Rb_tree@V?$basic_string@DV?$char_traits@D@_STL@@V?$allocator@D@2@@_STL@@U?$pair@$$CBV?$basic_string@DV?$char_traits@D@_STL@@V?$allocator@D@2@@_STL@@VExpression@@@2@U?$_Select1st@U?$pair@$$CBV?$basic_string@DV?$char_traits@D@_STL@@V?$allocator@D@2@@_STL@@VExpression@@@_STL@@@2@U?$less@V?$basic_string@DV?$char_traits@D@_STL@@V?$allocator@D@2@@_STL@@@2@V?$allocator@U?$pair@$$CBV?$basic_string@DV?$char_traits@D@_STL@@V?$allocator@D@2@@_STL@@VExpression@@@_STL@@@2@@_STL@@QAE?AU?$_Rb_tree_iterator@U?$pair@$$CBV?$basic_string@DV?$char_traits@D@_STL@@V?$allocator@D@2@@_STL@@VExpression@@@_STL@@U?$_Nonconst_traits@U?$pair@$$CBV?$basic_string@DV?$char_traits@D@_STL@@V?$allocator@D@2@@_STL@@VExpression@@@_STL@@@2@@2@ABV?$basic_string@DV?$char_traits@D@_STL@@V?$allocator@D@2@@2@@Z 00411df0 f i bscript:compiler.obj
 0001:00010e10       ?_M_clear@?$vector@EV?$allocator@E@_STL@@@_STL@@IAEXXZ 00411e10 f i bscript:compiler.obj
 0001:00010e40       ?upper_bound@?$_Rb_tree@V?$basic_string@DV?$char_traits@D@_STL@@V?$allocator@D@2@@_STL@@U?$pair@$$CBV?$basic_string@DV?$char_traits@D@_STL@@V?$allocator@D@2@@_STL@@VExpression@@@2@U?$_Select1st@U?$pair@$$CBV?$basic_string@DV?$char_traits@D@_STL@@V?$allocator@D@2@@_STL@@VExpression@@@_STL@@@2@U?$less@V?$basic_string@DV?$char_traits@D@_STL@@V?$allocator@D@2@@_STL@@@2@V?$allocator@U?$pair@$$CBV?$basic_string@DV?$char_traits@D@_STL@@V?$allocator@D@2@@_STL@@VExpression@@@_STL@@@2@@_STL@@QAE?AU?$_Rb_tree_iterator@U?$pair@$$CBV?$basic_string@DV?$char_traits@D@_STL@@V?$allocator@D@2@@_STL@@VExpression@@@_STL@@U?$_Nonconst_traits@U?$pair@$$CBV?$basic_string@DV?$char_traits@D@_STL@@V?$allocator@D@2@@_STL@@VExpression@@@_STL@@@2@@2@ABV?$basic_string@DV?$char_traits@D@_STL@@V?$allocator@D@2@@2@@Z 00411e40 f i bscript:compiler.obj
 0001:00010e60       ?find_last_of@?$basic_string@DV?$char_traits@D@_STL@@V?$allocator@D@2@@_STL@@QBEIPBDII@Z 00411e60 f i bscript:compiler.obj
 0001:00010ee0       ?_M_initialize_map@?$_Deque_base@PAVToken@@V?$allocator@PAVToken@@@_STL@@@_STL@@IAEXI@Z 00411ee0 f i bscript:compiler.obj
 0001:00010ff0       ??4?$vector@IV?$allocator@I@_STL@@@_STL@@QAEAAV01@ABV01@@Z 00411ff0 f i bscript:compiler.obj
 0001:000110f0       ??$find@V?$basic_string@DV?$char_traits@D@_STL@@V?$allocator@D@2@@_STL@@@?$_Rb_tree@V?$basic_string@DV?$char_traits@D@_STL@@V?$allocator@D@2@@_STL@@U?$pair@$$CBV?$basic_string@DV?$char_traits@D@_STL@@V?$allocator@D@2@@_STL@@VToken@@@2@U?$_Select1st@U?$pair@$$CBV?$basic_string@DV?$char_traits@D@_STL@@V?$allocator@D@2@@_STL@@VToken@@@_STL@@@2@U?$less@V?$basic_string@DV?$char_traits@D@_STL@@V?$allocator@D@2@@_STL@@@2@V?$allocator@U?$pair@$$CBV?$basic_string@DV?$char_traits@D@_STL@@V?$allocator@D@2@@_STL@@VToken@@@_STL@@@2@@_STL@@QAE?AU?$_Rb_tree_iterator@U?$pair@$$CBV?$basic_string@DV?$char_traits@D@_STL@@V?$allocator@D@2@@_STL@@VToken@@@_STL@@U?$_Nonconst_traits@U?$pair@$$CBV?$basic_string@DV?$char_traits@D@_STL@@V?$allocator@D@2@@_STL@@VToken@@@_STL@@@2@@1@ABV?$basic_string@DV?$char_traits@D@_STL@@V?$allocator@D@2@@1@@Z 004120f0 f i bscript:compiler.obj
 0001:00011110       ??$find@V?$basic_string@DV?$char_traits@D@_STL@@V?$allocator@D@2@@_STL@@@?$_Rb_tree@V?$basic_string@DV?$char_traits@D@_STL@@V?$allocator@D@2@@_STL@@U?$pair@$$CBV?$basic_string@DV?$char_traits@D@_STL@@V?$allocator@D@2@@_STL@@VToken@@@2@U?$_Select1st@U?$pair@$$CBV?$basic_string@DV?$char_traits@D@_STL@@V?$allocator@D@2@@_STL@@VToken@@@_STL@@@2@U?$less@V?$basic_string@DV?$char_traits@D@_STL@@V?$allocator@D@2@@_STL@@@2@V?$allocator@U?$pair@$$CBV?$basic_string@DV?$char_traits@D@_STL@@V?$allocator@D@2@@_STL@@VToken@@@_STL@@@2@@_STL@@QBE?AU?$_Rb_tree_iterator@U?$pair@$$CBV?$basic_string@DV?$char_traits@D@_STL@@V?$allocator@D@2@@_STL@@VToken@@@_STL@@U?$_Const_traits@U?$pair@$$CBV?$basic_string@DV?$char_traits@D@_STL@@V?$allocator@D@2@@_STL@@VToken@@@_STL@@@2@@1@ABV?$basic_string@DV?$char_traits@D@_STL@@V?$allocator@D@2@@1@@Z 00412110 f i bscript:compiler.obj
 0001:00011130       ??$_Destroy@PAUCandidate@@@_STL@@YAXPAUCandidate@@0@Z 00412130 f i bscript:compiler.obj
 0001:00011140       ??$find@V?$basic_string@DV?$char_traits@D@_STL@@V?$allocator@D@2@@_STL@@@?$_Rb_tree@V?$basic_string@DV?$char_traits@D@_STL@@V?$allocator@D@2@@_STL@@U?$pair@$$CBV?$basic_string@DV?$char_traits@D@_STL@@V?$allocator@D@2@@_STL@@VExpression@@@2@U?$_Select1st@U?$pair@$$CBV?$basic_string@DV?$char_traits@D@_STL@@V?$allocator@D@2@@_STL@@VExpression@@@_STL@@@2@U?$less@V?$basic_string@DV?$char_traits@D@_STL@@V?$allocator@D@2@@_STL@@@2@V?$allocator@U?$pair@$$CBV?$basic_string@DV?$char_traits@D@_STL@@V?$allocator@D@2@@_STL@@VExpression@@@_STL@@@2@@_STL@@QAE?AU?$_Rb_tree_iterator@U?$pair@$$CBV?$basic_string@DV?$char_traits@D@_STL@@V?$allocator@D@2@@_STL@@VExpression@@@_STL@@U?$_Nonconst_traits@U?$pair@$$CBV?$basic_string@DV?$char_traits@D@_STL@@V?$allocator@D@2@@_STL@@VExpression@@@_STL@@@2@@1@ABV?$basic_string@DV?$char_traits@D@_STL@@V?$allocator@D@2@@1@@Z 00412140 f i bscript:compiler.obj
 0001:00011160       ??$__uninitialized_copy@PAUCandidate@@PAU1@@_STL@@YAPAUCandidate@@PAU1@00ABU__false_type@0@@Z 00412160 f i bscript:compiler.obj
 0001:000111a0       ??$__uninitialized_fill_n@PAUCandidate@@IU1@@_STL@@YAPAUCandidate@@PAU1@IABU1@ABU__false_type@0@@Z 004121a0 f i bscript:compiler.obj
 0001:000111e0       ?_M_reallocate_map@?$deque@PAVToken@@V?$allocator@PAVToken@@@_STL@@@_STL@@IAEXI_N@Z 004121e0 f i bscript:compiler.obj
 0001:00011350       ??$_M_initialize_dispatch@PBD@?$basic_string@DV?$char_traits@D@_STL@@V?$allocator@D@2@@_STL@@AAEXPBD0ABU__false_type@1@@Z 00412350 f i bscript:compiler.obj
 0001:00011390       ??$__copy_aux@U?$_Deque_iterator@PAVToken@@U?$_Const_traits@PAVToken@@@_STL@@@_STL@@U?$_Deque_iterator@PAVToken@@U?$_Nonconst_traits@PAVToken@@@_STL@@@2@@_STL@@YA?AU?$_Deque_iterator@PAVToken@@U?$_Nonconst_traits@PAVToken@@@_STL@@@0@U?$_Deque_iterator@PAVToken@@U?$_Const_traits@PAVToken@@@_STL@@@0@0U10@ABU__false_type@0@@Z 00412390 f i bscript:compiler.obj
 0001:00011410       ??1?$stack@PAVToken@@V?$deque@PAVToken@@V?$allocator@PAVToken@@@_STL@@@_STL@@@_STL@@QAE@XZ 00412410 f i bscript:compiler.obj
 0001:00011460       ??1?$queue@PAVToken@@V?$deque@PAVToken@@V?$allocator@PAVToken@@@_STL@@@_STL@@@_STL@@QAE@XZ 00412460 f i bscript:compiler.obj
 0001:000114b0       ?find_last_of@?$basic_string@DV?$char_traits@D@_STL@@V?$allocator@D@2@@_STL@@QBEIPBDI@Z 004124b0 f i bscript:compiler.obj
 0001:000114e0       ?top@?$stack@PAVToken@@V?$deque@PAVToken@@V?$allocator@PAVToken@@@_STL@@@_STL@@@_STL@@QAEAAPAVToken@@XZ 004124e0 f i bscript:compiler.obj
 0001:00011510       ?find@?$map@V?$basic_string@DV?$char_traits@D@_STL@@V?$allocator@D@2@@_STL@@VToken@@U?$less@V?$basic_string@DV?$char_traits@D@_STL@@V?$allocator@D@2@@_STL@@@2@V?$allocator@U?$pair@$$CBV?$basic_string@DV?$char_traits@D@_STL@@V?$allocator@D@2@@_STL@@VToken@@@_STL@@@2@@_STL@@QAE?AU?$_Rb_tree_iterator@U?$pair@$$CBV?$basic_string@DV?$char_traits@D@_STL@@V?$allocator@D@2@@_STL@@VToken@@@_STL@@U?$_Nonconst_traits@U?$pair@$$CBV?$basic_string@DV?$char_traits@D@_STL@@V?$allocator@D@2@@_STL@@VToken@@@_STL@@@2@@2@ABV?$basic_string@DV?$char_traits@D@_STL@@V?$allocator@D@2@@2@@Z 00412510 f i bscript:compiler.obj
 0001:00011530       ?find@?$map@V?$basic_string@DV?$char_traits@D@_STL@@V?$allocator@D@2@@_STL@@VToken@@U?$less@V?$basic_string@DV?$char_traits@D@_STL@@V?$allocator@D@2@@_STL@@@2@V?$allocator@U?$pair@$$CBV?$basic_string@DV?$char_traits@D@_STL@@V?$allocator@D@2@@_STL@@VToken@@@_STL@@@2@@_STL@@QBE?AU?$_Rb_tree_iterator@U?$pair@$$CBV?$basic_string@DV?$char_traits@D@_STL@@V?$allocator@D@2@@_STL@@VToken@@@_STL@@U?$_Const_traits@U?$pair@$$CBV?$basic_string@DV?$char_traits@D@_STL@@V?$allocator@D@2@@_STL@@VToken@@@_STL@@@2@@2@ABV?$basic_string@DV?$char_traits@D@_STL@@V?$allocator@D@2@@2@@Z 00412530 f i bscript:compiler.obj
 0001:00011550       ?count@?$map@V?$basic_string@DV?$char_traits@D@_STL@@V?$allocator@D@2@@_STL@@VToken@@U?$less@V?$basic_string@DV?$char_traits@D@_STL@@V?$allocator@D@2@@_STL@@@2@V?$allocator@U?$pair@$$CBV?$basic_string@DV?$char_traits@D@_STL@@V?$allocator@D@2@@_STL@@VToken@@@_STL@@@2@@_STL@@QBEIABV?$basic_string@DV?$char_traits@D@_STL@@V?$allocator@D@2@@2@@Z 00412550 f i bscript:compiler.obj
 0001:00011570       ??1?$vector@UCandidate@@V?$allocator@UCandidate@@@_STL@@@_STL@@QAE@XZ 00412570 f i bscript:compiler.obj
 0001:000115b0       ?find@?$map@V?$basic_string@DV?$char_traits@D@_STL@@V?$allocator@D@2@@_STL@@VExpression@@U?$less@V?$basic_string@DV?$char_traits@D@_STL@@V?$allocator@D@2@@_STL@@@2@V?$allocator@U?$pair@$$CBV?$basic_string@DV?$char_traits@D@_STL@@V?$allocator@D@2@@_STL@@VExpression@@@_STL@@@2@@_STL@@QAE?AU?$_Rb_tree_iterator@U?$pair@$$CBV?$basic_string@DV?$char_traits@D@_STL@@V?$allocator@D@2@@_STL@@VExpression@@@_STL@@U?$_Nonconst_traits@U?$pair@$$CBV?$basic_string@DV?$char_traits@D@_STL@@V?$allocator@D@2@@_STL@@VExpression@@@_STL@@@2@@2@ABV?$basic_string@DV?$char_traits@D@_STL@@V?$allocator@D@2@@2@@Z 004125b0 f i bscript:compiler.obj
 0001:000115d0       ??1UserParam@@QAE@XZ       004125d0 f i bscript:compiler.obj
 0001:00011650       ??1?$pair@$$CBV?$basic_string@DV?$char_traits@D@_STL@@V?$allocator@D@2@@_STL@@VUserFunction@@@_STL@@QAE@XZ 00412650 f i bscript:compiler.obj
 0001:000116d0       ?_M_insert_overflow@?$vector@PAVToken@@V?$allocator@PAVToken@@@_STL@@@_STL@@IAEXPAPAVToken@@ABQAV3@ABU__true_type@2@I_N@Z 004126d0 f i bscript:compiler.obj
 0001:000117e0       ?_M_insert_overflow@?$vector@IV?$allocator@I@_STL@@@_STL@@IAEXPAIABIABU__true_type@2@I_N@Z 004127e0 f i bscript:compiler.obj
 0001:000118f0       ?_M_insert_overflow@?$vector@PAVFunctionalityModule@@V?$allocator@PAVFunctionalityModule@@@_STL@@@_STL@@IAEXPAPAVFunctionalityModule@@ABQAV3@ABU__true_type@2@I_N@Z 004128f0 f i bscript:compiler.obj
 0001:00011a00       ?lower_bound@?$map@V?$basic_string@DV?$char_traits@D@_STL@@V?$allocator@D@2@@_STL@@VUserFunction@@Vci_cmp_pred@@V?$allocator@U?$pair@$$CBV?$basic_string@DV?$char_traits@D@_STL@@V?$allocator@D@2@@_STL@@VUserFunction@@@_STL@@@2@@_STL@@QAE?AU?$_Rb_tree_iterator@U?$pair@$$CBV?$basic_string@DV?$char_traits@D@_STL@@V?$allocator@D@2@@_STL@@VUserFunction@@@_STL@@U?$_Nonconst_traits@U?$pair@$$CBV?$basic_string@DV?$char_traits@D@_STL@@V?$allocator@D@2@@_STL@@VUserFunction@@@_STL@@@2@@2@ABV?$basic_string@DV?$char_traits@D@_STL@@V?$allocator@D@2@@2@@Z 00412a00 f i bscript:compiler.obj
 0001:00011a20       ?_M_insert_overflow@?$vector@PADV?$allocator@PAD@_STL@@@_STL@@IAEXPAPADABQADABU__true_type@2@I_N@Z 00412a20 f i bscript:compiler.obj
 0001:00011b30       ?lower_bound@?$map@V?$basic_string@DV?$char_traits@D@_STL@@V?$allocator@D@2@@_STL@@VExpression@@U?$less@V?$basic_string@DV?$char_traits@D@_STL@@V?$allocator@D@2@@_STL@@@2@V?$allocator@U?$pair@$$CBV?$basic_string@DV?$char_traits@D@_STL@@V?$allocator@D@2@@_STL@@VExpression@@@_STL@@@2@@_STL@@QAE?AU?$_Rb_tree_iterator@U?$pair@$$CBV?$basic_string@DV?$char_traits@D@_STL@@V?$allocator@D@2@@_STL@@VExpression@@@_STL@@U?$_Nonconst_traits@U?$pair@$$CBV?$basic_string@DV?$char_traits@D@_STL@@V?$allocator@D@2@@_STL@@VExpression@@@_STL@@@2@@2@ABV?$basic_string@DV?$char_traits@D@_STL@@V?$allocator@D@2@@2@@Z 00412b30 f i bscript:compiler.obj
 0001:00011b50       ?_M_insert_overflow@?$vector@EV?$allocator@E@_STL@@@_STL@@IAEXPAEABEABU__true_type@2@I_N@Z 00412b50 f i bscript:compiler.obj
 0001:00011c60       ??0?$_Deque_base@PAVToken@@V?$allocator@PAVToken@@@_STL@@@_STL@@QAE@ABV?$allocator@PAVToken@@@1@I@Z 00412c60 f i bscript:compiler.obj
 0001:00011cb0       ?_M_clear@?$vector@UCandidate@@V?$allocator@UCandidate@@@_STL@@@_STL@@IAEXXZ 00412cb0 f i bscript:compiler.obj
 0001:00011cf0       ?equal_range@?$_Rb_tree@V?$basic_string@DV?$char_traits@D@_STL@@V?$allocator@D@2@@_STL@@U?$pair@$$CBV?$basic_string@DV?$char_traits@D@_STL@@V?$allocator@D@2@@_STL@@VExpression@@@2@U?$_Select1st@U?$pair@$$CBV?$basic_string@DV?$char_traits@D@_STL@@V?$allocator@D@2@@_STL@@VExpression@@@_STL@@@2@U?$less@V?$basic_string@DV?$char_traits@D@_STL@@V?$allocator@D@2@@_STL@@@2@V?$allocator@U?$pair@$$CBV?$basic_string@DV?$char_traits@D@_STL@@V?$allocator@D@2@@_STL@@VExpression@@@_STL@@@2@@_STL@@QAE?AU?$pair@U?$_Rb_tree_iterator@U?$pair@$$CBV?$basic_string@DV?$char_traits@D@_STL@@V?$allocator@D@2@@_STL@@VExpression@@@_STL@@U?$_Nonconst_traits@U?$pair@$$CBV?$basic_string@DV?$char_traits@D@_STL@@V?$allocator@D@2@@_STL@@VExpression@@@_STL@@@2@@_STL@@U12@@2@ABV?$basic_string@DV?$char_traits@D@_STL@@V?$allocator@D@2@@2@@Z 00412cf0 f i bscript:compiler.obj
 0001:00011d20       ?_M_put_char@?$basic_ostream@DV?$char_traits@D@_STL@@@_STL@@QAEXD@Z 00412d20 f i bscript:compiler.obj
 0001:00011f00       ??1?$basic_ostringstream@DV?$char_traits@D@_STL@@V?$allocator@D@2@@_STL@@UAE@XZ 00412f00 f i bscript:compiler.obj
 0001:00011f60       ??$?0PBD@?$basic_string@DV?$char_traits@D@_STL@@V?$allocator@D@2@@_STL@@QAE@PBD0ABV?$allocator@D@1@@Z 00412f60 f i bscript:compiler.obj
 0001:00011fe0       ??$__uninitialized_copy@U?$_Deque_iterator@PAVToken@@U?$_Const_traits@PAVToken@@@_STL@@@_STL@@U?$_Deque_iterator@PAVToken@@U?$_Nonconst_traits@PAVToken@@@_STL@@@2@@_STL@@YA?AU?$_Deque_iterator@PAVToken@@U?$_Nonconst_traits@PAVToken@@@_STL@@@0@U?$_Deque_iterator@PAVToken@@U?$_Const_traits@PAVToken@@@_STL@@@0@0U10@ABU__true_type@0@@Z 00412fe0 f i bscript:compiler.obj
 0001:00012060       ??_G?$basic_string@DV?$char_traits@D@_STL@@V?$allocator@D@2@@_STL@@QAEPAXI@Z 00413060 f i bscript:compiler.obj
 0001:00012080       ?_M_reserve_map_at_back@?$deque@PAVToken@@V?$allocator@PAVToken@@@_STL@@@_STL@@IAEXI@Z 00413080 f i bscript:compiler.obj
 0001:000120b0       ??0?$basic_stringbuf@DV?$char_traits@D@_STL@@V?$allocator@D@2@@_STL@@QAE@H@Z 004130b0 f i bscript:compiler.obj
 0001:00012130       ??_G?$pair@$$CBV?$basic_string@DV?$char_traits@D@_STL@@V?$allocator@D@2@@_STL@@VUserFunction@@@_STL@@QAEPAXI@Z 00413130 f i bscript:compiler.obj
 0001:00012150       ??_GUserParam@@QAEPAXI@Z   00413150 f i bscript:compiler.obj
 0001:00012170       ??0UserParam@@QAE@XZ       00413170 f i bscript:compiler.obj
 0001:000121d0       ??0BlockDesc@@QAE@XZ       004131d0 f i bscript:compiler.obj
 0001:00012200       ??1BlockDesc@@QAE@XZ       00413200 f i bscript:compiler.obj
 0001:000122e0       ??1CompilerContext@@QAE@XZ 004132e0 f i bscript:compiler.obj
 0001:00012310       ??1Expression@@QAE@XZ      00413310 f   bscript:compiler.obj
 0001:00012560       ?optimize_long_operation@@YAPAVToken@@PAV1@00@Z 00413560 f   bscript:compiler.obj
 0001:000128d0       ?optimize_double_operation@@YAPAVToken@@PAV1@00@Z 004138d0 f   bscript:compiler.obj
 0001:00012b50       ??_D?$basic_ostringstream@DV?$char_traits@D@_STL@@V?$allocator@D@2@@_STL@@QAEXXZ 00413b50 f i bscript:compiler.obj
 0001:00012b70       ?isLegal@Compiler@@UAEHAAVToken@@@Z 00413b70 f   bscript:compiler.obj
 0001:00012be0       ?isUserFunc@Compiler@@UAEHAAVToken@@PAPAVUserFunction@@@Z 00413be0 f   bscript:compiler.obj
 0001:00012cb0       ?convert_variables@Compiler@@ABEXAAVExpression@@@Z 00413cb0 f   bscript:compiler.obj
 0001:00012df0       ?substitute_constant@Compiler@@ABE_NPAVToken@@@Z 00413df0 f   bscript:compiler.obj
 0001:00012e80       ?substitute_constants@Compiler@@ABEXAAVExpression@@@Z 00413e80 f   bscript:compiler.obj
 0001:00012eb0       ?eatToken@Compiler@@QAEHAAVCompilerContext@@W4BTokenId@@@Z 00413eb0 f   bscript:compiler.obj
 0001:00013040       ?handleExit@Compiler@@QAEHAAVCompilerContext@@@Z 00414040 f   bscript:compiler.obj
 0001:00013120       ?mismatched_end@@YA_NABVToken@@W4BTokenId@@@Z 00414120 f   bscript:compiler.obj
 0001:00013220       ??1?$pair@$$CBV?$basic_string@DV?$char_traits@D@_STL@@V?$allocator@D@2@@_STL@@VToken@@@_STL@@QAE@XZ 00414220 f i bscript:compiler.obj
 0001:000132a0       ?handleBracketedFunction2@Compiler@@QAEHAAVCompilerContext@@HH@Z 004142a0 f   bscript:compiler.obj
 0001:00013620       ??0EPExportedFunction@@QAE@XZ 00414620 f i bscript:compiler.obj
 0001:00013630       ??1EPExportedFunction@@QAE@XZ 00414630 f i bscript:compiler.obj
 0001:00013660       ?compileContext@Compiler@@QAEHAAVCompilerContext@@@Z 00414660 f   bscript:compiler.obj
 0001:00013830       ?getFileContents@Compiler@@UAEHPBDPAPAD@Z 00414830 f   bscript:compiler.obj
 0001:00013a00       ??1FileContents@@QAE@XZ    00414a00 f i bscript:compiler.obj
 0001:00013a30       ??6?$basic_ostream@DV?$char_traits@D@_STL@@@_STL@@QAEAAV01@E@Z 00414a30 f i bscript:compiler.obj
 0001:00013a50       ??6?$basic_ostream@DV?$char_traits@D@_STL@@@_STL@@QAEAAV01@H@Z 00414a50 f i bscript:compiler.obj
 0001:00013a70       ?push_back@?$vector@PAVToken@@V?$allocator@PAVToken@@@_STL@@@_STL@@QAEXABQAVToken@@@Z 00414a70 f i bscript:compiler.obj
 0001:00013ab0       ?push_back@?$vector@IV?$allocator@I@_STL@@@_STL@@QAEXABI@Z 00414ab0 f i bscript:compiler.obj
 0001:00013af0       ?push_back@?$vector@PAVFunctionalityModule@@V?$allocator@PAVFunctionalityModule@@@_STL@@@_STL@@QAEXABQAVFunctionalityModule@@@Z 00414af0 f i bscript:compiler.obj
 0001:00013b30       ?push_back@?$vector@PADV?$allocator@PAD@_STL@@@_STL@@QAEXABQAD@Z 00414b30 f i bscript:compiler.obj
 0001:00013b70       ?push_back@?$vector@EV?$allocator@E@_STL@@@_STL@@QAEXABE@Z 00414b70 f i bscript:compiler.obj
 0001:00013bb0       ??1?$pair@$$CBV?$basic_string@DV?$char_traits@D@_STL@@V?$allocator@D@2@@_STL@@VExpression@@@_STL@@QAE@XZ 00414bb0 f i bscript:compiler.obj
 0001:00013c30       ??0?$deque@PAVToken@@V?$allocator@PAVToken@@@_STL@@@_STL@@QAE@ABV?$allocator@PAVToken@@@1@@Z 00414c30 f i bscript:compiler.obj
 0001:00013c60       ?_M_insert_overflow@?$vector@UCandidate@@V?$allocator@UCandidate@@@_STL@@@_STL@@IAEXPAUCandidate@@ABU3@ABU__false_type@2@I_N@Z 00414c60 f i bscript:compiler.obj
 0001:00013df0       ??0?$deque@PAVToken@@V?$allocator@PAVToken@@@_STL@@@_STL@@QAE@ABV01@@Z 00414df0 f i bscript:compiler.obj
 0001:00013ec0       ?_M_push_back_aux_v@?$deque@PAVToken@@V?$allocator@PAVToken@@@_STL@@@_STL@@IAEXABQAVToken@@@Z 00414ec0 f i bscript:compiler.obj
 0001:00013f30       ??$_Construct@V?$basic_string@DV?$char_traits@D@_STL@@V?$allocator@D@2@@_STL@@V12@@_STL@@YAXPAV?$basic_string@DV?$char_traits@D@_STL@@V?$allocator@D@2@@0@ABV10@@Z 00414f30 f i bscript:compiler.obj
 0001:00013f80       ??$_Destroy@V?$basic_string@DV?$char_traits@D@_STL@@V?$allocator@D@2@@_STL@@@_STL@@YAXPAV?$basic_string@DV?$char_traits@D@_STL@@V?$allocator@D@2@@0@@Z 00414f80 f i bscript:compiler.obj
 0001:00013f90       ??0UserParam@@QAE@ABV0@@Z  00414f90 f i bscript:compiler.obj
 0001:00013ff0       ??_G?$basic_ostringstream@DV?$char_traits@D@_STL@@V?$allocator@D@2@@_STL@@UAEPAXI@Z 00414ff0 f i bscript:compiler.obj
 0001:00013ff0       ??_E?$basic_ostringstream@DV?$char_traits@D@_STL@@V?$allocator@D@2@@_STL@@UAEPAXI@Z 00414ff0 f i bscript:compiler.obj
 0001:00014020       ??0EPExportedFunction@@QAE@ABU0@@Z 00415020 f i bscript:compiler.obj
 0001:00014050       ??0Variable@@QAE@ABU0@@Z   00415050 f i bscript:compiler.obj
 0001:000140b0       ??0BlockDesc@@QAE@ABU0@@Z  004150b0 f i bscript:compiler.obj
 0001:000141c0       ??_GBlockDesc@@QAEPAXI@Z   004151c0 f i bscript:compiler.obj
 0001:000141e0       ??_G?$pair@$$CBV?$basic_string@DV?$char_traits@D@_STL@@V?$allocator@D@2@@_STL@@VExpression@@@_STL@@QAEPAXI@Z 004151e0 f i bscript:compiler.obj
 0001:00014200       ??$_Destroy@U?$pair@$$CBV?$basic_string@DV?$char_traits@D@_STL@@V?$allocator@D@2@@_STL@@VUserFunction@@@_STL@@@_STL@@YAXPAU?$pair@$$CBV?$basic_string@DV?$char_traits@D@_STL@@V?$allocator@D@2@@_STL@@VUserFunction@@@0@@Z 00415200 f i bscript:compiler.obj
 0001:00014210       ??$_Construct@VUserParam@@V1@@_STL@@YAXPAVUserParam@@ABV1@@Z 00415210 f i bscript:compiler.obj
 0001:00014260       ??_G?$pair@$$CBV?$basic_string@DV?$char_traits@D@_STL@@V?$allocator@D@2@@_STL@@VToken@@@_STL@@QAEPAXI@Z 00415260 f i bscript:compiler.obj
 0001:00014280       ?_M_create_node@?$_Rb_tree@V?$basic_string@DV?$char_traits@D@_STL@@V?$allocator@D@2@@_STL@@V12@U?$_Identity@V?$basic_string@DV?$char_traits@D@_STL@@V?$allocator@D@2@@_STL@@@2@Vci_cmp_pred@@V?$allocator@V?$basic_string@DV?$char_traits@D@_STL@@V?$allocator@D@2@@_STL@@@2@@_STL@@IAEPAU?$_Rb_tree_node@V?$basic_string@DV?$char_traits@D@_STL@@V?$allocator@D@2@@_STL@@@2@ABV?$basic_string@DV?$char_traits@D@_STL@@V?$allocator@D@2@@2@@Z 00415280 f i bscript:compiler.obj
 0001:00014310       ??$__destroy_aux@PAV?$basic_string@DV?$char_traits@D@_STL@@V?$allocator@D@2@@_STL@@@_STL@@YAXPAV?$basic_string@DV?$char_traits@D@_STL@@V?$allocator@D@2@@0@0ABU__false_type@0@@Z 00415310 f i bscript:compiler.obj
 0001:00014340       ??0?$pair@$$CBV?$basic_string@DV?$char_traits@D@_STL@@V?$allocator@D@2@@_STL@@VToken@@@_STL@@QAE@ABU01@@Z 00415340 f i bscript:compiler.obj
 0001:000143a0       ??$_Destroy@VUserParam@@@_STL@@YAXPAVUserParam@@@Z 004153a0 f i bscript:compiler.obj
 0001:000143b0       ??_GEPExportedFunction@@QAEPAXI@Z 004153b0 f i bscript:compiler.obj
 0001:000143d0       ??0Variable@@QAE@XZ        004153d0 f i bscript:compiler.obj
 0001:00014420       ??1Variable@@QAE@XZ        00415420 f i bscript:compiler.obj
 0001:000144c0       ?addModule@Compiler@@QAEXPAVFunctionalityModule@@@Z 004154c0 f   bscript:compiler.obj
 0001:00014510       ?handleDeclare@Compiler@@QAEHAAVCompilerContext@@@Z 00415510 f   bscript:compiler.obj
 0001:000147c0       ?insertBreak@Compiler@@AAEHABV?$basic_string@DV?$char_traits@D@_STL@@V?$allocator@D@2@@_STL@@@Z 004157c0 f   bscript:compiler.obj
 0001:000149c0       ??Y?$basic_string@DV?$char_traits@D@_STL@@V?$allocator@D@2@@_STL@@QAEAAV01@D@Z 004159c0 f i bscript:compiler.obj
 0001:000149e0       ?pop_back@?$vector@V?$basic_string@DV?$char_traits@D@_STL@@V?$allocator@D@2@@_STL@@V?$allocator@V?$basic_string@DV?$char_traits@D@_STL@@V?$allocator@D@2@@_STL@@@2@@_STL@@QAEXXZ 004159e0 f i bscript:compiler.obj
 0001:000149f0       ??0?$stack@PAVToken@@V?$deque@PAVToken@@V?$allocator@PAVToken@@@_STL@@@_STL@@@_STL@@QAE@XZ 004159f0 f i bscript:compiler.obj
 0001:00014a20       ??0?$queue@PAVToken@@V?$deque@PAVToken@@V?$allocator@PAVToken@@@_STL@@@_STL@@@_STL@@QAE@XZ 00415a20 f i bscript:compiler.obj
 0001:00014a50       ?push_back@?$vector@UCandidate@@V?$allocator@UCandidate@@@_STL@@@_STL@@QAEXABUCandidate@@@Z 00415a50 f i bscript:compiler.obj
 0001:00014a90       ??0?$pair@$$CBV?$basic_string@DV?$char_traits@D@_STL@@V?$allocator@D@2@@_STL@@VToken@@@_STL@@QAE@ABV?$basic_string@DV?$char_traits@D@_STL@@V?$allocator@D@2@@1@ABVToken@@@Z 00415a90 f i bscript:compiler.obj
 0001:00014ae0       ?append@?$basic_string@DV?$char_traits@D@_STL@@V?$allocator@D@2@@_STL@@QAEAAV12@PBD@Z 00415ae0 f i bscript:compiler.obj
 0001:00014b10       ?push_back@?$deque@PAVToken@@V?$allocator@PAVToken@@@_STL@@@_STL@@QAEXABQAVToken@@@Z 00415b10 f i bscript:compiler.obj
 0001:00014b40       ??0?$stack@PAVToken@@V?$deque@PAVToken@@V?$allocator@PAVToken@@@_STL@@@_STL@@@_STL@@QAE@ABV01@@Z 00415b40 f i bscript:compiler.obj
 0001:00014b60       ??0?$queue@PAVToken@@V?$deque@PAVToken@@V?$allocator@PAVToken@@@_STL@@@_STL@@@_STL@@QAE@ABV01@@Z 00415b60 f i bscript:compiler.obj
 0001:00014b80       ?_M_erase@?$_Rb_tree@V?$basic_string@DV?$char_traits@D@_STL@@V?$allocator@D@2@@_STL@@V12@U?$_Identity@V?$basic_string@DV?$char_traits@D@_STL@@V?$allocator@D@2@@_STL@@@2@Vci_cmp_pred@@V?$allocator@V?$basic_string@DV?$char_traits@D@_STL@@V?$allocator@D@2@@_STL@@@2@@_STL@@AAEXPAU?$_Rb_tree_node@V?$basic_string@DV?$char_traits@D@_STL@@V?$allocator@D@2@@_STL@@@2@@Z 00415b80 f i bscript:compiler.obj
 0001:00014bc0       ?_M_erase@?$_Rb_tree@V?$basic_string@DV?$char_traits@D@_STL@@V?$allocator@D@2@@_STL@@U?$pair@$$CBV?$basic_string@DV?$char_traits@D@_STL@@V?$allocator@D@2@@_STL@@VUserFunction@@@2@U?$_Select1st@U?$pair@$$CBV?$basic_string@DV?$char_traits@D@_STL@@V?$allocator@D@2@@_STL@@VUserFunction@@@_STL@@@2@Vci_cmp_pred@@V?$allocator@U?$pair@$$CBV?$basic_string@DV?$char_traits@D@_STL@@V?$allocator@D@2@@_STL@@VUserFunction@@@_STL@@@2@@_STL@@AAEXPAU?$_Rb_tree_node@U?$pair@$$CBV?$basic_string@DV?$char_traits@D@_STL@@V?$allocator@D@2@@_STL@@VUserFunction@@@_STL@@@2@@Z 00415bc0 f i bscript:compiler.obj
 0001:00014c00       ??$_Construct@UEPExportedFunction@@U1@@_STL@@YAXPAUEPExportedFunction@@ABU1@@Z 00415c00 f i bscript:compiler.obj
 0001:00014c60       ??$_Construct@UVariable@@U1@@_STL@@YAXPAUVariable@@ABU1@@Z 00415c60 f i bscript:compiler.obj
 0001:00014cb0       ??$_Construct@UBlockDesc@@U1@@_STL@@YAXPAUBlockDesc@@ABU1@@Z 00415cb0 f i bscript:compiler.obj
 0001:00014d00       ??$_Destroy@UBlockDesc@@@_STL@@YAXPAUBlockDesc@@@Z 00415d00 f i bscript:compiler.obj
 0001:00014d10       ??$_Destroy@U?$pair@$$CBV?$basic_string@DV?$char_traits@D@_STL@@V?$allocator@D@2@@_STL@@VExpression@@@_STL@@@_STL@@YAXPAU?$pair@$$CBV?$basic_string@DV?$char_traits@D@_STL@@V?$allocator@D@2@@_STL@@VExpression@@@0@@Z 00415d10 f i bscript:compiler.obj
 0001:00014d20       ??_GVariable@@QAEPAXI@Z    00415d20 f i bscript:compiler.obj
 0001:00014d40       ?_M_insert@?$_Rb_tree@V?$basic_string@DV?$char_traits@D@_STL@@V?$allocator@D@2@@_STL@@V12@U?$_Identity@V?$basic_string@DV?$char_traits@D@_STL@@V?$allocator@D@2@@_STL@@@2@Vci_cmp_pred@@V?$allocator@V?$basic_string@DV?$char_traits@D@_STL@@V?$allocator@D@2@@_STL@@@2@@_STL@@AAE?AU?$_Rb_tree_iterator@V?$basic_string@DV?$char_traits@D@_STL@@V?$allocator@D@2@@_STL@@U?$_Nonconst_traits@V?$basic_string@DV?$char_traits@D@_STL@@V?$allocator@D@2@@_STL@@@2@@2@PAU_Rb_tree_node_base@2@0ABV?$basic_string@DV?$char_traits@D@_STL@@V?$allocator@D@2@@2@0@Z 00415d40 f i bscript:compiler.obj
 0001:00014df0       ??$_Destroy@U?$pair@$$CBV?$basic_string@DV?$char_traits@D@_STL@@V?$allocator@D@2@@_STL@@VToken@@@_STL@@@_STL@@YAXPAU?$pair@$$CBV?$basic_string@DV?$char_traits@D@_STL@@V?$allocator@D@2@@_STL@@VToken@@@0@@Z 00415df0 f i bscript:compiler.obj
 0001:00014e00       ??$__destroy@PAV?$basic_string@DV?$char_traits@D@_STL@@V?$allocator@D@2@@_STL@@V12@@_STL@@YAXPAV?$basic_string@DV?$char_traits@D@_STL@@V?$allocator@D@2@@0@00@Z 00415e00 f i bscript:compiler.obj
 0001:00014e30       ??$__destroy_aux@PAUBlockDesc@@@_STL@@YAXPAUBlockDesc@@0ABU__false_type@0@@Z 00415e30 f i bscript:compiler.obj
 0001:00014e60       ??$__destroy_aux@PAVUserParam@@@_STL@@YAXPAVUserParam@@0ABU__false_type@0@@Z 00415e60 f i bscript:compiler.obj
 0001:00014e90       ??$_Construct@U?$pair@$$CBV?$basic_string@DV?$char_traits@D@_STL@@V?$allocator@D@2@@_STL@@VToken@@@_STL@@U12@@_STL@@YAXPAU?$pair@$$CBV?$basic_string@DV?$char_traits@D@_STL@@V?$allocator@D@2@@_STL@@VToken@@@0@ABU10@@Z 00415e90 f i bscript:compiler.obj
 0001:00014ee0       ??$_Destroy@UEPExportedFunction@@@_STL@@YAXPAUEPExportedFunction@@@Z 00415ee0 f i bscript:compiler.obj
 0001:00014ef0       ?getpathof@@YA?AV?$basic_string@DV?$char_traits@D@_STL@@V?$allocator@D@2@@_STL@@V12@@Z 00415ef0 f   bscript:compiler.obj
 0001:00014ff0       ??0Expression@@QAE@XZ      00415ff0 f i bscript:compiler.obj
 0001:00015080       ?rollback@Compiler@@AAEXAAVEScriptProgram@@ABVEScriptProgramCheckpoint@@@Z 00416080 f   bscript:compiler.obj
 0001:00015270       ??Y?$basic_string@DV?$char_traits@D@_STL@@V?$allocator@D@2@@_STL@@QAEAAV01@ABV01@@Z 00416270 f i bscript:compiler.obj
 0001:00015290       ??Y?$basic_string@DV?$char_traits@D@_STL@@V?$allocator@D@2@@_STL@@QAEAAV01@PBD@Z 00416290 f i bscript:compiler.obj
 0001:000152c0       ?push@?$queue@PAVToken@@V?$deque@PAVToken@@V?$allocator@PAVToken@@@_STL@@@_STL@@@_STL@@QAEXABQAVToken@@@Z 004162c0 f i bscript:compiler.obj
 0001:000152f0       ?pop_back@?$vector@UBlockDesc@@V?$allocator@UBlockDesc@@@_STL@@@_STL@@QAEXXZ 004162f0 f i bscript:compiler.obj
 0001:00015300       ?clear@?$_Rb_tree@V?$basic_string@DV?$char_traits@D@_STL@@V?$allocator@D@2@@_STL@@V12@U?$_Identity@V?$basic_string@DV?$char_traits@D@_STL@@V?$allocator@D@2@@_STL@@@2@Vci_cmp_pred@@V?$allocator@V?$basic_string@DV?$char_traits@D@_STL@@V?$allocator@D@2@@_STL@@@2@@_STL@@QAEXXZ 00416300 f i bscript:compiler.obj
 0001:00015340       ?clear@?$_Rb_tree@V?$basic_string@DV?$char_traits@D@_STL@@V?$allocator@D@2@@_STL@@U?$pair@$$CBV?$basic_string@DV?$char_traits@D@_STL@@V?$allocator@D@2@@_STL@@VUserFunction@@@2@U?$_Select1st@U?$pair@$$CBV?$basic_string@DV?$char_traits@D@_STL@@V?$allocator@D@2@@_STL@@VUserFunction@@@_STL@@@2@Vci_cmp_pred@@V?$allocator@U?$pair@$$CBV?$basic_string@DV?$char_traits@D@_STL@@V?$allocator@D@2@@_STL@@VUserFunction@@@_STL@@@2@@_STL@@QAEXXZ 00416340 f i bscript:compiler.obj
 0001:00015380       ?str@?$basic_stringbuf@DV?$char_traits@D@_STL@@V?$allocator@D@2@@_STL@@QBE?AV?$basic_string@DV?$char_traits@D@_STL@@V?$allocator@D@2@@2@XZ 00416380 f i bscript:compiler.obj
 0001:000153b0       ??0Expression@@QAE@ABV0@@Z 004163b0 f i bscript:compiler.obj
 0001:00015450       ?erase@?$_Rb_tree@V?$basic_string@DV?$char_traits@D@_STL@@V?$allocator@D@2@@_STL@@U?$pair@$$CBV?$basic_string@DV?$char_traits@D@_STL@@V?$allocator@D@2@@_STL@@VExpression@@@2@U?$_Select1st@U?$pair@$$CBV?$basic_string@DV?$char_traits@D@_STL@@V?$allocator@D@2@@_STL@@VExpression@@@_STL@@@2@U?$less@V?$basic_string@DV?$char_traits@D@_STL@@V?$allocator@D@2@@_STL@@@2@V?$allocator@U?$pair@$$CBV?$basic_string@DV?$char_traits@D@_STL@@V?$allocator@D@2@@_STL@@VExpression@@@_STL@@@2@@_STL@@QAEXU?$_Rb_tree_iterator@U?$pair@$$CBV?$basic_string@DV?$char_traits@D@_STL@@V?$allocator@D@2@@_STL@@VExpression@@@_STL@@U?$_Nonconst_traits@U?$pair@$$CBV?$basic_string@DV?$char_traits@D@_STL@@V?$allocator@D@2@@_STL@@VExpression@@@_STL@@@2@@2@@Z 00416450 f i bscript:compiler.obj
 0001:000154a0       ?insert_unique@?$_Rb_tree@V?$basic_string@DV?$char_traits@D@_STL@@V?$allocator@D@2@@_STL@@V12@U?$_Identity@V?$basic_string@DV?$char_traits@D@_STL@@V?$allocator@D@2@@_STL@@@2@Vci_cmp_pred@@V?$allocator@V?$basic_string@DV?$char_traits@D@_STL@@V?$allocator@D@2@@_STL@@@2@@_STL@@QAE?AU?$pair@U?$_Rb_tree_iterator@V?$basic_string@DV?$char_traits@D@_STL@@V?$allocator@D@2@@_STL@@U?$_Nonconst_traits@V?$basic_string@DV?$char_traits@D@_STL@@V?$allocator@D@2@@_STL@@@2@@_STL@@_N@2@ABV?$basic_string@DV?$char_traits@D@_STL@@V?$allocator@D@2@@2@@Z 004164a0 f i bscript:compiler.obj
 0001:00015570       ?_M_erase@?$_Rb_tree@V?$basic_string@DV?$char_traits@D@_STL@@V?$allocator@D@2@@_STL@@U?$pair@$$CBV?$basic_string@DV?$char_traits@D@_STL@@V?$allocator@D@2@@_STL@@VToken@@@2@U?$_Select1st@U?$pair@$$CBV?$basic_string@DV?$char_traits@D@_STL@@V?$allocator@D@2@@_STL@@VToken@@@_STL@@@2@U?$less@V?$basic_string@DV?$char_traits@D@_STL@@V?$allocator@D@2@@_STL@@@2@V?$allocator@U?$pair@$$CBV?$basic_string@DV?$char_traits@D@_STL@@V?$allocator@D@2@@_STL@@VToken@@@_STL@@@2@@_STL@@AAEXPAU?$_Rb_tree_node@U?$pair@$$CBV?$basic_string@DV?$char_traits@D@_STL@@V?$allocator@D@2@@_STL@@VToken@@@_STL@@@2@@Z 00416570 f i bscript:compiler.obj
 0001:000155b0       ?_M_erase@?$_Rb_tree@V?$basic_string@DV?$char_traits@D@_STL@@V?$allocator@D@2@@_STL@@U?$pair@$$CBV?$basic_string@DV?$char_traits@D@_STL@@V?$allocator@D@2@@_STL@@VExpression@@@2@U?$_Select1st@U?$pair@$$CBV?$basic_string@DV?$char_traits@D@_STL@@V?$allocator@D@2@@_STL@@VExpression@@@_STL@@@2@U?$less@V?$basic_string@DV?$char_traits@D@_STL@@V?$allocator@D@2@@_STL@@@2@V?$allocator@U?$pair@$$CBV?$basic_string@DV?$char_traits@D@_STL@@V?$allocator@D@2@@_STL@@VExpression@@@_STL@@@2@@_STL@@AAEXPAU?$_Rb_tree_node@U?$pair@$$CBV?$basic_string@DV?$char_traits@D@_STL@@V?$allocator@D@2@@_STL@@VExpression@@@_STL@@@2@@Z 004165b0 f i bscript:compiler.obj
 0001:000155f0       ??$_Destroy@PAV?$basic_string@DV?$char_traits@D@_STL@@V?$allocator@D@2@@_STL@@@_STL@@YAXPAV?$basic_string@DV?$char_traits@D@_STL@@V?$allocator@D@2@@0@0@Z 004165f0 f i bscript:compiler.obj
 0001:00015620       ??$_Destroy@UVariable@@@_STL@@YAXPAUVariable@@@Z 00416620 f i bscript:compiler.obj
 0001:00015630       ??$__uninitialized_copy@PAV?$basic_string@DV?$char_traits@D@_STL@@V?$allocator@D@2@@_STL@@PAV12@@_STL@@YAPAV?$basic_string@DV?$char_traits@D@_STL@@V?$allocator@D@2@@0@PAV10@00ABU__false_type@0@@Z 00416630 f i bscript:compiler.obj
 0001:000156b0       ??$__uninitialized_fill_n@PAV?$basic_string@DV?$char_traits@D@_STL@@V?$allocator@D@2@@_STL@@IV12@@_STL@@YAPAV?$basic_string@DV?$char_traits@D@_STL@@V?$allocator@D@2@@0@PAV10@IABV10@ABU__false_type@0@@Z 004166b0 f i bscript:compiler.obj
 0001:00015730       ??$fill@PAV?$basic_string@DV?$char_traits@D@_STL@@V?$allocator@D@2@@_STL@@V12@@_STL@@YAXPAV?$basic_string@DV?$char_traits@D@_STL@@V?$allocator@D@2@@0@0ABV10@@Z 00416730 f i bscript:compiler.obj
 0001:00015770       ??$uninitialized_fill_n@PAV?$basic_string@DV?$char_traits@D@_STL@@V?$allocator@D@2@@_STL@@IV12@@_STL@@YAPAV?$basic_string@DV?$char_traits@D@_STL@@V?$allocator@D@2@@0@PAV10@IABV10@@Z 00416770 f i bscript:compiler.obj
 0001:00015790       ??$__destroy@PAUBlockDesc@@U1@@_STL@@YAXPAUBlockDesc@@00@Z 00416790 f i bscript:compiler.obj
 0001:000157c0       ??$__copy@PAV?$basic_string@DV?$char_traits@D@_STL@@V?$allocator@D@2@@_STL@@PAV12@H@_STL@@YAPAV?$basic_string@DV?$char_traits@D@_STL@@V?$allocator@D@2@@0@PAV10@00ABUrandom_access_iterator_tag@0@PAH@Z 004167c0 f i bscript:compiler.obj
 0001:00015820       ??$__destroy@PAVUserParam@@V1@@_STL@@YAXPAVUserParam@@00@Z 00416820 f i bscript:compiler.obj
 0001:00015850       ??4UserParam@@QAEAAV0@ABV0@@Z 00416850 f i bscript:compiler.obj
 0001:00015890       ?_M_create_node@?$_Rb_tree@V?$basic_string@DV?$char_traits@D@_STL@@V?$allocator@D@2@@_STL@@U?$pair@$$CBV?$basic_string@DV?$char_traits@D@_STL@@V?$allocator@D@2@@_STL@@VToken@@@2@U?$_Select1st@U?$pair@$$CBV?$basic_string@DV?$char_traits@D@_STL@@V?$allocator@D@2@@_STL@@VToken@@@_STL@@@2@U?$less@V?$basic_string@DV?$char_traits@D@_STL@@V?$allocator@D@2@@_STL@@@2@V?$allocator@U?$pair@$$CBV?$basic_string@DV?$char_traits@D@_STL@@V?$allocator@D@2@@_STL@@VToken@@@_STL@@@2@@_STL@@IAEPAU?$_Rb_tree_node@U?$pair@$$CBV?$basic_string@DV?$char_traits@D@_STL@@V?$allocator@D@2@@_STL@@VToken@@@_STL@@@2@ABU?$pair@$$CBV?$basic_string@DV?$char_traits@D@_STL@@V?$allocator@D@2@@_STL@@VToken@@@2@@Z 00416890 f i bscript:compiler.obj
 0001:00015920       ??$__copy_backward@PAV?$basic_string@DV?$char_traits@D@_STL@@V?$allocator@D@2@@_STL@@PAV12@H@_STL@@YAPAV?$basic_string@DV?$char_traits@D@_STL@@V?$allocator@D@2@@0@PAV10@00ABUrandom_access_iterator_tag@0@PAH@Z 00416920 f i bscript:compiler.obj
 0001:00015980       ??$__copy@PBVUserParam@@PAV1@H@_STL@@YAPAVUserParam@@PBV1@0PAV1@ABUrandom_access_iterator_tag@0@PAH@Z 00416980 f i bscript:compiler.obj
 0001:000159f0       ??$__copy_backward@PAVUserParam@@PAV1@H@_STL@@YAPAVUserParam@@PAV1@00ABUrandom_access_iterator_tag@0@PAH@Z 004169f0 f i bscript:compiler.obj
 0001:00015a70       ??$__destroy_aux@PAUVariable@@@_STL@@YAXPAUVariable@@0ABU__false_type@0@@Z 00416a70 f i bscript:compiler.obj
 0001:00015aa0       ??$__destroy_aux@PAUEPExportedFunction@@@_STL@@YAXPAUEPExportedFunction@@0ABU__false_type@0@@Z 00416aa0 f i bscript:compiler.obj
 0001:00015ad0       ??0?$pair@$$CBV?$basic_string@DV?$char_traits@D@_STL@@V?$allocator@D@2@@_STL@@VExpression@@@_STL@@QAE@ABU01@@Z 00416ad0 f i bscript:compiler.obj
 0001:00015b30       ?eat@Expression@@QAEXAAV1@@Z 00416b30 f   bscript:compiler.obj
 0001:00015bc0       ?eat2@Expression@@QAEXAAV1@@Z 00416bc0 f   bscript:compiler.obj
 0001:00015c30       ?optimize_string_operation@@YAPAVToken@@PAV1@00@Z 00416c30 f   bscript:compiler.obj
 0001:00015df0       ?isFunc@Compiler@@UAEHAAVToken@@PAPAVModuleFunction@@@Z 00416df0 f   bscript:compiler.obj
 0001:000164b0       ?handleBreak@Compiler@@QAEHAAVCompilerContext@@@Z 004174b0 f   bscript:compiler.obj
 0001:00016650       ?handleContinue@Compiler@@QAEHAAVCompilerContext@@@Z 00417650 f   bscript:compiler.obj
 0001:000169e0       ?handleProgram@Compiler@@QAEHAAVCompilerContext@@H@Z 004179e0 f   bscript:compiler.obj
 0001:00016bf0       ?preprocess_web_script@@YAXAAVFileContents@@@Z 00417bf0 f   bscript:compiler.obj
 0001:00017010       ??1?$vector@V?$basic_string@DV?$char_traits@D@_STL@@V?$allocator@D@2@@_STL@@V?$allocator@V?$basic_string@DV?$char_traits@D@_STL@@V?$allocator@D@2@@_STL@@@2@@_STL@@QAE@XZ 00418010 f i bscript:compiler.obj
 0001:000170e0       ?pop_back@?$vector@UVariable@@V?$allocator@UVariable@@@_STL@@@_STL@@QAEXXZ 004180e0 f i bscript:compiler.obj
 0001:000170f0       ?insert@?$set@V?$basic_string@DV?$char_traits@D@_STL@@V?$allocator@D@2@@_STL@@Vci_cmp_pred@@V?$allocator@V?$basic_string@DV?$char_traits@D@_STL@@V?$allocator@D@2@@_STL@@@2@@_STL@@QAE?AU?$pair@U?$_Rb_tree_iterator@V?$basic_string@DV?$char_traits@D@_STL@@V?$allocator@D@2@@_STL@@U?$_Const_traits@V?$basic_string@DV?$char_traits@D@_STL@@V?$allocator@D@2@@_STL@@@2@@_STL@@_N@2@ABV?$basic_string@DV?$char_traits@D@_STL@@V?$allocator@D@2@@2@@Z 004180f0 f i bscript:compiler.obj
 0001:00017120       ?clear@?$set@V?$basic_string@DV?$char_traits@D@_STL@@V?$allocator@D@2@@_STL@@Vci_cmp_pred@@V?$allocator@V?$basic_string@DV?$char_traits@D@_STL@@V?$allocator@D@2@@_STL@@@2@@_STL@@QAEXXZ 00418120 f i bscript:compiler.obj
 0001:00017160       ??1?$_Rb_tree@V?$basic_string@DV?$char_traits@D@_STL@@V?$allocator@D@2@@_STL@@V12@U?$_Identity@V?$basic_string@DV?$char_traits@D@_STL@@V?$allocator@D@2@@_STL@@@2@Vci_cmp_pred@@V?$allocator@V?$basic_string@DV?$char_traits@D@_STL@@V?$allocator@D@2@@_STL@@@2@@_STL@@QAE@XZ 00418160 f i bscript:compiler.obj
 0001:000171e0       ??1?$_Rb_tree@V?$basic_string@DV?$char_traits@D@_STL@@V?$allocator@D@2@@_STL@@U?$pair@$$CBV?$basic_string@DV?$char_traits@D@_STL@@V?$allocator@D@2@@_STL@@VUserFunction@@@2@U?$_Select1st@U?$pair@$$CBV?$basic_string@DV?$char_traits@D@_STL@@V?$allocator@D@2@@_STL@@VUserFunction@@@_STL@@@2@Vci_cmp_pred@@V?$allocator@U?$pair@$$CBV?$basic_string@DV?$char_traits@D@_STL@@V?$allocator@D@2@@_STL@@VUserFunction@@@_STL@@@2@@_STL@@QAE@XZ 004181e0 f i bscript:compiler.obj
 0001:00017260       ?str@?$basic_ostringstream@DV?$char_traits@D@_STL@@V?$allocator@D@2@@_STL@@QBE?AV?$basic_string@DV?$char_traits@D@_STL@@V?$allocator@D@2@@2@XZ 00418260 f i bscript:compiler.obj
 0001:00017280       ?clear@?$_Rb_tree@V?$basic_string@DV?$char_traits@D@_STL@@V?$allocator@D@2@@_STL@@U?$pair@$$CBV?$basic_string@DV?$char_traits@D@_STL@@V?$allocator@D@2@@_STL@@VToken@@@2@U?$_Select1st@U?$pair@$$CBV?$basic_string@DV?$char_traits@D@_STL@@V?$allocator@D@2@@_STL@@VToken@@@_STL@@@2@U?$less@V?$basic_string@DV?$char_traits@D@_STL@@V?$allocator@D@2@@_STL@@@2@V?$allocator@U?$pair@$$CBV?$basic_string@DV?$char_traits@D@_STL@@V?$allocator@D@2@@_STL@@VToken@@@_STL@@@2@@_STL@@QAEXXZ 00418280 f i bscript:compiler.obj
 0001:000172c0       ?clear@?$_Rb_tree@V?$basic_string@DV?$char_traits@D@_STL@@V?$allocator@D@2@@_STL@@U?$pair@$$CBV?$basic_string@DV?$char_traits@D@_STL@@V?$allocator@D@2@@_STL@@VExpression@@@2@U?$_Select1st@U?$pair@$$CBV?$basic_string@DV?$char_traits@D@_STL@@V?$allocator@D@2@@_STL@@VExpression@@@_STL@@@2@U?$less@V?$basic_string@DV?$char_traits@D@_STL@@V?$allocator@D@2@@_STL@@@2@V?$allocator@U?$pair@$$CBV?$basic_string@DV?$char_traits@D@_STL@@V?$allocator@D@2@@_STL@@VExpression@@@_STL@@@2@@_STL@@QAEXXZ 004182c0 f i bscript:compiler.obj
 0001:00017300       ??0?$pair@$$CBV?$basic_string@DV?$char_traits@D@_STL@@V?$allocator@D@2@@_STL@@VExpression@@@_STL@@QAE@ABV?$basic_string@DV?$char_traits@D@_STL@@V?$allocator@D@2@@1@ABVExpression@@@Z 00418300 f i bscript:compiler.obj
 0001:00017350       ?_M_clear@?$vector@V?$basic_string@DV?$char_traits@D@_STL@@V?$allocator@D@2@@_STL@@V?$allocator@V?$basic_string@DV?$char_traits@D@_STL@@V?$allocator@D@2@@_STL@@@2@@_STL@@IAEXXZ 00418350 f i bscript:compiler.obj
 0001:000173c0       ?erase@?$_Rb_tree@V?$basic_string@DV?$char_traits@D@_STL@@V?$allocator@D@2@@_STL@@U?$pair@$$CBV?$basic_string@DV?$char_traits@D@_STL@@V?$allocator@D@2@@_STL@@VExpression@@@2@U?$_Select1st@U?$pair@$$CBV?$basic_string@DV?$char_traits@D@_STL@@V?$allocator@D@2@@_STL@@VExpression@@@_STL@@@2@U?$less@V?$basic_string@DV?$char_traits@D@_STL@@V?$allocator@D@2@@_STL@@@2@V?$allocator@U?$pair@$$CBV?$basic_string@DV?$char_traits@D@_STL@@V?$allocator@D@2@@_STL@@VExpression@@@_STL@@@2@@_STL@@QAEXU?$_Rb_tree_iterator@U?$pair@$$CBV?$basic_string@DV?$char_traits@D@_STL@@V?$allocator@D@2@@_STL@@VExpression@@@_STL@@U?$_Nonconst_traits@U?$pair@$$CBV?$basic_string@DV?$char_traits@D@_STL@@V?$allocator@D@2@@_STL@@VExpression@@@_STL@@@2@@2@0@Z 004183c0 f i bscript:compiler.obj
 0001:00017460       ??0?$basic_ostringstream@DV?$char_traits@D@_STL@@V?$allocator@D@2@@_STL@@QAE@H@Z 00418460 f i bscript:compiler.obj
 0001:00017530       ??$_Destroy@PAUBlockDesc@@@_STL@@YAXPAUBlockDesc@@0@Z 00418530 f i bscript:compiler.obj
 0001:00017560       ??$__uninitialized_copy@PAUBlockDesc@@PAU1@@_STL@@YAPAUBlockDesc@@PAU1@00ABU__false_type@0@@Z 00418560 f i bscript:compiler.obj
 0001:000175e0       ??$__uninitialized_fill_n@PAUBlockDesc@@IU1@@_STL@@YAPAUBlockDesc@@PAU1@IABU1@ABU__false_type@0@@Z 004185e0 f i bscript:compiler.obj
 0001:00017660       ??$__copy_ptrs@PAV?$basic_string@DV?$char_traits@D@_STL@@V?$allocator@D@2@@_STL@@PAV12@@_STL@@YAPAV?$basic_string@DV?$char_traits@D@_STL@@V?$allocator@D@2@@0@PAV10@00ABU__false_type@0@@Z 00418660 f i bscript:compiler.obj
 0001:00017680       ??$_Destroy@PAVUserParam@@@_STL@@YAXPAVUserParam@@0@Z 00418680 f i bscript:compiler.obj
 0001:000176b0       ?_M_clear@?$vector@VUserParam@@V?$allocator@VUserParam@@@_STL@@@_STL@@IAEXXZ 004186b0 f i bscript:compiler.obj
 0001:00017720       ??$__copy_backward_ptrs@PAV?$basic_string@DV?$char_traits@D@_STL@@V?$allocator@D@2@@_STL@@PAV12@@_STL@@YAPAV?$basic_string@DV?$char_traits@D@_STL@@V?$allocator@D@2@@0@PAV10@00ABU__false_type@0@@Z 00418720 f i bscript:compiler.obj
 0001:00017740       ??$__copy_ptrs@PBVUserParam@@PAV1@@_STL@@YAPAVUserParam@@PBV1@0PAV1@ABU__false_type@0@@Z 00418740 f i bscript:compiler.obj
 0001:00017760       ??$__uninitialized_copy@PAVUserParam@@PAV1@@_STL@@YAPAVUserParam@@PAV1@00ABU__false_type@0@@Z 00418760 f i bscript:compiler.obj
 0001:00017800       ??$__copy_backward_ptrs@PAVUserParam@@PAV1@@_STL@@YAPAVUserParam@@PAV1@00ABU__false_type@0@@Z 00418800 f i bscript:compiler.obj
 0001:00017820       ??$fill@PAVUserParam@@V1@@_STL@@YAXPAVUserParam@@0ABV1@@Z 00418820 f i bscript:compiler.obj
 0001:00017870       ?_M_insert@?$_Rb_tree@V?$basic_string@DV?$char_traits@D@_STL@@V?$allocator@D@2@@_STL@@U?$pair@$$CBV?$basic_string@DV?$char_traits@D@_STL@@V?$allocator@D@2@@_STL@@VToken@@@2@U?$_Select1st@U?$pair@$$CBV?$basic_string@DV?$char_traits@D@_STL@@V?$allocator@D@2@@_STL@@VToken@@@_STL@@@2@U?$less@V?$basic_string@DV?$char_traits@D@_STL@@V?$allocator@D@2@@_STL@@@2@V?$allocator@U?$pair@$$CBV?$basic_string@DV?$char_traits@D@_STL@@V?$allocator@D@2@@_STL@@VToken@@@_STL@@@2@@_STL@@AAE?AU?$_Rb_tree_iterator@U?$pair@$$CBV?$basic_string@DV?$char_traits@D@_STL@@V?$allocator@D@2@@_STL@@VToken@@@_STL@@U?$_Nonconst_traits@U?$pair@$$CBV?$basic_string@DV?$char_traits@D@_STL@@V?$allocator@D@2@@_STL@@VToken@@@_STL@@@2@@2@PAU_Rb_tree_node_base@2@0ABU?$pair@$$CBV?$basic_string@DV?$char_traits@D@_STL@@V?$allocator@D@2@@_STL@@VToken@@@2@0@Z 00418870 f i bscript:compiler.obj
 0001:00017920       ??$__destroy@PAUVariable@@U1@@_STL@@YAXPAUVariable@@00@Z 00418920 f i bscript:compiler.obj
 0001:00017950       ??$__destroy@PAUEPExportedFunction@@U1@@_STL@@YAXPAUEPExportedFunction@@00@Z 00418950 f i bscript:compiler.obj
 0001:00017980       ??$__copy@PAVUserParam@@PAV1@H@_STL@@YAPAVUserParam@@PAV1@00ABUrandom_access_iterator_tag@0@PAH@Z 00418980 f i bscript:compiler.obj
 0001:000179f0       ??$__uninitialized_fill_n@PAVUserParam@@IV1@@_STL@@YAPAVUserParam@@PAV1@IABV1@ABU__false_type@0@@Z 004189f0 f i bscript:compiler.obj
 0001:00017a90       ??$_Construct@U?$pair@$$CBV?$basic_string@DV?$char_traits@D@_STL@@V?$allocator@D@2@@_STL@@VExpression@@@_STL@@U12@@_STL@@YAXPAU?$pair@$$CBV?$basic_string@DV?$char_traits@D@_STL@@V?$allocator@D@2@@_STL@@VExpression@@@0@ABU10@@Z 00418a90 f i bscript:compiler.obj
 0001:00017ae0       ?popblock@Scope@@QAEXXZ    00418ae0 f   bscript:compiler.obj
 0001:00017b80       ?leaveblock@Compiler@@AAEXII@Z 00418b80 f   bscript:compiler.obj
 0001:00017bf0       ??1?$set@V?$basic_string@DV?$char_traits@D@_STL@@V?$allocator@D@2@@_STL@@Vci_cmp_pred@@V?$allocator@V?$basic_string@DV?$char_traits@D@_STL@@V?$allocator@D@2@@_STL@@@2@@_STL@@QAE@XZ 00418bf0 f i bscript:compiler.obj
 0001:00017c00       ??1?$map@V?$basic_string@DV?$char_traits@D@_STL@@V?$allocator@D@2@@_STL@@VUserFunction@@Vci_cmp_pred@@V?$allocator@U?$pair@$$CBV?$basic_string@DV?$char_traits@D@_STL@@V?$allocator@D@2@@_STL@@VUserFunction@@@_STL@@@2@@_STL@@QAE@XZ 00418c00 f i bscript:compiler.obj
 0001:00017c10       ?read_function_declarations_in_included_file@Compiler@@QAE_NPBD@Z 00418c10 f   bscript:compiler.obj
 0001:000185f0       ??1?$vector@UBlockDesc@@V?$allocator@UBlockDesc@@@_STL@@@_STL@@QAE@XZ 004195f0 f i bscript:compiler.obj
 0001:000186a0       ??0?$set@V?$basic_string@DV?$char_traits@D@_STL@@V?$allocator@D@2@@_STL@@Vci_cmp_pred@@V?$allocator@V?$basic_string@DV?$char_traits@D@_STL@@V?$allocator@D@2@@_STL@@@2@@_STL@@QAE@XZ 004196a0 f i bscript:compiler.obj
 0001:000186e0       ??0?$map@V?$basic_string@DV?$char_traits@D@_STL@@V?$allocator@D@2@@_STL@@VUserFunction@@Vci_cmp_pred@@V?$allocator@U?$pair@$$CBV?$basic_string@DV?$char_traits@D@_STL@@V?$allocator@D@2@@_STL@@VUserFunction@@@_STL@@@2@@_STL@@QAE@XZ 004196e0 f i bscript:compiler.obj
 0001:00018720       ?clear@?$map@V?$basic_string@DV?$char_traits@D@_STL@@V?$allocator@D@2@@_STL@@VToken@@U?$less@V?$basic_string@DV?$char_traits@D@_STL@@V?$allocator@D@2@@_STL@@@2@V?$allocator@U?$pair@$$CBV?$basic_string@DV?$char_traits@D@_STL@@V?$allocator@D@2@@_STL@@VToken@@@_STL@@@2@@_STL@@QAEXXZ 00419720 f i bscript:compiler.obj
 0001:00018760       ??1?$_Rb_tree@V?$basic_string@DV?$char_traits@D@_STL@@V?$allocator@D@2@@_STL@@U?$pair@$$CBV?$basic_string@DV?$char_traits@D@_STL@@V?$allocator@D@2@@_STL@@VToken@@@2@U?$_Select1st@U?$pair@$$CBV?$basic_string@DV?$char_traits@D@_STL@@V?$allocator@D@2@@_STL@@VToken@@@_STL@@@2@U?$less@V?$basic_string@DV?$char_traits@D@_STL@@V?$allocator@D@2@@_STL@@@2@V?$allocator@U?$pair@$$CBV?$basic_string@DV?$char_traits@D@_STL@@V?$allocator@D@2@@_STL@@VToken@@@_STL@@@2@@_STL@@QAE@XZ 00419760 f i bscript:compiler.obj
 0001:000187e0       ??1?$_Rb_tree@V?$basic_string@DV?$char_traits@D@_STL@@V?$allocator@D@2@@_STL@@U?$pair@$$CBV?$basic_string@DV?$char_traits@D@_STL@@V?$allocator@D@2@@_STL@@VExpression@@@2@U?$_Select1st@U?$pair@$$CBV?$basic_string@DV?$char_traits@D@_STL@@V?$allocator@D@2@@_STL@@VExpression@@@_STL@@@2@U?$less@V?$basic_string@DV?$char_traits@D@_STL@@V?$allocator@D@2@@_STL@@@2@V?$allocator@U?$pair@$$CBV?$basic_string@DV?$char_traits@D@_STL@@V?$allocator@D@2@@_STL@@VExpression@@@_STL@@@2@@_STL@@QAE@XZ 004197e0 f i bscript:compiler.obj
 0001:00018860       ?_M_insert_overflow@?$vector@V?$basic_string@DV?$char_traits@D@_STL@@V?$allocator@D@2@@_STL@@V?$allocator@V?$basic_string@DV?$char_traits@D@_STL@@V?$allocator@D@2@@_STL@@@2@@_STL@@IAEXPAV?$basic_string@DV?$char_traits@D@_STL@@V?$allocator@D@2@@2@ABV32@ABU__false_type@2@I_N@Z 00419860 f i bscript:compiler.obj
 0001:000189c0       ?erase@?$_Rb_tree@V?$basic_string@DV?$char_traits@D@_STL@@V?$allocator@D@2@@_STL@@U?$pair@$$CBV?$basic_string@DV?$char_traits@D@_STL@@V?$allocator@D@2@@_STL@@VExpression@@@2@U?$_Select1st@U?$pair@$$CBV?$basic_string@DV?$char_traits@D@_STL@@V?$allocator@D@2@@_STL@@VExpression@@@_STL@@@2@U?$less@V?$basic_string@DV?$char_traits@D@_STL@@V?$allocator@D@2@@_STL@@@2@V?$allocator@U?$pair@$$CBV?$basic_string@DV?$char_traits@D@_STL@@V?$allocator@D@2@@_STL@@VExpression@@@_STL@@@2@@_STL@@QAEIABV?$basic_string@DV?$char_traits@D@_STL@@V?$allocator@D@2@@2@@Z 004199c0 f i bscript:compiler.obj
 0001:00018a10       ?erase@?$vector@V?$basic_string@DV?$char_traits@D@_STL@@V?$allocator@D@2@@_STL@@V?$allocator@V?$basic_string@DV?$char_traits@D@_STL@@V?$allocator@D@2@@_STL@@@2@@_STL@@QAEPAV?$basic_string@DV?$char_traits@D@_STL@@V?$allocator@D@2@@2@PAV32@0@Z 00419a10 f i bscript:compiler.obj
 0001:00018a60       ??1?$vector@VUserParam@@V?$allocator@VUserParam@@@_STL@@@_STL@@QAE@XZ 00419a60 f i bscript:compiler.obj
 0001:00018b10       ?_M_clear@?$vector@UBlockDesc@@V?$allocator@UBlockDesc@@@_STL@@@_STL@@IAEXXZ 00419b10 f i bscript:compiler.obj
 0001:00018b80       ?_M_fill_insert@?$vector@V?$basic_string@DV?$char_traits@D@_STL@@V?$allocator@D@2@@_STL@@V?$allocator@V?$basic_string@DV?$char_traits@D@_STL@@V?$allocator@D@2@@_STL@@@2@@_STL@@QAEXPAV?$basic_string@DV?$char_traits@D@_STL@@V?$allocator@D@2@@2@IABV32@@Z 00419b80 f i bscript:compiler.obj
 0001:00018d30       ?insert_unique@?$_Rb_tree@V?$basic_string@DV?$char_traits@D@_STL@@V?$allocator@D@2@@_STL@@U?$pair@$$CBV?$basic_string@DV?$char_traits@D@_STL@@V?$allocator@D@2@@_STL@@VToken@@@2@U?$_Select1st@U?$pair@$$CBV?$basic_string@DV?$char_traits@D@_STL@@V?$allocator@D@2@@_STL@@VToken@@@_STL@@@2@U?$less@V?$basic_string@DV?$char_traits@D@_STL@@V?$allocator@D@2@@_STL@@@2@V?$allocator@U?$pair@$$CBV?$basic_string@DV?$char_traits@D@_STL@@V?$allocator@D@2@@_STL@@VToken@@@_STL@@@2@@_STL@@QAE?AU?$pair@U?$_Rb_tree_iterator@U?$pair@$$CBV?$basic_string@DV?$char_traits@D@_STL@@V?$allocator@D@2@@_STL@@VToken@@@_STL@@U?$_Nonconst_traits@U?$pair@$$CBV?$basic_string@DV?$char_traits@D@_STL@@V?$allocator@D@2@@_STL@@VToken@@@_STL@@@2@@_STL@@_N@2@ABU?$pair@$$CBV?$basic_string@DV?$char_traits@D@_STL@@V?$allocator@D@2@@_STL@@VToken@@@2@@Z 00419d30 f i bscript:compiler.obj
 0001:00018e60       ??$tostring@VToken@@@@YA?AV?$basic_string@DV?$char_traits@D@_STL@@V?$allocator@D@2@@_STL@@ABVToken@@@Z 00419e60 f i bscript:compiler.obj
 0001:00018f10       ??$_Destroy@PAUVariable@@@_STL@@YAXPAUVariable@@0@Z 00419f10 f i bscript:compiler.obj
 0001:00018f40       ??$_Destroy@PAUEPExportedFunction@@@_STL@@YAXPAUEPExportedFunction@@0@Z 00419f40 f i bscript:compiler.obj
 0001:00018f70       ??$__uninitialized_copy@PAUVariable@@PAU1@@_STL@@YAPAUVariable@@PAU1@00ABU__false_type@0@@Z 00419f70 f i bscript:compiler.obj
 0001:00019010       ??$__uninitialized_fill_n@PAUVariable@@IU1@@_STL@@YAPAUVariable@@PAU1@IABU1@ABU__false_type@0@@Z 0041a010 f i bscript:compiler.obj
 0001:000190b0       ??$__uninitialized_copy@PBVUserParam@@PAV1@@_STL@@YAPAVUserParam@@PBV1@0PAV1@ABU__false_type@0@@Z 0041a0b0 f i bscript:compiler.obj
 0001:00019150       ??$__copy_ptrs@PAVUserParam@@PAV1@@_STL@@YAPAVUserParam@@PAV1@00ABU__false_type@0@@Z 0041a150 f i bscript:compiler.obj
 0001:00019170       ?_M_insert_overflow@?$vector@VUserParam@@V?$allocator@VUserParam@@@_STL@@@_STL@@IAEXPAVUserParam@@ABV3@ABU__false_type@2@I_N@Z 0041a170 f i bscript:compiler.obj
 0001:000192d0       ??$_M_allocate_and_copy@PBVUserParam@@@?$vector@VUserParam@@V?$allocator@VUserParam@@@_STL@@@_STL@@IAEPAVUserParam@@IPBV2@0@Z 0041a2d0 f i bscript:compiler.obj
 0001:00019380       ??$uninitialized_fill_n@PAVUserParam@@IV1@@_STL@@YAPAVUserParam@@PAV1@IABV1@@Z 0041a380 f i bscript:compiler.obj
 0001:000193a0       ?_M_create_node@?$_Rb_tree@V?$basic_string@DV?$char_traits@D@_STL@@V?$allocator@D@2@@_STL@@U?$pair@$$CBV?$basic_string@DV?$char_traits@D@_STL@@V?$allocator@D@2@@_STL@@VExpression@@@2@U?$_Select1st@U?$pair@$$CBV?$basic_string@DV?$char_traits@D@_STL@@V?$allocator@D@2@@_STL@@VExpression@@@_STL@@@2@U?$less@V?$basic_string@DV?$char_traits@D@_STL@@V?$allocator@D@2@@_STL@@@2@V?$allocator@U?$pair@$$CBV?$basic_string@DV?$char_traits@D@_STL@@V?$allocator@D@2@@_STL@@VExpression@@@_STL@@@2@@_STL@@IAEPAU?$_Rb_tree_node@U?$pair@$$CBV?$basic_string@DV?$char_traits@D@_STL@@V?$allocator@D@2@@_STL@@VExpression@@@_STL@@@2@ABU?$pair@$$CBV?$basic_string@DV?$char_traits@D@_STL@@V?$allocator@D@2@@_STL@@VExpression@@@2@@Z 0041a3a0 f i bscript:compiler.obj
 0001:00019430       ?optimize_binary_operations@Expression@@QAEXXZ 0041a430 f   bscript:compiler.obj
 0001:000195d0       ?optimize_unary_operations@Expression@@QAEXXZ 0041a5d0 f   bscript:compiler.obj
 0001:00019750       ?optimize_token@Expression@@QAE_NH@Z 0041a750 f   bscript:compiler.obj
 0001:00019b90       ?optimize_assignments@Expression@@QAEXXZ 0041ab90 f   bscript:compiler.obj
 0001:00019bd0       ?optimize@Expression@@QAEXXZ 0041abd0 f   bscript:compiler.obj
 0001:00019c30       ??1?$map@V?$basic_string@DV?$char_traits@D@_STL@@V?$allocator@D@2@@_STL@@VToken@@U?$less@V?$basic_string@DV?$char_traits@D@_STL@@V?$allocator@D@2@@_STL@@@2@V?$allocator@U?$pair@$$CBV?$basic_string@DV?$char_traits@D@_STL@@V?$allocator@D@2@@_STL@@VToken@@@_STL@@@2@@_STL@@QAE@XZ 0041ac30 f i bscript:compiler.obj
 0001:00019c40       ??1?$map@V?$basic_string@DV?$char_traits@D@_STL@@V?$allocator@D@2@@_STL@@VExpression@@U?$less@V?$basic_string@DV?$char_traits@D@_STL@@V?$allocator@D@2@@_STL@@@2@V?$allocator@U?$pair@$$CBV?$basic_string@DV?$char_traits@D@_STL@@V?$allocator@D@2@@_STL@@VExpression@@@_STL@@@2@@_STL@@QAE@XZ 0041ac40 f i bscript:compiler.obj
 0001:00019c50       ?validate@Compiler@@ABEHABVExpression@@AAVCompilerContext@@@Z 0041ac50 f   bscript:compiler.obj
 0001:00019ff0       ?readexpr@Compiler@@AAEHAAVExpression@@AAVCompilerContext@@I@Z 0041aff0 f   bscript:compiler.obj
 0001:0001a150       ?getExpr@Compiler@@QAEHAAVCompilerContext@@IPAIPAVExpression@@@Z 0041b150 f   bscript:compiler.obj
 0001:0001a240       ?getExpr2@Compiler@@QAEHAAVCompilerContext@@IPAVExpression@@@Z 0041b240 f   bscript:compiler.obj
 0001:0001a280       ?getExprInParens@Compiler@@QAEHAAVCompilerContext@@PAVExpression@@@Z 0041b280 f   bscript:compiler.obj
 0001:0001a3c0       ?getSimpleExpr@Compiler@@QAEHAAVCompilerContext@@@Z 0041b3c0 f   bscript:compiler.obj
 0001:0001a570       ?handleReturn@Compiler@@QAEHAAVCompilerContext@@@Z 0041b570 f   bscript:compiler.obj
 0001:0001a6e0       ?writeIncludedFilenames@Compiler@@QBEXPBD@Z 0041b6e0 f   bscript:compiler.obj
 0001:0001a860       ?push_back@?$vector@V?$basic_string@DV?$char_traits@D@_STL@@V?$allocator@D@2@@_STL@@V?$allocator@V?$basic_string@DV?$char_traits@D@_STL@@V?$allocator@D@2@@_STL@@@2@@_STL@@QAEXABV?$basic_string@DV?$char_traits@D@_STL@@V?$allocator@D@2@@2@@Z 0041b860 f i bscript:compiler.obj
 0001:0001a8a0       ??1?$vector@UVariable@@V?$allocator@UVariable@@@_STL@@@_STL@@QAE@XZ 0041b8a0 f i bscript:compiler.obj
 0001:0001a950       ??0?$map@V?$basic_string@DV?$char_traits@D@_STL@@V?$allocator@D@2@@_STL@@VToken@@U?$less@V?$basic_string@DV?$char_traits@D@_STL@@V?$allocator@D@2@@_STL@@@2@V?$allocator@U?$pair@$$CBV?$basic_string@DV?$char_traits@D@_STL@@V?$allocator@D@2@@_STL@@VToken@@@_STL@@@2@@_STL@@QAE@XZ 0041b950 f i bscript:compiler.obj
 0001:0001a990       ?insert@?$map@V?$basic_string@DV?$char_traits@D@_STL@@V?$allocator@D@2@@_STL@@VToken@@U?$less@V?$basic_string@DV?$char_traits@D@_STL@@V?$allocator@D@2@@_STL@@@2@V?$allocator@U?$pair@$$CBV?$basic_string@DV?$char_traits@D@_STL@@V?$allocator@D@2@@_STL@@VToken@@@_STL@@@2@@_STL@@QAE?AU?$pair@U?$_Rb_tree_iterator@U?$pair@$$CBV?$basic_string@DV?$char_traits@D@_STL@@V?$allocator@D@2@@_STL@@VToken@@@_STL@@U?$_Nonconst_traits@U?$pair@$$CBV?$basic_string@DV?$char_traits@D@_STL@@V?$allocator@D@2@@_STL@@VToken@@@_STL@@@2@@_STL@@_N@2@ABU?$pair@$$CBV?$basic_string@DV?$char_traits@D@_STL@@V?$allocator@D@2@@_STL@@VToken@@@2@@Z 0041b990 f i bscript:compiler.obj
 0001:0001a9b0       ??0?$map@V?$basic_string@DV?$char_traits@D@_STL@@V?$allocator@D@2@@_STL@@VExpression@@U?$less@V?$basic_string@DV?$char_traits@D@_STL@@V?$allocator@D@2@@_STL@@@2@V?$allocator@U?$pair@$$CBV?$basic_string@DV?$char_traits@D@_STL@@V?$allocator@D@2@@_STL@@VExpression@@@_STL@@@2@@_STL@@QAE@XZ 0041b9b0 f i bscript:compiler.obj
 0001:0001a9f0       ?erase@?$map@V?$basic_string@DV?$char_traits@D@_STL@@V?$allocator@D@2@@_STL@@VExpression@@U?$less@V?$basic_string@DV?$char_traits@D@_STL@@V?$allocator@D@2@@_STL@@@2@V?$allocator@U?$pair@$$CBV?$basic_string@DV?$char_traits@D@_STL@@V?$allocator@D@2@@_STL@@VExpression@@@_STL@@@2@@_STL@@QAEIABV?$basic_string@DV?$char_traits@D@_STL@@V?$allocator@D@2@@2@@Z 0041b9f0 f i bscript:compiler.obj
 0001:0001aa00       ?_M_insert_overflow@?$vector@UBlockDesc@@V?$allocator@UBlockDesc@@@_STL@@@_STL@@IAEXPAUBlockDesc@@ABU3@ABU__false_type@2@I_N@Z 0041ba00 f i bscript:compiler.obj
 0001:0001ab60       ?insert@?$vector@V?$basic_string@DV?$char_traits@D@_STL@@V?$allocator@D@2@@_STL@@V?$allocator@V?$basic_string@DV?$char_traits@D@_STL@@V?$allocator@D@2@@_STL@@@2@@_STL@@QAEXPAV?$basic_string@DV?$char_traits@D@_STL@@V?$allocator@D@2@@2@IABV32@@Z 0041bb60 f i bscript:compiler.obj
 0001:0001ab70       ??0?$vector@VUserParam@@V?$allocator@VUserParam@@@_STL@@@_STL@@QAE@ABV01@@Z 0041bb70 f i bscript:compiler.obj
 0001:0001ac00       ?erase@?$vector@VUserParam@@V?$allocator@VUserParam@@@_STL@@@_STL@@QAEPAVUserParam@@PAV3@0@Z 0041bc00 f i bscript:compiler.obj
 0001:0001ac50       ?_M_clear@?$vector@UEPExportedFunction@@V?$allocator@UEPExportedFunction@@@_STL@@@_STL@@IAEXXZ 0041bc50 f i bscript:compiler.obj
 0001:0001acc0       ?_M_clear@?$vector@UVariable@@V?$allocator@UVariable@@@_STL@@@_STL@@IAEXXZ 0041bcc0 f i bscript:compiler.obj
 0001:0001ad20       ??4?$vector@VUserParam@@V?$allocator@VUserParam@@@_STL@@@_STL@@QAEAAV01@ABV01@@Z 0041bd20 f i bscript:compiler.obj
 0001:0001ae30       ?_M_fill_insert@?$vector@VUserParam@@V?$allocator@VUserParam@@@_STL@@@_STL@@QAEXPAVUserParam@@IABV3@@Z 0041be30 f i bscript:compiler.obj
 0001:0001afc0       ??$__uninitialized_copy@PAUEPExportedFunction@@PAU1@@_STL@@YAPAUEPExportedFunction@@PAU1@00ABU__false_type@0@@Z 0041bfc0 f i bscript:compiler.obj
 0001:0001b050       ??$__uninitialized_fill_n@PAUEPExportedFunction@@IU1@@_STL@@YAPAUEPExportedFunction@@PAU1@IABU1@ABU__false_type@0@@Z 0041c050 f i bscript:compiler.obj
 0001:0001b0e0       ?_M_insert@?$_Rb_tree@V?$basic_string@DV?$char_traits@D@_STL@@V?$allocator@D@2@@_STL@@U?$pair@$$CBV?$basic_string@DV?$char_traits@D@_STL@@V?$allocator@D@2@@_STL@@VExpression@@@2@U?$_Select1st@U?$pair@$$CBV?$basic_string@DV?$char_traits@D@_STL@@V?$allocator@D@2@@_STL@@VExpression@@@_STL@@@2@U?$less@V?$basic_string@DV?$char_traits@D@_STL@@V?$allocator@D@2@@_STL@@@2@V?$allocator@U?$pair@$$CBV?$basic_string@DV?$char_traits@D@_STL@@V?$allocator@D@2@@_STL@@VExpression@@@_STL@@@2@@_STL@@AAE?AU?$_Rb_tree_iterator@U?$pair@$$CBV?$basic_string@DV?$char_traits@D@_STL@@V?$allocator@D@2@@_STL@@VExpression@@@_STL@@U?$_Nonconst_traits@U?$pair@$$CBV?$basic_string@DV?$char_traits@D@_STL@@V?$allocator@D@2@@_STL@@VExpression@@@_STL@@@2@@2@PAU_Rb_tree_node_base@2@0ABU?$pair@$$CBV?$basic_string@DV?$char_traits@D@_STL@@V?$allocator@D@2@@_STL@@VExpression@@@2@0@Z 0041c0e0 f i bscript:compiler.obj
 0001:0001b190       ?insert_unique@?$_Rb_tree@V?$basic_string@DV?$char_traits@D@_STL@@V?$allocator@D@2@@_STL@@U?$pair@$$CBV?$basic_string@DV?$char_traits@D@_STL@@V?$allocator@D@2@@_STL@@VExpression@@@2@U?$_Select1st@U?$pair@$$CBV?$basic_string@DV?$char_traits@D@_STL@@V?$allocator@D@2@@_STL@@VExpression@@@_STL@@@2@U?$less@V?$basic_string@DV?$char_traits@D@_STL@@V?$allocator@D@2@@_STL@@@2@V?$allocator@U?$pair@$$CBV?$basic_string@DV?$char_traits@D@_STL@@V?$allocator@D@2@@_STL@@VExpression@@@_STL@@@2@@_STL@@QAE?AU?$pair@U?$_Rb_tree_iterator@U?$pair@$$CBV?$basic_string@DV?$char_traits@D@_STL@@V?$allocator@D@2@@_STL@@VExpression@@@_STL@@U?$_Nonconst_traits@U?$pair@$$CBV?$basic_string@DV?$char_traits@D@_STL@@V?$allocator@D@2@@_STL@@VExpression@@@_STL@@@2@@_STL@@_N@2@ABU?$pair@$$CBV?$basic_string@DV?$char_traits@D@_STL@@V?$allocator@D@2@@_STL@@VExpression@@@2@@Z 0041c190 f i bscript:compiler.obj
 0001:0001b2c0       ??0Scope@@QAE@XZ           0041c2c0 f i bscript:compiler.obj
 0001:0001b2e0       ??1Scope@@QAE@XZ           0041c2e0 f i bscript:compiler.obj
 0001:0001b330       ??1Compiler@@UAE@XZ        0041c330 f   bscript:compiler.obj
 0001:0001b530       ?getArrayElements@Compiler@@UAEHAAVExpression@@AAVCompilerContext@@@Z 0041c530 f   bscript:compiler.obj
 0001:0001b810       ?getNewArrayElements@Compiler@@UAEHAAVExpression@@AAVCompilerContext@@@Z 0041c810 f   bscript:compiler.obj
 0001:0001bac0       ?getStructMembers@Compiler@@UAEHAAVExpression@@AAVCompilerContext@@@Z 0041cac0 f   bscript:compiler.obj
 0001:0001bef0       ?getDictionaryMembers@Compiler@@UAEHAAVExpression@@AAVCompilerContext@@@Z 0041cef0 f   bscript:compiler.obj
 0001:0001c2d0       ?getMethodArguments@Compiler@@UAEHAAVExpression@@AAVCompilerContext@@AAH@Z 0041d2d0 f   bscript:compiler.obj
 0001:0001c540       ?handleConstDeclare@Compiler@@QAEHAAVCompilerContext@@@Z 0041d540 f   bscript:compiler.obj
 0001:0001c840       ?handleEnumDeclare@Compiler@@QAEHAAVCompilerContext@@@Z 0041d840 f   bscript:compiler.obj
 0001:0001cf10       ?includeModule@Compiler@@QAEHABV?$basic_string@DV?$char_traits@D@_STL@@V?$allocator@D@2@@_STL@@@Z 0041df10 f   bscript:compiler.obj
 0001:0001d8d0       ?handleInclude@Compiler@@QAEHAAVCompilerContext@@@Z 0041e8d0 f   bscript:compiler.obj
 0001:0001daf0       ??4UserFunction@@QAEAAV0@ABV0@@Z 0041eaf0 f i bscript:compiler.obj
 0001:0001db70       ?push_back@?$vector@UBlockDesc@@V?$allocator@UBlockDesc@@@_STL@@@_STL@@QAEXABUBlockDesc@@@Z 0041eb70 f i bscript:compiler.obj
 0001:0001dbb0       ?resize@?$vector@V?$basic_string@DV?$char_traits@D@_STL@@V?$allocator@D@2@@_STL@@V?$allocator@V?$basic_string@DV?$char_traits@D@_STL@@V?$allocator@D@2@@_STL@@@2@@_STL@@QAEXIV?$basic_string@DV?$char_traits@D@_STL@@V?$allocator@D@2@@2@@Z 0041ebb0 f i bscript:compiler.obj
 0001:0001dc80       ?_M_insert_overflow@?$vector@UEPExportedFunction@@V?$allocator@UEPExportedFunction@@@_STL@@@_STL@@IAEXPAUEPExportedFunction@@ABU3@ABU__false_type@2@I_N@Z 0041ec80 f i bscript:compiler.obj
 0001:0001ddd0       ?_M_insert_overflow@?$vector@UVariable@@V?$allocator@UVariable@@@_STL@@@_STL@@IAEXPAUVariable@@ABU3@ABU__false_type@2@I_N@Z 0041edd0 f i bscript:compiler.obj
 0001:0001df30       ??0UserFunction@@QAE@ABV0@@Z 0041ef30 f i bscript:compiler.obj
 0001:0001e020       ?insert@?$vector@VUserParam@@V?$allocator@VUserParam@@@_STL@@@_STL@@QAEXPAVUserParam@@IABV3@@Z 0041f020 f i bscript:compiler.obj
 0001:0001e030       ?insert_unique@?$_Rb_tree@V?$basic_string@DV?$char_traits@D@_STL@@V?$allocator@D@2@@_STL@@U?$pair@$$CBV?$basic_string@DV?$char_traits@D@_STL@@V?$allocator@D@2@@_STL@@VExpression@@@2@U?$_Select1st@U?$pair@$$CBV?$basic_string@DV?$char_traits@D@_STL@@V?$allocator@D@2@@_STL@@VExpression@@@_STL@@@2@U?$less@V?$basic_string@DV?$char_traits@D@_STL@@V?$allocator@D@2@@_STL@@@2@V?$allocator@U?$pair@$$CBV?$basic_string@DV?$char_traits@D@_STL@@V?$allocator@D@2@@_STL@@VExpression@@@_STL@@@2@@_STL@@QAE?AU?$_Rb_tree_iterator@U?$pair@$$CBV?$basic_string@DV?$char_traits@D@_STL@@V?$allocator@D@2@@_STL@@VExpression@@@_STL@@U?$_Nonconst_traits@U?$pair@$$CBV?$basic_string@DV?$char_traits@D@_STL@@V?$allocator@D@2@@_STL@@VExpression@@@_STL@@@2@@2@U32@ABU?$pair@$$CBV?$basic_string@DV?$char_traits@D@_STL@@V?$allocator@D@2@@_STL@@VExpression@@@2@@Z 0041f030 f i bscript:compiler.obj
 0001:0001e2b0       ??0?$pair@$$CBV?$basic_string@DV?$char_traits@D@_STL@@V?$allocator@D@2@@_STL@@VUserFunction@@@_STL@@QAE@ABU01@@Z 0041f2b0 f i bscript:compiler.obj
 0001:0001e310       ?pushblock@Scope@@QAEAAUBlockDesc@@XZ 0041f310 f   bscript:compiler.obj
 0001:0001e3c0       ?enterblock@Compiler@@AAEXW4eb_label_ok@@W4eb_break_ok@@W4eb_continue_ok@@@Z 0041f3c0 f   bscript:compiler.obj
 0001:0001e430       ?enterblock@Compiler@@AAEXW4eb_label_ok@@@Z 0041f430 f   bscript:compiler.obj
 0001:0001e450       ??0Compiler@@QAE@AAV?$basic_ostream@DV?$char_traits@D@_STL@@@_STL@@@Z 0041f450 f   bscript:compiler.obj
 0001:0001e650       ??_GCompiler@@UAEPAXI@Z    0041f650 f i bscript:compiler.obj
 0001:0001e650       ??_ECompiler@@UAEPAXI@Z    0041f650 f i bscript:compiler.obj
 0001:0001e670       ?handleDoClause@Compiler@@QAEHAAVCompilerContext@@H@Z 0041f670 f   bscript:compiler.obj
 0001:0001e870       ?handleRepeatUntil@Compiler@@QAEHAAVCompilerContext@@H@Z 0041f870 f   bscript:compiler.obj
 0001:0001ea70       ?handleSwitch@Compiler@@QAEHAAVCompilerContext@@H@Z 0041fa70 f   bscript:compiler.obj
 0001:0001f720       ?handleBracketedWhile@Compiler@@QAEHAAVCompilerContext@@H@Z 00420720 f   bscript:compiler.obj
 0001:0001f950       ?handleBracketedFor_c@Compiler@@QAEHAAVCompilerContext@@@Z 00420950 f   bscript:compiler.obj
 0001:0001fdd0       ?resize@?$vector@V?$basic_string@DV?$char_traits@D@_STL@@V?$allocator@D@2@@_STL@@V?$allocator@V?$basic_string@DV?$char_traits@D@_STL@@V?$allocator@D@2@@_STL@@@2@@_STL@@QAEXI@Z 00420dd0 f i bscript:compiler.obj
 0001:0001fe00       ?push_back@?$vector@UEPExportedFunction@@V?$allocator@UEPExportedFunction@@@_STL@@@_STL@@QAEXABUEPExportedFunction@@@Z 00420e00 f i bscript:compiler.obj
 0001:0001fe40       ?push_back@?$vector@UVariable@@V?$allocator@UVariable@@@_STL@@@_STL@@QAEXABUVariable@@@Z 00420e40 f i bscript:compiler.obj
 0001:0001fe80       ?resize@?$vector@VUserParam@@V?$allocator@VUserParam@@@_STL@@@_STL@@QAEXIVUserParam@@@Z 00420e80 f i bscript:compiler.obj
 0001:0001ff20       ??0?$pair@$$CBV?$basic_string@DV?$char_traits@D@_STL@@V?$allocator@D@2@@_STL@@VUserFunction@@@_STL@@QAE@ABV?$basic_string@DV?$char_traits@D@_STL@@V?$allocator@D@2@@1@ABVUserFunction@@@Z 00420f20 f i bscript:compiler.obj
 0001:0001ff70       ?insert@?$map@V?$basic_string@DV?$char_traits@D@_STL@@V?$allocator@D@2@@_STL@@VExpression@@U?$less@V?$basic_string@DV?$char_traits@D@_STL@@V?$allocator@D@2@@_STL@@@2@V?$allocator@U?$pair@$$CBV?$basic_string@DV?$char_traits@D@_STL@@V?$allocator@D@2@@_STL@@VExpression@@@_STL@@@2@@_STL@@QAE?AU?$_Rb_tree_iterator@U?$pair@$$CBV?$basic_string@DV?$char_traits@D@_STL@@V?$allocator@D@2@@_STL@@VExpression@@@_STL@@U?$_Nonconst_traits@U?$pair@$$CBV?$basic_string@DV?$char_traits@D@_STL@@V?$allocator@D@2@@_STL@@VExpression@@@_STL@@@2@@2@U32@ABU?$pair@$$CBV?$basic_string@DV?$char_traits@D@_STL@@V?$allocator@D@2@@_STL@@VExpression@@@2@@Z 00420f70 f i bscript:compiler.obj
 0001:0001ff90       ??$_Construct@U?$pair@$$CBV?$basic_string@DV?$char_traits@D@_STL@@V?$allocator@D@2@@_STL@@VUserFunction@@@_STL@@U12@@_STL@@YAXPAU?$pair@$$CBV?$basic_string@DV?$char_traits@D@_STL@@V?$allocator@D@2@@_STL@@VUserFunction@@@0@ABU10@@Z 00420f90 f i bscript:compiler.obj
 0001:0001ffe0       ?addvar@Scope@@QAEXABV?$basic_string@DV?$char_traits@D@_STL@@V?$allocator@D@2@@_STL@@ABVCompilerContext@@_N@Z 00420fe0 f   bscript:compiler.obj
 0001:00020200       ?handleForEach@Compiler@@QAEHAAVCompilerContext@@H@Z 00421200 f   bscript:compiler.obj
 0001:00020820       ?handleVarDeclare@Compiler@@QAEHAAVCompilerContext@@I@Z 00421820 f   bscript:compiler.obj
 0001:00021230       ?handleBracketedFor_basic@Compiler@@QAEHAAVCompilerContext@@@Z 00422230 f   bscript:compiler.obj
 0001:00021960       ?handleFor@Compiler@@QAEHAAVCompilerContext@@@Z 00422960 f   bscript:compiler.obj
 0001:00021a20       ?emitFileLine@Compiler@@QAEXAAVCompilerContext@@@Z 00422a20 f   bscript:compiler.obj
 0001:00021b90       ?emitFileLineIfFileChanged@Compiler@@QAEXAAVCompilerContext@@@Z 00422b90 f   bscript:compiler.obj
 0001:00021d10       ?savesourceline@Compiler@@QAEXXZ 00422d10 f   bscript:compiler.obj
 0001:00021d70       ?resize@?$vector@VUserParam@@V?$allocator@VUserParam@@@_STL@@@_STL@@QAEXI@Z 00422d70 f i bscript:compiler.obj
 0001:00021da0       ??A?$map@V?$basic_string@DV?$char_traits@D@_STL@@V?$allocator@D@2@@_STL@@VExpression@@U?$less@V?$basic_string@DV?$char_traits@D@_STL@@V?$allocator@D@2@@_STL@@@2@V?$allocator@U?$pair@$$CBV?$basic_string@DV?$char_traits@D@_STL@@V?$allocator@D@2@@_STL@@VExpression@@@_STL@@@2@@_STL@@QAEAAVExpression@@ABV?$basic_string@DV?$char_traits@D@_STL@@V?$allocator@D@2@@1@@Z 00422da0 f i bscript:compiler.obj
 0001:00021e90       ?_M_create_node@?$_Rb_tree@V?$basic_string@DV?$char_traits@D@_STL@@V?$allocator@D@2@@_STL@@U?$pair@$$CBV?$basic_string@DV?$char_traits@D@_STL@@V?$allocator@D@2@@_STL@@VUserFunction@@@2@U?$_Select1st@U?$pair@$$CBV?$basic_string@DV?$char_traits@D@_STL@@V?$allocator@D@2@@_STL@@VUserFunction@@@_STL@@@2@Vci_cmp_pred@@V?$allocator@U?$pair@$$CBV?$basic_string@DV?$char_traits@D@_STL@@V?$allocator@D@2@@_STL@@VUserFunction@@@_STL@@@2@@_STL@@IAEPAU?$_Rb_tree_node@U?$pair@$$CBV?$basic_string@DV?$char_traits@D@_STL@@V?$allocator@D@2@@_STL@@VUserFunction@@@_STL@@@2@ABU?$pair@$$CBV?$basic_string@DV?$char_traits@D@_STL@@V?$allocator@D@2@@_STL@@VUserFunction@@@2@@Z 00422e90 f i bscript:compiler.obj
 0001:00021f20       ?getUserArgs@Compiler@@UAEHAAVExpression@@AAVCompilerContext@@_N@Z 00422f20 f   bscript:compiler.obj
 0001:00022840       ?readFunctionDeclaration@Compiler@@QAEHAAVCompilerContext@@AAVUserFunction@@@Z 00423840 f   bscript:compiler.obj
 0001:00022dd0       ?handleBracketedIf@Compiler@@QAEHAAVCompilerContext@@H@Z 00423dd0 f   bscript:compiler.obj
 0001:00023800       ?useModule@Compiler@@QAEHPBD@Z 00424800 f   bscript:compiler.obj
 0001:00024190       ?handleUse@Compiler@@QAEHAAVCompilerContext@@@Z 00425190 f   bscript:compiler.obj
 0001:00024380       ?_getStatement@Compiler@@QAEHAAVCompilerContext@@H@Z 00425380 f   bscript:compiler.obj
 0001:00024d80       ?getStatement@Compiler@@QAEHAAVCompilerContext@@H@Z 00425d80 f   bscript:compiler.obj
 0001:00024ea0       ?_M_insert@?$_Rb_tree@V?$basic_string@DV?$char_traits@D@_STL@@V?$allocator@D@2@@_STL@@U?$pair@$$CBV?$basic_string@DV?$char_traits@D@_STL@@V?$allocator@D@2@@_STL@@VUserFunction@@@2@U?$_Select1st@U?$pair@$$CBV?$basic_string@DV?$char_traits@D@_STL@@V?$allocator@D@2@@_STL@@VUserFunction@@@_STL@@@2@Vci_cmp_pred@@V?$allocator@U?$pair@$$CBV?$basic_string@DV?$char_traits@D@_STL@@V?$allocator@D@2@@_STL@@VUserFunction@@@_STL@@@2@@_STL@@AAE?AU?$_Rb_tree_iterator@U?$pair@$$CBV?$basic_string@DV?$char_traits@D@_STL@@V?$allocator@D@2@@_STL@@VUserFunction@@@_STL@@U?$_Nonconst_traits@U?$pair@$$CBV?$basic_string@DV?$char_traits@D@_STL@@V?$allocator@D@2@@_STL@@VUserFunction@@@_STL@@@2@@2@PAU_Rb_tree_node_base@2@0ABU?$pair@$$CBV?$basic_string@DV?$char_traits@D@_STL@@V?$allocator@D@2@@_STL@@VUserFunction@@@2@0@Z 00425ea0 f i bscript:compiler.obj
 0001:00024f50       ?insert_unique@?$_Rb_tree@V?$basic_string@DV?$char_traits@D@_STL@@V?$allocator@D@2@@_STL@@U?$pair@$$CBV?$basic_string@DV?$char_traits@D@_STL@@V?$allocator@D@2@@_STL@@VUserFunction@@@2@U?$_Select1st@U?$pair@$$CBV?$basic_string@DV?$char_traits@D@_STL@@V?$allocator@D@2@@_STL@@VUserFunction@@@_STL@@@2@Vci_cmp_pred@@V?$allocator@U?$pair@$$CBV?$basic_string@DV?$char_traits@D@_STL@@V?$allocator@D@2@@_STL@@VUserFunction@@@_STL@@@2@@_STL@@QAE?AU?$pair@U?$_Rb_tree_iterator@U?$pair@$$CBV?$basic_string@DV?$char_traits@D@_STL@@V?$allocator@D@2@@_STL@@VUserFunction@@@_STL@@U?$_Nonconst_traits@U?$pair@$$CBV?$basic_string@DV?$char_traits@D@_STL@@V?$allocator@D@2@@_STL@@VUserFunction@@@_STL@@@2@@_STL@@_N@2@ABU?$pair@$$CBV?$basic_string@DV?$char_traits@D@_STL@@V?$allocator@D@2@@_STL@@VUserFunction@@@2@@Z 00425f50 f i bscript:compiler.obj
 0001:00025020       ?handleBlock@Compiler@@QAEHAAVCompilerContext@@H@Z 00426020 f   bscript:compiler.obj
 0001:00025160       ?handleIf@Compiler@@QAEHAAVCompilerContext@@H@Z 00426160 f   bscript:compiler.obj
 0001:000253c0       ?readblock@Compiler@@AAEHAAVCompilerContext@@HW4BTokenId@@PAW43@PAVToken@@@Z 004263c0 f   bscript:compiler.obj
 0001:00025610       ?handleFor_c@Compiler@@QAEHAAVCompilerContext@@@Z 00426610 f   bscript:compiler.obj
 0001:000259f0       ?handleProgram2@Compiler@@QAEHAAVCompilerContext@@H@Z 004269f0 f   bscript:compiler.obj
 0001:00025e90       ?handleBracketedFunction3@Compiler@@QAEHAAVUserFunction@@AAVCompilerContext@@@Z 00426e90 f   bscript:compiler.obj
 0001:00026460       ?compile@Compiler@@QAEHAAVCompilerContext@@@Z 00427460 f   bscript:compiler.obj
 0001:000265a0       ?emit_function@Compiler@@QAEHAAVUserFunction@@@Z 004275a0 f   bscript:compiler.obj
 0001:00026670       ?emit_functions@Compiler@@QAEHXZ 00427670 f   bscript:compiler.obj
 0001:00026720       ?insert_unique@?$_Rb_tree@V?$basic_string@DV?$char_traits@D@_STL@@V?$allocator@D@2@@_STL@@U?$pair@$$CBV?$basic_string@DV?$char_traits@D@_STL@@V?$allocator@D@2@@_STL@@VUserFunction@@@2@U?$_Select1st@U?$pair@$$CBV?$basic_string@DV?$char_traits@D@_STL@@V?$allocator@D@2@@_STL@@VUserFunction@@@_STL@@@2@Vci_cmp_pred@@V?$allocator@U?$pair@$$CBV?$basic_string@DV?$char_traits@D@_STL@@V?$allocator@D@2@@_STL@@VUserFunction@@@_STL@@@2@@_STL@@QAE?AU?$_Rb_tree_iterator@U?$pair@$$CBV?$basic_string@DV?$char_traits@D@_STL@@V?$allocator@D@2@@_STL@@VUserFunction@@@_STL@@U?$_Nonconst_traits@U?$pair@$$CBV?$basic_string@DV?$char_traits@D@_STL@@V?$allocator@D@2@@_STL@@VUserFunction@@@_STL@@@2@@2@U32@ABU?$pair@$$CBV?$basic_string@DV?$char_traits@D@_STL@@V?$allocator@D@2@@_STL@@VUserFunction@@@2@@Z 00427720 f i bscript:compiler.obj
 0001:000269d0       ?insert@?$map@V?$basic_string@DV?$char_traits@D@_STL@@V?$allocator@D@2@@_STL@@VUserFunction@@Vci_cmp_pred@@V?$allocator@U?$pair@$$CBV?$basic_string@DV?$char_traits@D@_STL@@V?$allocator@D@2@@_STL@@VUserFunction@@@_STL@@@2@@_STL@@QAE?AU?$_Rb_tree_iterator@U?$pair@$$CBV?$basic_string@DV?$char_traits@D@_STL@@V?$allocator@D@2@@_STL@@VUserFunction@@@_STL@@U?$_Nonconst_traits@U?$pair@$$CBV?$basic_string@DV?$char_traits@D@_STL@@V?$allocator@D@2@@_STL@@VUserFunction@@@_STL@@@2@@2@U32@ABU?$pair@$$CBV?$basic_string@DV?$char_traits@D@_STL@@V?$allocator@D@2@@_STL@@VUserFunction@@@2@@Z 004279d0 f i bscript:compiler.obj
 0001:000269f0       ??A?$map@V?$basic_string@DV?$char_traits@D@_STL@@V?$allocator@D@2@@_STL@@VUserFunction@@Vci_cmp_pred@@V?$allocator@U?$pair@$$CBV?$basic_string@DV?$char_traits@D@_STL@@V?$allocator@D@2@@_STL@@VUserFunction@@@_STL@@@2@@_STL@@QAEAAVUserFunction@@ABV?$basic_string@DV?$char_traits@D@_STL@@V?$allocator@D@2@@1@@Z 004279f0 f i bscript:compiler.obj
 0001:00026ad0       ?handleFunction@Compiler@@QAEHAAVCompilerContext@@@Z 00427ad0 f   bscript:compiler.obj
 0001:00027050       ?handleBracketedFunction@Compiler@@QAEHAAVCompilerContext@@@Z 00428050 f   bscript:compiler.obj
 0001:000275f0       ?forward_read_function@Compiler@@QAEHAAVCompilerContext@@@Z 004285f0 f   bscript:compiler.obj
 0001:00027aa0       ?inner_read_function_declarations@Compiler@@QAE_NABVCompilerContext@@@Z 00428aa0 f   bscript:compiler.obj
 0001:00027f20       ?read_function_declarations@Compiler@@QAE_NABVCompilerContext@@@Z 00428f20 f   bscript:compiler.obj
 0001:00027fb0       ?compileFile@Compiler@@QAEHPBD@Z 00428fb0 f   bscript:compiler.obj
 0001:000282b0       ?SetDefaults@CompilerConfig@@QAEXXZ 004292b0 f   bscript:compilercfg.obj
 0001:000284e0       ??0CompilerConfig@@QAE@XZ  004294e0 f i bscript:compilercfg.obj
 0001:00028540       ??1CompilerConfig@@QAE@XZ  00429540 f i bscript:compilercfg.obj
 0001:00028610       ?clear@?$vector@V?$basic_string@DV?$char_traits@D@_STL@@V?$allocator@D@2@@_STL@@V?$allocator@V?$basic_string@DV?$char_traits@D@_STL@@V?$allocator@D@2@@_STL@@@2@@_STL@@QAEXXZ 00429610 f i bscript:compilercfg.obj
 0001:00028620       ?Read@CompilerConfig@@QAEXABV?$basic_string@DV?$char_traits@D@_STL@@V?$allocator@D@2@@_STL@@@Z 00429620 f   bscript:compilercfg.obj
 0001:00028aa0       ?getKnownObjMember@@YAPAUObjMember@@PBD@Z 00429aa0 f   bscript:parser.obj
 0001:00028af0       ?getObjMember@@YAPAUObjMember@@H@Z 00429af0 f   bscript:parser.obj
 0001:00028b10       ?getKnownObjMethod@@YAPAUObjMethod@@PBD@Z 00429b10 f   bscript:parser.obj
 0001:00028b60       ?getObjMethod@@YAPAUObjMethod@@H@Z 00429b60 f   bscript:parser.obj
 0001:00028b80       ?matchOperators@@YAXPAUOperator@@HPADPAHPAPAU1@@Z 00429b80 f   bscript:parser.obj
 0001:00028c20       ?tryOperator@Parser@@UAEHAAVToken@@PBDPAPBDPAUOperator@@HPAD@Z 00429c20 f   bscript:parser.obj
 0001:00028d20       ?tryBinaryOperator@Parser@@UAEHAAVToken@@AAVCompilerContext@@@Z 00429d20 f   bscript:parser.obj
 0001:00028d50       ?tryUnaryOperator@Parser@@UAEHAAVToken@@AAVCompilerContext@@@Z 00429d50 f   bscript:parser.obj
 0001:00028d80       ?tryNumeric@Parser@@UAEHAAVToken@@AAVCompilerContext@@@Z 00429d80 f   bscript:parser.obj
 0001:00028e10       ?recognize_binary@Parser@@UAEHAAVToken@@PBDPAPBD@Z 00429e10 f   bscript:parser.obj
 0001:00028e90       ?recognize_unary@Parser@@UAEHAAVToken@@PBD@Z 00429e90 f   bscript:parser.obj
 0001:00028f10       ?recognize@Parser@@UAEHAAVToken@@PBDPAPBD@Z 00429f10 f   bscript:parser.obj
 0001:00028f50       ?find_precedence@@YA?AW4Precedence@@AAVToken@@@Z 00429f50 f   bscript:parser.obj
 0001:00028f60       ??D?$_Rb_tree_iterator@U?$pair@$$CBV?$basic_string@DV?$char_traits@D@_STL@@V?$allocator@D@2@@_STL@@PAUReservedWord@@@_STL@@U?$_Nonconst_traits@U?$pair@$$CBV?$basic_string@DV?$char_traits@D@_STL@@V?$allocator@D@2@@_STL@@PAUReservedWord@@@_STL@@@2@@_STL@@QBEAAU?$pair@$$CBV?$basic_string@DV?$char_traits@D@_STL@@V?$allocator@D@2@@_STL@@PAUReservedWord@@@1@XZ 00429f60 f i bscript:parser.obj
 0001:00028f70       ??0?$allocator@U?$pair@$$CBV?$basic_string@DV?$char_traits@D@_STL@@V?$allocator@D@2@@_STL@@PAUReservedWord@@@_STL@@@_STL@@QAE@XZ 00429f70 f i bscript:parser.obj
 0001:00028f80       ??1?$allocator@U?$pair@$$CBV?$basic_string@DV?$char_traits@D@_STL@@V?$allocator@D@2@@_STL@@PAUReservedWord@@@_STL@@@_STL@@QAE@XZ 00429f80 f i bscript:parser.obj
 0001:00028f90       ??0?$_Rb_tree_iterator@U?$pair@$$CBV?$basic_string@DV?$char_traits@D@_STL@@V?$allocator@D@2@@_STL@@PAUReservedWord@@@_STL@@U?$_Nonconst_traits@U?$pair@$$CBV?$basic_string@DV?$char_traits@D@_STL@@V?$allocator@D@2@@_STL@@PAUReservedWord@@@_STL@@@2@@_STL@@QAE@ABU01@@Z 00429f90 f i bscript:parser.obj
 0001:00028fa0       ?_M_root@?$_Rb_tree@V?$basic_string@DV?$char_traits@D@_STL@@V?$allocator@D@2@@_STL@@U?$pair@$$CBV?$basic_string@DV?$char_traits@D@_STL@@V?$allocator@D@2@@_STL@@PAUReservedWord@@@2@U?$_Select1st@U?$pair@$$CBV?$basic_string@DV?$char_traits@D@_STL@@V?$allocator@D@2@@_STL@@PAUReservedWord@@@_STL@@@2@Vci_cmp_pred@@V?$allocator@U?$pair@$$CBV?$basic_string@DV?$char_traits@D@_STL@@V?$allocator@D@2@@_STL@@PAUReservedWord@@@_STL@@@2@@_STL@@IBEAAPAU?$_Rb_tree_node@U?$pair@$$CBV?$basic_string@DV?$char_traits@D@_STL@@V?$allocator@D@2@@_STL@@PAUReservedWord@@@_STL@@@2@XZ 00429fa0 f i bscript:parser.obj
 0001:00028fb0       ?_M_leftmost@?$_Rb_tree@V?$basic_string@DV?$char_traits@D@_STL@@V?$allocator@D@2@@_STL@@U?$pair@$$CBV?$basic_string@DV?$char_traits@D@_STL@@V?$allocator@D@2@@_STL@@PAUReservedWord@@@2@U?$_Select1st@U?$pair@$$CBV?$basic_string@DV?$char_traits@D@_STL@@V?$allocator@D@2@@_STL@@PAUReservedWord@@@_STL@@@2@Vci_cmp_pred@@V?$allocator@U?$pair@$$CBV?$basic_string@DV?$char_traits@D@_STL@@V?$allocator@D@2@@_STL@@PAUReservedWord@@@_STL@@@2@@_STL@@IBEAAPAU?$_Rb_tree_node@U?$pair@$$CBV?$basic_string@DV?$char_traits@D@_STL@@V?$allocator@D@2@@_STL@@PAUReservedWord@@@_STL@@@2@XZ 00429fb0 f i bscript:parser.obj
 0001:00028fc0       ?_M_rightmost@?$_Rb_tree@V?$basic_string@DV?$char_traits@D@_STL@@V?$allocator@D@2@@_STL@@U?$pair@$$CBV?$basic_string@DV?$char_traits@D@_STL@@V?$allocator@D@2@@_STL@@PAUReservedWord@@@2@U?$_Select1st@U?$pair@$$CBV?$basic_string@DV?$char_traits@D@_STL@@V?$allocator@D@2@@_STL@@PAUReservedWord@@@_STL@@@2@Vci_cmp_pred@@V?$allocator@U?$pair@$$CBV?$basic_string@DV?$char_traits@D@_STL@@V?$allocator@D@2@@_STL@@PAUReservedWord@@@_STL@@@2@@_STL@@IBEAAPAU?$_Rb_tree_node@U?$pair@$$CBV?$basic_string@DV?$char_traits@D@_STL@@V?$allocator@D@2@@_STL@@PAUReservedWord@@@_STL@@@2@XZ 00429fc0 f i bscript:parser.obj
 0001:00028fd0       ?key_comp@?$_Rb_tree@V?$basic_string@DV?$char_traits@D@_STL@@V?$allocator@D@2@@_STL@@U?$pair@$$CBV?$basic_string@DV?$char_traits@D@_STL@@V?$allocator@D@2@@_STL@@PAUReservedWord@@@2@U?$_Select1st@U?$pair@$$CBV?$basic_string@DV?$char_traits@D@_STL@@V?$allocator@D@2@@_STL@@PAUReservedWord@@@_STL@@@2@Vci_cmp_pred@@V?$allocator@U?$pair@$$CBV?$basic_string@DV?$char_traits@D@_STL@@V?$allocator@D@2@@_STL@@PAUReservedWord@@@_STL@@@2@@_STL@@QBE?AVci_cmp_pred@@XZ 00429fd0 f i bscript:parser.obj
 0001:00028fe0       ??1?$allocator@U?$_Rb_tree_node@U?$pair@$$CBV?$basic_string@DV?$char_traits@D@_STL@@V?$allocator@D@2@@_STL@@PAUReservedWord@@@_STL@@@_STL@@@_STL@@QAE@XZ 00429fe0 f i bscript:parser.obj
 0001:00028ff0       ??0?$_Rb_tree_iterator@U?$pair@$$CBV?$basic_string@DV?$char_traits@D@_STL@@V?$allocator@D@2@@_STL@@PAUReservedWord@@@_STL@@U?$_Nonconst_traits@U?$pair@$$CBV?$basic_string@DV?$char_traits@D@_STL@@V?$allocator@D@2@@_STL@@PAUReservedWord@@@_STL@@@2@@_STL@@QAE@PAU?$_Rb_tree_node@U?$pair@$$CBV?$basic_string@DV?$char_traits@D@_STL@@V?$allocator@D@2@@_STL@@PAUReservedWord@@@_STL@@@1@@Z 00429ff0 f i bscript:parser.obj
 0001:00029000       ?_S_color@?$_Rb_tree@V?$basic_string@DV?$char_traits@D@_STL@@V?$allocator@D@2@@_STL@@U?$pair@$$CBV?$basic_string@DV?$char_traits@D@_STL@@V?$allocator@D@2@@_STL@@PAUReservedWord@@@2@U?$_Select1st@U?$pair@$$CBV?$basic_string@DV?$char_traits@D@_STL@@V?$allocator@D@2@@_STL@@PAUReservedWord@@@_STL@@@2@Vci_cmp_pred@@V?$allocator@U?$pair@$$CBV?$basic_string@DV?$char_traits@D@_STL@@V?$allocator@D@2@@_STL@@PAUReservedWord@@@_STL@@@2@@_STL@@KAAA_NPAU?$_Rb_tree_node@U?$pair@$$CBV?$basic_string@DV?$char_traits@D@_STL@@V?$allocator@D@2@@_STL@@PAUReservedWord@@@_STL@@@2@@Z 0042a000 f i bscript:parser.obj
 0001:00029010       ?_S_left@?$_Rb_tree@V?$basic_string@DV?$char_traits@D@_STL@@V?$allocator@D@2@@_STL@@U?$pair@$$CBV?$basic_string@DV?$char_traits@D@_STL@@V?$allocator@D@2@@_STL@@PAUReservedWord@@@2@U?$_Select1st@U?$pair@$$CBV?$basic_string@DV?$char_traits@D@_STL@@V?$allocator@D@2@@_STL@@PAUReservedWord@@@_STL@@@2@Vci_cmp_pred@@V?$allocator@U?$pair@$$CBV?$basic_string@DV?$char_traits@D@_STL@@V?$allocator@D@2@@_STL@@PAUReservedWord@@@_STL@@@2@@_STL@@KAAAPAU?$_Rb_tree_node@U?$pair@$$CBV?$basic_string@DV?$char_traits@D@_STL@@V?$allocator@D@2@@_STL@@PAUReservedWord@@@_STL@@@2@PAU32@@Z 0042a010 f i bscript:parser.obj
 0001:00029020       ?_S_right@?$_Rb_tree@V?$basic_string@DV?$char_traits@D@_STL@@V?$allocator@D@2@@_STL@@U?$pair@$$CBV?$basic_string@DV?$char_traits@D@_STL@@V?$allocator@D@2@@_STL@@PAUReservedWord@@@2@U?$_Select1st@U?$pair@$$CBV?$basic_string@DV?$char_traits@D@_STL@@V?$allocator@D@2@@_STL@@PAUReservedWord@@@_STL@@@2@Vci_cmp_pred@@V?$allocator@U?$pair@$$CBV?$basic_string@DV?$char_traits@D@_STL@@V?$allocator@D@2@@_STL@@PAUReservedWord@@@_STL@@@2@@_STL@@KAAAPAU?$_Rb_tree_node@U?$pair@$$CBV?$basic_string@DV?$char_traits@D@_STL@@V?$allocator@D@2@@_STL@@PAUReservedWord@@@_STL@@@2@PAU32@@Z 0042a020 f i bscript:parser.obj
 0001:00029030       ??0?$allocator@U?$_Rb_tree_node@U?$pair@$$CBV?$basic_string@DV?$char_traits@D@_STL@@V?$allocator@D@2@@_STL@@PAUReservedWord@@@_STL@@@_STL@@@_STL@@QAE@ABV01@@Z 0042a030 f i bscript:parser.obj
 0001:00029040       ?_S_value@?$_Rb_tree@V?$basic_string@DV?$char_traits@D@_STL@@V?$allocator@D@2@@_STL@@U?$pair@$$CBV?$basic_string@DV?$char_traits@D@_STL@@V?$allocator@D@2@@_STL@@PAUReservedWord@@@2@U?$_Select1st@U?$pair@$$CBV?$basic_string@DV?$char_traits@D@_STL@@V?$allocator@D@2@@_STL@@PAUReservedWord@@@_STL@@@2@Vci_cmp_pred@@V?$allocator@U?$pair@$$CBV?$basic_string@DV?$char_traits@D@_STL@@V?$allocator@D@2@@_STL@@PAUReservedWord@@@_STL@@@2@@_STL@@KAAAU?$pair@$$CBV?$basic_string@DV?$char_traits@D@_STL@@V?$allocator@D@2@@_STL@@PAUReservedWord@@@2@PAU?$_Rb_tree_node@U?$pair@$$CBV?$basic_string@DV?$char_traits@D@_STL@@V?$allocator@D@2@@_STL@@PAUReservedWord@@@_STL@@@2@@Z 0042a040 f i bscript:parser.obj
 0001:00029050       ??R?$_Select1st@U?$pair@$$CBV?$basic_string@DV?$char_traits@D@_STL@@V?$allocator@D@2@@_STL@@PAUReservedWord@@@_STL@@@_STL@@QBEABV?$basic_string@DV?$char_traits@D@_STL@@V?$allocator@D@2@@1@ABU?$pair@$$CBV?$basic_string@DV?$char_traits@D@_STL@@V?$allocator@D@2@@_STL@@PAUReservedWord@@@1@@Z 0042a050 f i bscript:parser.obj
 0001:00029060       ??$?0U?$pair@$$CBV?$basic_string@DV?$char_traits@D@_STL@@V?$allocator@D@2@@_STL@@PAUReservedWord@@@_STL@@@?$allocator@U?$_Rb_tree_node@U?$pair@$$CBV?$basic_string@DV?$char_traits@D@_STL@@V?$allocator@D@2@@_STL@@PAUReservedWord@@@_STL@@@_STL@@@_STL@@QAE@ABV?$allocator@U?$pair@$$CBV?$basic_string@DV?$char_traits@D@_STL@@V?$allocator@D@2@@_STL@@PAUReservedWord@@@_STL@@@1@@Z 0042a060 f i bscript:parser.obj
 0001:00029070       ?_S_right@?$_Rb_tree@V?$basic_string@DV?$char_traits@D@_STL@@V?$allocator@D@2@@_STL@@U?$pair@$$CBV?$basic_string@DV?$char_traits@D@_STL@@V?$allocator@D@2@@_STL@@PAUReservedWord@@@2@U?$_Select1st@U?$pair@$$CBV?$basic_string@DV?$char_traits@D@_STL@@V?$allocator@D@2@@_STL@@PAUReservedWord@@@_STL@@@2@Vci_cmp_pred@@V?$allocator@U?$pair@$$CBV?$basic_string@DV?$char_traits@D@_STL@@V?$allocator@D@2@@_STL@@PAUReservedWord@@@_STL@@@2@@_STL@@KAAAPAU?$_Rb_tree_node@U?$pair@$$CBV?$basic_string@DV?$char_traits@D@_STL@@V?$allocator@D@2@@_STL@@PAUReservedWord@@@_STL@@@2@PAU_Rb_tree_node_base@2@@Z 0042a070 f i bscript:parser.obj
 0001:00029080       ?_S_key@?$_Rb_tree@V?$basic_string@DV?$char_traits@D@_STL@@V?$allocator@D@2@@_STL@@U?$pair@$$CBV?$basic_string@DV?$char_traits@D@_STL@@V?$allocator@D@2@@_STL@@PAUReservedWord@@@2@U?$_Select1st@U?$pair@$$CBV?$basic_string@DV?$char_traits@D@_STL@@V?$allocator@D@2@@_STL@@PAUReservedWord@@@_STL@@@2@Vci_cmp_pred@@V?$allocator@U?$pair@$$CBV?$basic_string@DV?$char_traits@D@_STL@@V?$allocator@D@2@@_STL@@PAUReservedWord@@@_STL@@@2@@_STL@@KAABV?$basic_string@DV?$char_traits@D@_STL@@V?$allocator@D@2@@2@PAU_Rb_tree_node_base@2@@Z 0042a080 f i bscript:parser.obj
 0001:00029090       ?size@?$_Rb_tree@V?$basic_string@DV?$char_traits@D@_STL@@V?$allocator@D@2@@_STL@@U?$pair@$$CBV?$basic_string@DV?$char_traits@D@_STL@@V?$allocator@D@2@@_STL@@PAUReservedWord@@@2@U?$_Select1st@U?$pair@$$CBV?$basic_string@DV?$char_traits@D@_STL@@V?$allocator@D@2@@_STL@@PAUReservedWord@@@_STL@@@2@Vci_cmp_pred@@V?$allocator@U?$pair@$$CBV?$basic_string@DV?$char_traits@D@_STL@@V?$allocator@D@2@@_STL@@PAUReservedWord@@@_STL@@@2@@_STL@@QBEIXZ 0042a090 f i bscript:parser.obj
 0001:000290a0       ??E?$_Rb_tree_iterator@U?$pair@$$CBV?$basic_string@DV?$char_traits@D@_STL@@V?$allocator@D@2@@_STL@@PAUReservedWord@@@_STL@@U?$_Nonconst_traits@U?$pair@$$CBV?$basic_string@DV?$char_traits@D@_STL@@V?$allocator@D@2@@_STL@@PAUReservedWord@@@_STL@@@2@@_STL@@QAEAAU01@XZ 0042a0a0 f i bscript:parser.obj
 0001:000290c0       ??F?$_Rb_tree_iterator@U?$pair@$$CBV?$basic_string@DV?$char_traits@D@_STL@@V?$allocator@D@2@@_STL@@PAUReservedWord@@@_STL@@U?$_Nonconst_traits@U?$pair@$$CBV?$basic_string@DV?$char_traits@D@_STL@@V?$allocator@D@2@@_STL@@PAUReservedWord@@@_STL@@@2@@_STL@@QAEAAU01@XZ 0042a0c0 f i bscript:parser.obj
 0001:000290e0       ?_S_parent@?$_Rb_tree@V?$basic_string@DV?$char_traits@D@_STL@@V?$allocator@D@2@@_STL@@U?$pair@$$CBV?$basic_string@DV?$char_traits@D@_STL@@V?$allocator@D@2@@_STL@@PAUReservedWord@@@2@U?$_Select1st@U?$pair@$$CBV?$basic_string@DV?$char_traits@D@_STL@@V?$allocator@D@2@@_STL@@PAUReservedWord@@@_STL@@@2@Vci_cmp_pred@@V?$allocator@U?$pair@$$CBV?$basic_string@DV?$char_traits@D@_STL@@V?$allocator@D@2@@_STL@@PAUReservedWord@@@_STL@@@2@@_STL@@KAAAPAU?$_Rb_tree_node@U?$pair@$$CBV?$basic_string@DV?$char_traits@D@_STL@@V?$allocator@D@2@@_STL@@PAUReservedWord@@@_STL@@@2@PAU32@@Z 0042a0e0 f i bscript:parser.obj
 0001:000290f0       ?begin@?$_Rb_tree@V?$basic_string@DV?$char_traits@D@_STL@@V?$allocator@D@2@@_STL@@U?$pair@$$CBV?$basic_string@DV?$char_traits@D@_STL@@V?$allocator@D@2@@_STL@@PAUReservedWord@@@2@U?$_Select1st@U?$pair@$$CBV?$basic_string@DV?$char_traits@D@_STL@@V?$allocator@D@2@@_STL@@PAUReservedWord@@@_STL@@@2@Vci_cmp_pred@@V?$allocator@U?$pair@$$CBV?$basic_string@DV?$char_traits@D@_STL@@V?$allocator@D@2@@_STL@@PAUReservedWord@@@_STL@@@2@@_STL@@QAE?AU?$_Rb_tree_iterator@U?$pair@$$CBV?$basic_string@DV?$char_traits@D@_STL@@V?$allocator@D@2@@_STL@@PAUReservedWord@@@_STL@@U?$_Nonconst_traits@U?$pair@$$CBV?$basic_string@DV?$char_traits@D@_STL@@V?$allocator@D@2@@_STL@@PAUReservedWord@@@_STL@@@2@@2@XZ 0042a0f0 f i bscript:parser.obj
 0001:00029100       ??0?$pair@U?$_Rb_tree_iterator@U?$pair@$$CBV?$basic_string@DV?$char_traits@D@_STL@@V?$allocator@D@2@@_STL@@PAUReservedWord@@@_STL@@U?$_Nonconst_traits@U?$pair@$$CBV?$basic_string@DV?$char_traits@D@_STL@@V?$allocator@D@2@@_STL@@PAUReservedWord@@@_STL@@@2@@_STL@@_N@_STL@@QAE@ABU?$_Rb_tree_iterator@U?$pair@$$CBV?$basic_string@DV?$char_traits@D@_STL@@V?$allocator@D@2@@_STL@@PAUReservedWord@@@_STL@@U?$_Nonconst_traits@U?$pair@$$CBV?$basic_string@DV?$char_traits@D@_STL@@V?$allocator@D@2@@_STL@@PAUReservedWord@@@_STL@@@2@@1@AB_N@Z 0042a100 f i bscript:parser.obj
 0001:00029120       ?key_comp@?$map@V?$basic_string@DV?$char_traits@D@_STL@@V?$allocator@D@2@@_STL@@PAUReservedWord@@Vci_cmp_pred@@V?$allocator@U?$pair@$$CBV?$basic_string@DV?$char_traits@D@_STL@@V?$allocator@D@2@@_STL@@PAUReservedWord@@@_STL@@@2@@_STL@@QBE?AVci_cmp_pred@@XZ 0042a120 f i bscript:parser.obj
 0001:00029130       ?end@?$_Rb_tree@V?$basic_string@DV?$char_traits@D@_STL@@V?$allocator@D@2@@_STL@@U?$pair@$$CBV?$basic_string@DV?$char_traits@D@_STL@@V?$allocator@D@2@@_STL@@PAUReservedWord@@@2@U?$_Select1st@U?$pair@$$CBV?$basic_string@DV?$char_traits@D@_STL@@V?$allocator@D@2@@_STL@@PAUReservedWord@@@_STL@@@2@Vci_cmp_pred@@V?$allocator@U?$pair@$$CBV?$basic_string@DV?$char_traits@D@_STL@@V?$allocator@D@2@@_STL@@PAUReservedWord@@@_STL@@@2@@_STL@@QAE?AU?$_Rb_tree_iterator@U?$pair@$$CBV?$basic_string@DV?$char_traits@D@_STL@@V?$allocator@D@2@@_STL@@PAUReservedWord@@@_STL@@U?$_Nonconst_traits@U?$pair@$$CBV?$basic_string@DV?$char_traits@D@_STL@@V?$allocator@D@2@@_STL@@PAUReservedWord@@@_STL@@@2@@2@XZ 0042a130 f i bscript:parser.obj
 0001:00029140       ??1?$_STLP_alloc_proxy@PAU?$_Rb_tree_node@U?$pair@$$CBV?$basic_string@DV?$char_traits@D@_STL@@V?$allocator@D@2@@_STL@@PAUReservedWord@@@_STL@@@_STL@@U12@V?$allocator@U?$_Rb_tree_node@U?$pair@$$CBV?$basic_string@DV?$char_traits@D@_STL@@V?$allocator@D@2@@_STL@@PAUReservedWord@@@_STL@@@_STL@@@2@@_STL@@QAE@XZ 0042a140 f i bscript:parser.obj
 0001:00029150       ?_M_empty_initialize@?$_Rb_tree@V?$basic_string@DV?$char_traits@D@_STL@@V?$allocator@D@2@@_STL@@U?$pair@$$CBV?$basic_string@DV?$char_traits@D@_STL@@V?$allocator@D@2@@_STL@@PAUReservedWord@@@2@U?$_Select1st@U?$pair@$$CBV?$basic_string@DV?$char_traits@D@_STL@@V?$allocator@D@2@@_STL@@PAUReservedWord@@@_STL@@@2@Vci_cmp_pred@@V?$allocator@U?$pair@$$CBV?$basic_string@DV?$char_traits@D@_STL@@V?$allocator@D@2@@_STL@@PAUReservedWord@@@_STL@@@2@@_STL@@AAEXXZ 0042a150 f i bscript:parser.obj
 0001:00029170       ?deallocate@?$allocator@U?$_Rb_tree_node@U?$pair@$$CBV?$basic_string@DV?$char_traits@D@_STL@@V?$allocator@D@2@@_STL@@PAUReservedWord@@@_STL@@@_STL@@@_STL@@QAEXPAU?$_Rb_tree_node@U?$pair@$$CBV?$basic_string@DV?$char_traits@D@_STL@@V?$allocator@D@2@@_STL@@PAUReservedWord@@@_STL@@@2@I@Z 0042a170 f i bscript:parser.obj
 0001:000291a0       ??0?$_STLP_alloc_proxy@PAU?$_Rb_tree_node@U?$pair@$$CBV?$basic_string@DV?$char_traits@D@_STL@@V?$allocator@D@2@@_STL@@PAUReservedWord@@@_STL@@@_STL@@U12@V?$allocator@U?$_Rb_tree_node@U?$pair@$$CBV?$basic_string@DV?$char_traits@D@_STL@@V?$allocator@D@2@@_STL@@PAUReservedWord@@@_STL@@@_STL@@@2@@_STL@@QAE@ABV?$allocator@U?$_Rb_tree_node@U?$pair@$$CBV?$basic_string@DV?$char_traits@D@_STL@@V?$allocator@D@2@@_STL@@PAUReservedWord@@@_STL@@@_STL@@@1@PAU?$_Rb_tree_node@U?$pair@$$CBV?$basic_string@DV?$char_traits@D@_STL@@V?$allocator@D@2@@_STL@@PAUReservedWord@@@_STL@@@1@@Z 0042a1a0 f i bscript:parser.obj
 0001:000291b0       ?allocate@?$allocator@U?$_Rb_tree_node@U?$pair@$$CBV?$basic_string@DV?$char_traits@D@_STL@@V?$allocator@D@2@@_STL@@PAUReservedWord@@@_STL@@@_STL@@@_STL@@QAEPAU?$_Rb_tree_node@U?$pair@$$CBV?$basic_string@DV?$char_traits@D@_STL@@V?$allocator@D@2@@_STL@@PAUReservedWord@@@_STL@@@2@IPBX@Z 0042a1b0 f i bscript:parser.obj
 0001:000291e0       ?_S_key@?$_Rb_tree@V?$basic_string@DV?$char_traits@D@_STL@@V?$allocator@D@2@@_STL@@U?$pair@$$CBV?$basic_string@DV?$char_traits@D@_STL@@V?$allocator@D@2@@_STL@@PAUReservedWord@@@2@U?$_Select1st@U?$pair@$$CBV?$basic_string@DV?$char_traits@D@_STL@@V?$allocator@D@2@@_STL@@PAUReservedWord@@@_STL@@@2@Vci_cmp_pred@@V?$allocator@U?$pair@$$CBV?$basic_string@DV?$char_traits@D@_STL@@V?$allocator@D@2@@_STL@@PAUReservedWord@@@_STL@@@2@@_STL@@KAABV?$basic_string@DV?$char_traits@D@_STL@@V?$allocator@D@2@@2@PAU?$_Rb_tree_node@U?$pair@$$CBV?$basic_string@DV?$char_traits@D@_STL@@V?$allocator@D@2@@_STL@@PAUReservedWord@@@_STL@@@2@@Z 0042a1e0 f i bscript:parser.obj
 0001:000291f0       ??$_M_find@V?$basic_string@DV?$char_traits@D@_STL@@V?$allocator@D@2@@_STL@@@?$_Rb_tree@V?$basic_string@DV?$char_traits@D@_STL@@V?$allocator@D@2@@_STL@@U?$pair@$$CBV?$basic_string@DV?$char_traits@D@_STL@@V?$allocator@D@2@@_STL@@PAUReservedWord@@@2@U?$_Select1st@U?$pair@$$CBV?$basic_string@DV?$char_traits@D@_STL@@V?$allocator@D@2@@_STL@@PAUReservedWord@@@_STL@@@2@Vci_cmp_pred@@V?$allocator@U?$pair@$$CBV?$basic_string@DV?$char_traits@D@_STL@@V?$allocator@D@2@@_STL@@PAUReservedWord@@@_STL@@@2@@_STL@@ABEPAU?$_Rb_tree_node@U?$pair@$$CBV?$basic_string@DV?$char_traits@D@_STL@@V?$allocator@D@2@@_STL@@PAUReservedWord@@@_STL@@@1@ABV?$basic_string@DV?$char_traits@D@_STL@@V?$allocator@D@2@@1@@Z 0042a1f0 f i bscript:parser.obj
 0001:00029250       ?end@?$map@V?$basic_string@DV?$char_traits@D@_STL@@V?$allocator@D@2@@_STL@@PAUReservedWord@@Vci_cmp_pred@@V?$allocator@U?$pair@$$CBV?$basic_string@DV?$char_traits@D@_STL@@V?$allocator@D@2@@_STL@@PAUReservedWord@@@_STL@@@2@@_STL@@QAE?AU?$_Rb_tree_iterator@U?$pair@$$CBV?$basic_string@DV?$char_traits@D@_STL@@V?$allocator@D@2@@_STL@@PAUReservedWord@@@_STL@@U?$_Nonconst_traits@U?$pair@$$CBV?$basic_string@DV?$char_traits@D@_STL@@V?$allocator@D@2@@_STL@@PAUReservedWord@@@_STL@@@2@@2@XZ 0042a250 f i bscript:parser.obj
 0001:00029260       ??1?$_Rb_tree_base@U?$pair@$$CBV?$basic_string@DV?$char_traits@D@_STL@@V?$allocator@D@2@@_STL@@PAUReservedWord@@@_STL@@V?$allocator@U?$pair@$$CBV?$basic_string@DV?$char_traits@D@_STL@@V?$allocator@D@2@@_STL@@PAUReservedWord@@@_STL@@@2@@_STL@@QAE@XZ 0042a260 f i bscript:parser.obj
 0001:00029280       ??0?$_Rb_tree_base@U?$pair@$$CBV?$basic_string@DV?$char_traits@D@_STL@@V?$allocator@D@2@@_STL@@PAUReservedWord@@@_STL@@V?$allocator@U?$pair@$$CBV?$basic_string@DV?$char_traits@D@_STL@@V?$allocator@D@2@@_STL@@PAUReservedWord@@@_STL@@@2@@_STL@@QAE@ABV?$allocator@U?$pair@$$CBV?$basic_string@DV?$char_traits@D@_STL@@V?$allocator@D@2@@_STL@@PAUReservedWord@@@_STL@@@1@@Z 0042a280 f i bscript:parser.obj
 0001:000292b0       ?_M_lower_bound@?$_Rb_tree@V?$basic_string@DV?$char_traits@D@_STL@@V?$allocator@D@2@@_STL@@U?$pair@$$CBV?$basic_string@DV?$char_traits@D@_STL@@V?$allocator@D@2@@_STL@@PAUReservedWord@@@2@U?$_Select1st@U?$pair@$$CBV?$basic_string@DV?$char_traits@D@_STL@@V?$allocator@D@2@@_STL@@PAUReservedWord@@@_STL@@@2@Vci_cmp_pred@@V?$allocator@U?$pair@$$CBV?$basic_string@DV?$char_traits@D@_STL@@V?$allocator@D@2@@_STL@@PAUReservedWord@@@_STL@@@2@@_STL@@ABEPAU?$_Rb_tree_node@U?$pair@$$CBV?$basic_string@DV?$char_traits@D@_STL@@V?$allocator@D@2@@_STL@@PAUReservedWord@@@_STL@@@2@ABV?$basic_string@DV?$char_traits@D@_STL@@V?$allocator@D@2@@2@@Z 0042a2b0 f i bscript:parser.obj
 0001:000292f0       ??$find@V?$basic_string@DV?$char_traits@D@_STL@@V?$allocator@D@2@@_STL@@@?$_Rb_tree@V?$basic_string@DV?$char_traits@D@_STL@@V?$allocator@D@2@@_STL@@U?$pair@$$CBV?$basic_string@DV?$char_traits@D@_STL@@V?$allocator@D@2@@_STL@@PAUReservedWord@@@2@U?$_Select1st@U?$pair@$$CBV?$basic_string@DV?$char_traits@D@_STL@@V?$allocator@D@2@@_STL@@PAUReservedWord@@@_STL@@@2@Vci_cmp_pred@@V?$allocator@U?$pair@$$CBV?$basic_string@DV?$char_traits@D@_STL@@V?$allocator@D@2@@_STL@@PAUReservedWord@@@_STL@@@2@@_STL@@QAE?AU?$_Rb_tree_iterator@U?$pair@$$CBV?$basic_string@DV?$char_traits@D@_STL@@V?$allocator@D@2@@_STL@@PAUReservedWord@@@_STL@@U?$_Nonconst_traits@U?$pair@$$CBV?$basic_string@DV?$char_traits@D@_STL@@V?$allocator@D@2@@_STL@@PAUReservedWord@@@_STL@@@2@@1@ABV?$basic_string@DV?$char_traits@D@_STL@@V?$allocator@D@2@@1@@Z 0042a2f0 f i bscript:parser.obj
 0001:00029310       ?find@?$map@V?$basic_string@DV?$char_traits@D@_STL@@V?$allocator@D@2@@_STL@@PAUReservedWord@@Vci_cmp_pred@@V?$allocator@U?$pair@$$CBV?$basic_string@DV?$char_traits@D@_STL@@V?$allocator@D@2@@_STL@@PAUReservedWord@@@_STL@@@2@@_STL@@QAE?AU?$_Rb_tree_iterator@U?$pair@$$CBV?$basic_string@DV?$char_traits@D@_STL@@V?$allocator@D@2@@_STL@@PAUReservedWord@@@_STL@@U?$_Nonconst_traits@U?$pair@$$CBV?$basic_string@DV?$char_traits@D@_STL@@V?$allocator@D@2@@_STL@@PAUReservedWord@@@_STL@@@2@@2@ABV?$basic_string@DV?$char_traits@D@_STL@@V?$allocator@D@2@@2@@Z 0042a310 f i bscript:parser.obj
 0001:00029330       ??0?$_Rb_tree@V?$basic_string@DV?$char_traits@D@_STL@@V?$allocator@D@2@@_STL@@U?$pair@$$CBV?$basic_string@DV?$char_traits@D@_STL@@V?$allocator@D@2@@_STL@@PAUReservedWord@@@2@U?$_Select1st@U?$pair@$$CBV?$basic_string@DV?$char_traits@D@_STL@@V?$allocator@D@2@@_STL@@PAUReservedWord@@@_STL@@@2@Vci_cmp_pred@@V?$allocator@U?$pair@$$CBV?$basic_string@DV?$char_traits@D@_STL@@V?$allocator@D@2@@_STL@@PAUReservedWord@@@_STL@@@2@@_STL@@QAE@ABVci_cmp_pred@@ABV?$allocator@U?$pair@$$CBV?$basic_string@DV?$char_traits@D@_STL@@V?$allocator@D@2@@_STL@@PAUReservedWord@@@_STL@@@1@@Z 0042a330 f i bscript:parser.obj
 0001:00029370       ?lower_bound@?$_Rb_tree@V?$basic_string@DV?$char_traits@D@_STL@@V?$allocator@D@2@@_STL@@U?$pair@$$CBV?$basic_string@DV?$char_traits@D@_STL@@V?$allocator@D@2@@_STL@@PAUReservedWord@@@2@U?$_Select1st@U?$pair@$$CBV?$basic_string@DV?$char_traits@D@_STL@@V?$allocator@D@2@@_STL@@PAUReservedWord@@@_STL@@@2@Vci_cmp_pred@@V?$allocator@U?$pair@$$CBV?$basic_string@DV?$char_traits@D@_STL@@V?$allocator@D@2@@_STL@@PAUReservedWord@@@_STL@@@2@@_STL@@QAE?AU?$_Rb_tree_iterator@U?$pair@$$CBV?$basic_string@DV?$char_traits@D@_STL@@V?$allocator@D@2@@_STL@@PAUReservedWord@@@_STL@@U?$_Nonconst_traits@U?$pair@$$CBV?$basic_string@DV?$char_traits@D@_STL@@V?$allocator@D@2@@_STL@@PAUReservedWord@@@_STL@@@2@@2@ABV?$basic_string@DV?$char_traits@D@_STL@@V?$allocator@D@2@@2@@Z 0042a370 f i bscript:parser.obj
 0001:00029390       ?write_words@Parser@@SAXAAV?$basic_ostream@DV?$char_traits@D@_STL@@@_STL@@@Z 0042a390 f   bscript:parser.obj
 0001:00029580       ?getToken@Parser@@UAEHAAVCompilerContext@@AAVToken@@PAVExpression@@@Z 0042a580 f   bscript:parser.obj
 0001:00029680       ??1?$pair@$$CBV?$basic_string@DV?$char_traits@D@_STL@@V?$allocator@D@2@@_STL@@PAUReservedWord@@@_STL@@QAE@XZ 0042a680 f i bscript:parser.obj
 0001:000296b0       ?lower_bound@?$map@V?$basic_string@DV?$char_traits@D@_STL@@V?$allocator@D@2@@_STL@@PAUReservedWord@@Vci_cmp_pred@@V?$allocator@U?$pair@$$CBV?$basic_string@DV?$char_traits@D@_STL@@V?$allocator@D@2@@_STL@@PAUReservedWord@@@_STL@@@2@@_STL@@QAE?AU?$_Rb_tree_iterator@U?$pair@$$CBV?$basic_string@DV?$char_traits@D@_STL@@V?$allocator@D@2@@_STL@@PAUReservedWord@@@_STL@@U?$_Nonconst_traits@U?$pair@$$CBV?$basic_string@DV?$char_traits@D@_STL@@V?$allocator@D@2@@_STL@@PAUReservedWord@@@_STL@@@2@@2@ABV?$basic_string@DV?$char_traits@D@_STL@@V?$allocator@D@2@@2@@Z 0042a6b0 f i bscript:parser.obj
 0001:000296d0       ??_G?$pair@$$CBV?$basic_string@DV?$char_traits@D@_STL@@V?$allocator@D@2@@_STL@@PAUReservedWord@@@_STL@@QAEPAXI@Z 0042a6d0 f i bscript:parser.obj
 0001:000296f0       ?recognize_reserved_word@Parser@@UAE_NAAVToken@@PBD@Z 0042a6f0 f   bscript:parser.obj
 0001:000297a0       ?reinit@Parser@@QAEXAAVExpression@@@Z 0042a7a0 f   bscript:parser.obj
 0001:000298e0       ?isOkay@SmartParser@@UAEHABVToken@@W4BTokenType@@@Z 0042a8e0 f   bscript:parser.obj
 0001:000299a0       ?getToken@SmartParser@@UAEHAAVCompilerContext@@AAVToken@@PAVExpression@@@Z 0042a9a0 f   bscript:parser.obj
 0001:00029a40       ?callingMethod@SmartParser@@QAE_NAAVCompilerContext@@@Z 0042aa40 f   bscript:parser.obj
 0001:00029bf0       ??$_Destroy@U?$pair@$$CBV?$basic_string@DV?$char_traits@D@_STL@@V?$allocator@D@2@@_STL@@PAUReservedWord@@@_STL@@@_STL@@YAXPAU?$pair@$$CBV?$basic_string@DV?$char_traits@D@_STL@@V?$allocator@D@2@@_STL@@PAUReservedWord@@@0@@Z 0042abf0 f i bscript:parser.obj
 0001:00029c00       ??0?$pair@$$CBV?$basic_string@DV?$char_traits@D@_STL@@V?$allocator@D@2@@_STL@@PAUReservedWord@@@_STL@@QAE@ABU01@@Z 0042ac00 f i bscript:parser.obj
 0001:00029c20       ?peekToken@Parser@@UAEHABVCompilerContext@@AAVToken@@PAVExpression@@@Z 0042ac20 f   bscript:parser.obj
 0001:00029cd0       ??0?$pair@$$CBV?$basic_string@DV?$char_traits@D@_STL@@V?$allocator@D@2@@_STL@@PAUReservedWord@@@_STL@@QAE@ABV?$basic_string@DV?$char_traits@D@_STL@@V?$allocator@D@2@@1@ABQAUReservedWord@@@Z 0042acd0 f i bscript:parser.obj
 0001:00029cf0       ?_M_erase@?$_Rb_tree@V?$basic_string@DV?$char_traits@D@_STL@@V?$allocator@D@2@@_STL@@U?$pair@$$CBV?$basic_string@DV?$char_traits@D@_STL@@V?$allocator@D@2@@_STL@@PAUReservedWord@@@2@U?$_Select1st@U?$pair@$$CBV?$basic_string@DV?$char_traits@D@_STL@@V?$allocator@D@2@@_STL@@PAUReservedWord@@@_STL@@@2@Vci_cmp_pred@@V?$allocator@U?$pair@$$CBV?$basic_string@DV?$char_traits@D@_STL@@V?$allocator@D@2@@_STL@@PAUReservedWord@@@_STL@@@2@@_STL@@AAEXPAU?$_Rb_tree_node@U?$pair@$$CBV?$basic_string@DV?$char_traits@D@_STL@@V?$allocator@D@2@@_STL@@PAUReservedWord@@@_STL@@@2@@Z 0042acf0 f i bscript:parser.obj
 0001:00029d30       ??$_Construct@U?$pair@$$CBV?$basic_string@DV?$char_traits@D@_STL@@V?$allocator@D@2@@_STL@@PAUReservedWord@@@_STL@@U12@@_STL@@YAXPAU?$pair@$$CBV?$basic_string@DV?$char_traits@D@_STL@@V?$allocator@D@2@@_STL@@PAUReservedWord@@@0@ABU10@@Z 0042ad30 f i bscript:parser.obj
 0001:00029d80       ?tryLiteral@Parser@@UAEHAAVToken@@AAVCompilerContext@@@Z 0042ad80 f   bscript:parser.obj
 0001:0002a090       ?tryLiteral@SmartParser@@MAEHAAVToken@@AAVCompilerContext@@@Z 0042b090 f   bscript:parser.obj
 0001:0002a0f0       ?push@?$stack@PAVToken@@V?$deque@PAVToken@@V?$allocator@PAVToken@@@_STL@@@_STL@@@_STL@@QAEXABQAVToken@@@Z 0042b0f0 f i bscript:parser.obj
 0001:0002a120       ?clear@?$_Rb_tree@V?$basic_string@DV?$char_traits@D@_STL@@V?$allocator@D@2@@_STL@@U?$pair@$$CBV?$basic_string@DV?$char_traits@D@_STL@@V?$allocator@D@2@@_STL@@PAUReservedWord@@@2@U?$_Select1st@U?$pair@$$CBV?$basic_string@DV?$char_traits@D@_STL@@V?$allocator@D@2@@_STL@@PAUReservedWord@@@_STL@@@2@Vci_cmp_pred@@V?$allocator@U?$pair@$$CBV?$basic_string@DV?$char_traits@D@_STL@@V?$allocator@D@2@@_STL@@PAUReservedWord@@@_STL@@@2@@_STL@@QAEXXZ 0042b120 f i bscript:parser.obj
 0001:0002a160       ?_M_create_node@?$_Rb_tree@V?$basic_string@DV?$char_traits@D@_STL@@V?$allocator@D@2@@_STL@@U?$pair@$$CBV?$basic_string@DV?$char_traits@D@_STL@@V?$allocator@D@2@@_STL@@PAUReservedWord@@@2@U?$_Select1st@U?$pair@$$CBV?$basic_string@DV?$char_traits@D@_STL@@V?$allocator@D@2@@_STL@@PAUReservedWord@@@_STL@@@2@Vci_cmp_pred@@V?$allocator@U?$pair@$$CBV?$basic_string@DV?$char_traits@D@_STL@@V?$allocator@D@2@@_STL@@PAUReservedWord@@@_STL@@@2@@_STL@@IAEPAU?$_Rb_tree_node@U?$pair@$$CBV?$basic_string@DV?$char_traits@D@_STL@@V?$allocator@D@2@@_STL@@PAUReservedWord@@@_STL@@@2@ABU?$pair@$$CBV?$basic_string@DV?$char_traits@D@_STL@@V?$allocator@D@2@@_STL@@PAUReservedWord@@@2@@Z 0042b160 f i bscript:parser.obj
 0001:0002a1e0       ?parseToken@SmartParser@@UAEHAAVCompilerContext@@AAVExpression@@PAVToken@@@Z 0042b1e0 f   bscript:parser.obj
 0001:0002ab50       ?IIP@SmartParser@@QAEHAAVExpression@@AAVCompilerContext@@I@Z 0042bb50 f   bscript:parser.obj
 0001:0002b860       ?IP@SmartParser@@QAEHAAVExpression@@AAVCompilerContext@@@Z 0042c860 f   bscript:parser.obj
 0001:0002b890       ??1?$_Rb_tree@V?$basic_string@DV?$char_traits@D@_STL@@V?$allocator@D@2@@_STL@@U?$pair@$$CBV?$basic_string@DV?$char_traits@D@_STL@@V?$allocator@D@2@@_STL@@PAUReservedWord@@@2@U?$_Select1st@U?$pair@$$CBV?$basic_string@DV?$char_traits@D@_STL@@V?$allocator@D@2@@_STL@@PAUReservedWord@@@_STL@@@2@Vci_cmp_pred@@V?$allocator@U?$pair@$$CBV?$basic_string@DV?$char_traits@D@_STL@@V?$allocator@D@2@@_STL@@PAUReservedWord@@@_STL@@@2@@_STL@@QAE@XZ 0042c890 f i bscript:parser.obj
 0001:0002b910       ?_M_insert@?$_Rb_tree@V?$basic_string@DV?$char_traits@D@_STL@@V?$allocator@D@2@@_STL@@U?$pair@$$CBV?$basic_string@DV?$char_traits@D@_STL@@V?$allocator@D@2@@_STL@@PAUReservedWord@@@2@U?$_Select1st@U?$pair@$$CBV?$basic_string@DV?$char_traits@D@_STL@@V?$allocator@D@2@@_STL@@PAUReservedWord@@@_STL@@@2@Vci_cmp_pred@@V?$allocator@U?$pair@$$CBV?$basic_string@DV?$char_traits@D@_STL@@V?$allocator@D@2@@_STL@@PAUReservedWord@@@_STL@@@2@@_STL@@AAE?AU?$_Rb_tree_iterator@U?$pair@$$CBV?$basic_string@DV?$char_traits@D@_STL@@V?$allocator@D@2@@_STL@@PAUReservedWord@@@_STL@@U?$_Nonconst_traits@U?$pair@$$CBV?$basic_string@DV?$char_traits@D@_STL@@V?$allocator@D@2@@_STL@@PAUReservedWord@@@_STL@@@2@@2@PAU_Rb_tree_node_base@2@0ABU?$pair@$$CBV?$basic_string@DV?$char_traits@D@_STL@@V?$allocator@D@2@@_STL@@PAUReservedWord@@@2@0@Z 0042c910 f i bscript:parser.obj
 0001:0002b9c0       ?insert_unique@?$_Rb_tree@V?$basic_string@DV?$char_traits@D@_STL@@V?$allocator@D@2@@_STL@@U?$pair@$$CBV?$basic_string@DV?$char_traits@D@_STL@@V?$allocator@D@2@@_STL@@PAUReservedWord@@@2@U?$_Select1st@U?$pair@$$CBV?$basic_string@DV?$char_traits@D@_STL@@V?$allocator@D@2@@_STL@@PAUReservedWord@@@_STL@@@2@Vci_cmp_pred@@V?$allocator@U?$pair@$$CBV?$basic_string@DV?$char_traits@D@_STL@@V?$allocator@D@2@@_STL@@PAUReservedWord@@@_STL@@@2@@_STL@@QAE?AU?$pair@U?$_Rb_tree_iterator@U?$pair@$$CBV?$basic_string@DV?$char_traits@D@_STL@@V?$allocator@D@2@@_STL@@PAUReservedWord@@@_STL@@U?$_Nonconst_traits@U?$pair@$$CBV?$basic_string@DV?$char_traits@D@_STL@@V?$allocator@D@2@@_STL@@PAUReservedWord@@@_STL@@@2@@_STL@@_N@2@ABU?$pair@$$CBV?$basic_string@DV?$char_traits@D@_STL@@V?$allocator@D@2@@_STL@@PAUReservedWord@@@2@@Z 0042c9c0 f i bscript:parser.obj
 0001:0002ba90       ??1?$map@V?$basic_string@DV?$char_traits@D@_STL@@V?$allocator@D@2@@_STL@@PAUReservedWord@@Vci_cmp_pred@@V?$allocator@U?$pair@$$CBV?$basic_string@DV?$char_traits@D@_STL@@V?$allocator@D@2@@_STL@@PAUReservedWord@@@_STL@@@2@@_STL@@QAE@XZ 0042ca90 f i bscript:parser.obj
 0001:0002baa0       ?getArgs@SmartParser@@QAEHAAVExpression@@AAVCompilerContext@@@Z 0042caa0 f   bscript:parser.obj
 0001:0002bc80       ??0?$map@V?$basic_string@DV?$char_traits@D@_STL@@V?$allocator@D@2@@_STL@@PAUReservedWord@@Vci_cmp_pred@@V?$allocator@U?$pair@$$CBV?$basic_string@DV?$char_traits@D@_STL@@V?$allocator@D@2@@_STL@@PAUReservedWord@@@_STL@@@2@@_STL@@QAE@XZ 0042cc80 f i bscript:parser.obj
 0001:0002bcc0       ?insert_unique@?$_Rb_tree@V?$basic_string@DV?$char_traits@D@_STL@@V?$allocator@D@2@@_STL@@U?$pair@$$CBV?$basic_string@DV?$char_traits@D@_STL@@V?$allocator@D@2@@_STL@@PAUReservedWord@@@2@U?$_Select1st@U?$pair@$$CBV?$basic_string@DV?$char_traits@D@_STL@@V?$allocator@D@2@@_STL@@PAUReservedWord@@@_STL@@@2@Vci_cmp_pred@@V?$allocator@U?$pair@$$CBV?$basic_string@DV?$char_traits@D@_STL@@V?$allocator@D@2@@_STL@@PAUReservedWord@@@_STL@@@2@@_STL@@QAE?AU?$_Rb_tree_iterator@U?$pair@$$CBV?$basic_string@DV?$char_traits@D@_STL@@V?$allocator@D@2@@_STL@@PAUReservedWord@@@_STL@@U?$_Nonconst_traits@U?$pair@$$CBV?$basic_string@DV?$char_traits@D@_STL@@V?$allocator@D@2@@_STL@@PAUReservedWord@@@_STL@@@2@@2@U32@ABU?$pair@$$CBV?$basic_string@DV?$char_traits@D@_STL@@V?$allocator@D@2@@_STL@@PAUReservedWord@@@2@@Z 0042ccc0 f i bscript:parser.obj
 0001:0002bf70       ?insert@?$map@V?$basic_string@DV?$char_traits@D@_STL@@V?$allocator@D@2@@_STL@@PAUReservedWord@@Vci_cmp_pred@@V?$allocator@U?$pair@$$CBV?$basic_string@DV?$char_traits@D@_STL@@V?$allocator@D@2@@_STL@@PAUReservedWord@@@_STL@@@2@@_STL@@QAE?AU?$_Rb_tree_iterator@U?$pair@$$CBV?$basic_string@DV?$char_traits@D@_STL@@V?$allocator@D@2@@_STL@@PAUReservedWord@@@_STL@@U?$_Nonconst_traits@U?$pair@$$CBV?$basic_string@DV?$char_traits@D@_STL@@V?$allocator@D@2@@_STL@@PAUReservedWord@@@_STL@@@2@@2@U32@ABU?$pair@$$CBV?$basic_string@DV?$char_traits@D@_STL@@V?$allocator@D@2@@_STL@@PAUReservedWord@@@2@@Z 0042cf70 f i bscript:parser.obj
 0001:0002bf90       ??A?$map@V?$basic_string@DV?$char_traits@D@_STL@@V?$allocator@D@2@@_STL@@PAUReservedWord@@Vci_cmp_pred@@V?$allocator@U?$pair@$$CBV?$basic_string@DV?$char_traits@D@_STL@@V?$allocator@D@2@@_STL@@PAUReservedWord@@@_STL@@@2@@_STL@@QAEAAPAUReservedWord@@ABV?$basic_string@DV?$char_traits@D@_STL@@V?$allocator@D@2@@1@@Z 0042cf90 f i bscript:parser.obj
 0001:0002c100       ??0Parser@@QAE@AAV?$basic_ostream@DV?$char_traits@D@_STL@@@_STL@@@Z 0042d100 f   bscript:parser.obj
 0001:0002c130       ?skipws@CompilerContext@@QAEXXZ 0042d130 f   bscript:compctx.obj
 0001:0002c170       ?eatToEndOfLine@@YAHAAVCompilerContext@@@Z 0042d170 f   bscript:compctx.obj
 0001:0002c1a0       ?printOn@CompilerContext@@QBEXAAV?$basic_ostream@DV?$char_traits@D@_STL@@@_STL@@@Z 0042d1a0 f   bscript:compctx.obj
 0001:0002c1f0       ?printOnShort@CompilerContext@@QBEXAAV?$basic_ostream@DV?$char_traits@D@_STL@@@_STL@@@Z 0042d1f0 f   bscript:compctx.obj
 0001:0002c230       ??0CompilerContext@@QAE@XZ 0042d230 f   bscript:compctx.obj
 0001:0002c270       ??0CompilerContext@@QAE@ABV?$basic_string@DV?$char_traits@D@_STL@@V?$allocator@D@2@@_STL@@HPBD@Z 0042d270 f   bscript:compctx.obj
 0001:0002c2a0       ??0CompilerContext@@QAE@ABV0@@Z 0042d2a0 f   bscript:compctx.obj
 0001:0002c2e0       ??4CompilerContext@@QAEAAV0@ABV0@@Z 0042d2e0 f   bscript:compctx.obj
 0001:0002c320       ?eatToCommentEnd@@YAHAAVCompilerContext@@@Z 0042d320 f   bscript:compctx.obj
 0001:0002c540       ?skipcomments@CompilerContext@@QAEHXZ 0042d540 f   bscript:compctx.obj
 0001:0002c7a0       ?instances@Token@@SAKXZ    0042d7a0 f   bscript:token.obj
 0001:0002c7b0       ?show_instances@Token@@SAXXZ 0042d7b0 f   bscript:token.obj
 0001:0002c7c0       ?register_instance@Token@@IAEXXZ 0042d7c0 f   bscript:token.obj
 0001:0002c7d0       ?unregister_instance@Token@@IAEXXZ 0042d7d0 f   bscript:token.obj
 0001:0002c7e0       ??0Token@@QAE@XZ           0042d7e0 f   bscript:token.obj
 0001:0002c820       ??0Token@@QAE@W4ModuleID@@W4BTokenId@@W4BTokenType@@@Z 0042d820 f   bscript:token.obj
 0001:0002c870       ??0Token@@QAE@W4BTokenId@@W4BTokenType@@@Z 0042d870 f   bscript:token.obj
 0001:0002c8c0       ??0Token@@QAE@W4ModuleID@@W4BTokenId@@W4BTokenType@@PAVUserFunction@@@Z 0042d8c0 f   bscript:token.obj
 0001:0002c910       ?nulStr@Token@@QAEXXZ      0042d910 f   bscript:token.obj
 0001:0002c940       ?setStr@Token@@QAEXPBD@Z   0042d940 f   bscript:token.obj
 0001:0002c990       ?copyStr@Token@@QAEXPBD@Z  0042d990 f   bscript:token.obj
 0001:0002ca10       ?copyStr@Token@@QAEXPBDH@Z 0042da10 f   bscript:token.obj
 0001:0002ca80       ??1Token@@QAE@XZ           0042da80 f   bscript:token.obj
 0001:0002cab0       ??0Token@@QAE@ABV0@@Z      0042dab0 f   bscript:token.obj
 0001:0002cb30       ??4Token@@QAEAAV0@ABV0@@Z  0042db30 f   bscript:token.obj
 0001:0002cbc0       ?size@?$vector@PAVModuleFunction@@V?$allocator@PAVModuleFunction@@@_STL@@@_STL@@QBEIXZ 0042dbc0 f i bscript:fmodule.obj
 0001:0002cbd0       ?empty@?$vector@PAVModuleFunction@@V?$allocator@PAVModuleFunction@@@_STL@@@_STL@@QBE_NXZ 0042dbd0 f i bscript:fmodule.obj
 0001:0002cbe0       ??0?$allocator@PAVModuleFunction@@@_STL@@QAE@XZ 0042dbe0 f i bscript:fmodule.obj
 0001:0002cbf0       ??1?$allocator@PAVModuleFunction@@@_STL@@QAE@XZ 0042dbf0 f i bscript:fmodule.obj
 0001:0002cc00       ?empty@?$vector@PAVUserFunction@@V?$allocator@PAVUserFunction@@@_STL@@@_STL@@QBE_NXZ 0042dc00 f i bscript:fmodule.obj
 0001:0002cc10       ??0?$allocator@PAVUserFunction@@@_STL@@QAE@XZ 0042dc10 f i bscript:fmodule.obj
 0001:0002cc20       ??1?$allocator@PAVUserFunction@@@_STL@@QAE@XZ 0042dc20 f i bscript:fmodule.obj
 0001:0002cc30       ??D?$_Rb_tree_iterator@U?$pair@$$CBV?$basic_string@DV?$char_traits@D@_STL@@V?$allocator@D@2@@_STL@@PAVModuleFunction@@@_STL@@U?$_Nonconst_traits@U?$pair@$$CBV?$basic_string@DV?$char_traits@D@_STL@@V?$allocator@D@2@@_STL@@PAVModuleFunction@@@_STL@@@2@@_STL@@QBEAAU?$pair@$$CBV?$basic_string@DV?$char_traits@D@_STL@@V?$allocator@D@2@@_STL@@PAVModuleFunction@@@1@XZ 0042dc30 f i bscript:fmodule.obj
 0001:0002cc40       ?begin@?$vector@PAVModuleFunction@@V?$allocator@PAVModuleFunction@@@_STL@@@_STL@@QAEPAPAVModuleFunction@@XZ 0042dc40 f i bscript:fmodule.obj
 0001:0002cc50       ?end@?$vector@PAVModuleFunction@@V?$allocator@PAVModuleFunction@@@_STL@@@_STL@@QAEPAPAVModuleFunction@@XZ 0042dc50 f i bscript:fmodule.obj
 0001:0002cc60       ??0?$allocator@U?$pair@$$CBV?$basic_string@DV?$char_traits@D@_STL@@V?$allocator@D@2@@_STL@@PAVModuleFunction@@@_STL@@@_STL@@QAE@XZ 0042dc60 f i bscript:fmodule.obj
 0001:0002cc70       ??1?$allocator@U?$pair@$$CBV?$basic_string@DV?$char_traits@D@_STL@@V?$allocator@D@2@@_STL@@PAVModuleFunction@@@_STL@@@_STL@@QAE@XZ 0042dc70 f i bscript:fmodule.obj
 0001:0002cc80       ?end@?$vector@PAVUserFunction@@V?$allocator@PAVUserFunction@@@_STL@@@_STL@@QAEPAPAVUserFunction@@XZ 0042dc80 f i bscript:fmodule.obj
 0001:0002cc90       ??0?$_Rb_tree_iterator@U?$pair@$$CBV?$basic_string@DV?$char_traits@D@_STL@@V?$allocator@D@2@@_STL@@PAVModuleFunction@@@_STL@@U?$_Nonconst_traits@U?$pair@$$CBV?$basic_string@DV?$char_traits@D@_STL@@V?$allocator@D@2@@_STL@@PAVModuleFunction@@@_STL@@@2@@_STL@@QAE@ABU01@@Z 0042dc90 f i bscript:fmodule.obj
 0001:0002cca0       ??1?$_STLP_alloc_proxy@PAPAVModuleFunction@@PAV1@V?$allocator@PAVModuleFunction@@@_STL@@@_STL@@QAE@XZ 0042dca0 f i bscript:fmodule.obj
 0001:0002ccb0       ??1?$_STLP_alloc_proxy@PAPAVUserFunction@@PAV1@V?$allocator@PAVUserFunction@@@_STL@@@_STL@@QAE@XZ 0042dcb0 f i bscript:fmodule.obj
 0001:0002ccc0       ?_M_set@?$vector@PAVModuleFunction@@V?$allocator@PAVModuleFunction@@@_STL@@@_STL@@IAEXPAPAVModuleFunction@@00@Z 0042dcc0 f i bscript:fmodule.obj
 0001:0002cce0       ?_M_root@?$_Rb_tree@V?$basic_string@DV?$char_traits@D@_STL@@V?$allocator@D@2@@_STL@@U?$pair@$$CBV?$basic_string@DV?$char_traits@D@_STL@@V?$allocator@D@2@@_STL@@PAVModuleFunction@@@2@U?$_Select1st@U?$pair@$$CBV?$basic_string@DV?$char_traits@D@_STL@@V?$allocator@D@2@@_STL@@PAVModuleFunction@@@_STL@@@2@Vci_cmp_pred@@V?$allocator@U?$pair@$$CBV?$basic_string@DV?$char_traits@D@_STL@@V?$allocator@D@2@@_STL@@PAVModuleFunction@@@_STL@@@2@@_STL@@IBEAAPAU?$_Rb_tree_node@U?$pair@$$CBV?$basic_string@DV?$char_traits@D@_STL@@V?$allocator@D@2@@_STL@@PAVModuleFunction@@@_STL@@@2@XZ 0042dce0 f i bscript:fmodule.obj
 0001:0002ccf0       ?_M_leftmost@?$_Rb_tree@V?$basic_string@DV?$char_traits@D@_STL@@V?$allocator@D@2@@_STL@@U?$pair@$$CBV?$basic_string@DV?$char_traits@D@_STL@@V?$allocator@D@2@@_STL@@PAVModuleFunction@@@2@U?$_Select1st@U?$pair@$$CBV?$basic_string@DV?$char_traits@D@_STL@@V?$allocator@D@2@@_STL@@PAVModuleFunction@@@_STL@@@2@Vci_cmp_pred@@V?$allocator@U?$pair@$$CBV?$basic_string@DV?$char_traits@D@_STL@@V?$allocator@D@2@@_STL@@PAVModuleFunction@@@_STL@@@2@@_STL@@IBEAAPAU?$_Rb_tree_node@U?$pair@$$CBV?$basic_string@DV?$char_traits@D@_STL@@V?$allocator@D@2@@_STL@@PAVModuleFunction@@@_STL@@@2@XZ 0042dcf0 f i bscript:fmodule.obj
 0001:0002cd00       ?_M_rightmost@?$_Rb_tree@V?$basic_string@DV?$char_traits@D@_STL@@V?$allocator@D@2@@_STL@@U?$pair@$$CBV?$basic_string@DV?$char_traits@D@_STL@@V?$allocator@D@2@@_STL@@PAVModuleFunction@@@2@U?$_Select1st@U?$pair@$$CBV?$basic_string@DV?$char_traits@D@_STL@@V?$allocator@D@2@@_STL@@PAVModuleFunction@@@_STL@@@2@Vci_cmp_pred@@V?$allocator@U?$pair@$$CBV?$basic_string@DV?$char_traits@D@_STL@@V?$allocator@D@2@@_STL@@PAVModuleFunction@@@_STL@@@2@@_STL@@IBEAAPAU?$_Rb_tree_node@U?$pair@$$CBV?$basic_string@DV?$char_traits@D@_STL@@V?$allocator@D@2@@_STL@@PAVModuleFunction@@@_STL@@@2@XZ 0042dd00 f i bscript:fmodule.obj
 0001:0002cd10       ?key_comp@?$_Rb_tree@V?$basic_string@DV?$char_traits@D@_STL@@V?$allocator@D@2@@_STL@@U?$pair@$$CBV?$basic_string@DV?$char_traits@D@_STL@@V?$allocator@D@2@@_STL@@PAVModuleFunction@@@2@U?$_Select1st@U?$pair@$$CBV?$basic_string@DV?$char_traits@D@_STL@@V?$allocator@D@2@@_STL@@PAVModuleFunction@@@_STL@@@2@Vci_cmp_pred@@V?$allocator@U?$pair@$$CBV?$basic_string@DV?$char_traits@D@_STL@@V?$allocator@D@2@@_STL@@PAVModuleFunction@@@_STL@@@2@@_STL@@QBE?AVci_cmp_pred@@XZ 0042dd10 f i bscript:fmodule.obj
 0001:0002cd20       ??1?$allocator@U?$_Rb_tree_node@U?$pair@$$CBV?$basic_string@DV?$char_traits@D@_STL@@V?$allocator@D@2@@_STL@@PAVModuleFunction@@@_STL@@@_STL@@@_STL@@QAE@XZ 0042dd20 f i bscript:fmodule.obj
 0001:0002cd30       ?size@?$vector@PAVUserFunction@@V?$allocator@PAVUserFunction@@@_STL@@@_STL@@QBEIXZ 0042dd30 f i bscript:fmodule.obj
 0001:0002cd40       ?_M_set@?$vector@PAVUserFunction@@V?$allocator@PAVUserFunction@@@_STL@@@_STL@@IAEXPAPAVUserFunction@@00@Z 0042dd40 f i bscript:fmodule.obj
 0001:0002cd60       ??0?$_Rb_tree_iterator@U?$pair@$$CBV?$basic_string@DV?$char_traits@D@_STL@@V?$allocator@D@2@@_STL@@PAVModuleFunction@@@_STL@@U?$_Nonconst_traits@U?$pair@$$CBV?$basic_string@DV?$char_traits@D@_STL@@V?$allocator@D@2@@_STL@@PAVModuleFunction@@@_STL@@@2@@_STL@@QAE@PAU?$_Rb_tree_node@U?$pair@$$CBV?$basic_string@DV?$char_traits@D@_STL@@V?$allocator@D@2@@_STL@@PAVModuleFunction@@@_STL@@@1@@Z 0042dd60 f i bscript:fmodule.obj
 0001:0002cd70       ??0?$allocator@PAVModuleFunction@@@_STL@@QAE@ABV01@@Z 0042dd70 f i bscript:fmodule.obj
 0001:0002cd80       ?_S_color@?$_Rb_tree@V?$basic_string@DV?$char_traits@D@_STL@@V?$allocator@D@2@@_STL@@U?$pair@$$CBV?$basic_string@DV?$char_traits@D@_STL@@V?$allocator@D@2@@_STL@@PAVModuleFunction@@@2@U?$_Select1st@U?$pair@$$CBV?$basic_string@DV?$char_traits@D@_STL@@V?$allocator@D@2@@_STL@@PAVModuleFunction@@@_STL@@@2@Vci_cmp_pred@@V?$allocator@U?$pair@$$CBV?$basic_string@DV?$char_traits@D@_STL@@V?$allocator@D@2@@_STL@@PAVModuleFunction@@@_STL@@@2@@_STL@@KAAA_NPAU?$_Rb_tree_node@U?$pair@$$CBV?$basic_string@DV?$char_traits@D@_STL@@V?$allocator@D@2@@_STL@@PAVModuleFunction@@@_STL@@@2@@Z 0042dd80 f i bscript:fmodule.obj
 0001:0002cd90       ??0?$allocator@PAVUserFunction@@@_STL@@QAE@ABV01@@Z 0042dd90 f i bscript:fmodule.obj
 0001:0002cda0       ?_S_left@?$_Rb_tree@V?$basic_string@DV?$char_traits@D@_STL@@V?$allocator@D@2@@_STL@@U?$pair@$$CBV?$basic_string@DV?$char_traits@D@_STL@@V?$allocator@D@2@@_STL@@PAVModuleFunction@@@2@U?$_Select1st@U?$pair@$$CBV?$basic_string@DV?$char_traits@D@_STL@@V?$allocator@D@2@@_STL@@PAVModuleFunction@@@_STL@@@2@Vci_cmp_pred@@V?$allocator@U?$pair@$$CBV?$basic_string@DV?$char_traits@D@_STL@@V?$allocator@D@2@@_STL@@PAVModuleFunction@@@_STL@@@2@@_STL@@KAAAPAU?$_Rb_tree_node@U?$pair@$$CBV?$basic_string@DV?$char_traits@D@_STL@@V?$allocator@D@2@@_STL@@PAVModuleFunction@@@_STL@@@2@PAU32@@Z 0042dda0 f i bscript:fmodule.obj
 0001:0002cdb0       ?_S_right@?$_Rb_tree@V?$basic_string@DV?$char_traits@D@_STL@@V?$allocator@D@2@@_STL@@U?$pair@$$CBV?$basic_string@DV?$char_traits@D@_STL@@V?$allocator@D@2@@_STL@@PAVModuleFunction@@@2@U?$_Select1st@U?$pair@$$CBV?$basic_string@DV?$char_traits@D@_STL@@V?$allocator@D@2@@_STL@@PAVModuleFunction@@@_STL@@@2@Vci_cmp_pred@@V?$allocator@U?$pair@$$CBV?$basic_string@DV?$char_traits@D@_STL@@V?$allocator@D@2@@_STL@@PAVModuleFunction@@@_STL@@@2@@_STL@@KAAAPAU?$_Rb_tree_node@U?$pair@$$CBV?$basic_string@DV?$char_traits@D@_STL@@V?$allocator@D@2@@_STL@@PAVModuleFunction@@@_STL@@@2@PAU32@@Z 0042ddb0 f i bscript:fmodule.obj
 0001:0002cdc0       ??0?$allocator@U?$_Rb_tree_node@U?$pair@$$CBV?$basic_string@DV?$char_traits@D@_STL@@V?$allocator@D@2@@_STL@@PAVModuleFunction@@@_STL@@@_STL@@@_STL@@QAE@ABV01@@Z 0042ddc0 f i bscript:fmodule.obj
 0001:0002cdd0       ?_S_value@?$_Rb_tree@V?$basic_string@DV?$char_traits@D@_STL@@V?$allocator@D@2@@_STL@@U?$pair@$$CBV?$basic_string@DV?$char_traits@D@_STL@@V?$allocator@D@2@@_STL@@PAVModuleFunction@@@2@U?$_Select1st@U?$pair@$$CBV?$basic_string@DV?$char_traits@D@_STL@@V?$allocator@D@2@@_STL@@PAVModuleFunction@@@_STL@@@2@Vci_cmp_pred@@V?$allocator@U?$pair@$$CBV?$basic_string@DV?$char_traits@D@_STL@@V?$allocator@D@2@@_STL@@PAVModuleFunction@@@_STL@@@2@@_STL@@KAAAU?$pair@$$CBV?$basic_string@DV?$char_traits@D@_STL@@V?$allocator@D@2@@_STL@@PAVModuleFunction@@@2@PAU?$_Rb_tree_node@U?$pair@$$CBV?$basic_string@DV?$char_traits@D@_STL@@V?$allocator@D@2@@_STL@@PAVModuleFunction@@@_STL@@@2@@Z 0042ddd0 f i bscript:fmodule.obj
 0001:0002cde0       ??R?$_Select1st@U?$pair@$$CBV?$basic_string@DV?$char_traits@D@_STL@@V?$allocator@D@2@@_STL@@PAVModuleFunction@@@_STL@@@_STL@@QBEABV?$basic_string@DV?$char_traits@D@_STL@@V?$allocator@D@2@@1@ABU?$pair@$$CBV?$basic_string@DV?$char_traits@D@_STL@@V?$allocator@D@2@@_STL@@PAVModuleFunction@@@1@@Z 0042dde0 f i bscript:fmodule.obj
 0001:0002cdf0       ??$swap@PAVModuleFunction@@@_STL@@YAXAAPAVModuleFunction@@0@Z 0042ddf0 f i bscript:fmodule.obj
 0001:0002ce10       ??$_Construct@PAVModuleFunction@@PAV1@@_STL@@YAXPAPAVModuleFunction@@ABQAV1@@Z 0042de10 f i bscript:fmodule.obj
 0001:0002ce30       ??$_Destroy@PAVModuleFunction@@@_STL@@YAXPAPAVModuleFunction@@@Z 0042de30 f i bscript:fmodule.obj
 0001:0002ce40       ??$_Construct@PAVUserFunction@@PAV1@@_STL@@YAXPAPAVUserFunction@@ABQAV1@@Z 0042de40 f i bscript:fmodule.obj
 0001:0002ce60       ??$_Destroy@PAVUserFunction@@@_STL@@YAXPAPAVUserFunction@@@Z 0042de60 f i bscript:fmodule.obj
 0001:0002ce70       ??$fill_n@PAPAVModuleFunction@@IPAV1@@_STL@@YAPAPAVModuleFunction@@PAPAV1@IABQAV1@@Z 0042de70 f i bscript:fmodule.obj
 0001:0002ce90       ??$fill_n@PAPAVUserFunction@@IPAV1@@_STL@@YAPAPAVUserFunction@@PAPAV1@IABQAV1@@Z 0042de90 f i bscript:fmodule.obj
 0001:0002ceb0       ??$?0U?$pair@$$CBV?$basic_string@DV?$char_traits@D@_STL@@V?$allocator@D@2@@_STL@@PAVModuleFunction@@@_STL@@@?$allocator@U?$_Rb_tree_node@U?$pair@$$CBV?$basic_string@DV?$char_traits@D@_STL@@V?$allocator@D@2@@_STL@@PAVModuleFunction@@@_STL@@@_STL@@@_STL@@QAE@ABV?$allocator@U?$pair@$$CBV?$basic_string@DV?$char_traits@D@_STL@@V?$allocator@D@2@@_STL@@PAVModuleFunction@@@_STL@@@1@@Z 0042deb0 f i bscript:fmodule.obj
 0001:0002cec0       ?_S_right@?$_Rb_tree@V?$basic_string@DV?$char_traits@D@_STL@@V?$allocator@D@2@@_STL@@U?$pair@$$CBV?$basic_string@DV?$char_traits@D@_STL@@V?$allocator@D@2@@_STL@@PAVModuleFunction@@@2@U?$_Select1st@U?$pair@$$CBV?$basic_string@DV?$char_traits@D@_STL@@V?$allocator@D@2@@_STL@@PAVModuleFunction@@@_STL@@@2@Vci_cmp_pred@@V?$allocator@U?$pair@$$CBV?$basic_string@DV?$char_traits@D@_STL@@V?$allocator@D@2@@_STL@@PAVModuleFunction@@@_STL@@@2@@_STL@@KAAAPAU?$_Rb_tree_node@U?$pair@$$CBV?$basic_string@DV?$char_traits@D@_STL@@V?$allocator@D@2@@_STL@@PAVModuleFunction@@@_STL@@@2@PAU_Rb_tree_node_base@2@@Z 0042dec0 f i bscript:fmodule.obj
 0001:0002ced0       ?_S_key@?$_Rb_tree@V?$basic_string@DV?$char_traits@D@_STL@@V?$allocator@D@2@@_STL@@U?$pair@$$CBV?$basic_string@DV?$char_traits@D@_STL@@V?$allocator@D@2@@_STL@@PAVModuleFunction@@@2@U?$_Select1st@U?$pair@$$CBV?$basic_string@DV?$char_traits@D@_STL@@V?$allocator@D@2@@_STL@@PAVModuleFunction@@@_STL@@@2@Vci_cmp_pred@@V?$allocator@U?$pair@$$CBV?$basic_string@DV?$char_traits@D@_STL@@V?$allocator@D@2@@_STL@@PAVModuleFunction@@@_STL@@@2@@_STL@@KAABV?$basic_string@DV?$char_traits@D@_STL@@V?$allocator@D@2@@2@PAU_Rb_tree_node_base@2@@Z 0042ded0 f i bscript:fmodule.obj
 0001:0002cee0       ?size@?$_Rb_tree@V?$basic_string@DV?$char_traits@D@_STL@@V?$allocator@D@2@@_STL@@U?$pair@$$CBV?$basic_string@DV?$char_traits@D@_STL@@V?$allocator@D@2@@_STL@@PAVModuleFunction@@@2@U?$_Select1st@U?$pair@$$CBV?$basic_string@DV?$char_traits@D@_STL@@V?$allocator@D@2@@_STL@@PAVModuleFunction@@@_STL@@@2@Vci_cmp_pred@@V?$allocator@U?$pair@$$CBV?$basic_string@DV?$char_traits@D@_STL@@V?$allocator@D@2@@_STL@@PAVModuleFunction@@@_STL@@@2@@_STL@@QBEIXZ 0042dee0 f i bscript:fmodule.obj
 0001:0002cef0       ??E?$_Rb_tree_iterator@U?$pair@$$CBV?$basic_string@DV?$char_traits@D@_STL@@V?$allocator@D@2@@_STL@@PAVModuleFunction@@@_STL@@U?$_Nonconst_traits@U?$pair@$$CBV?$basic_string@DV?$char_traits@D@_STL@@V?$allocator@D@2@@_STL@@PAVModuleFunction@@@_STL@@@2@@_STL@@QAEAAU01@XZ 0042def0 f i bscript:fmodule.obj
 0001:0002cf10       ??F?$_Rb_tree_iterator@U?$pair@$$CBV?$basic_string@DV?$char_traits@D@_STL@@V?$allocator@D@2@@_STL@@PAVModuleFunction@@@_STL@@U?$_Nonconst_traits@U?$pair@$$CBV?$basic_string@DV?$char_traits@D@_STL@@V?$allocator@D@2@@_STL@@PAVModuleFunction@@@_STL@@@2@@_STL@@QAEAAU01@XZ 0042df10 f i bscript:fmodule.obj
 0001:0002cf30       ?_S_parent@?$_Rb_tree@V?$basic_string@DV?$char_traits@D@_STL@@V?$allocator@D@2@@_STL@@U?$pair@$$CBV?$basic_string@DV?$char_traits@D@_STL@@V?$allocator@D@2@@_STL@@PAVModuleFunction@@@2@U?$_Select1st@U?$pair@$$CBV?$basic_string@DV?$char_traits@D@_STL@@V?$allocator@D@2@@_STL@@PAVModuleFunction@@@_STL@@@2@Vci_cmp_pred@@V?$allocator@U?$pair@$$CBV?$basic_string@DV?$char_traits@D@_STL@@V?$allocator@D@2@@_STL@@PAVModuleFunction@@@_STL@@@2@@_STL@@KAAAPAU?$_Rb_tree_node@U?$pair@$$CBV?$basic_string@DV?$char_traits@D@_STL@@V?$allocator@D@2@@_STL@@PAVModuleFunction@@@_STL@@@2@PAU32@@Z 0042df30 f i bscript:fmodule.obj
 0001:0002cf40       ?begin@?$_Rb_tree@V?$basic_string@DV?$char_traits@D@_STL@@V?$allocator@D@2@@_STL@@U?$pair@$$CBV?$basic_string@DV?$char_traits@D@_STL@@V?$allocator@D@2@@_STL@@PAVModuleFunction@@@2@U?$_Select1st@U?$pair@$$CBV?$basic_string@DV?$char_traits@D@_STL@@V?$allocator@D@2@@_STL@@PAVModuleFunction@@@_STL@@@2@Vci_cmp_pred@@V?$allocator@U?$pair@$$CBV?$basic_string@DV?$char_traits@D@_STL@@V?$allocator@D@2@@_STL@@PAVModuleFunction@@@_STL@@@2@@_STL@@QAE?AU?$_Rb_tree_iterator@U?$pair@$$CBV?$basic_string@DV?$char_traits@D@_STL@@V?$allocator@D@2@@_STL@@PAVModuleFunction@@@_STL@@U?$_Nonconst_traits@U?$pair@$$CBV?$basic_string@DV?$char_traits@D@_STL@@V?$allocator@D@2@@_STL@@PAVModuleFunction@@@_STL@@@2@@2@XZ 0042df40 f i bscript:fmodule.obj
 0001:0002cf50       ??0?$pair@U?$_Rb_tree_iterator@U?$pair@$$CBV?$basic_string@DV?$char_traits@D@_STL@@V?$allocator@D@2@@_STL@@PAVModuleFunction@@@_STL@@U?$_Nonconst_traits@U?$pair@$$CBV?$basic_string@DV?$char_traits@D@_STL@@V?$allocator@D@2@@_STL@@PAVModuleFunction@@@_STL@@@2@@_STL@@_N@_STL@@QAE@ABU?$_Rb_tree_iterator@U?$pair@$$CBV?$basic_string@DV?$char_traits@D@_STL@@V?$allocator@D@2@@_STL@@PAVModuleFunction@@@_STL@@U?$_Nonconst_traits@U?$pair@$$CBV?$basic_string@DV?$char_traits@D@_STL@@V?$allocator@D@2@@_STL@@PAVModuleFunction@@@_STL@@@2@@1@AB_N@Z 0042df50 f i bscript:fmodule.obj
 0001:0002cf70       ??$__destroy_aux@PAPAVModuleFunction@@@_STL@@YAXPAPAVModuleFunction@@0ABU__true_type@0@@Z 0042df70 f i bscript:fmodule.obj
 0001:0002cf80       ??$__destroy_aux@PAPAVUserFunction@@@_STL@@YAXPAPAVUserFunction@@0ABU__true_type@0@@Z 0042df80 f i bscript:fmodule.obj
 0001:0002cf90       ??A?$vector@PAVModuleFunction@@V?$allocator@PAVModuleFunction@@@_STL@@@_STL@@QAEAAPAVModuleFunction@@I@Z 0042df90 f i bscript:fmodule.obj
 0001:0002cfa0       ?back@?$vector@PAVModuleFunction@@V?$allocator@PAVModuleFunction@@@_STL@@@_STL@@QAEAAPAVModuleFunction@@XZ 0042dfa0 f i bscript:fmodule.obj
 0001:0002cfb0       ?pop_back@?$vector@PAVModuleFunction@@V?$allocator@PAVModuleFunction@@@_STL@@@_STL@@QAEXXZ 0042dfb0 f i bscript:fmodule.obj
 0001:0002cfc0       ?back@?$vector@PAVUserFunction@@V?$allocator@PAVUserFunction@@@_STL@@@_STL@@QAEAAPAVUserFunction@@XZ 0042dfc0 f i bscript:fmodule.obj
 0001:0002cfd0       ?pop_back@?$vector@PAVUserFunction@@V?$allocator@PAVUserFunction@@@_STL@@@_STL@@QAEXXZ 0042dfd0 f i bscript:fmodule.obj
 0001:0002cfe0       ?key_comp@?$map@V?$basic_string@DV?$char_traits@D@_STL@@V?$allocator@D@2@@_STL@@PAVModuleFunction@@Vci_cmp_pred@@V?$allocator@U?$pair@$$CBV?$basic_string@DV?$char_traits@D@_STL@@V?$allocator@D@2@@_STL@@PAVModuleFunction@@@_STL@@@2@@_STL@@QBE?AVci_cmp_pred@@XZ 0042dfe0 f i bscript:fmodule.obj
 0001:0002cff0       ?end@?$_Rb_tree@V?$basic_string@DV?$char_traits@D@_STL@@V?$allocator@D@2@@_STL@@U?$pair@$$CBV?$basic_string@DV?$char_traits@D@_STL@@V?$allocator@D@2@@_STL@@PAVModuleFunction@@@2@U?$_Select1st@U?$pair@$$CBV?$basic_string@DV?$char_traits@D@_STL@@V?$allocator@D@2@@_STL@@PAVModuleFunction@@@_STL@@@2@Vci_cmp_pred@@V?$allocator@U?$pair@$$CBV?$basic_string@DV?$char_traits@D@_STL@@V?$allocator@D@2@@_STL@@PAVModuleFunction@@@_STL@@@2@@_STL@@QAE?AU?$_Rb_tree_iterator@U?$pair@$$CBV?$basic_string@DV?$char_traits@D@_STL@@V?$allocator@D@2@@_STL@@PAVModuleFunction@@@_STL@@U?$_Nonconst_traits@U?$pair@$$CBV?$basic_string@DV?$char_traits@D@_STL@@V?$allocator@D@2@@_STL@@PAVModuleFunction@@@_STL@@@2@@2@XZ 0042dff0 f i bscript:fmodule.obj
 0001:0002d000       ??1?$_STLP_alloc_proxy@PAU?$_Rb_tree_node@U?$pair@$$CBV?$basic_string@DV?$char_traits@D@_STL@@V?$allocator@D@2@@_STL@@PAVModuleFunction@@@_STL@@@_STL@@U12@V?$allocator@U?$_Rb_tree_node@U?$pair@$$CBV?$basic_string@DV?$char_traits@D@_STL@@V?$allocator@D@2@@_STL@@PAVModuleFunction@@@_STL@@@_STL@@@2@@_STL@@QAE@XZ 0042e000 f i bscript:fmodule.obj
 0001:0002d010       ?allocate@?$allocator@PAVModuleFunction@@@_STL@@QAEPAPAVModuleFunction@@IPBX@Z 0042e010 f i bscript:fmodule.obj
 0001:0002d040       ?deallocate@?$allocator@PAVModuleFunction@@@_STL@@QAEXPAPAVModuleFunction@@I@Z 0042e040 f i bscript:fmodule.obj
 0001:0002d070       ??0?$_STLP_alloc_proxy@PAPAVModuleFunction@@PAV1@V?$allocator@PAVModuleFunction@@@_STL@@@_STL@@QAE@ABV?$allocator@PAVModuleFunction@@@1@PAPAVModuleFunction@@@Z 0042e070 f i bscript:fmodule.obj
 0001:0002d080       ?_M_empty_initialize@?$_Rb_tree@V?$basic_string@DV?$char_traits@D@_STL@@V?$allocator@D@2@@_STL@@U?$pair@$$CBV?$basic_string@DV?$char_traits@D@_STL@@V?$allocator@D@2@@_STL@@PAVModuleFunction@@@2@U?$_Select1st@U?$pair@$$CBV?$basic_string@DV?$char_traits@D@_STL@@V?$allocator@D@2@@_STL@@PAVModuleFunction@@@_STL@@@2@Vci_cmp_pred@@V?$allocator@U?$pair@$$CBV?$basic_string@DV?$char_traits@D@_STL@@V?$allocator@D@2@@_STL@@PAVModuleFunction@@@_STL@@@2@@_STL@@AAEXXZ 0042e080 f i bscript:fmodule.obj
 0001:0002d0a0       ?deallocate@?$allocator@U?$_Rb_tree_node@U?$pair@$$CBV?$basic_string@DV?$char_traits@D@_STL@@V?$allocator@D@2@@_STL@@PAVModuleFunction@@@_STL@@@_STL@@@_STL@@QAEXPAU?$_Rb_tree_node@U?$pair@$$CBV?$basic_string@DV?$char_traits@D@_STL@@V?$allocator@D@2@@_STL@@PAVModuleFunction@@@_STL@@@2@I@Z 0042e0a0 f i bscript:fmodule.obj
 0001:0002d0d0       ?allocate@?$allocator@PAVUserFunction@@@_STL@@QAEPAPAVUserFunction@@IPBX@Z 0042e0d0 f i bscript:fmodule.obj
 0001:0002d100       ?deallocate@?$allocator@PAVUserFunction@@@_STL@@QAEXPAPAVUserFunction@@I@Z 0042e100 f i bscript:fmodule.obj
 0001:0002d130       ??0?$_STLP_alloc_proxy@PAPAVUserFunction@@PAV1@V?$allocator@PAVUserFunction@@@_STL@@@_STL@@QAE@ABV?$allocator@PAVUserFunction@@@1@PAPAVUserFunction@@@Z 0042e130 f i bscript:fmodule.obj
 0001:0002d140       ??0?$_STLP_alloc_proxy@PAU?$_Rb_tree_node@U?$pair@$$CBV?$basic_string@DV?$char_traits@D@_STL@@V?$allocator@D@2@@_STL@@PAVModuleFunction@@@_STL@@@_STL@@U12@V?$allocator@U?$_Rb_tree_node@U?$pair@$$CBV?$basic_string@DV?$char_traits@D@_STL@@V?$allocator@D@2@@_STL@@PAVModuleFunction@@@_STL@@@_STL@@@2@@_STL@@QAE@ABV?$allocator@U?$_Rb_tree_node@U?$pair@$$CBV?$basic_string@DV?$char_traits@D@_STL@@V?$allocator@D@2@@_STL@@PAVModuleFunction@@@_STL@@@_STL@@@1@PAU?$_Rb_tree_node@U?$pair@$$CBV?$basic_string@DV?$char_traits@D@_STL@@V?$allocator@D@2@@_STL@@PAVModuleFunction@@@_STL@@@1@@Z 0042e140 f i bscript:fmodule.obj
 0001:0002d150       ?allocate@?$allocator@U?$_Rb_tree_node@U?$pair@$$CBV?$basic_string@DV?$char_traits@D@_STL@@V?$allocator@D@2@@_STL@@PAVModuleFunction@@@_STL@@@_STL@@@_STL@@QAEPAU?$_Rb_tree_node@U?$pair@$$CBV?$basic_string@DV?$char_traits@D@_STL@@V?$allocator@D@2@@_STL@@PAVModuleFunction@@@_STL@@@2@IPBX@Z 0042e150 f i bscript:fmodule.obj
 0001:0002d180       ?_S_key@?$_Rb_tree@V?$basic_string@DV?$char_traits@D@_STL@@V?$allocator@D@2@@_STL@@U?$pair@$$CBV?$basic_string@DV?$char_traits@D@_STL@@V?$allocator@D@2@@_STL@@PAVModuleFunction@@@2@U?$_Select1st@U?$pair@$$CBV?$basic_string@DV?$char_traits@D@_STL@@V?$allocator@D@2@@_STL@@PAVModuleFunction@@@_STL@@@2@Vci_cmp_pred@@V?$allocator@U?$pair@$$CBV?$basic_string@DV?$char_traits@D@_STL@@V?$allocator@D@2@@_STL@@PAVModuleFunction@@@_STL@@@2@@_STL@@KAABV?$basic_string@DV?$char_traits@D@_STL@@V?$allocator@D@2@@2@PAU?$_Rb_tree_node@U?$pair@$$CBV?$basic_string@DV?$char_traits@D@_STL@@V?$allocator@D@2@@_STL@@PAVModuleFunction@@@_STL@@@2@@Z 0042e180 f i bscript:fmodule.obj
 0001:0002d190       ??$__destroy@PAPAVModuleFunction@@PAV1@@_STL@@YAXPAPAVModuleFunction@@00@Z 0042e190 f i bscript:fmodule.obj
 0001:0002d1a0       ??$_M_find@V?$basic_string@DV?$char_traits@D@_STL@@V?$allocator@D@2@@_STL@@@?$_Rb_tree@V?$basic_string@DV?$char_traits@D@_STL@@V?$allocator@D@2@@_STL@@U?$pair@$$CBV?$basic_string@DV?$char_traits@D@_STL@@V?$allocator@D@2@@_STL@@PAVModuleFunction@@@2@U?$_Select1st@U?$pair@$$CBV?$basic_string@DV?$char_traits@D@_STL@@V?$allocator@D@2@@_STL@@PAVModuleFunction@@@_STL@@@2@Vci_cmp_pred@@V?$allocator@U?$pair@$$CBV?$basic_string@DV?$char_traits@D@_STL@@V?$allocator@D@2@@_STL@@PAVModuleFunction@@@_STL@@@2@@_STL@@ABEPAU?$_Rb_tree_node@U?$pair@$$CBV?$basic_string@DV?$char_traits@D@_STL@@V?$allocator@D@2@@_STL@@PAVModuleFunction@@@_STL@@@1@ABV?$basic_string@DV?$char_traits@D@_STL@@V?$allocator@D@2@@1@@Z 0042e1a0 f i bscript:fmodule.obj
 0001:0002d200       ??$__destroy@PAPAVUserFunction@@PAV1@@_STL@@YAXPAPAVUserFunction@@00@Z 0042e200 f i bscript:fmodule.obj
 0001:0002d210       ?end@?$map@V?$basic_string@DV?$char_traits@D@_STL@@V?$allocator@D@2@@_STL@@PAVModuleFunction@@Vci_cmp_pred@@V?$allocator@U?$pair@$$CBV?$basic_string@DV?$char_traits@D@_STL@@V?$allocator@D@2@@_STL@@PAVModuleFunction@@@_STL@@@2@@_STL@@QAE?AU?$_Rb_tree_iterator@U?$pair@$$CBV?$basic_string@DV?$char_traits@D@_STL@@V?$allocator@D@2@@_STL@@PAVModuleFunction@@@_STL@@U?$_Nonconst_traits@U?$pair@$$CBV?$basic_string@DV?$char_traits@D@_STL@@V?$allocator@D@2@@_STL@@PAVModuleFunction@@@_STL@@@2@@2@XZ 0042e210 f i bscript:fmodule.obj
 0001:0002d220       ??0?$_Vector_base@PAVModuleFunction@@V?$allocator@PAVModuleFunction@@@_STL@@@_STL@@QAE@ABV?$allocator@PAVModuleFunction@@@1@@Z 0042e220 f i bscript:fmodule.obj
 0001:0002d250       ??1?$_Vector_base@PAVModuleFunction@@V?$allocator@PAVModuleFunction@@@_STL@@@_STL@@QAE@XZ 0042e250 f i bscript:fmodule.obj
 0001:0002d280       ??1?$_Rb_tree_base@U?$pair@$$CBV?$basic_string@DV?$char_traits@D@_STL@@V?$allocator@D@2@@_STL@@PAVModuleFunction@@@_STL@@V?$allocator@U?$pair@$$CBV?$basic_string@DV?$char_traits@D@_STL@@V?$allocator@D@2@@_STL@@PAVModuleFunction@@@_STL@@@2@@_STL@@QAE@XZ 0042e280 f i bscript:fmodule.obj
 0001:0002d2a0       ??0?$_Vector_base@PAVUserFunction@@V?$allocator@PAVUserFunction@@@_STL@@@_STL@@QAE@ABV?$allocator@PAVUserFunction@@@1@@Z 0042e2a0 f i bscript:fmodule.obj
 0001:0002d2d0       ??1?$_Vector_base@PAVUserFunction@@V?$allocator@PAVUserFunction@@@_STL@@@_STL@@QAE@XZ 0042e2d0 f i bscript:fmodule.obj
 0001:0002d300       ??0?$_Rb_tree_base@U?$pair@$$CBV?$basic_string@DV?$char_traits@D@_STL@@V?$allocator@D@2@@_STL@@PAVModuleFunction@@@_STL@@V?$allocator@U?$pair@$$CBV?$basic_string@DV?$char_traits@D@_STL@@V?$allocator@D@2@@_STL@@PAVModuleFunction@@@_STL@@@2@@_STL@@QAE@ABV?$allocator@U?$pair@$$CBV?$basic_string@DV?$char_traits@D@_STL@@V?$allocator@D@2@@_STL@@PAVModuleFunction@@@_STL@@@1@@Z 0042e300 f i bscript:fmodule.obj
 0001:0002d330       ?_M_lower_bound@?$_Rb_tree@V?$basic_string@DV?$char_traits@D@_STL@@V?$allocator@D@2@@_STL@@U?$pair@$$CBV?$basic_string@DV?$char_traits@D@_STL@@V?$allocator@D@2@@_STL@@PAVModuleFunction@@@2@U?$_Select1st@U?$pair@$$CBV?$basic_string@DV?$char_traits@D@_STL@@V?$allocator@D@2@@_STL@@PAVModuleFunction@@@_STL@@@2@Vci_cmp_pred@@V?$allocator@U?$pair@$$CBV?$basic_string@DV?$char_traits@D@_STL@@V?$allocator@D@2@@_STL@@PAVModuleFunction@@@_STL@@@2@@_STL@@ABEPAU?$_Rb_tree_node@U?$pair@$$CBV?$basic_string@DV?$char_traits@D@_STL@@V?$allocator@D@2@@_STL@@PAVModuleFunction@@@_STL@@@2@ABV?$basic_string@DV?$char_traits@D@_STL@@V?$allocator@D@2@@2@@Z 0042e330 f i bscript:fmodule.obj
 0001:0002d370       ??$_Destroy@PAPAVModuleFunction@@@_STL@@YAXPAPAVModuleFunction@@0@Z 0042e370 f i bscript:fmodule.obj
 0001:0002d380       ??$find@V?$basic_string@DV?$char_traits@D@_STL@@V?$allocator@D@2@@_STL@@@?$_Rb_tree@V?$basic_string@DV?$char_traits@D@_STL@@V?$allocator@D@2@@_STL@@U?$pair@$$CBV?$basic_string@DV?$char_traits@D@_STL@@V?$allocator@D@2@@_STL@@PAVModuleFunction@@@2@U?$_Select1st@U?$pair@$$CBV?$basic_string@DV?$char_traits@D@_STL@@V?$allocator@D@2@@_STL@@PAVModuleFunction@@@_STL@@@2@Vci_cmp_pred@@V?$allocator@U?$pair@$$CBV?$basic_string@DV?$char_traits@D@_STL@@V?$allocator@D@2@@_STL@@PAVModuleFunction@@@_STL@@@2@@_STL@@QAE?AU?$_Rb_tree_iterator@U?$pair@$$CBV?$basic_string@DV?$char_traits@D@_STL@@V?$allocator@D@2@@_STL@@PAVModuleFunction@@@_STL@@U?$_Nonconst_traits@U?$pair@$$CBV?$basic_string@DV?$char_traits@D@_STL@@V?$allocator@D@2@@_STL@@PAVModuleFunction@@@_STL@@@2@@1@ABV?$basic_string@DV?$char_traits@D@_STL@@V?$allocator@D@2@@1@@Z 0042e380 f i bscript:fmodule.obj
 0001:0002d3a0       ??$_Destroy@PAPAVUserFunction@@@_STL@@YAXPAPAVUserFunction@@0@Z 0042e3a0 f i bscript:fmodule.obj
 0001:0002d3b0       ??0?$vector@PAVModuleFunction@@V?$allocator@PAVModuleFunction@@@_STL@@@_STL@@QAE@ABV?$allocator@PAVModuleFunction@@@1@@Z 0042e3b0 f i bscript:fmodule.obj
 0001:0002d3c0       ??1?$vector@PAVModuleFunction@@V?$allocator@PAVModuleFunction@@@_STL@@@_STL@@QAE@XZ 0042e3c0 f i bscript:fmodule.obj
 0001:0002d3f0       ?find@?$map@V?$basic_string@DV?$char_traits@D@_STL@@V?$allocator@D@2@@_STL@@PAVModuleFunction@@Vci_cmp_pred@@V?$allocator@U?$pair@$$CBV?$basic_string@DV?$char_traits@D@_STL@@V?$allocator@D@2@@_STL@@PAVModuleFunction@@@_STL@@@2@@_STL@@QAE?AU?$_Rb_tree_iterator@U?$pair@$$CBV?$basic_string@DV?$char_traits@D@_STL@@V?$allocator@D@2@@_STL@@PAVModuleFunction@@@_STL@@U?$_Nonconst_traits@U?$pair@$$CBV?$basic_string@DV?$char_traits@D@_STL@@V?$allocator@D@2@@_STL@@PAVModuleFunction@@@_STL@@@2@@2@ABV?$basic_string@DV?$char_traits@D@_STL@@V?$allocator@D@2@@2@@Z 0042e3f0 f i bscript:fmodule.obj
 0001:0002d410       ??0?$vector@PAVUserFunction@@V?$allocator@PAVUserFunction@@@_STL@@@_STL@@QAE@ABV?$allocator@PAVUserFunction@@@1@@Z 0042e410 f i bscript:fmodule.obj
 0001:0002d420       ??1?$vector@PAVUserFunction@@V?$allocator@PAVUserFunction@@@_STL@@@_STL@@QAE@XZ 0042e420 f i bscript:fmodule.obj
 0001:0002d450       ??0?$_Rb_tree@V?$basic_string@DV?$char_traits@D@_STL@@V?$allocator@D@2@@_STL@@U?$pair@$$CBV?$basic_string@DV?$char_traits@D@_STL@@V?$allocator@D@2@@_STL@@PAVModuleFunction@@@2@U?$_Select1st@U?$pair@$$CBV?$basic_string@DV?$char_traits@D@_STL@@V?$allocator@D@2@@_STL@@PAVModuleFunction@@@_STL@@@2@Vci_cmp_pred@@V?$allocator@U?$pair@$$CBV?$basic_string@DV?$char_traits@D@_STL@@V?$allocator@D@2@@_STL@@PAVModuleFunction@@@_STL@@@2@@_STL@@QAE@ABVci_cmp_pred@@ABV?$allocator@U?$pair@$$CBV?$basic_string@DV?$char_traits@D@_STL@@V?$allocator@D@2@@_STL@@PAVModuleFunction@@@_STL@@@1@@Z 0042e450 f i bscript:fmodule.obj
 0001:0002d490       ?_M_clear@?$vector@PAVModuleFunction@@V?$allocator@PAVModuleFunction@@@_STL@@@_STL@@IAEXXZ 0042e490 f i bscript:fmodule.obj
 0001:0002d4c0       ?lower_bound@?$_Rb_tree@V?$basic_string@DV?$char_traits@D@_STL@@V?$allocator@D@2@@_STL@@U?$pair@$$CBV?$basic_string@DV?$char_traits@D@_STL@@V?$allocator@D@2@@_STL@@PAVModuleFunction@@@2@U?$_Select1st@U?$pair@$$CBV?$basic_string@DV?$char_traits@D@_STL@@V?$allocator@D@2@@_STL@@PAVModuleFunction@@@_STL@@@2@Vci_cmp_pred@@V?$allocator@U?$pair@$$CBV?$basic_string@DV?$char_traits@D@_STL@@V?$allocator@D@2@@_STL@@PAVModuleFunction@@@_STL@@@2@@_STL@@QAE?AU?$_Rb_tree_iterator@U?$pair@$$CBV?$basic_string@DV?$char_traits@D@_STL@@V?$allocator@D@2@@_STL@@PAVModuleFunction@@@_STL@@U?$_Nonconst_traits@U?$pair@$$CBV?$basic_string@DV?$char_traits@D@_STL@@V?$allocator@D@2@@_STL@@PAVModuleFunction@@@_STL@@@2@@2@ABV?$basic_string@DV?$char_traits@D@_STL@@V?$allocator@D@2@@2@@Z 0042e4c0 f i bscript:fmodule.obj
 0001:0002d4e0       ?_M_clear@?$vector@PAVUserFunction@@V?$allocator@PAVUserFunction@@@_STL@@@_STL@@IAEXXZ 0042e4e0 f i bscript:fmodule.obj
 0001:0002d510       ??1?$pair@$$CBV?$basic_string@DV?$char_traits@D@_STL@@V?$allocator@D@2@@_STL@@PAVModuleFunction@@@_STL@@QAE@XZ 0042e510 f i bscript:fmodule.obj
 0001:0002d540       ?_M_insert_overflow@?$vector@PAVModuleFunction@@V?$allocator@PAVModuleFunction@@@_STL@@@_STL@@IAEXPAPAVModuleFunction@@ABQAV3@ABU__true_type@2@I_N@Z 0042e540 f i bscript:fmodule.obj
 0001:0002d650       ?lower_bound@?$map@V?$basic_string@DV?$char_traits@D@_STL@@V?$allocator@D@2@@_STL@@PAVModuleFunction@@Vci_cmp_pred@@V?$allocator@U?$pair@$$CBV?$basic_string@DV?$char_traits@D@_STL@@V?$allocator@D@2@@_STL@@PAVModuleFunction@@@_STL@@@2@@_STL@@QAE?AU?$_Rb_tree_iterator@U?$pair@$$CBV?$basic_string@DV?$char_traits@D@_STL@@V?$allocator@D@2@@_STL@@PAVModuleFunction@@@_STL@@U?$_Nonconst_traits@U?$pair@$$CBV?$basic_string@DV?$char_traits@D@_STL@@V?$allocator@D@2@@_STL@@PAVModuleFunction@@@_STL@@@2@@2@ABV?$basic_string@DV?$char_traits@D@_STL@@V?$allocator@D@2@@2@@Z 0042e650 f i bscript:fmodule.obj
 0001:0002d670       ?_M_insert_overflow@?$vector@PAVUserFunction@@V?$allocator@PAVUserFunction@@@_STL@@@_STL@@IAEXPAPAVUserFunction@@ABQAV3@ABU__true_type@2@I_N@Z 0042e670 f i bscript:fmodule.obj
 0001:0002d780       ??_G?$pair@$$CBV?$basic_string@DV?$char_traits@D@_STL@@V?$allocator@D@2@@_STL@@PAVModuleFunction@@@_STL@@QAEPAXI@Z 0042e780 f i bscript:fmodule.obj
 0001:0002d7a0       ??0ModuleFunction@@QAE@PBDHPAVUserFunction@@@Z 0042e7a0 f   bscript:fmodule.obj
 0001:0002d7e0       ??1ModuleFunction@@QAE@XZ  0042e7e0 f   bscript:fmodule.obj
 0001:0002d810       ??_GModuleFunction@@QAEPAXI@Z 0042e810 f i bscript:fmodule.obj
 0001:0002d830       ?push_back@?$vector@PAVModuleFunction@@V?$allocator@PAVModuleFunction@@@_STL@@@_STL@@QAEXABQAVModuleFunction@@@Z 0042e830 f i bscript:fmodule.obj
 0001:0002d870       ?push_back@?$vector@PAVUserFunction@@V?$allocator@PAVUserFunction@@@_STL@@@_STL@@QAEXABQAVUserFunction@@@Z 0042e870 f i bscript:fmodule.obj
 0001:0002d8b0       ??$_Destroy@U?$pair@$$CBV?$basic_string@DV?$char_traits@D@_STL@@V?$allocator@D@2@@_STL@@PAVModuleFunction@@@_STL@@@_STL@@YAXPAU?$pair@$$CBV?$basic_string@DV?$char_traits@D@_STL@@V?$allocator@D@2@@_STL@@PAVModuleFunction@@@0@@Z 0042e8b0 f i bscript:fmodule.obj
 0001:0002d8c0       ?addFunction@FunctionalityModule@@QAEXPBDHPAVUserFunction@@@Z 0042e8c0 f   bscript:fmodule.obj
 0001:0002d9d0       ?isFunc@FunctionalityModule@@QAE_NPBDPAPAVModuleFunction@@PAH@Z 0042e9d0 f   bscript:fmodule.obj
 0001:0002dad0       ?_M_erase@?$_Rb_tree@V?$basic_string@DV?$char_traits@D@_STL@@V?$allocator@D@2@@_STL@@U?$pair@$$CBV?$basic_string@DV?$char_traits@D@_STL@@V?$allocator@D@2@@_STL@@PAVModuleFunction@@@2@U?$_Select1st@U?$pair@$$CBV?$basic_string@DV?$char_traits@D@_STL@@V?$allocator@D@2@@_STL@@PAVModuleFunction@@@_STL@@@2@Vci_cmp_pred@@V?$allocator@U?$pair@$$CBV?$basic_string@DV?$char_traits@D@_STL@@V?$allocator@D@2@@_STL@@PAVModuleFunction@@@_STL@@@2@@_STL@@AAEXPAU?$_Rb_tree_node@U?$pair@$$CBV?$basic_string@DV?$char_traits@D@_STL@@V?$allocator@D@2@@_STL@@PAVModuleFunction@@@_STL@@@2@@Z 0042ead0 f i bscript:fmodule.obj
 0001:0002db10       ??0?$pair@$$CBV?$basic_string@DV?$char_traits@D@_STL@@V?$allocator@D@2@@_STL@@PAVModuleFunction@@@_STL@@QAE@ABU01@@Z 0042eb10 f i bscript:fmodule.obj
 0001:0002db30       ?clear@?$_Rb_tree@V?$basic_string@DV?$char_traits@D@_STL@@V?$allocator@D@2@@_STL@@U?$pair@$$CBV?$basic_string@DV?$char_traits@D@_STL@@V?$allocator@D@2@@_STL@@PAVModuleFunction@@@2@U?$_Select1st@U?$pair@$$CBV?$basic_string@DV?$char_traits@D@_STL@@V?$allocator@D@2@@_STL@@PAVModuleFunction@@@_STL@@@2@Vci_cmp_pred@@V?$allocator@U?$pair@$$CBV?$basic_string@DV?$char_traits@D@_STL@@V?$allocator@D@2@@_STL@@PAVModuleFunction@@@_STL@@@2@@_STL@@QAEXXZ 0042eb30 f i bscript:fmodule.obj
 0001:0002db70       ??0?$pair@$$CBV?$basic_string@DV?$char_traits@D@_STL@@V?$allocator@D@2@@_STL@@PAVModuleFunction@@@_STL@@QAE@ABV?$basic_string@DV?$char_traits@D@_STL@@V?$allocator@D@2@@1@ABQAVModuleFunction@@@Z 0042eb70 f i bscript:fmodule.obj
 0001:0002db90       ??$_Construct@U?$pair@$$CBV?$basic_string@DV?$char_traits@D@_STL@@V?$allocator@D@2@@_STL@@PAVModuleFunction@@@_STL@@U12@@_STL@@YAXPAU?$pair@$$CBV?$basic_string@DV?$char_traits@D@_STL@@V?$allocator@D@2@@_STL@@PAVModuleFunction@@@0@ABU10@@Z 0042eb90 f i bscript:fmodule.obj
 0001:0002dbe0       ??1?$_Rb_tree@V?$basic_string@DV?$char_traits@D@_STL@@V?$allocator@D@2@@_STL@@U?$pair@$$CBV?$basic_string@DV?$char_traits@D@_STL@@V?$allocator@D@2@@_STL@@PAVModuleFunction@@@2@U?$_Select1st@U?$pair@$$CBV?$basic_string@DV?$char_traits@D@_STL@@V?$allocator@D@2@@_STL@@PAVModuleFunction@@@_STL@@@2@Vci_cmp_pred@@V?$allocator@U?$pair@$$CBV?$basic_string@DV?$char_traits@D@_STL@@V?$allocator@D@2@@_STL@@PAVModuleFunction@@@_STL@@@2@@_STL@@QAE@XZ 0042ebe0 f i bscript:fmodule.obj
 0001:0002dc60       ?_M_create_node@?$_Rb_tree@V?$basic_string@DV?$char_traits@D@_STL@@V?$allocator@D@2@@_STL@@U?$pair@$$CBV?$basic_string@DV?$char_traits@D@_STL@@V?$allocator@D@2@@_STL@@PAVModuleFunction@@@2@U?$_Select1st@U?$pair@$$CBV?$basic_string@DV?$char_traits@D@_STL@@V?$allocator@D@2@@_STL@@PAVModuleFunction@@@_STL@@@2@Vci_cmp_pred@@V?$allocator@U?$pair@$$CBV?$basic_string@DV?$char_traits@D@_STL@@V?$allocator@D@2@@_STL@@PAVModuleFunction@@@_STL@@@2@@_STL@@IAEPAU?$_Rb_tree_node@U?$pair@$$CBV?$basic_string@DV?$char_traits@D@_STL@@V?$allocator@D@2@@_STL@@PAVModuleFunction@@@_STL@@@2@ABU?$pair@$$CBV?$basic_string@DV?$char_traits@D@_STL@@V?$allocator@D@2@@_STL@@PAVModuleFunction@@@2@@Z 0042ec60 f i bscript:fmodule.obj
 0001:0002dce0       ??1?$map@V?$basic_string@DV?$char_traits@D@_STL@@V?$allocator@D@2@@_STL@@PAVModuleFunction@@Vci_cmp_pred@@V?$allocator@U?$pair@$$CBV?$basic_string@DV?$char_traits@D@_STL@@V?$allocator@D@2@@_STL@@PAVModuleFunction@@@_STL@@@2@@_STL@@QAE@XZ 0042ece0 f i bscript:fmodule.obj
 0001:0002dcf0       ??1FunctionalityModule@@QAE@XZ 0042ecf0 f   bscript:fmodule.obj
 0001:0002dea0       ??0?$map@V?$basic_string@DV?$char_traits@D@_STL@@V?$allocator@D@2@@_STL@@PAVModuleFunction@@Vci_cmp_pred@@V?$allocator@U?$pair@$$CBV?$basic_string@DV?$char_traits@D@_STL@@V?$allocator@D@2@@_STL@@PAVModuleFunction@@@_STL@@@2@@_STL@@QAE@XZ 0042eea0 f i bscript:fmodule.obj
 0001:0002dee0       ?_M_insert@?$_Rb_tree@V?$basic_string@DV?$char_traits@D@_STL@@V?$allocator@D@2@@_STL@@U?$pair@$$CBV?$basic_string@DV?$char_traits@D@_STL@@V?$allocator@D@2@@_STL@@PAVModuleFunction@@@2@U?$_Select1st@U?$pair@$$CBV?$basic_string@DV?$char_traits@D@_STL@@V?$allocator@D@2@@_STL@@PAVModuleFunction@@@_STL@@@2@Vci_cmp_pred@@V?$allocator@U?$pair@$$CBV?$basic_string@DV?$char_traits@D@_STL@@V?$allocator@D@2@@_STL@@PAVModuleFunction@@@_STL@@@2@@_STL@@AAE?AU?$_Rb_tree_iterator@U?$pair@$$CBV?$basic_string@DV?$char_traits@D@_STL@@V?$allocator@D@2@@_STL@@PAVModuleFunction@@@_STL@@U?$_Nonconst_traits@U?$pair@$$CBV?$basic_string@DV?$char_traits@D@_STL@@V?$allocator@D@2@@_STL@@PAVModuleFunction@@@_STL@@@2@@2@PAU_Rb_tree_node_base@2@0ABU?$pair@$$CBV?$basic_string@DV?$char_traits@D@_STL@@V?$allocator@D@2@@_STL@@PAVModuleFunction@@@2@0@Z 0042eee0 f i bscript:fmodule.obj
 0001:0002df90       ?insert_unique@?$_Rb_tree@V?$basic_string@DV?$char_traits@D@_STL@@V?$allocator@D@2@@_STL@@U?$pair@$$CBV?$basic_string@DV?$char_traits@D@_STL@@V?$allocator@D@2@@_STL@@PAVModuleFunction@@@2@U?$_Select1st@U?$pair@$$CBV?$basic_string@DV?$char_traits@D@_STL@@V?$allocator@D@2@@_STL@@PAVModuleFunction@@@_STL@@@2@Vci_cmp_pred@@V?$allocator@U?$pair@$$CBV?$basic_string@DV?$char_traits@D@_STL@@V?$allocator@D@2@@_STL@@PAVModuleFunction@@@_STL@@@2@@_STL@@QAE?AU?$pair@U?$_Rb_tree_iterator@U?$pair@$$CBV?$basic_string@DV?$char_traits@D@_STL@@V?$allocator@D@2@@_STL@@PAVModuleFunction@@@_STL@@U?$_Nonconst_traits@U?$pair@$$CBV?$basic_string@DV?$char_traits@D@_STL@@V?$allocator@D@2@@_STL@@PAVModuleFunction@@@_STL@@@2@@_STL@@_N@2@ABU?$pair@$$CBV?$basic_string@DV?$char_traits@D@_STL@@V?$allocator@D@2@@_STL@@PAVModuleFunction@@@2@@Z 0042ef90 f i bscript:fmodule.obj
 0001:0002e060       ??0FunctionalityModule@@QAE@PBD@Z 0042f060 f   bscript:fmodule.obj
 0001:0002e100       ?insert_unique@?$_Rb_tree@V?$basic_string@DV?$char_traits@D@_STL@@V?$allocator@D@2@@_STL@@U?$pair@$$CBV?$basic_string@DV?$char_traits@D@_STL@@V?$allocator@D@2@@_STL@@PAVModuleFunction@@@2@U?$_Select1st@U?$pair@$$CBV?$basic_string@DV?$char_traits@D@_STL@@V?$allocator@D@2@@_STL@@PAVModuleFunction@@@_STL@@@2@Vci_cmp_pred@@V?$allocator@U?$pair@$$CBV?$basic_string@DV?$char_traits@D@_STL@@V?$allocator@D@2@@_STL@@PAVModuleFunction@@@_STL@@@2@@_STL@@QAE?AU?$_Rb_tree_iterator@U?$pair@$$CBV?$basic_string@DV?$char_traits@D@_STL@@V?$allocator@D@2@@_STL@@PAVModuleFunction@@@_STL@@U?$_Nonconst_traits@U?$pair@$$CBV?$basic_string@DV?$char_traits@D@_STL@@V?$allocator@D@2@@_STL@@PAVModuleFunction@@@_STL@@@2@@2@U32@ABU?$pair@$$CBV?$basic_string@DV?$char_traits@D@_STL@@V?$allocator@D@2@@_STL@@PAVModuleFunction@@@2@@Z 0042f100 f i bscript:fmodule.obj
 0001:0002e3b0       ?insert@?$map@V?$basic_string@DV?$char_traits@D@_STL@@V?$allocator@D@2@@_STL@@PAVModuleFunction@@Vci_cmp_pred@@V?$allocator@U?$pair@$$CBV?$basic_string@DV?$char_traits@D@_STL@@V?$allocator@D@2@@_STL@@PAVModuleFunction@@@_STL@@@2@@_STL@@QAE?AU?$_Rb_tree_iterator@U?$pair@$$CBV?$basic_string@DV?$char_traits@D@_STL@@V?$allocator@D@2@@_STL@@PAVModuleFunction@@@_STL@@U?$_Nonconst_traits@U?$pair@$$CBV?$basic_string@DV?$char_traits@D@_STL@@V?$allocator@D@2@@_STL@@PAVModuleFunction@@@_STL@@@2@@2@U32@ABU?$pair@$$CBV?$basic_string@DV?$char_traits@D@_STL@@V?$allocator@D@2@@_STL@@PAVModuleFunction@@@2@@Z 0042f3b0 f i bscript:fmodule.obj
 0001:0002e3d0       ??A?$map@V?$basic_string@DV?$char_traits@D@_STL@@V?$allocator@D@2@@_STL@@PAVModuleFunction@@Vci_cmp_pred@@V?$allocator@U?$pair@$$CBV?$basic_string@DV?$char_traits@D@_STL@@V?$allocator@D@2@@_STL@@PAVModuleFunction@@@_STL@@@2@@_STL@@QAEAAPAVModuleFunction@@ABV?$basic_string@DV?$char_traits@D@_STL@@V?$allocator@D@2@@1@@Z 0042f3d0 f i bscript:fmodule.obj
 0001:0002e490       ?fillFunctionsByName@FunctionalityModule@@QAEXXZ 0042f490 f   bscript:fmodule.obj
 0001:0002e4d0       ?instances@UserFunction@@SAKXZ 0042f4d0 f   bscript:userfunc.obj
 0001:0002e4e0       ??0?$allocator@VUserParam@@@_STL@@QAE@XZ 0042f4e0 f i bscript:userfunc.obj
 0001:0002e4f0       ??D?$_Rb_tree_iterator@PAVUserFunction@@U?$_Const_traits@PAVUserFunction@@@_STL@@@_STL@@QBEABQAVUserFunction@@XZ 0042f4f0 f i bscript:userfunc.obj
 0001:0002e500       ??E?$_Rb_tree_iterator@PAVUserFunction@@U?$_Const_traits@PAVUserFunction@@@_STL@@@_STL@@QAEAAU01@XZ 0042f500 f i bscript:userfunc.obj
 0001:0002e520       ??0?$pair@U?$_Rb_tree_iterator@PAVUserFunction@@U?$_Const_traits@PAVUserFunction@@@_STL@@@_STL@@_N@_STL@@QAE@ABU?$_Rb_tree_iterator@PAVUserFunction@@U?$_Const_traits@PAVUserFunction@@@_STL@@@1@AB_N@Z 0042f520 f i bscript:userfunc.obj
 0001:0002e540       ?_M_root@?$_Rb_tree@PAVUserFunction@@PAV1@U?$_Identity@PAVUserFunction@@@_STL@@U?$less@PAVUserFunction@@@3@V?$allocator@PAVUserFunction@@@3@@_STL@@IBEAAPAU?$_Rb_tree_node@PAVUserFunction@@@2@XZ 0042f540 f i bscript:userfunc.obj
 0001:0002e550       ?_M_leftmost@?$_Rb_tree@PAVUserFunction@@PAV1@U?$_Identity@PAVUserFunction@@@_STL@@U?$less@PAVUserFunction@@@3@V?$allocator@PAVUserFunction@@@3@@_STL@@IBEAAPAU?$_Rb_tree_node@PAVUserFunction@@@2@XZ 0042f550 f i bscript:userfunc.obj
 0001:0002e560       ?_M_rightmost@?$_Rb_tree@PAVUserFunction@@PAV1@U?$_Identity@PAVUserFunction@@@_STL@@U?$less@PAVUserFunction@@@3@V?$allocator@PAVUserFunction@@@3@@_STL@@IBEAAPAU?$_Rb_tree_node@PAVUserFunction@@@2@XZ 0042f560 f i bscript:userfunc.obj
 0001:0002e570       ??1?$allocator@U?$_Rb_tree_node@PAVUserFunction@@@_STL@@@_STL@@QAE@XZ 0042f570 f i bscript:userfunc.obj
 0001:0002e580       ??0?$_Rb_tree_iterator@PAVUserFunction@@U?$_Const_traits@PAVUserFunction@@@_STL@@@_STL@@QAE@PAU?$_Rb_tree_node@PAVUserFunction@@@1@@Z 0042f580 f i bscript:userfunc.obj
 0001:0002e590       ??0?$_Rb_tree_iterator@PAVUserFunction@@U?$_Nonconst_traits@PAVUserFunction@@@_STL@@@_STL@@QAE@ABU01@@Z 0042f590 f i bscript:userfunc.obj
 0001:0002e5a0       ?_S_color@?$_Rb_tree@PAVUserFunction@@PAV1@U?$_Identity@PAVUserFunction@@@_STL@@U?$less@PAVUserFunction@@@3@V?$allocator@PAVUserFunction@@@3@@_STL@@KAAA_NPAU?$_Rb_tree_node@PAVUserFunction@@@2@@Z 0042f5a0 f i bscript:userfunc.obj
 0001:0002e5b0       ??E?$_Rb_tree_iterator@PAVUserFunction@@U?$_Nonconst_traits@PAVUserFunction@@@_STL@@@_STL@@QAE?AU01@H@Z 0042f5b0 f i bscript:userfunc.obj
 0001:0002e5d0       ??0?$pair@U?$_Rb_tree_iterator@PAVUserFunction@@U?$_Nonconst_traits@PAVUserFunction@@@_STL@@@_STL@@U12@@_STL@@QAE@ABU?$_Rb_tree_iterator@PAVUserFunction@@U?$_Nonconst_traits@PAVUserFunction@@@_STL@@@1@0@Z 0042f5d0 f i bscript:userfunc.obj
 0001:0002e5f0       ??0?$allocator@U?$_Rb_tree_node@PAVUserFunction@@@_STL@@@_STL@@QAE@ABV01@@Z 0042f5f0 f i bscript:userfunc.obj
 0001:0002e600       ??0?$_Rb_tree_iterator@PAVUserFunction@@U?$_Nonconst_traits@PAVUserFunction@@@_STL@@@_STL@@QAE@PAU?$_Rb_tree_node@PAVUserFunction@@@1@@Z 0042f600 f i bscript:userfunc.obj
 0001:0002e610       ?_S_left@?$_Rb_tree@PAVUserFunction@@PAV1@U?$_Identity@PAVUserFunction@@@_STL@@U?$less@PAVUserFunction@@@3@V?$allocator@PAVUserFunction@@@3@@_STL@@KAAAPAU?$_Rb_tree_node@PAVUserFunction@@@2@PAU32@@Z 0042f610 f i bscript:userfunc.obj
 0001:0002e620       ?_S_right@?$_Rb_tree@PAVUserFunction@@PAV1@U?$_Identity@PAVUserFunction@@@_STL@@U?$less@PAVUserFunction@@@3@V?$allocator@PAVUserFunction@@@3@@_STL@@KAAAPAU?$_Rb_tree_node@PAVUserFunction@@@2@PAU32@@Z 0042f620 f i bscript:userfunc.obj
 0001:0002e630       ??R?$less@PAVUserFunction@@@_STL@@QBE_NABQAVUserFunction@@0@Z 0042f630 f i bscript:userfunc.obj
 0001:0002e650       ?_S_value@?$_Rb_tree@PAVUserFunction@@PAV1@U?$_Identity@PAVUserFunction@@@_STL@@U?$less@PAVUserFunction@@@3@V?$allocator@PAVUserFunction@@@3@@_STL@@KAAAPAVUserFunction@@PAU?$_Rb_tree_node@PAVUserFunction@@@2@@Z 0042f650 f i bscript:userfunc.obj
 0001:0002e660       ??R?$_Identity@PAVUserFunction@@@_STL@@QBEABQAVUserFunction@@ABQAV2@@Z 0042f660 f i bscript:userfunc.obj
 0001:0002e670       ??$?0PAVUserFunction@@@?$allocator@U?$_Rb_tree_node@PAVUserFunction@@@_STL@@@_STL@@QAE@ABV?$allocator@PAVUserFunction@@@1@@Z 0042f670 f i bscript:userfunc.obj
 0001:0002e680       ?_S_key@?$_Rb_tree@PAVUserFunction@@PAV1@U?$_Identity@PAVUserFunction@@@_STL@@U?$less@PAVUserFunction@@@3@V?$allocator@PAVUserFunction@@@3@@_STL@@KAABQAVUserFunction@@PAU_Rb_tree_node_base@2@@Z 0042f680 f i bscript:userfunc.obj
 0001:0002e690       ??F?$_Rb_tree_iterator@PAVUserFunction@@U?$_Nonconst_traits@PAVUserFunction@@@_STL@@@_STL@@QAEAAU01@XZ 0042f690 f i bscript:userfunc.obj
 0001:0002e6b0       ??0?$pair@U?$_Rb_tree_iterator@PAVUserFunction@@U?$_Nonconst_traits@PAVUserFunction@@@_STL@@@_STL@@_N@_STL@@QAE@ABU?$_Rb_tree_iterator@PAVUserFunction@@U?$_Nonconst_traits@PAVUserFunction@@@_STL@@@1@AB_N@Z 0042f6b0 f i bscript:userfunc.obj
 0001:0002e6d0       ?_S_parent@?$_Rb_tree@PAVUserFunction@@PAV1@U?$_Identity@PAVUserFunction@@@_STL@@U?$less@PAVUserFunction@@@3@V?$allocator@PAVUserFunction@@@3@@_STL@@KAAAPAU?$_Rb_tree_node@PAVUserFunction@@@2@PAU32@@Z 0042f6d0 f i bscript:userfunc.obj
 0001:0002e6e0       ??E?$_Rb_tree_iterator@PAVUserFunction@@U?$_Nonconst_traits@PAVUserFunction@@@_STL@@@_STL@@QAEAAU01@XZ 0042f6e0 f i bscript:userfunc.obj
 0001:0002e700       ?begin@?$_Rb_tree@PAVUserFunction@@PAV1@U?$_Identity@PAVUserFunction@@@_STL@@U?$less@PAVUserFunction@@@3@V?$allocator@PAVUserFunction@@@3@@_STL@@QBE?AU?$_Rb_tree_iterator@PAVUserFunction@@U?$_Const_traits@PAVUserFunction@@@_STL@@@2@XZ 0042f700 f i bscript:userfunc.obj
 0001:0002e710       ?end@?$_Rb_tree@PAVUserFunction@@PAV1@U?$_Identity@PAVUserFunction@@@_STL@@U?$less@PAVUserFunction@@@3@V?$allocator@PAVUserFunction@@@3@@_STL@@QBE?AU?$_Rb_tree_iterator@PAVUserFunction@@U?$_Const_traits@PAVUserFunction@@@_STL@@@2@XZ 0042f710 f i bscript:userfunc.obj
 0001:0002e720       ??1?$_STLP_alloc_proxy@PAU?$_Rb_tree_node@PAVUserFunction@@@_STL@@U12@V?$allocator@U?$_Rb_tree_node@PAVUserFunction@@@_STL@@@2@@_STL@@QAE@XZ 0042f720 f i bscript:userfunc.obj
 0001:0002e730       ?_M_empty_initialize@?$_Rb_tree@PAVUserFunction@@PAV1@U?$_Identity@PAVUserFunction@@@_STL@@U?$less@PAVUserFunction@@@3@V?$allocator@PAVUserFunction@@@3@@_STL@@AAEXXZ 0042f730 f i bscript:userfunc.obj
 0001:0002e750       ?deallocate@?$allocator@U?$_Rb_tree_node@PAVUserFunction@@@_STL@@@_STL@@QAEXPAU?$_Rb_tree_node@PAVUserFunction@@@2@I@Z 0042f750 f i bscript:userfunc.obj
 0001:0002e790       ?begin@?$_Rb_tree@PAVUserFunction@@PAV1@U?$_Identity@PAVUserFunction@@@_STL@@U?$less@PAVUserFunction@@@3@V?$allocator@PAVUserFunction@@@3@@_STL@@QAE?AU?$_Rb_tree_iterator@PAVUserFunction@@U?$_Nonconst_traits@PAVUserFunction@@@_STL@@@2@XZ 0042f790 f i bscript:userfunc.obj
 0001:0002e7a0       ?end@?$_Rb_tree@PAVUserFunction@@PAV1@U?$_Identity@PAVUserFunction@@@_STL@@U?$less@PAVUserFunction@@@3@V?$allocator@PAVUserFunction@@@3@@_STL@@QAE?AU?$_Rb_tree_iterator@PAVUserFunction@@U?$_Nonconst_traits@PAVUserFunction@@@_STL@@@2@XZ 0042f7a0 f i bscript:userfunc.obj
 0001:0002e7b0       ?erase@?$_Rb_tree@PAVUserFunction@@PAV1@U?$_Identity@PAVUserFunction@@@_STL@@U?$less@PAVUserFunction@@@3@V?$allocator@PAVUserFunction@@@3@@_STL@@QAEXU?$_Rb_tree_iterator@PAVUserFunction@@U?$_Nonconst_traits@PAVUserFunction@@@_STL@@@2@@Z 0042f7b0 f i bscript:userfunc.obj
 0001:0002e7f0       ??0?$_STLP_alloc_proxy@PAU?$_Rb_tree_node@PAVUserFunction@@@_STL@@U12@V?$allocator@U?$_Rb_tree_node@PAVUserFunction@@@_STL@@@2@@_STL@@QAE@ABV?$allocator@U?$_Rb_tree_node@PAVUserFunction@@@_STL@@@1@PAU?$_Rb_tree_node@PAVUserFunction@@@1@@Z 0042f7f0 f i bscript:userfunc.obj
 0001:0002e800       ?allocate@?$allocator@U?$_Rb_tree_node@PAVUserFunction@@@_STL@@@_STL@@QAEPAU?$_Rb_tree_node@PAVUserFunction@@@2@IPBX@Z 0042f800 f i bscript:userfunc.obj
 0001:0002e840       ?_S_key@?$_Rb_tree@PAVUserFunction@@PAV1@U?$_Identity@PAVUserFunction@@@_STL@@U?$less@PAVUserFunction@@@3@V?$allocator@PAVUserFunction@@@3@@_STL@@KAABQAVUserFunction@@PAU?$_Rb_tree_node@PAVUserFunction@@@2@@Z 0042f840 f i bscript:userfunc.obj
 0001:0002e850       ?_M_erase@?$_Rb_tree@PAVUserFunction@@PAV1@U?$_Identity@PAVUserFunction@@@_STL@@U?$less@PAVUserFunction@@@3@V?$allocator@PAVUserFunction@@@3@@_STL@@AAEXPAU?$_Rb_tree_node@PAVUserFunction@@@2@@Z 0042f850 f i bscript:userfunc.obj
 0001:0002e890       ??$__distance@U?$_Rb_tree_iterator@PAVUserFunction@@U?$_Nonconst_traits@PAVUserFunction@@@_STL@@@_STL@@@_STL@@YAHABU?$_Rb_tree_iterator@PAVUserFunction@@U?$_Nonconst_traits@PAVUserFunction@@@_STL@@@0@0ABUinput_iterator_tag@0@@Z 0042f890 f i bscript:userfunc.obj
 0001:0002e8c0       ?_M_create_node@?$_Rb_tree@PAVUserFunction@@PAV1@U?$_Identity@PAVUserFunction@@@_STL@@U?$less@PAVUserFunction@@@3@V?$allocator@PAVUserFunction@@@3@@_STL@@IAEPAU?$_Rb_tree_node@PAVUserFunction@@@2@ABQAVUserFunction@@@Z 0042f8c0 f i bscript:userfunc.obj
 0001:0002e8e0       ?begin@?$set@PAVUserFunction@@U?$less@PAVUserFunction@@@_STL@@V?$allocator@PAVUserFunction@@@3@@_STL@@QBE?AU?$_Rb_tree_iterator@PAVUserFunction@@U?$_Const_traits@PAVUserFunction@@@_STL@@@2@XZ 0042f8e0 f i bscript:userfunc.obj
 0001:0002e8f0       ?end@?$set@PAVUserFunction@@U?$less@PAVUserFunction@@@_STL@@V?$allocator@PAVUserFunction@@@3@@_STL@@QBE?AU?$_Rb_tree_iterator@PAVUserFunction@@U?$_Const_traits@PAVUserFunction@@@_STL@@@2@XZ 0042f8f0 f i bscript:userfunc.obj
 0001:0002e900       ??0?$_Vector_base@VUserParam@@V?$allocator@VUserParam@@@_STL@@@_STL@@QAE@ABV?$allocator@VUserParam@@@1@@Z 0042f900 f i bscript:userfunc.obj
 0001:0002e930       ?clear@?$_Rb_tree@PAVUserFunction@@PAV1@U?$_Identity@PAVUserFunction@@@_STL@@U?$less@PAVUserFunction@@@3@V?$allocator@PAVUserFunction@@@3@@_STL@@QAEXXZ 0042f930 f i bscript:userfunc.obj
 0001:0002e970       ??1?$_Rb_tree_base@PAVUserFunction@@V?$allocator@PAVUserFunction@@@_STL@@@_STL@@QAE@XZ 0042f970 f i bscript:userfunc.obj
 0001:0002e990       ?erase@?$_Rb_tree@PAVUserFunction@@PAV1@U?$_Identity@PAVUserFunction@@@_STL@@U?$less@PAVUserFunction@@@3@V?$allocator@PAVUserFunction@@@3@@_STL@@QAEXU?$_Rb_tree_iterator@PAVUserFunction@@U?$_Nonconst_traits@PAVUserFunction@@@_STL@@@2@0@Z 0042f990 f i bscript:userfunc.obj
 0001:0002ea30       ??0?$_Rb_tree_base@PAVUserFunction@@V?$allocator@PAVUserFunction@@@_STL@@@_STL@@QAE@ABV?$allocator@PAVUserFunction@@@1@@Z 0042fa30 f i bscript:userfunc.obj
 0001:0002ea60       ?_M_lower_bound@?$_Rb_tree@PAVUserFunction@@PAV1@U?$_Identity@PAVUserFunction@@@_STL@@U?$less@PAVUserFunction@@@3@V?$allocator@PAVUserFunction@@@3@@_STL@@ABEPAU?$_Rb_tree_node@PAVUserFunction@@@2@ABQAVUserFunction@@@Z 0042fa60 f i bscript:userfunc.obj
 0001:0002ea90       ?_M_upper_bound@?$_Rb_tree@PAVUserFunction@@PAV1@U?$_Identity@PAVUserFunction@@@_STL@@U?$less@PAVUserFunction@@@3@V?$allocator@PAVUserFunction@@@3@@_STL@@ABEPAU?$_Rb_tree_node@PAVUserFunction@@@2@ABQAVUserFunction@@@Z 0042fa90 f i bscript:userfunc.obj
 0001:0002eac0       ??$distance@U?$_Rb_tree_iterator@PAVUserFunction@@U?$_Nonconst_traits@PAVUserFunction@@@_STL@@@_STL@@@_STL@@YAHABU?$_Rb_tree_iterator@PAVUserFunction@@U?$_Nonconst_traits@PAVUserFunction@@@_STL@@@0@0@Z 0042fac0 f i bscript:userfunc.obj
 0001:0002eaf0       ?_M_insert@?$_Rb_tree@PAVUserFunction@@PAV1@U?$_Identity@PAVUserFunction@@@_STL@@U?$less@PAVUserFunction@@@3@V?$allocator@PAVUserFunction@@@3@@_STL@@AAE?AU?$_Rb_tree_iterator@PAVUserFunction@@U?$_Nonconst_traits@PAVUserFunction@@@_STL@@@2@PAU_Rb_tree_node_base@2@0ABQAVUserFunction@@0@Z 0042faf0 f i bscript:userfunc.obj
 0001:0002eb90       ??0?$vector@VUserParam@@V?$allocator@VUserParam@@@_STL@@@_STL@@QAE@ABV?$allocator@VUserParam@@@1@@Z 0042fb90 f i bscript:userfunc.obj
 0001:0002eba0       ??1?$_Rb_tree@PAVUserFunction@@PAV1@U?$_Identity@PAVUserFunction@@@_STL@@U?$less@PAVUserFunction@@@3@V?$allocator@PAVUserFunction@@@3@@_STL@@QAE@XZ 0042fba0 f i bscript:userfunc.obj
 0001:0002ec20       ??0?$_Rb_tree@PAVUserFunction@@PAV1@U?$_Identity@PAVUserFunction@@@_STL@@U?$less@PAVUserFunction@@@3@V?$allocator@PAVUserFunction@@@3@@_STL@@QAE@ABU?$less@PAVUserFunction@@@1@ABV?$allocator@PAVUserFunction@@@1@@Z 0042fc20 f i bscript:userfunc.obj
 0001:0002ec60       ?lower_bound@?$_Rb_tree@PAVUserFunction@@PAV1@U?$_Identity@PAVUserFunction@@@_STL@@U?$less@PAVUserFunction@@@3@V?$allocator@PAVUserFunction@@@3@@_STL@@QAE?AU?$_Rb_tree_iterator@PAVUserFunction@@U?$_Nonconst_traits@PAVUserFunction@@@_STL@@@2@ABQAVUserFunction@@@Z 0042fc60 f i bscript:userfunc.obj
 0001:0002ec90       ?upper_bound@?$_Rb_tree@PAVUserFunction@@PAV1@U?$_Identity@PAVUserFunction@@@_STL@@U?$less@PAVUserFunction@@@3@V?$allocator@PAVUserFunction@@@3@@_STL@@QAE?AU?$_Rb_tree_iterator@PAVUserFunction@@U?$_Nonconst_traits@PAVUserFunction@@@_STL@@@2@ABQAVUserFunction@@@Z 0042fc90 f i bscript:userfunc.obj
 0001:0002ecc0       ?insert_unique@?$_Rb_tree@PAVUserFunction@@PAV1@U?$_Identity@PAVUserFunction@@@_STL@@U?$less@PAVUserFunction@@@3@V?$allocator@PAVUserFunction@@@3@@_STL@@QAE?AU?$pair@U?$_Rb_tree_iterator@PAVUserFunction@@U?$_Nonconst_traits@PAVUserFunction@@@_STL@@@_STL@@_N@2@ABQAVUserFunction@@@Z 0042fcc0 f i bscript:userfunc.obj
 0001:0002ed60       ??1?$set@PAVUserFunction@@U?$less@PAVUserFunction@@@_STL@@V?$allocator@PAVUserFunction@@@3@@_STL@@QAE@XZ 0042fd60 f i bscript:userfunc.obj
 0001:0002ed70       ?show_instances@UserFunction@@SAXXZ 0042fd70 f   bscript:userfunc.obj
 0001:0002ee10       ??0?$set@PAVUserFunction@@U?$less@PAVUserFunction@@@_STL@@V?$allocator@PAVUserFunction@@@3@@_STL@@QAE@XZ 0042fe10 f i bscript:userfunc.obj
 0001:0002ee50       ?insert@?$set@PAVUserFunction@@U?$less@PAVUserFunction@@@_STL@@V?$allocator@PAVUserFunction@@@3@@_STL@@QAE?AU?$pair@U?$_Rb_tree_iterator@PAVUserFunction@@U?$_Const_traits@PAVUserFunction@@@_STL@@@_STL@@_N@2@ABQAVUserFunction@@@Z 0042fe50 f i bscript:userfunc.obj
 0001:0002ee80       ?equal_range@?$_Rb_tree@PAVUserFunction@@PAV1@U?$_Identity@PAVUserFunction@@@_STL@@U?$less@PAVUserFunction@@@3@V?$allocator@PAVUserFunction@@@3@@_STL@@QAE?AU?$pair@U?$_Rb_tree_iterator@PAVUserFunction@@U?$_Nonconst_traits@PAVUserFunction@@@_STL@@@_STL@@U12@@2@ABQAVUserFunction@@@Z 0042fe80 f i bscript:userfunc.obj
 0001:0002eee0       ?register_instance@UserFunction@@IAEXXZ 0042fee0 f   bscript:userfunc.obj
 0001:0002ef10       ?erase@?$_Rb_tree@PAVUserFunction@@PAV1@U?$_Identity@PAVUserFunction@@@_STL@@U?$less@PAVUserFunction@@@3@V?$allocator@PAVUserFunction@@@3@@_STL@@QAEIABQAVUserFunction@@@Z 0042ff10 f i bscript:userfunc.obj
 0001:0002ef70       ?erase@?$set@PAVUserFunction@@U?$less@PAVUserFunction@@@_STL@@V?$allocator@PAVUserFunction@@@3@@_STL@@QAEIABQAVUserFunction@@@Z 0042ff70 f i bscript:userfunc.obj
 0001:0002ef80       ?unregister_instance@UserFunction@@IAEXXZ 0042ff80 f   bscript:userfunc.obj
 0001:0002efa0       ??0UserFunction@@QAE@XZ    0042ffa0 f   bscript:userfunc.obj
 0001:0002f020       ??1UserFunction@@QAE@XZ    00430020 f   bscript:userfunc.obj
 0001:0002f130       ??0_Bit_iterator_base@_STL@@QAE@XZ 00430130 f i bscript:eprog.obj
 0001:0002f140       ??0StoredTokenContainer@@QAE@H@Z 00430140 f i bscript:eprog.obj
 0001:0002f160       ??1StoredTokenContainer@@UAE@XZ 00430160 f i bscript:eprog.obj
 0001:0002f170       ??0ref_counted@@IAE@XZ     00430170 f i bscript:eprog.obj
 0001:0002f180       ??0?$allocator@PAVFunctionalityModule@@@_STL@@QAE@XZ 00430180 f i bscript:eprog.obj
 0001:0002f190       ??1?$allocator@PAVFunctionalityModule@@@_STL@@QAE@XZ 00430190 f i bscript:eprog.obj
 0001:0002f1a0       ??0?$allocator@UEPExportedFunction@@@_STL@@QAE@XZ 004301a0 f i bscript:eprog.obj
 0001:0002f1b0       ??1?$allocator@UEPExportedFunction@@@_STL@@QAE@XZ 004301b0 f i bscript:eprog.obj
 0001:0002f1c0       ??0?$allocator@VInstruction@@@_STL@@QAE@XZ 004301c0 f i bscript:eprog.obj
 0001:0002f1d0       ??1?$allocator@VInstruction@@@_STL@@QAE@XZ 004301d0 f i bscript:eprog.obj
 0001:0002f1e0       ??0?$allocator@UEPDbgBlock@@@_STL@@QAE@XZ 004301e0 f i bscript:eprog.obj
 0001:0002f1f0       ??1?$allocator@UEPDbgBlock@@@_STL@@QAE@XZ 004301f0 f i bscript:eprog.obj
 0001:0002f200       ??0?$allocator@UEPDbgFunction@@@_STL@@QAE@XZ 00430200 f i bscript:eprog.obj
 0001:0002f210       ??1?$allocator@UEPDbgFunction@@@_STL@@QAE@XZ 00430210 f i bscript:eprog.obj
 0001:0002f220       ??0?$allocator@_N@_STL@@QAE@XZ 00430220 f i bscript:eprog.obj
 0001:0002f230       ??1?$allocator@_N@_STL@@QAE@XZ 00430230 f i bscript:eprog.obj
 0001:0002f240       ??1?$_STLP_alloc_proxy@PAPAVFunctionalityModule@@PAV1@V?$allocator@PAVFunctionalityModule@@@_STL@@@_STL@@QAE@XZ 00430240 f i bscript:eprog.obj
 0001:0002f250       ??1?$_STLP_alloc_proxy@PAUEPExportedFunction@@U1@V?$allocator@UEPExportedFunction@@@_STL@@@_STL@@QAE@XZ 00430250 f i bscript:eprog.obj
 0001:0002f260       ??1?$_STLP_alloc_proxy@PAVInstruction@@V1@V?$allocator@VInstruction@@@_STL@@@_STL@@QAE@XZ 00430260 f i bscript:eprog.obj
 0001:0002f270       ??1?$_STLP_alloc_proxy@PAUEPDbgBlock@@U1@V?$allocator@UEPDbgBlock@@@_STL@@@_STL@@QAE@XZ 00430270 f i bscript:eprog.obj
 0001:0002f280       ??1?$_STLP_alloc_proxy@PAUEPDbgFunction@@U1@V?$allocator@UEPDbgFunction@@@_STL@@@_STL@@QAE@XZ 00430280 f i bscript:eprog.obj
 0001:0002f290       ??0?$_Bit_iter@U_Bit_reference@_STL@@PAU12@@_STL@@QAE@XZ 00430290 f i bscript:eprog.obj
 0001:0002f2a0       ?size@?$vector@UEPDbgBlock@@V?$allocator@UEPDbgBlock@@@_STL@@@_STL@@QBEIXZ 004302a0 f i bscript:eprog.obj
 0001:0002f2c0       ?_M_set@?$vector@UEPDbgBlock@@V?$allocator@UEPDbgBlock@@@_STL@@@_STL@@IAEXPAUEPDbgBlock@@00@Z 004302c0 f i bscript:eprog.obj
 0001:0002f2e0       ??0?$allocator@PAVFunctionalityModule@@@_STL@@QAE@ABV01@@Z 004302e0 f i bscript:eprog.obj
 0001:0002f2f0       ??0?$allocator@UEPExportedFunction@@@_STL@@QAE@ABV01@@Z 004302f0 f i bscript:eprog.obj
 0001:0002f300       ??0?$allocator@VInstruction@@@_STL@@QAE@ABV01@@Z 00430300 f i bscript:eprog.obj
 0001:0002f310       ??0?$allocator@UEPDbgBlock@@@_STL@@QAE@ABV01@@Z 00430310 f i bscript:eprog.obj
 0001:0002f320       ??0?$allocator@UEPDbgFunction@@@_STL@@QAE@ABV01@@Z 00430320 f i bscript:eprog.obj
 0001:0002f330       ??$?0_N@?$allocator@I@_STL@@QAE@ABV?$allocator@_N@1@@Z 00430330 f i bscript:eprog.obj
 0001:0002f340       ?empty@?$vector@PAVFunctionalityModule@@V?$allocator@PAVFunctionalityModule@@@_STL@@@_STL@@QBE_NXZ 00430340 f i bscript:eprog.obj
 0001:0002f350       ?get_allocator@?$vector@V?$basic_string@DV?$char_traits@D@_STL@@V?$allocator@D@2@@_STL@@V?$allocator@V?$basic_string@DV?$char_traits@D@_STL@@V?$allocator@D@2@@_STL@@@2@@_STL@@QBE?AV?$allocator@V?$basic_string@DV?$char_traits@D@_STL@@V?$allocator@D@2@@_STL@@@2@XZ 00430350 f i bscript:eprog.obj
 0001:0002f360       ??1Instruction@@QAE@XZ     00430360 f i bscript:eprog.obj
 0001:0002f370       ??_EStoredTokenContainer@@UAEPAXI@Z 00430370 f i bscript:eprog.obj
 0001:0002f370       ??_GStoredTokenContainer@@UAEPAXI@Z 00430370 f i bscript:eprog.obj
 0001:0002f390       ??0?$_STLP_alloc_proxy@PAPAVFunctionalityModule@@PAV1@V?$allocator@PAVFunctionalityModule@@@_STL@@@_STL@@QAE@ABV?$allocator@PAVFunctionalityModule@@@1@PAPAVFunctionalityModule@@@Z 00430390 f i bscript:eprog.obj
 0001:0002f3a0       ??0?$_STLP_alloc_proxy@PAUEPExportedFunction@@U1@V?$allocator@UEPExportedFunction@@@_STL@@@_STL@@QAE@ABV?$allocator@UEPExportedFunction@@@1@PAUEPExportedFunction@@@Z 004303a0 f i bscript:eprog.obj
 0001:0002f3b0       ?deallocate@?$allocator@VInstruction@@@_STL@@QAEXPAVInstruction@@I@Z 004303b0 f i bscript:eprog.obj
 0001:0002f3f0       ??0?$_STLP_alloc_proxy@PAVInstruction@@V1@V?$allocator@VInstruction@@@_STL@@@_STL@@QAE@ABV?$allocator@VInstruction@@@1@PAVInstruction@@@Z 004303f0 f i bscript:eprog.obj
 0001:0002f400       ?allocate@?$allocator@UEPDbgBlock@@@_STL@@QAEPAUEPDbgBlock@@IPBX@Z 00430400 f i bscript:eprog.obj
 0001:0002f440       ?deallocate@?$allocator@UEPDbgBlock@@@_STL@@QAEXPAUEPDbgBlock@@I@Z 00430440 f i bscript:eprog.obj
 0001:0002f480       ??0?$_STLP_alloc_proxy@PAUEPDbgBlock@@U1@V?$allocator@UEPDbgBlock@@@_STL@@@_STL@@QAE@ABV?$allocator@UEPDbgBlock@@@1@PAUEPDbgBlock@@@Z 00430480 f i bscript:eprog.obj
 0001:0002f490       ?deallocate@?$allocator@UEPDbgFunction@@@_STL@@QAEXPAUEPDbgFunction@@I@Z 00430490 f i bscript:eprog.obj
 0001:0002f4d0       ??0?$_STLP_alloc_proxy@PAUEPDbgFunction@@U1@V?$allocator@UEPDbgFunction@@@_STL@@@_STL@@QAE@ABV?$allocator@UEPDbgFunction@@@1@PAUEPDbgFunction@@@Z 004304d0 f i bscript:eprog.obj
 0001:0002f4e0       ?_M_deallocate@?$_Bvector_base@V?$allocator@_N@_STL@@@_STL@@IAEXXZ 004304e0 f i bscript:eprog.obj
 0001:0002f510       ??0?$_Vector_base@V?$basic_string@DV?$char_traits@D@_STL@@V?$allocator@D@2@@_STL@@V?$allocator@V?$basic_string@DV?$char_traits@D@_STL@@V?$allocator@D@2@@_STL@@@2@@_STL@@QAE@IABV?$allocator@V?$basic_string@DV?$char_traits@D@_STL@@V?$allocator@D@2@@_STL@@@1@@Z 00430510 f i bscript:eprog.obj
 0001:0002f580       ??_GInstruction@@QAEPAXI@Z 00430580 f i bscript:eprog.obj
 0001:0002f5a0       ??0?$_Vector_base@PAVFunctionalityModule@@V?$allocator@PAVFunctionalityModule@@@_STL@@@_STL@@QAE@ABV?$allocator@PAVFunctionalityModule@@@1@@Z 004305a0 f i bscript:eprog.obj
 0001:0002f5d0       ??1?$_Vector_base@PAVFunctionalityModule@@V?$allocator@PAVFunctionalityModule@@@_STL@@@_STL@@QAE@XZ 004305d0 f i bscript:eprog.obj
 0001:0002f600       ??0?$_Vector_base@UEPExportedFunction@@V?$allocator@UEPExportedFunction@@@_STL@@@_STL@@QAE@ABV?$allocator@UEPExportedFunction@@@1@@Z 00430600 f i bscript:eprog.obj
 0001:0002f630       ??1?$_Vector_base@UEPExportedFunction@@V?$allocator@UEPExportedFunction@@@_STL@@@_STL@@QAE@XZ 00430630 f i bscript:eprog.obj
 0001:0002f680       ??0?$_Vector_base@VInstruction@@V?$allocator@VInstruction@@@_STL@@@_STL@@QAE@ABV?$allocator@VInstruction@@@1@@Z 00430680 f i bscript:eprog.obj
 0001:0002f6b0       ??1?$_Vector_base@VInstruction@@V?$allocator@VInstruction@@@_STL@@@_STL@@QAE@XZ 004306b0 f i bscript:eprog.obj
 0001:0002f700       ??0?$_Vector_base@UEPDbgBlock@@V?$allocator@UEPDbgBlock@@@_STL@@@_STL@@QAE@ABV?$allocator@UEPDbgBlock@@@1@@Z 00430700 f i bscript:eprog.obj
 0001:0002f730       ??1?$_Vector_base@UEPDbgBlock@@V?$allocator@UEPDbgBlock@@@_STL@@@_STL@@QAE@XZ 00430730 f i bscript:eprog.obj
 0001:0002f780       ??0?$_Vector_base@UEPDbgFunction@@V?$allocator@UEPDbgFunction@@@_STL@@@_STL@@QAE@ABV?$allocator@UEPDbgFunction@@@1@@Z 00430780 f i bscript:eprog.obj
 0001:0002f7b0       ??1?$_Vector_base@UEPDbgFunction@@V?$allocator@UEPDbgFunction@@@_STL@@@_STL@@QAE@XZ 004307b0 f i bscript:eprog.obj
 0001:0002f800       ??0?$_Bvector_base@V?$allocator@_N@_STL@@@_STL@@QAE@ABV?$allocator@_N@1@@Z 00430800 f i bscript:eprog.obj
 0001:0002f830       ??1?$_Bvector_base@V?$allocator@_N@_STL@@@_STL@@QAE@XZ 00430830 f i bscript:eprog.obj
 0001:0002f860       ??$delete_all@V?$vector@PAVFunctionalityModule@@V?$allocator@PAVFunctionalityModule@@@_STL@@@_STL@@@@YAXAAV?$vector@PAVFunctionalityModule@@V?$allocator@PAVFunctionalityModule@@@_STL@@@_STL@@@Z 00430860 f i bscript:eprog.obj
 0001:0002f8a0       ??$_Destroy@VInstruction@@@_STL@@YAXPAVInstruction@@@Z 004308a0 f i bscript:eprog.obj
 0001:0002f8b0       ?clear_modules@EScriptProgram@@QAEXXZ 004308b0 f   bscript:eprog.obj
 0001:0002f8c0       ??0?$vector@PAVFunctionalityModule@@V?$allocator@PAVFunctionalityModule@@@_STL@@@_STL@@QAE@ABV?$allocator@PAVFunctionalityModule@@@1@@Z 004308c0 f i bscript:eprog.obj
 0001:0002f8d0       ??1?$vector@PAVFunctionalityModule@@V?$allocator@PAVFunctionalityModule@@@_STL@@@_STL@@QAE@XZ 004308d0 f i bscript:eprog.obj
 0001:0002f900       ??0?$vector@UEPExportedFunction@@V?$allocator@UEPExportedFunction@@@_STL@@@_STL@@QAE@ABV?$allocator@UEPExportedFunction@@@1@@Z 00430900 f i bscript:eprog.obj
 0001:0002f910       ??0?$vector@VInstruction@@V?$allocator@VInstruction@@@_STL@@@_STL@@QAE@ABV?$allocator@VInstruction@@@1@@Z 00430910 f i bscript:eprog.obj
 0001:0002f920       ??0?$vector@UEPDbgBlock@@V?$allocator@UEPDbgBlock@@@_STL@@@_STL@@QAE@ABV?$allocator@UEPDbgBlock@@@1@@Z 00430920 f i bscript:eprog.obj
 0001:0002f930       ??0?$vector@UEPDbgFunction@@V?$allocator@UEPDbgFunction@@@_STL@@@_STL@@QAE@ABV?$allocator@UEPDbgFunction@@@1@@Z 00430930 f i bscript:eprog.obj
 0001:0002f940       ??0?$vector@_NV?$allocator@_N@_STL@@@_STL@@QAE@ABV?$allocator@_N@1@@Z 00430940 f i bscript:eprog.obj
 0001:0002f960       ??1?$vector@_NV?$allocator@_N@_STL@@@_STL@@QAE@XZ 00430960 f i bscript:eprog.obj
 0001:0002f990       ??$__destroy_aux@PAVInstruction@@@_STL@@YAXPAVInstruction@@0ABU__false_type@0@@Z 00430990 f i bscript:eprog.obj
 0001:0002f9c0       ??$__destroy@PAVInstruction@@V1@@_STL@@YAXPAVInstruction@@00@Z 004309c0 f i bscript:eprog.obj
 0001:0002f9f0       ??1EPDbgFunction@@QAE@XZ   004309f0 f i bscript:eprog.obj
 0001:0002fa20       ??$_Destroy@PAVInstruction@@@_STL@@YAXPAVInstruction@@0@Z 00430a20 f i bscript:eprog.obj
 0001:0002fa50       ??_GEPDbgFunction@@QAEPAXI@Z 00430a50 f i bscript:eprog.obj
 0001:0002fa70       ??1?$vector@VInstruction@@V?$allocator@VInstruction@@@_STL@@@_STL@@QAE@XZ 00430a70 f i bscript:eprog.obj
 0001:0002fb20       ??$_Destroy@UEPDbgFunction@@@_STL@@YAXPAUEPDbgFunction@@@Z 00430b20 f i bscript:eprog.obj
 0001:0002fb30       ??$__destroy_aux@PAUEPDbgFunction@@@_STL@@YAXPAUEPDbgFunction@@0ABU__false_type@0@@Z 00430b30 f i bscript:eprog.obj
 0001:0002fb60       ??$__destroy@PAUEPDbgFunction@@U1@@_STL@@YAXPAUEPDbgFunction@@00@Z 00430b60 f i bscript:eprog.obj
 0001:0002fb90       ??$__uninitialized_copy@PBV?$basic_string@DV?$char_traits@D@_STL@@V?$allocator@D@2@@_STL@@PAV12@@_STL@@YAPAV?$basic_string@DV?$char_traits@D@_STL@@V?$allocator@D@2@@0@PBV10@0PAV10@ABU__false_type@0@@Z 00430b90 f i bscript:eprog.obj
 0001:0002fc10       ??$_Destroy@PAUEPDbgFunction@@@_STL@@YAXPAUEPDbgFunction@@0@Z 00430c10 f i bscript:eprog.obj
 0001:0002fc40       ??0?$vector@V?$basic_string@DV?$char_traits@D@_STL@@V?$allocator@D@2@@_STL@@V?$allocator@V?$basic_string@DV?$char_traits@D@_STL@@V?$allocator@D@2@@_STL@@@2@@_STL@@QAE@ABV01@@Z 00430c40 f i bscript:eprog.obj
 0001:0002fcd0       ??0EPDbgBlock@@QAE@XZ      00430cd0 f i bscript:eprog.obj
 0001:0002fce0       ??1EPDbgBlock@@QAE@XZ      00430ce0 f i bscript:eprog.obj
 0001:0002fcf0       ??1?$vector@UEPExportedFunction@@V?$allocator@UEPExportedFunction@@@_STL@@@_STL@@QAE@XZ 00430cf0 f i bscript:eprog.obj
 0001:0002fdc0       ??1?$vector@UEPDbgFunction@@V?$allocator@UEPDbgFunction@@@_STL@@@_STL@@QAE@XZ 00430dc0 f i bscript:eprog.obj
 0001:0002fe90       ??0EPDbgBlock@@QAE@ABU0@@Z 00430e90 f i bscript:eprog.obj
 0001:0002fec0       ??_GEPDbgBlock@@QAEPAXI@Z  00430ec0 f i bscript:eprog.obj
 0001:0002fee0       ??$_Construct@UEPDbgBlock@@U1@@_STL@@YAXPAUEPDbgBlock@@ABU1@@Z 00430ee0 f i bscript:eprog.obj
 0001:0002ff40       ??$_Destroy@UEPDbgBlock@@@_STL@@YAXPAUEPDbgBlock@@@Z 00430f40 f i bscript:eprog.obj
 0001:0002ff50       ??$__destroy_aux@PAUEPDbgBlock@@@_STL@@YAXPAUEPDbgBlock@@0ABU__false_type@0@@Z 00430f50 f i bscript:eprog.obj
 0001:0002ff80       ??$__destroy@PAUEPDbgBlock@@U1@@_STL@@YAXPAUEPDbgBlock@@00@Z 00430f80 f i bscript:eprog.obj
 0001:0002ffb0       ??$_Destroy@PAUEPDbgBlock@@@_STL@@YAXPAUEPDbgBlock@@0@Z 00430fb0 f i bscript:eprog.obj
 0001:0002ffe0       ??$__uninitialized_copy@PAUEPDbgBlock@@PAU1@@_STL@@YAPAUEPDbgBlock@@PAU1@00ABU__false_type@0@@Z 00430fe0 f i bscript:eprog.obj
 0001:00030070       ??$__uninitialized_fill_n@PAUEPDbgBlock@@IU1@@_STL@@YAPAUEPDbgBlock@@PAU1@IABU1@ABU__false_type@0@@Z 00431070 f i bscript:eprog.obj
 0001:00030100       ??1?$vector@UEPDbgBlock@@V?$allocator@UEPDbgBlock@@@_STL@@@_STL@@QAE@XZ 00431100 f i bscript:eprog.obj
 0001:000301b0       ?_M_clear@?$vector@UEPDbgBlock@@V?$allocator@UEPDbgBlock@@@_STL@@@_STL@@IAEXXZ 004311b0 f i bscript:eprog.obj
 0001:00030220       ??1EScriptProgram@@AAE@XZ  00431220 f   bscript:eprog.obj
 0001:000304a0       ?_M_insert_overflow@?$vector@UEPDbgBlock@@V?$allocator@UEPDbgBlock@@@_STL@@@_STL@@IAEXPAUEPDbgBlock@@ABU3@ABU__false_type@2@I_N@Z 004314a0 f i bscript:eprog.obj
 0001:000305f0       ?push_back@?$vector@UEPDbgBlock@@V?$allocator@UEPDbgBlock@@@_STL@@@_STL@@QAEXABUEPDbgBlock@@@Z 004315f0 f i bscript:eprog.obj
 0001:00030630       ??0EScriptProgram@@QAE@XZ  00431630 f   bscript:eprog.obj
 0001:00030860       ??0_Bit_reference@_STL@@QAE@PAII@Z 00431860 f i bscript:eprog2.obj
 0001:00030880       ??B_Bit_reference@_STL@@QBE_NXZ 00431880 f i bscript:eprog2.obj
 0001:00030890       ??4_Bit_reference@_STL@@QAEAAU01@_N@Z 00431890 f i bscript:eprog2.obj
 0001:000308c0       ??4_Bit_reference@_STL@@QAEAAU01@ABU01@@Z 004318c0 f i bscript:eprog2.obj
 0001:000308f0       ?_M_bump_up@_Bit_iterator_base@_STL@@QAEXXZ 004318f0 f i bscript:eprog2.obj
 0001:00030910       ??0_Bit_iterator_base@_STL@@QAE@PAII@Z 00431910 f i bscript:eprog2.obj
 0001:00030930       ?_M_advance@_Bit_iterator_base@_STL@@QAEXH@Z 00431930 f i bscript:eprog2.obj
 0001:00030970       ?_M_subtract@_Bit_iterator_base@_STL@@QBEHABU12@@Z 00431970 f i bscript:eprog2.obj
 0001:00030990       ?update_dbg_pos@EScriptProgram@@QAEXABVToken@@@Z 00431990 f   bscript:eprog2.obj
 0001:000309b0       ?setcontext@EScriptProgram@@QAEXABVCompilerContext@@@Z 004319b0 f   bscript:eprog2.obj
 0001:000309d0       ?setstatementbegin@EScriptProgram@@QAEXXZ 004319d0 f   bscript:eprog2.obj
 0001:000309e0       ?enterfunction@EScriptProgram@@QAEXXZ 004319e0 f   bscript:eprog2.obj
 0001:00030a00       ?leavefunction@EScriptProgram@@QAEXXZ 00431a00 f   bscript:eprog2.obj
 0001:00030a10       ?empty@?$vector@V?$basic_string@DV?$char_traits@D@_STL@@V?$allocator@D@2@@_STL@@V?$allocator@V?$basic_string@DV?$char_traits@D@_STL@@V?$allocator@D@2@@_STL@@@2@@_STL@@QBE_NXZ 00431a10 f i bscript:eprog2.obj
 0001:00030a20       ?size@?$vector@UEPDbgFunction@@V?$allocator@UEPDbgFunction@@@_STL@@@_STL@@QBEIXZ 00431a20 f i bscript:eprog2.obj
 0001:00030a40       ??D?$_Bit_iter@U_Bit_reference@_STL@@PAU12@@_STL@@QBE?AU_Bit_reference@1@XZ 00431a40 f i bscript:eprog2.obj
 0001:00030a60       ??E?$_Bit_iter@U_Bit_reference@_STL@@PAU12@@_STL@@QAEAAU01@XZ 00431a60 f i bscript:eprog2.obj
 0001:00030a80       ?begin@?$vector@UEPExportedFunction@@V?$allocator@UEPExportedFunction@@@_STL@@@_STL@@QAEPAUEPExportedFunction@@XZ 00431a80 f i bscript:eprog2.obj
 0001:00030a90       ?begin@?$vector@VInstruction@@V?$allocator@VInstruction@@@_STL@@@_STL@@QBEPBVInstruction@@XZ 00431a90 f i bscript:eprog2.obj
 0001:00030aa0       ?begin@?$vector@UEPDbgBlock@@V?$allocator@UEPDbgBlock@@@_STL@@@_STL@@QAEPAUEPDbgBlock@@XZ 00431aa0 f i bscript:eprog2.obj
 0001:00030ab0       ?end@?$vector@UEPDbgBlock@@V?$allocator@UEPDbgBlock@@@_STL@@@_STL@@QAEPAUEPDbgBlock@@XZ 00431ab0 f i bscript:eprog2.obj
 0001:00030ac0       ?begin@?$vector@UEPDbgFunction@@V?$allocator@UEPDbgFunction@@@_STL@@@_STL@@QAEPAUEPDbgFunction@@XZ 00431ac0 f i bscript:eprog2.obj
 0001:00030ad0       ?end@?$vector@UEPDbgFunction@@V?$allocator@UEPDbgFunction@@@_STL@@@_STL@@QAEPAUEPDbgFunction@@XZ 00431ad0 f i bscript:eprog2.obj
 0001:00030ae0       ??0?$_Bit_iter@U_Bit_reference@_STL@@PAU12@@_STL@@QAE@PAII@Z 00431ae0 f i bscript:eprog2.obj
 0001:00030b00       ??0?$_Bit_iter@U_Bit_reference@_STL@@PAU12@@_STL@@QAE@ABU01@@Z 00431b00 f i bscript:eprog2.obj
 0001:00030b20       ??E?$_Bit_iter@U_Bit_reference@_STL@@PAU12@@_STL@@QAE?AU01@H@Z 00431b20 f i bscript:eprog2.obj
 0001:00030b50       ??Y?$_Bit_iter@U_Bit_reference@_STL@@PAU12@@_STL@@QAEAAU01@H@Z 00431b50 f i bscript:eprog2.obj
 0001:00030b90       ?_M_set@?$vector@UEPDbgFunction@@V?$allocator@UEPDbgFunction@@@_STL@@@_STL@@IAEXPAUEPDbgFunction@@00@Z 00431b90 f i bscript:eprog2.obj
 0001:00030bb0       ??G?$_Bit_iter@_NPB_N@_STL@@QBEHABU01@@Z 00431bb0 f i bscript:eprog2.obj
 0001:00030bd0       ??0?$_Bit_iter@_NPB_N@_STL@@QAE@ABU?$_Bit_iter@U_Bit_reference@_STL@@PAU12@@1@@Z 00431bd0 f i bscript:eprog2.obj
 0001:00030bf0       ??$__copy_ptrs@PAIPAI@_STL@@YAPAIPAI00ABU__true_type@0@@Z 00431bf0 f i bscript:eprog2.obj
 0001:00030c20       ??G?$_Bit_iter@U_Bit_reference@_STL@@PAU12@@_STL@@QBEHABU01@@Z 00431c20 f i bscript:eprog2.obj
 0001:00030c40       ?_Ret@?$_BothPtrType@U?$_Bit_iter@U_Bit_reference@_STL@@PAU12@@_STL@@U12@@_STL@@SA?AU__false_type@2@XZ 00431c40 f i bscript:eprog2.obj
 0001:00030c50       ??$__copy@U?$_Bit_iter@U_Bit_reference@_STL@@PAU12@@_STL@@U12@H@_STL@@YA?AU?$_Bit_iter@U_Bit_reference@_STL@@PAU12@@0@U10@00ABUrandom_access_iterator_tag@0@PAH@Z 00431c50 f i bscript:eprog2.obj
 0001:00030ce0       ?capacity@?$vector@V?$basic_string@DV?$char_traits@D@_STL@@V?$allocator@D@2@@_STL@@V?$allocator@V?$basic_string@DV?$char_traits@D@_STL@@V?$allocator@D@2@@_STL@@@2@@_STL@@QBEIXZ 00431ce0 f i bscript:eprog2.obj
 0001:00030d00       ?commit@EScriptProgramCheckpoint@@QAEXABVEScriptProgram@@@Z 00431d00 f   bscript:eprog2.obj
 0001:00030d60       ??A?$vector@UEPExportedFunction@@V?$allocator@UEPExportedFunction@@@_STL@@@_STL@@QAEAAUEPExportedFunction@@I@Z 00431d60 f i bscript:eprog2.obj
 0001:00030d70       ??A?$vector@VInstruction@@V?$allocator@VInstruction@@@_STL@@@_STL@@QBEABVInstruction@@I@Z 00431d70 f i bscript:eprog2.obj
 0001:00030d90       ??A?$vector@UEPDbgBlock@@V?$allocator@UEPDbgBlock@@@_STL@@@_STL@@QAEAAUEPDbgBlock@@I@Z 00431d90 f i bscript:eprog2.obj
 0001:00030da0       ??A?$vector@UEPDbgFunction@@V?$allocator@UEPDbgFunction@@@_STL@@@_STL@@QAEAAUEPDbgFunction@@I@Z 00431da0 f i bscript:eprog2.obj
 0001:00030db0       ??H?$_Bit_iter@U_Bit_reference@_STL@@PAU12@@_STL@@QBE?AU01@H@Z 00431db0 f i bscript:eprog2.obj
 0001:00030df0       ?begin@?$vector@_NV?$allocator@_N@_STL@@@_STL@@QAE?AU?$_Bit_iter@U_Bit_reference@_STL@@PAU12@@2@XZ 00431df0 f i bscript:eprog2.obj
 0001:00030e10       ?end@?$vector@_NV?$allocator@_N@_STL@@@_STL@@QAE?AU?$_Bit_iter@U_Bit_reference@_STL@@PAU12@@2@XZ 00431e10 f i bscript:eprog2.obj
 0001:00030e30       ?allocate@?$allocator@UEPDbgFunction@@@_STL@@QAEPAUEPDbgFunction@@IPBX@Z 00431e30 f i bscript:eprog2.obj
 0001:00030e70       ?_M_bit_alloc@?$_Bvector_base@V?$allocator@_N@_STL@@@_STL@@IAEPAII@Z 00431e70 f i bscript:eprog2.obj
 0001:00030eb0       ?begin@?$vector@_NV?$allocator@_N@_STL@@@_STL@@QBE?AU?$_Bit_iter@_NPB_N@2@XZ 00431eb0 f i bscript:eprog2.obj
 0001:00030ed0       ?end@?$vector@_NV?$allocator@_N@_STL@@@_STL@@QBE?AU?$_Bit_iter@_NPB_N@2@XZ 00431ed0 f i bscript:eprog2.obj
 0001:00030ef0       ??$__copy_backward@U?$_Bit_iter@U_Bit_reference@_STL@@PAU12@@_STL@@U12@H@_STL@@YA?AU?$_Bit_iter@U_Bit_reference@_STL@@PAU12@@0@U10@00ABUrandom_access_iterator_tag@0@PAH@Z 00431ef0 f i bscript:eprog2.obj
 0001:00030f80       ??$__copy_aux@U?$_Bit_iter@U_Bit_reference@_STL@@PAU12@@_STL@@U12@@_STL@@YA?AU?$_Bit_iter@U_Bit_reference@_STL@@PAU12@@0@U10@00ABU__false_type@0@@Z 00431f80 f i bscript:eprog2.obj
 0001:00030fd0       ?write@EScriptProgram@@QAEHPBD@Z 00431fd0 f   bscript:eprog2.obj
 0001:00031350       ??0EScriptProgramCheckpoint@@QAE@ABVEScriptProgram@@@Z 00432350 f   bscript:eprog2.obj
 0001:00031360       ?varcount@EScriptProgram@@QAEII@Z 00432360 f   bscript:eprog2.obj
 0001:000313b0       ?parentvariables@EScriptProgram@@QAEII@Z 004323b0 f   bscript:eprog2.obj
 0001:000313e0       ??A?$vector@_NV?$allocator@_N@_STL@@@_STL@@QAE?AU_Bit_reference@1@I@Z 004323e0 f i bscript:eprog2.obj
 0001:00031430       ?size@?$vector@_NV?$allocator@_N@_STL@@@_STL@@QBEIXZ 00432430 f i bscript:eprog2.obj
 0001:00031450       ??$copy@U?$_Bit_iter@U_Bit_reference@_STL@@PAU12@@_STL@@U12@@_STL@@YA?AU?$_Bit_iter@U_Bit_reference@_STL@@PAU12@@0@U10@00@Z 00432450 f i bscript:eprog2.obj
 0001:000314a0       ?erase@?$vector@IV?$allocator@I@_STL@@@_STL@@QAEPAIPAI0@Z 004324a0 f i bscript:eprog2.obj
 0001:000314e0       ?_M_insert_aux@?$vector@_NV?$allocator@_N@_STL@@@_STL@@IAEXU?$_Bit_iter@U_Bit_reference@_STL@@PAU12@@2@_N@Z 004324e0 f i bscript:eprog2.obj
 0001:00031720       ?erase@?$vector@_NV?$allocator@_N@_STL@@@_STL@@QAE?AU?$_Bit_iter@U_Bit_reference@_STL@@PAU12@@2@U32@0@Z 00432720 f i bscript:eprog2.obj
 0001:00031790       ?clear@?$vector@IV?$allocator@I@_STL@@@_STL@@QAEXXZ 00432790 f i bscript:eprog2.obj
 0001:000317c0       ?push_back@?$vector@_NV?$allocator@_N@_STL@@@_STL@@QAEX_N@Z 004327c0 f i bscript:eprog2.obj
 0001:00031830       ?clear@?$vector@_NV?$allocator@_N@_STL@@@_STL@@QAEXXZ 00432830 f i bscript:eprog2.obj
 0001:00031860       ??0EPDbgFunction@@QAE@XZ   00432860 f i bscript:eprog2.obj
 0001:00031870       ??0EPDbgFunction@@QAE@ABU0@@Z 00432870 f i bscript:eprog2.obj
 0001:000318a0       ?add_ins_dbg_info@EScriptProgram@@QAEXXZ 004328a0 f   bscript:eprog2.obj
 0001:000319b0       ?append@EScriptProgram@@QAEXABVStoredToken@@@Z 004329b0 f   bscript:eprog2.obj
 0001:000319d0       ?append@EScriptProgram@@QAEXABVStoredToken@@PAI@Z 004329d0 f   bscript:eprog2.obj
 0001:000319f0       ?append@EScriptProgram@@QAEXABVStoredToken@@ABVCompilerContext@@@Z 004329f0 f   bscript:eprog2.obj
 0001:00031a30       ?append@EScriptProgram@@QAEXABVStoredToken@@ABVCompilerContext@@PAI@Z 00432a30 f   bscript:eprog2.obj
 0001:00031a70       ?addToken@EScriptProgram@@QAEXABVToken@@@Z 00432a70 f   bscript:eprog2.obj
 0001:00031f40       ??$_Construct@UEPDbgFunction@@U1@@_STL@@YAXPAUEPDbgFunction@@ABU1@@Z 00432f40 f i bscript:eprog2.obj
 0001:00031fa0       ?write_dbg@EScriptProgram@@QAEHPBD_N@Z 00432fa0 f   bscript:eprog2.obj
 0001:00032850       ??4EPDbgFunction@@QAEAAU0@ABU0@@Z 00433850 f i bscript:eprog2.obj
 0001:00032890       ??$_M_allocate_and_copy@PBV?$basic_string@DV?$char_traits@D@_STL@@V?$allocator@D@2@@_STL@@@?$vector@V?$basic_string@DV?$char_traits@D@_STL@@V?$allocator@D@2@@_STL@@V?$allocator@V?$basic_string@DV?$char_traits@D@_STL@@V?$allocator@D@2@@_STL@@@2@@_STL@@IAEPAV?$basic_string@DV?$char_traits@D@_STL@@V?$allocator@D@2@@1@IPBV21@0@Z 00433890 f i bscript:eprog2.obj
 0001:00032940       ??$__copy@PBV?$basic_string@DV?$char_traits@D@_STL@@V?$allocator@D@2@@_STL@@PAV12@H@_STL@@YAPAV?$basic_string@DV?$char_traits@D@_STL@@V?$allocator@D@2@@0@PBV10@0PAV10@ABUrandom_access_iterator_tag@0@PAH@Z 00433940 f i bscript:eprog2.obj
 0001:000329a0       ??$__copy@PAUEPDbgFunction@@PAU1@H@_STL@@YAPAUEPDbgFunction@@PAU1@00ABUrandom_access_iterator_tag@0@PAH@Z 004339a0 f i bscript:eprog2.obj
 0001:00032a00       ??$__copy_ptrs@PBV?$basic_string@DV?$char_traits@D@_STL@@V?$allocator@D@2@@_STL@@PAV12@@_STL@@YAPAV?$basic_string@DV?$char_traits@D@_STL@@V?$allocator@D@2@@0@PBV10@0PAV10@ABU__false_type@0@@Z 00433a00 f i bscript:eprog2.obj
 0001:00032a20       ?_M_clear@?$vector@UEPDbgFunction@@V?$allocator@UEPDbgFunction@@@_STL@@@_STL@@IAEXXZ 00433a20 f i bscript:eprog2.obj
 0001:00032a90       ??$__uninitialized_copy@PAUEPDbgFunction@@PAU1@@_STL@@YAPAUEPDbgFunction@@PAU1@00ABU__false_type@0@@Z 00433a90 f i bscript:eprog2.obj
 0001:00032b20       ??$__uninitialized_fill_n@PAUEPDbgFunction@@IU1@@_STL@@YAPAUEPDbgFunction@@PAU1@IABU1@ABU__false_type@0@@Z 00433b20 f i bscript:eprog2.obj
 0001:00032bb0       ??$__copy_ptrs@PAUEPDbgFunction@@PAU1@@_STL@@YAPAUEPDbgFunction@@PAU1@00ABU__false_type@0@@Z 00433bb0 f i bscript:eprog2.obj
 0001:00032bd0       ??4?$vector@V?$basic_string@DV?$char_traits@D@_STL@@V?$allocator@D@2@@_STL@@V?$allocator@V?$basic_string@DV?$char_traits@D@_STL@@V?$allocator@D@2@@_STL@@@2@@_STL@@QAEAAV01@ABV01@@Z 00433bd0 f i bscript:eprog2.obj
 0001:00032d00       ?_M_insert_overflow@?$vector@UEPDbgFunction@@V?$allocator@UEPDbgFunction@@@_STL@@@_STL@@IAEXPAUEPDbgFunction@@ABU3@ABU__false_type@2@I_N@Z 00433d00 f i bscript:eprog2.obj
 0001:00032e50       ?erase@?$vector@UEPDbgFunction@@V?$allocator@UEPDbgFunction@@@_STL@@@_STL@@QAEPAUEPDbgFunction@@PAU3@0@Z 00433e50 f i bscript:eprog2.obj
 0001:00032ea0       ??4EPDbgBlock@@QAEAAU0@ABU0@@Z 00433ea0 f i bscript:eprog2.obj
 0001:00032ed0       ?add_dbg_filename@EScriptProgram@@QAEHABV?$basic_string@DV?$char_traits@D@_STL@@V?$allocator@D@2@@_STL@@@Z 00433ed0 f   bscript:eprog2.obj
 0001:000330a0       ?dbg_get_instruction@EScriptProgram@@QBE?AV?$basic_string@DV?$char_traits@D@_STL@@V?$allocator@D@2@@_STL@@I@Z 004340a0 f   bscript:eprog2.obj
 0001:00033160       ?addlocalvar@EScriptProgram@@QAEXABV?$basic_string@DV?$char_traits@D@_STL@@V?$allocator@D@2@@_STL@@@Z 00434160 f   bscript:eprog2.obj
 0001:000331b0       ?pop_back@?$vector@UEPDbgBlock@@V?$allocator@UEPDbgBlock@@@_STL@@@_STL@@QAEXXZ 004341b0 f i bscript:eprog2.obj
 0001:000331c0       ?push_back@?$vector@UEPDbgFunction@@V?$allocator@UEPDbgFunction@@@_STL@@@_STL@@QAEXABUEPDbgFunction@@@Z 004341c0 f i bscript:eprog2.obj
 0001:00033200       ?clear@?$vector@UEPDbgFunction@@V?$allocator@UEPDbgFunction@@@_STL@@@_STL@@QAEXXZ 00434200 f i bscript:eprog2.obj
 0001:00033210       ??$__copy@PAUEPDbgBlock@@PAU1@H@_STL@@YAPAUEPDbgBlock@@PAU1@00ABUrandom_access_iterator_tag@0@PAH@Z 00434210 f i bscript:eprog2.obj
 0001:00033270       ?leaveblock@EScriptProgram@@QAEXXZ 00434270 f   bscript:eprog2.obj
 0001:00033370       ?addfunction@EScriptProgram@@QAEXV?$basic_string@DV?$char_traits@D@_STL@@V?$allocator@D@2@@_STL@@II@Z 00434370 f   bscript:eprog2.obj
 0001:00033490       ??$__copy_ptrs@PAUEPDbgBlock@@PAU1@@_STL@@YAPAUEPDbgBlock@@PAU1@00ABU__false_type@0@@Z 00434490 f i bscript:eprog2.obj
 0001:000334b0       ?erase@?$vector@UEPDbgBlock@@V?$allocator@UEPDbgBlock@@@_STL@@@_STL@@QAEPAUEPDbgBlock@@PAU3@0@Z 004344b0 f i bscript:eprog2.obj
 0001:00033500       ?clear@?$vector@UEPDbgBlock@@V?$allocator@UEPDbgBlock@@@_STL@@@_STL@@QAEXXZ 00434500 f i bscript:eprog2.obj
 0001:00033510       ?erase@EScriptProgram@@QAEXXZ 00434510 f   bscript:eprog2.obj
 0001:00033630       ?enterblock@EScriptProgram@@QAEXXZ 00434630 f   bscript:eprog2.obj
 0001:00033790       ?pack@SymbolContainer@@UAEXXZ 00434790 f i bscript:symcont.obj
 0001:000337a0       ?detach@SymbolContainer@@UAEPAXXZ 004347a0 f i bscript:symcont.obj
 0001:000337b0       ??0SymbolContainer@@QAE@H@Z 004347b0 f   bscript:symcont.obj
 0001:000337d0       ??1SymbolContainer@@UAE@XZ 004347d0 f   bscript:symcont.obj
 0001:00033800       ?erase@SymbolContainer@@QAEXXZ 00434800 f   bscript:symcont.obj
 0001:00033830       ?findexisting@SymbolContainer@@QAE_NPBXHAAI@Z 00434830 f   bscript:symcont.obj
 0001:00033880       ?append@SymbolContainer@@QAEXPBDAAI@Z 00434880 f   bscript:symcont.obj
 0001:000338e0       ?append@SymbolContainer@@QAEXJAAI@Z 004348e0 f   bscript:symcont.obj
 0001:00033910       ?append@SymbolContainer@@QAEXNAAI@Z 00434910 f   bscript:symcont.obj
 0001:00033940       ?append@SymbolContainer@@QAEXPAXIAAI@Z 00434940 f   bscript:symcont.obj
 0001:000339a0       ?get_write_length@SymbolContainer@@QBEKXZ 004349a0 f   bscript:symcont.obj
 0001:000339b0       ?pack@StoredTokenContainer@@UAEXXZ 004349b0 f   bscript:symcont.obj
 0001:000339c0       ?detach@StoredTokenContainer@@UAEPAXXZ 004349c0 f   bscript:symcont.obj
 0001:000339e0       ??_GSymbolContainer@@UAEPAXI@Z 004349e0 f i bscript:symcont.obj
 0001:000339e0       ??_ESymbolContainer@@UAEPAXI@Z 004349e0 f i bscript:symcont.obj
 0001:00033a20       ?write@SymbolContainer@@UAEXPAU_iobuf@@@Z 00434a20 f   bscript:symcont.obj
 0001:00033b20       ?read@SymbolContainer@@UAEXPAU_iobuf@@@Z 00434b20 f   bscript:symcont.obj
 0001:00033be0       ?read@StoredTokenContainer@@UAEXPAU_iobuf@@@Z 00434be0 f   bscript:symcont.obj
 0001:00033c00       ??0StoredToken@@QAE@EHW4BTokenType@@I@Z 00434c00 f   bscript:symcont.obj
 0001:00033cd0       ?resize@SymbolContainer@@UAEXI@Z 00434cd0 f   bscript:symcont.obj
 0001:00033dd0       ?write@SymbolContainer@@UAEXPAD@Z 00434dd0 f   bscript:symcont.obj
 0001:00033ea0       ?read@SymbolContainer@@UAEXPAD@Z 00434ea0 f   bscript:symcont.obj
 0001:00033f70       ?atPut1@StoredTokenContainer@@QAEXABVStoredToken@@I@Z 00434f70 f   bscript:symcont.obj
 0001:00034070       ?atGet1@StoredTokenContainer@@QBEXIAAVStoredToken@@@Z 00435070 f   bscript:symcont.obj
 0001:00034170       ?resize@StoredTokenContainer@@UAEXI@Z 00435170 f   bscript:symcont.obj
 0001:00034190       ?append_tok@StoredTokenContainer@@QAEXABVStoredToken@@PAI@Z 00435190 f   bscript:symcont.obj
 0001:000341d0       ??0?$_Ios_Manip_1@H@_STL@@QAE@P8ios_base@1@AEHH@ZABH@Z 004351d0 f i bscript:eprog3.obj
 0001:000341f0       ??R?$_Ios_Manip_1@H@_STL@@QBEXAAVios_base@1@@Z 004351f0 f i bscript:eprog3.obj
 0001:00034200       ?setw@_STL@@YA?AU?$_Ios_Manip_1@H@1@H@Z 00435200 f i bscript:eprog3.obj
 0001:00034220       ??$?6DV?$char_traits@D@_STL@@H@_STL@@YAAAV?$basic_ostream@DV?$char_traits@D@_STL@@@0@AAV10@ABU?$_Ios_Manip_1@H@0@@Z 00435220 f i bscript:eprog3.obj
 0001:00034250       ??0?$basic_string@DV?$char_traits@D@_STL@@V?$allocator@D@2@@_STL@@QAE@PBDIABV?$allocator@D@1@@Z 00435250 f i bscript:eprog3.obj
 0001:000342d0       ?dump_casejmp@EScriptProgram@@QAEXAAV?$basic_ostream@DV?$char_traits@D@_STL@@@_STL@@ABVToken@@@Z 004352d0 f   bscript:eprog3.obj
 0001:000344d0       ?dump@EScriptProgram@@QAEXAAV?$basic_ostream@DV?$char_traits@D@_STL@@@_STL@@@Z 004354d0 f   bscript:eprog3.obj
 0001:00034860       ??$?6V?$char_traits@D@_STL@@@_STL@@YAAAV?$basic_ostream@DV?$char_traits@D@_STL@@@0@AAV10@D@Z 00435860 f i bscript:tkn_strm.obj
 0001:00034880       ?printOn@Token@@QBEXAAV?$basic_ostream@DV?$char_traits@D@_STL@@@_STL@@@Z 00435880 f   bscript:tkn_strm.obj
 0001:00035a70       ??6@YAAAV?$basic_ostream@DV?$char_traits@D@_STL@@@_STL@@AAV01@ABVToken@@@Z 00436a70 f   bscript:tkn_strm.obj
 0001:00035a90       ??9_STL@@YA_NABU_Bit_iterator_base@0@0@Z 00436a90 f i bscript:eprog_read.obj
 0001:00035ab0       ?array@SymbolContainer@@QBEPBDXZ 00436ab0 f i bscript:eprog_read.obj
 0001:00035ac0       ??0Instruction@@QAE@XZ     00436ac0 f i bscript:eprog_read.obj
 0001:00035af0       ?read_progdef_hdr@EScriptProgram@@QAEHPAU_iobuf@@@Z 00436af0 f   bscript:eprog_read.obj
 0001:00035b30       ?_M_range_check@?$vector@PAVModuleFunction@@V?$allocator@PAVModuleFunction@@@_STL@@@_STL@@IBEXI@Z 00436b30 f i bscript:eprog_read.obj
 0001:00035b50       ?begin@?$vector@PAVFunctionalityModule@@V?$allocator@PAVFunctionalityModule@@@_STL@@@_STL@@QBEPBQAVFunctionalityModule@@XZ 00436b50 f i bscript:eprog_read.obj
 0001:00035b60       ?begin@?$vector@VInstruction@@V?$allocator@VInstruction@@@_STL@@@_STL@@QAEPAVInstruction@@XZ 00436b60 f i bscript:eprog_read.obj
 0001:00035b70       ?end@?$vector@VInstruction@@V?$allocator@VInstruction@@@_STL@@@_STL@@QAEPAVInstruction@@XZ 00436b70 f i bscript:eprog_read.obj
 0001:00035b80       ?size@?$vector@VInstruction@@V?$allocator@VInstruction@@@_STL@@@_STL@@QBEIXZ 00436b80 f i bscript:eprog_read.obj
 0001:00035ba0       ??0?$_Bit_iter@_NPB_N@_STL@@QAE@PAII@Z 00436ba0 f i bscript:eprog_read.obj
 0001:00035bc0       ??0Instruction@@QAE@ABV0@@Z 00436bc0 f i bscript:eprog_read.obj
 0001:00035c00       ?_M_set@?$vector@VInstruction@@V?$allocator@VInstruction@@@_STL@@@_STL@@IAEXPAVInstruction@@00@Z 00436c00 f i bscript:eprog_read.obj
 0001:00035c20       ?allocate@?$allocator@VInstruction@@@_STL@@QAEPAVInstruction@@IPBX@Z 00436c20 f i bscript:eprog_read.obj
 0001:00035c60       ??$__copy_backward_ptrs@PAIPAI@_STL@@YAPAIPAI00ABU__true_type@0@@Z 00436c60 f i bscript:eprog_read.obj
 0001:00035c90       ??$fill@PAII@_STL@@YAXPAI0ABI@Z 00436c90 f i bscript:eprog_read.obj
 0001:00035cb0       ??$_Construct@VInstruction@@V1@@_STL@@YAXPAVInstruction@@ABV1@@Z 00436cb0 f i bscript:eprog_read.obj
 0001:00035d20       ??4Instruction@@QAEAAV0@ABV0@@Z 00436d20 f i bscript:eprog_read.obj
 0001:00035d60       ?_Ret@?$_BothPtrType@PAIPAI@_STL@@SA?AU__true_type@2@XZ 00436d60 f i bscript:eprog_read.obj
 0001:00035d70       ??$__copy_backward@PAVInstruction@@PAV1@H@_STL@@YAPAVInstruction@@PAV1@00ABUrandom_access_iterator_tag@0@PAH@Z 00436d70 f i bscript:eprog_read.obj
 0001:00035de0       ??$__uninitialized_fill_n@PAIII@_STL@@YAPAIPAIIABIABU__true_type@0@@Z 00436de0 f i bscript:eprog_read.obj
 0001:00035e00       ??A?$vector@PAVFunctionalityModule@@V?$allocator@PAVFunctionalityModule@@@_STL@@@_STL@@QBEABQAVFunctionalityModule@@I@Z 00436e00 f i bscript:eprog_read.obj
 0001:00035e10       ??A?$vector@VInstruction@@V?$allocator@VInstruction@@@_STL@@@_STL@@QAEAAVInstruction@@I@Z 00436e10 f i bscript:eprog_read.obj
 0001:00035e30       ?capacity@?$vector@_NV?$allocator@_N@_STL@@@_STL@@QBEIXZ 00436e30 f i bscript:eprog_read.obj
 0001:00035e50       ??$fill@U?$_Bit_iter@U_Bit_reference@_STL@@PAU12@@_STL@@_N@_STL@@YAXU?$_Bit_iter@U_Bit_reference@_STL@@PAU12@@0@0AB_N@Z 00436e50 f i bscript:eprog_read.obj
 0001:00035ea0       ??$fill_n@U?$_Bit_iter@U_Bit_reference@_STL@@PAU12@@_STL@@I_N@_STL@@YA?AU?$_Bit_iter@U_Bit_reference@_STL@@PAU12@@0@U10@IAB_N@Z 00436ea0 f i bscript:eprog_read.obj
 0001:00035f00       ??$__copy_backward_ptrs@PAVInstruction@@PAV1@@_STL@@YAPAVInstruction@@PAV1@00ABU__false_type@0@@Z 00436f00 f i bscript:eprog_read.obj
 0001:00035f20       ??$fill@PAVInstruction@@V1@@_STL@@YAXPAVInstruction@@0ABV1@@Z 00436f20 f i bscript:eprog_read.obj
 0001:00035f70       ??$uninitialized_fill_n@PAIII@_STL@@YAPAIPAIIABI@Z 00436f70 f i bscript:eprog_read.obj
 0001:00035f90       ??$__copy@PAVInstruction@@PAV1@H@_STL@@YAPAVInstruction@@PAV1@00ABUrandom_access_iterator_tag@0@PAH@Z 00436f90 f i bscript:eprog_read.obj
 0001:00036000       ??$__copy_aux@PAIPAI@_STL@@YAPAIPAI00ABU__true_type@0@@Z 00437000 f i bscript:eprog_read.obj
 0001:00036030       ?at@?$vector@PAVModuleFunction@@V?$allocator@PAVModuleFunction@@@_STL@@@_STL@@QAEAAPAVModuleFunction@@I@Z 00437030 f i bscript:eprog_read.obj
 0001:00036060       ??$__copy_ptrs@PAVInstruction@@PAV1@@_STL@@YAPAVInstruction@@PAV1@00ABU__false_type@0@@Z 00437060 f i bscript:eprog_read.obj
 0001:00036080       ??$__uninitialized_copy@PAIPAI@_STL@@YAPAIPAI00ABU__true_type@0@@Z 00437080 f i bscript:eprog_read.obj
 0001:000360b0       ?_M_fill_insert@?$vector@_NV?$allocator@_N@_STL@@@_STL@@QAEXU?$_Bit_iter@U_Bit_reference@_STL@@PAU12@@2@I_N@Z 004370b0 f i bscript:eprog_read.obj
 0001:00036340       ?insert@?$vector@_NV?$allocator@_N@_STL@@@_STL@@QAEXU?$_Bit_iter@U_Bit_reference@_STL@@PAU12@@2@I_N@Z 00437340 f i bscript:eprog_read.obj
 0001:00036370       ?_M_fill_insert@?$vector@IV?$allocator@I@_STL@@@_STL@@QAEXPAIIABI@Z 00437370 f i bscript:eprog_read.obj
 0001:00036490       ?_M_clear@?$vector@VInstruction@@V?$allocator@VInstruction@@@_STL@@@_STL@@IAEXXZ 00437490 f i bscript:eprog_read.obj
 0001:00036500       ??$__uninitialized_copy@PAVInstruction@@PAV1@@_STL@@YAPAVInstruction@@PAV1@00ABU__false_type@0@@Z 00437500 f i bscript:eprog_read.obj
 0001:00036580       ??$__uninitialized_fill_n@PAVInstruction@@IV1@@_STL@@YAPAVInstruction@@PAV1@IABV1@ABU__false_type@0@@Z 00437580 f i bscript:eprog_read.obj
 0001:00036600       ?resize@?$vector@_NV?$allocator@_N@_STL@@@_STL@@QAEXI_N@Z 00437600 f i bscript:eprog_read.obj
 0001:000366c0       ?erase@?$vector@VInstruction@@V?$allocator@VInstruction@@@_STL@@@_STL@@QAEPAVInstruction@@PAV3@0@Z 004376c0 f i bscript:eprog_read.obj
 0001:00036710       ?insert@?$vector@IV?$allocator@I@_STL@@@_STL@@QAEXPAIIABI@Z 00437710 f i bscript:eprog_read.obj
 0001:00036720       ?_M_insert_overflow@?$vector@VInstruction@@V?$allocator@VInstruction@@@_STL@@@_STL@@IAEXPAVInstruction@@ABV3@ABU__false_type@2@I_N@Z 00437720 f i bscript:eprog_read.obj
 0001:00036880       ??$uninitialized_fill_n@PAVInstruction@@IV1@@_STL@@YAPAVInstruction@@PAV1@IABV1@@Z 00437880 f i bscript:eprog_read.obj
 0001:000368a0       ?read_module@EScriptProgram@@QAEHPAU_iobuf@@@Z 004378a0 f   bscript:eprog_read.obj
 0001:000369e0       ?resize@?$vector@IV?$allocator@I@_STL@@@_STL@@QAEXII@Z 004379e0 f i bscript:eprog_read.obj
 0001:00036a40       ?_M_fill_insert@?$vector@VInstruction@@V?$allocator@VInstruction@@@_STL@@@_STL@@QAEXPAVInstruction@@IABV3@@Z 00437a40 f i bscript:eprog_read.obj
 0001:00036bf0       ?resize@?$vector@IV?$allocator@I@_STL@@@_STL@@QAEXI@Z 00437bf0 f i bscript:eprog_read.obj
 0001:00036c00       ?insert@?$vector@VInstruction@@V?$allocator@VInstruction@@@_STL@@@_STL@@QAEXPAVInstruction@@IABV3@@Z 00437c00 f i bscript:eprog_read.obj
 0001:00036c10       ?_readToken@EScriptProgram@@QBEHAAVToken@@I@Z 00437c10 f   bscript:eprog_read.obj
 0001:00037500       ?resize@?$vector@VInstruction@@V?$allocator@VInstruction@@@_STL@@@_STL@@QAEXIVInstruction@@@Z 00438500 f i bscript:eprog_read.obj
 0001:000375a0       ??$__copy_backward@PAUEPDbgFunction@@PAU1@H@_STL@@YAPAUEPDbgFunction@@PAU1@00ABUrandom_access_iterator_tag@0@PAH@Z 004385a0 f i bscript:eprog_read.obj
 0001:00037610       ?resize@?$vector@VInstruction@@V?$allocator@VInstruction@@@_STL@@@_STL@@QAEXI@Z 00438610 f i bscript:eprog_read.obj
 0001:00037660       ??$__copy_backward_ptrs@PAUEPDbgFunction@@PAU1@@_STL@@YAPAUEPDbgFunction@@PAU1@00ABU__false_type@0@@Z 00438660 f i bscript:eprog_read.obj
 0001:00037680       ??$fill@PAUEPDbgFunction@@U1@@_STL@@YAXPAUEPDbgFunction@@0ABU1@@Z 00438680 f i bscript:eprog_read.obj
 0001:000376d0       ??$uninitialized_fill_n@PAUEPDbgFunction@@IU1@@_STL@@YAPAUEPDbgFunction@@PAU1@IABU1@@Z 004386d0 f i bscript:eprog_read.obj
 0001:000376f0       ?create_instructions@EScriptProgram@@QAEHXZ 004386f0 f   bscript:eprog_read.obj
 0001:00037790       ?_M_fill_insert@?$vector@UEPDbgFunction@@V?$allocator@UEPDbgFunction@@@_STL@@@_STL@@QAEXPAUEPDbgFunction@@IABU3@@Z 00438790 f i bscript:eprog_read.obj
 0001:00037950       ??$__copy_backward@PAUEPDbgBlock@@PAU1@H@_STL@@YAPAUEPDbgBlock@@PAU1@00ABUrandom_access_iterator_tag@0@PAH@Z 00438950 f i bscript:eprog_read.obj
 0001:000379b0       ?insert@?$vector@UEPDbgFunction@@V?$allocator@UEPDbgFunction@@@_STL@@@_STL@@QAEXPAUEPDbgFunction@@IABU3@@Z 004389b0 f i bscript:eprog_read.obj
 0001:000379c0       ??$__copy_backward_ptrs@PAUEPDbgBlock@@PAU1@@_STL@@YAPAUEPDbgBlock@@PAU1@00ABU__false_type@0@@Z 004389c0 f i bscript:eprog_read.obj
 0001:000379e0       ??$fill@PAUEPDbgBlock@@U1@@_STL@@YAXPAUEPDbgBlock@@0ABU1@@Z 004389e0 f i bscript:eprog_read.obj
 0001:00037a20       ?read_globalvarnames@EScriptProgram@@QAEHPAU_iobuf@@@Z 00438a20 f   bscript:eprog_read.obj
 0001:00037bd0       ?resize@?$vector@UEPDbgFunction@@V?$allocator@UEPDbgFunction@@@_STL@@@_STL@@QAEXIUEPDbgFunction@@@Z 00438bd0 f i bscript:eprog_read.obj
 0001:00037ca0       ?read_exported_functions@EScriptProgram@@QAEHPAU_iobuf@@PAUBSCRIPT_SECTION_HDR@@@Z 00438ca0 f   bscript:eprog_read.obj
 0001:00037e50       ?resize@?$vector@UEPDbgFunction@@V?$allocator@UEPDbgFunction@@@_STL@@@_STL@@QAEXI@Z 00438e50 f i bscript:eprog_read.obj
 0001:00037e80       ?read@EScriptProgram@@QAEHPBD@Z 00438e80 f   bscript:eprog_read.obj
 0001:00038270       ??$uninitialized_fill_n@PAUEPDbgBlock@@IU1@@_STL@@YAPAUEPDbgBlock@@PAU1@IABU1@@Z 00439270 f i bscript:eprog_read.obj
 0001:00038290       ?_M_fill_insert@?$vector@UEPDbgBlock@@V?$allocator@UEPDbgBlock@@@_STL@@@_STL@@QAEXPAUEPDbgBlock@@IABU3@@Z 00439290 f i bscript:eprog_read.obj
 0001:00038420       ?insert@?$vector@UEPDbgBlock@@V?$allocator@UEPDbgBlock@@@_STL@@@_STL@@QAEXPAUEPDbgBlock@@IABU3@@Z 00439420 f i bscript:eprog_read.obj
 0001:00038430       ?resize@?$vector@UEPDbgBlock@@V?$allocator@UEPDbgBlock@@@_STL@@@_STL@@QAEXIUEPDbgBlock@@@Z 00439430 f i bscript:eprog_read.obj
 0001:000384d0       ?resize@?$vector@UEPDbgBlock@@V?$allocator@UEPDbgBlock@@@_STL@@@_STL@@QAEXI@Z 004394d0 f i bscript:eprog_read.obj
 0001:00038500       ?read_dbg_file@EScriptProgram@@QAEHXZ 00439500 f   bscript:eprog_read.obj
 0001:00038ef0       ?fill@_STL@@YAXPAD0ABD@Z   00439ef0 f i clib:fileutil.obj
 0001:00038f20       ?assign@?$char_traits@D@_STL@@SAPADPADID@Z 00439f20 f i clib:fileutil.obj
 0001:00038f60       ?MakeDirectory@@YAXPBD@Z   00439f60 f   clib:fileutil.obj
 0001:00038f70       ?FileExists@@YA_NPBD@Z     00439f70 f   clib:fileutil.obj
 0001:00038f90       ?filesize@@YAJPBD@Z        00439f90 f   clib:fileutil.obj
 0001:00038fc0       ?GetFileTimestamp@@YAKPBD@Z 00439fc0 f   clib:fileutil.obj
 0001:00038ff0       ??$fill_n@I@_STL@@YAPADPADIABD@Z 00439ff0 f i clib:fileutil.obj
 0001:00039030       ?FileExists@@YA_NABV?$basic_string@DV?$char_traits@D@_STL@@V?$allocator@D@2@@_STL@@@Z 0043a030 f   clib:fileutil.obj
 0001:00039050       ?RemoveFile@@YAXABV?$basic_string@DV?$char_traits@D@_STL@@V?$allocator@D@2@@_STL@@@Z 0043a050 f   clib:fileutil.obj
 0001:00039060       ??$__uninitialized_fill_n@PADID@_STL@@YAPADPADIABDABU__true_type@0@@Z 0043a060 f i clib:fileutil.obj
 0001:000390a0       ?erase@?$basic_string@DV?$char_traits@D@_STL@@V?$allocator@D@2@@_STL@@QAEAAV12@II@Z 0043a0a0 f i clib:fileutil.obj
 0001:00039120       ??$uninitialized_fill_n@PADID@_STL@@YAPADPADIABD@Z 0043a120 f i clib:fileutil.obj
 0001:00039160       ?find@?$basic_string@DV?$char_traits@D@_STL@@V?$allocator@D@2@@_STL@@QBEID@Z 0043a160 f i clib:fileutil.obj
 0001:000391a0       ?insert@?$basic_string@DV?$char_traits@D@_STL@@V?$allocator@D@2@@_STL@@QAEXPADID@Z 0043a1a0 f i clib:fileutil.obj
 0001:00039370       ?FullPath@@YA?AV?$basic_string@DV?$char_traits@D@_STL@@V?$allocator@D@2@@_STL@@PBD@Z 0043a370 f   clib:fileutil.obj
 0001:000393c0       ?GetTrueName@@YA?AV?$basic_string@DV?$char_traits@D@_STL@@V?$allocator@D@2@@_STL@@PBD@Z 0043a3c0 f   clib:fileutil.obj
 0001:00039470       ?replace@?$basic_string@DV?$char_traits@D@_STL@@V?$allocator@D@2@@_STL@@QAEAAV12@PAD0ID@Z 0043a470 f i clib:fileutil.obj
 0001:00039530       ?replace@?$basic_string@DV?$char_traits@D@_STL@@V?$allocator@D@2@@_STL@@QAEAAV12@IIID@Z 0043a530 f i clib:fileutil.obj
 0001:000395c0       ?GetFilePart@@YA?AV?$basic_string@DV?$char_traits@D@_STL@@V?$allocator@D@2@@_STL@@PBD@Z 0043a5c0 f   clib:fileutil.obj
 0001:000396a0       ?normalized_dir_form@@YA?AV?$basic_string@DV?$char_traits@D@_STL@@V?$allocator@D@2@@_STL@@ABV12@@Z 0043a6a0 f   clib:fileutil.obj
 0001:00039840       ?IsDirectory@@YA_NPBD@Z    0043a840 f   clib:fileutil.obj
 0001:00039970       ?strip_one@@YAHAAV?$basic_string@DV?$char_traits@D@_STL@@V?$allocator@D@2@@_STL@@@Z 0043a970 f   clib:fileutil.obj
 0001:00039a50       ?make_dir@@YAHPBD@Z        0043aa50 f   clib:fileutil.obj
 0001:00039bc0       ?fix_slashes@@YA?AV?$basic_string@DV?$char_traits@D@_STL@@V?$allocator@D@2@@_STL@@V12@@Z 0043abc0 f   clib:xmain.obj
 0001:00039f20       _main                      0043af20 f   clib:xmain.obj
 0001:0003a080       ??0DirList@@QAE@XZ         0043b080 f   clib:dirlist.obj
 0001:0003a090       ??1DirList@@QAE@XZ         0043b090 f   clib:dirlist.obj
 0001:0003a0c0       ?open@DirList@@QAEXPBD@Z   0043b0c0 f   clib:dirlist.obj
 0001:0003a0f0       ?at_end@DirList@@QBE_NXZ   0043b0f0 f   clib:dirlist.obj
 0001:0003a100       ?next@DirList@@QAEXXZ      0043b100 f   clib:dirlist.obj
 0001:0003a140       ??0PushDir@@QAE@PBD@Z      0043b140 f   clib:dirlist.obj
 0001:0003a170       ??1PushDir@@QAE@XZ         0043b170 f   clib:dirlist.obj
 0001:0003a180       ?ok@PushDir@@QBE_NXZ       0043b180 f   clib:dirlist.obj
 0001:0003a190       ?name@DirList@@QBE?AV?$basic_string@DV?$char_traits@D@_STL@@V?$allocator@D@2@@_STL@@XZ 0043b190 f   clib:dirlist.obj
 0001:0003a1c0       ?curdir@@YA?AV?$basic_string@DV?$char_traits@D@_STL@@V?$allocator@D@2@@_STL@@XZ 0043b1c0 f   clib:dirlist.obj
 0001:0003a2a0       ??0DirList@@QAE@PBD@Z      0043b2a0 f   clib:dirlist.obj
 0001:0003a360       ?wallclock@@YAKXZ          0043b360 f   clib:wallclock.obj
 0001:0003a370       ?wallclock_diff_ms@@YAKKK@Z 0043b370 f   clib:wallclock.obj
 0001:0003a390       ?forspec@@YAHPBDP6AX0@Z@Z  0043b390 f   clib:forspcnt.obj
 0001:0003a430       ?TopLevelFilter@HiddenMiniDumper@@SGJPAU_EXCEPTION_POINTERS@@@Z 0043b430 f   clib:mdump.obj
 0001:0003a730       ?Initialize@HiddenMiniDumper@@SAHXZ 0043b730 f   clib:mdump.obj
 0001:0003a830       ?Initialize@MiniDumper@@SAXXZ 0043b830 f   clib:mdump.obj
 0001:0003a840       ?SetMiniDumpType@MiniDumper@@SAXABV?$basic_string@DV?$char_traits@D@_STL@@V?$allocator@D@2@@_STL@@@Z 0043b840 f   clib:mdump.obj
 0001:0003a870       ?force_backtrace@@YAXXZ    0043b870 f   clib:passert.obj
 0001:0003a8d0       ??$tostring@I@@YA?AV?$basic_string@DV?$char_traits@D@_STL@@V?$allocator@D@2@@_STL@@ABI@Z 0043b8d0 f i clib:passert.obj
 0001:0003a980       ?passert_failed@@YAXPBD0I@Z 0043b980 f   clib:passert.obj
 0001:0003abc0       ?passert_failed@@YAXPBDABV?$basic_string@DV?$char_traits@D@_STL@@V?$allocator@D@2@@_STL@@0I@Z 0043bbc0 f   clib:passert.obj
 0001:0003ae70       ??1ConfigSource@@UAE@XZ    0043be70 f i clib:cfgfile.obj
 0001:0003ae80       ??_GConfigSource@@UAEPAXI@Z 0043be80 f i clib:cfgfile.obj
 0001:0003ae80       ??_EConfigSource@@UAEPAXI@Z 0043be80 f i clib:cfgfile.obj
 0001:0003aea0       ?set_source@ConfigElem@@QAEXABV1@@Z 0043bea0 f   clib:cfgfile.obj
 0001:0003aeb0       ?set_source@ConfigElem@@QAEXPBVConfigSource@@@Z 0043beb0 f   clib:cfgfile.obj
 0001:0003aec0       ?warn@ConfigElem@@QBEXABV?$basic_string@DV?$char_traits@D@_STL@@V?$allocator@D@2@@_STL@@@Z 0043bec0 f   clib:cfgfile.obj
 0001:0003aee0       ?warn_with_line@ConfigElem@@QBEXABV?$basic_string@DV?$char_traits@D@_STL@@V?$allocator@D@2@@_STL@@@Z 0043bee0 f   clib:cfgfile.obj
 0001:0003af00       ??0ConfigSource@@QAE@XZ    0043bf00 f i clib:cfgfile.obj
 0001:0003af10       ?filename@ConfigFile@@QBEABV?$basic_string@DV?$char_traits@D@_STL@@V?$allocator@D@2@@_STL@@XZ 0043bf10 f   clib:cfgfile.obj
 0001:0003af20       ?modified@ConfigFile@@QBE?BJXZ 0043bf20 f   clib:cfgfile.obj
 0001:0003af30       ?element_line_start@ConfigFile@@QBEIXZ 0043bf30 f   clib:cfgfile.obj
 0001:0003af40       ?begin@?$vector@PAVConfigProperty@@V?$allocator@PAVConfigProperty@@@_STL@@@_STL@@QAEPAPAVConfigProperty@@XZ 0043bf40 f i clib:cfgfile.obj
 0001:0003af50       ?begin@?$vector@PAVConfigProperty@@V?$allocator@PAVConfigProperty@@@_STL@@@_STL@@QBEPBQAVConfigProperty@@XZ 0043bf50 f i clib:cfgfile.obj
 0001:0003af60       ?end@?$vector@PAVConfigProperty@@V?$allocator@PAVConfigProperty@@@_STL@@@_STL@@QAEPAPAVConfigProperty@@XZ 0043bf60 f i clib:cfgfile.obj
 0001:0003af70       ?end@?$vector@PAVConfigProperty@@V?$allocator@PAVConfigProperty@@@_STL@@@_STL@@QBEPBQAVConfigProperty@@XZ 0043bf70 f i clib:cfgfile.obj
 0001:0003af80       ?empty@?$vector@PAVConfigProperty@@V?$allocator@PAVConfigProperty@@@_STL@@@_STL@@QBE_NXZ 0043bf80 f i clib:cfgfile.obj
 0001:0003af90       ?front@?$vector@PAVConfigProperty@@V?$allocator@PAVConfigProperty@@@_STL@@@_STL@@QAEAAPAVConfigProperty@@XZ 0043bf90 f i clib:cfgfile.obj
 0001:0003afa0       ?back@?$vector@PAVConfigProperty@@V?$allocator@PAVConfigProperty@@@_STL@@@_STL@@QAEAAPAVConfigProperty@@XZ 0043bfa0 f i clib:cfgfile.obj
 0001:0003afb0       ??0?$_Rb_tree_iterator@U?$pair@$$CBV?$basic_string@DV?$char_traits@D@_STL@@V?$allocator@D@2@@_STL@@V12@@_STL@@U?$_Nonconst_traits@U?$pair@$$CBV?$basic_string@DV?$char_traits@D@_STL@@V?$allocator@D@2@@_STL@@V12@@_STL@@@2@@_STL@@QAE@ABU01@@Z 0043bfb0 f i clib:cfgfile.obj
 0001:0003afc0       ??D?$_Rb_tree_iterator@U?$pair@$$CBV?$basic_string@DV?$char_traits@D@_STL@@V?$allocator@D@2@@_STL@@V12@@_STL@@U?$_Nonconst_traits@U?$pair@$$CBV?$basic_string@DV?$char_traits@D@_STL@@V?$allocator@D@2@@_STL@@V12@@_STL@@@2@@_STL@@QBEAAU?$pair@$$CBV?$basic_string@DV?$char_traits@D@_STL@@V?$allocator@D@2@@_STL@@V12@@1@XZ 0043bfc0 f i clib:cfgfile.obj
 0001:0003afd0       ??D?$_Rb_tree_iterator@U?$pair@$$CBV?$basic_string@DV?$char_traits@D@_STL@@V?$allocator@D@2@@_STL@@V12@@_STL@@U?$_Const_traits@U?$pair@$$CBV?$basic_string@DV?$char_traits@D@_STL@@V?$allocator@D@2@@_STL@@V12@@_STL@@@2@@_STL@@QBEABU?$pair@$$CBV?$basic_string@DV?$char_traits@D@_STL@@V?$allocator@D@2@@_STL@@V12@@1@XZ 0043bfd0 f i clib:cfgfile.obj
 0001:0003afe0       ??D?$_Rb_tree_iterator@V?$basic_string@DV?$char_traits@D@_STL@@V?$allocator@D@2@@_STL@@U?$_Const_traits@V?$basic_string@DV?$char_traits@D@_STL@@V?$allocator@D@2@@_STL@@@2@@_STL@@QBEABV?$basic_string@DV?$char_traits@D@_STL@@V?$allocator@D@2@@1@XZ 0043bfe0 f i clib:cfgfile.obj
 0001:0003aff0       ??E?$_Rb_tree_iterator@V?$basic_string@DV?$char_traits@D@_STL@@V?$allocator@D@2@@_STL@@U?$_Const_traits@V?$basic_string@DV?$char_traits@D@_STL@@V?$allocator@D@2@@_STL@@@2@@_STL@@QAEAAU01@XZ 0043bff0 f i clib:cfgfile.obj
 0001:0003b010       ?empty@?$_Rb_tree@V?$basic_string@DV?$char_traits@D@_STL@@V?$allocator@D@2@@_STL@@U?$pair@$$CBV?$basic_string@DV?$char_traits@D@_STL@@V?$allocator@D@2@@_STL@@V12@@2@U?$_Select1st@U?$pair@$$CBV?$basic_string@DV?$char_traits@D@_STL@@V?$allocator@D@2@@_STL@@V12@@_STL@@@2@Vci_cmp_pred@@V?$allocator@U?$pair@$$CBV?$basic_string@DV?$char_traits@D@_STL@@V?$allocator@D@2@@_STL@@V12@@_STL@@@2@@_STL@@QBE_NXZ 0043c010 f i clib:cfgfile.obj
 0001:0003b020       ??0?$allocator@U?$pair@$$CBV?$basic_string@DV?$char_traits@D@_STL@@V?$allocator@D@2@@_STL@@V12@@_STL@@@_STL@@QAE@XZ 0043c020 f i clib:cfgfile.obj
 0001:0003b030       ??1?$allocator@U?$pair@$$CBV?$basic_string@DV?$char_traits@D@_STL@@V?$allocator@D@2@@_STL@@V12@@_STL@@@_STL@@QAE@XZ 0043c030 f i clib:cfgfile.obj
 0001:0003b040       ?empty@?$_Rb_tree@V?$basic_string@DV?$char_traits@D@_STL@@V?$allocator@D@2@@_STL@@V12@U?$_Identity@V?$basic_string@DV?$char_traits@D@_STL@@V?$allocator@D@2@@_STL@@@2@Vci_cmp_pred@@V?$allocator@V?$basic_string@DV?$char_traits@D@_STL@@V?$allocator@D@2@@_STL@@@2@@_STL@@QBE_NXZ 0043c040 f i clib:cfgfile.obj
 0001:0003b050       ?_M_root@?$_Rb_tree@V?$basic_string@DV?$char_traits@D@_STL@@V?$allocator@D@2@@_STL@@U?$pair@$$CBV?$basic_string@DV?$char_traits@D@_STL@@V?$allocator@D@2@@_STL@@V12@@2@U?$_Select1st@U?$pair@$$CBV?$basic_string@DV?$char_traits@D@_STL@@V?$allocator@D@2@@_STL@@V12@@_STL@@@2@Vci_cmp_pred@@V?$allocator@U?$pair@$$CBV?$basic_string@DV?$char_traits@D@_STL@@V?$allocator@D@2@@_STL@@V12@@_STL@@@2@@_STL@@IBEAAPAU?$_Rb_tree_node@U?$pair@$$CBV?$basic_string@DV?$char_traits@D@_STL@@V?$allocator@D@2@@_STL@@V12@@_STL@@@2@XZ 0043c050 f i clib:cfgfile.obj
 0001:0003b060       ?_M_leftmost@?$_Rb_tree@V?$basic_string@DV?$char_traits@D@_STL@@V?$allocator@D@2@@_STL@@U?$pair@$$CBV?$basic_string@DV?$char_traits@D@_STL@@V?$allocator@D@2@@_STL@@V12@@2@U?$_Select1st@U?$pair@$$CBV?$basic_string@DV?$char_traits@D@_STL@@V?$allocator@D@2@@_STL@@V12@@_STL@@@2@Vci_cmp_pred@@V?$allocator@U?$pair@$$CBV?$basic_string@DV?$char_traits@D@_STL@@V?$allocator@D@2@@_STL@@V12@@_STL@@@2@@_STL@@IBEAAPAU?$_Rb_tree_node@U?$pair@$$CBV?$basic_string@DV?$char_traits@D@_STL@@V?$allocator@D@2@@_STL@@V12@@_STL@@@2@XZ 0043c060 f i clib:cfgfile.obj
 0001:0003b070       ?_M_rightmost@?$_Rb_tree@V?$basic_string@DV?$char_traits@D@_STL@@V?$allocator@D@2@@_STL@@U?$pair@$$CBV?$basic_string@DV?$char_traits@D@_STL@@V?$allocator@D@2@@_STL@@V12@@2@U?$_Select1st@U?$pair@$$CBV?$basic_string@DV?$char_traits@D@_STL@@V?$allocator@D@2@@_STL@@V12@@_STL@@@2@Vci_cmp_pred@@V?$allocator@U?$pair@$$CBV?$basic_string@DV?$char_traits@D@_STL@@V?$allocator@D@2@@_STL@@V12@@_STL@@@2@@_STL@@IBEAAPAU?$_Rb_tree_node@U?$pair@$$CBV?$basic_string@DV?$char_traits@D@_STL@@V?$allocator@D@2@@_STL@@V12@@_STL@@@2@XZ 0043c070 f i clib:cfgfile.obj
 0001:0003b080       ??1?$allocator@U?$_Rb_tree_node@U?$pair@$$CBV?$basic_string@DV?$char_traits@D@_STL@@V?$allocator@D@2@@_STL@@V12@@_STL@@@_STL@@@_STL@@QAE@XZ 0043c080 f i clib:cfgfile.obj
 0001:0003b090       ?size@?$vector@PAVConfigProperty@@V?$allocator@PAVConfigProperty@@@_STL@@@_STL@@QBEIXZ 0043c090 f i clib:cfgfile.obj
 0001:0003b0a0       ?_M_set@?$vector@PAVConfigProperty@@V?$allocator@PAVConfigProperty@@@_STL@@@_STL@@IAEXPAPAVConfigProperty@@00@Z 0043c0a0 f i clib:cfgfile.obj
 0001:0003b0c0       ??0?$_Rb_tree_iterator@U?$pair@$$CBV?$basic_string@DV?$char_traits@D@_STL@@V?$allocator@D@2@@_STL@@V12@@_STL@@U?$_Nonconst_traits@U?$pair@$$CBV?$basic_string@DV?$char_traits@D@_STL@@V?$allocator@D@2@@_STL@@V12@@_STL@@@2@@_STL@@QAE@PAU?$_Rb_tree_node@U?$pair@$$CBV?$basic_string@DV?$char_traits@D@_STL@@V?$allocator@D@2@@_STL@@V12@@_STL@@@1@@Z 0043c0c0 f i clib:cfgfile.obj
 0001:0003b0d0       ??0?$_Rb_tree_iterator@U?$pair@$$CBV?$basic_string@DV?$char_traits@D@_STL@@V?$allocator@D@2@@_STL@@V12@@_STL@@U?$_Const_traits@U?$pair@$$CBV?$basic_string@DV?$char_traits@D@_STL@@V?$allocator@D@2@@_STL@@V12@@_STL@@@2@@_STL@@QAE@PAU?$_Rb_tree_node@U?$pair@$$CBV?$basic_string@DV?$char_traits@D@_STL@@V?$allocator@D@2@@_STL@@V12@@_STL@@@1@@Z 0043c0d0 f i clib:cfgfile.obj
 0001:0003b0e0       ?_S_color@?$_Rb_tree@V?$basic_string@DV?$char_traits@D@_STL@@V?$allocator@D@2@@_STL@@U?$pair@$$CBV?$basic_string@DV?$char_traits@D@_STL@@V?$allocator@D@2@@_STL@@V12@@2@U?$_Select1st@U?$pair@$$CBV?$basic_string@DV?$char_traits@D@_STL@@V?$allocator@D@2@@_STL@@V12@@_STL@@@2@Vci_cmp_pred@@V?$allocator@U?$pair@$$CBV?$basic_string@DV?$char_traits@D@_STL@@V?$allocator@D@2@@_STL@@V12@@_STL@@@2@@_STL@@KAAA_NPAU?$_Rb_tree_node@U?$pair@$$CBV?$basic_string@DV?$char_traits@D@_STL@@V?$allocator@D@2@@_STL@@V12@@_STL@@@2@@Z 0043c0e0 f i clib:cfgfile.obj
 0001:0003b0f0       ??0?$allocator@U?$_Rb_tree_node@U?$pair@$$CBV?$basic_string@DV?$char_traits@D@_STL@@V?$allocator@D@2@@_STL@@V12@@_STL@@@_STL@@@_STL@@QAE@ABV01@@Z 0043c0f0 f i clib:cfgfile.obj
 0001:0003b100       ??$swap@PAD@_STL@@YAXAAPAD0@Z 0043c100 f i clib:cfgfile.obj
 0001:0003b120       ??$_Construct@PAVConfigProperty@@PAV1@@_STL@@YAXPAPAVConfigProperty@@ABQAV1@@Z 0043c120 f i clib:cfgfile.obj
 0001:0003b140       ??$_Destroy@PAVConfigProperty@@@_STL@@YAXPAPAVConfigProperty@@@Z 0043c140 f i clib:cfgfile.obj
 0001:0003b150       ??$__copy_ptrs@PAPAVConfigProperty@@PAPAV1@@_STL@@YAPAPAVConfigProperty@@PAPAV1@00ABU__true_type@0@@Z 0043c150 f i clib:cfgfile.obj
 0001:0003b180       ??$fill_n@PAPAVConfigProperty@@IPAV1@@_STL@@YAPAPAVConfigProperty@@PAPAV1@IABQAV1@@Z 0043c180 f i clib:cfgfile.obj
 0001:0003b1a0       ??$?0U?$pair@$$CBV?$basic_string@DV?$char_traits@D@_STL@@V?$allocator@D@2@@_STL@@V12@@_STL@@@?$allocator@U?$_Rb_tree_node@U?$pair@$$CBV?$basic_string@DV?$char_traits@D@_STL@@V?$allocator@D@2@@_STL@@V12@@_STL@@@_STL@@@_STL@@QAE@ABV?$allocator@U?$pair@$$CBV?$basic_string@DV?$char_traits@D@_STL@@V?$allocator@D@2@@_STL@@V12@@_STL@@@1@@Z 0043c1a0 f i clib:cfgfile.obj
 0001:0003b1b0       ?_S_left@?$_Rb_tree@V?$basic_string@DV?$char_traits@D@_STL@@V?$allocator@D@2@@_STL@@U?$pair@$$CBV?$basic_string@DV?$char_traits@D@_STL@@V?$allocator@D@2@@_STL@@V12@@2@U?$_Select1st@U?$pair@$$CBV?$basic_string@DV?$char_traits@D@_STL@@V?$allocator@D@2@@_STL@@V12@@_STL@@@2@Vci_cmp_pred@@V?$allocator@U?$pair@$$CBV?$basic_string@DV?$char_traits@D@_STL@@V?$allocator@D@2@@_STL@@V12@@_STL@@@2@@_STL@@KAAAPAU?$_Rb_tree_node@U?$pair@$$CBV?$basic_string@DV?$char_traits@D@_STL@@V?$allocator@D@2@@_STL@@V12@@_STL@@@2@PAU32@@Z 0043c1b0 f i clib:cfgfile.obj
 0001:0003b1c0       ?_S_right@?$_Rb_tree@V?$basic_string@DV?$char_traits@D@_STL@@V?$allocator@D@2@@_STL@@U?$pair@$$CBV?$basic_string@DV?$char_traits@D@_STL@@V?$allocator@D@2@@_STL@@V12@@2@U?$_Select1st@U?$pair@$$CBV?$basic_string@DV?$char_traits@D@_STL@@V?$allocator@D@2@@_STL@@V12@@_STL@@@2@Vci_cmp_pred@@V?$allocator@U?$pair@$$CBV?$basic_string@DV?$char_traits@D@_STL@@V?$allocator@D@2@@_STL@@V12@@_STL@@@2@@_STL@@KAAAPAU?$_Rb_tree_node@U?$pair@$$CBV?$basic_string@DV?$char_traits@D@_STL@@V?$allocator@D@2@@_STL@@V12@@_STL@@@2@PAU32@@Z 0043c1c0 f i clib:cfgfile.obj
 0001:0003b1d0       ??R?$_Select1st@U?$pair@$$CBV?$basic_string@DV?$char_traits@D@_STL@@V?$allocator@D@2@@_STL@@V12@@_STL@@@_STL@@QBEABV?$basic_string@DV?$char_traits@D@_STL@@V?$allocator@D@2@@1@ABU?$pair@$$CBV?$basic_string@DV?$char_traits@D@_STL@@V?$allocator@D@2@@_STL@@V12@@1@@Z 0043c1d0 f i clib:cfgfile.obj
 0001:0003b1e0       ?_S_value@?$_Rb_tree@V?$basic_string@DV?$char_traits@D@_STL@@V?$allocator@D@2@@_STL@@U?$pair@$$CBV?$basic_string@DV?$char_traits@D@_STL@@V?$allocator@D@2@@_STL@@V12@@2@U?$_Select1st@U?$pair@$$CBV?$basic_string@DV?$char_traits@D@_STL@@V?$allocator@D@2@@_STL@@V12@@_STL@@@2@Vci_cmp_pred@@V?$allocator@U?$pair@$$CBV?$basic_string@DV?$char_traits@D@_STL@@V?$allocator@D@2@@_STL@@V12@@_STL@@@2@@_STL@@KAAAU?$pair@$$CBV?$basic_string@DV?$char_traits@D@_STL@@V?$allocator@D@2@@_STL@@V12@@2@PAU?$_Rb_tree_node@U?$pair@$$CBV?$basic_string@DV?$char_traits@D@_STL@@V?$allocator@D@2@@_STL@@V12@@_STL@@@2@@Z 0043c1e0 f i clib:cfgfile.obj
 0001:0003b1f0       ??0?$pair@U?$_Rb_tree_iterator@U?$pair@$$CBV?$basic_string@DV?$char_traits@D@_STL@@V?$allocator@D@2@@_STL@@V12@@_STL@@U?$_Const_traits@U?$pair@$$CBV?$basic_string@DV?$char_traits@D@_STL@@V?$allocator@D@2@@_STL@@V12@@_STL@@@2@@_STL@@U12@@_STL@@QAE@ABU?$_Rb_tree_iterator@U?$pair@$$CBV?$basic_string@DV?$char_traits@D@_STL@@V?$allocator@D@2@@_STL@@V12@@_STL@@U?$_Const_traits@U?$pair@$$CBV?$basic_string@DV?$char_traits@D@_STL@@V?$allocator@D@2@@_STL@@V12@@_STL@@@2@@1@0@Z 0043c1f0 f i clib:cfgfile.obj
 0001:0003b210       ?_S_parent@?$_Rb_tree@V?$basic_string@DV?$char_traits@D@_STL@@V?$allocator@D@2@@_STL@@U?$pair@$$CBV?$basic_string@DV?$char_traits@D@_STL@@V?$allocator@D@2@@_STL@@V12@@2@U?$_Select1st@U?$pair@$$CBV?$basic_string@DV?$char_traits@D@_STL@@V?$allocator@D@2@@_STL@@V12@@_STL@@@2@Vci_cmp_pred@@V?$allocator@U?$pair@$$CBV?$basic_string@DV?$char_traits@D@_STL@@V?$allocator@D@2@@_STL@@V12@@_STL@@@2@@_STL@@KAAAPAU?$_Rb_tree_node@U?$pair@$$CBV?$basic_string@DV?$char_traits@D@_STL@@V?$allocator@D@2@@_STL@@V12@@_STL@@@2@PAU32@@Z 0043c210 f i clib:cfgfile.obj
 0001:0003b220       ??$__destroy_aux@PAPAVConfigProperty@@@_STL@@YAXPAPAVConfigProperty@@0ABU__true_type@0@@Z 0043c220 f i clib:cfgfile.obj
 0001:0003b230       ??E?$_Rb_tree_iterator@U?$pair@$$CBV?$basic_string@DV?$char_traits@D@_STL@@V?$allocator@D@2@@_STL@@V12@@_STL@@U?$_Const_traits@U?$pair@$$CBV?$basic_string@DV?$char_traits@D@_STL@@V?$allocator@D@2@@_STL@@V12@@_STL@@@2@@_STL@@QAEAAU01@XZ 0043c230 f i clib:cfgfile.obj
 0001:0003b250       ?type@ConfigElemBase@@QBEPBDXZ 0043c250 f   clib:cfgfile.obj
 0001:0003b260       ?rest@ConfigElemBase@@QBEPBDXZ 0043c260 f   clib:cfgfile.obj
 0001:0003b270       ?type_is@ConfigElemBase@@QBE_NPBD@Z 0043c270 f   clib:cfgfile.obj
 0001:0003b290       ?has_prop@VectorConfigElem@@QBE_NPBD@Z 0043c290 f   clib:cfgfile.obj
 0001:0003b2d0       ?empty@?$multimap@V?$basic_string@DV?$char_traits@D@_STL@@V?$allocator@D@2@@_STL@@V12@Vci_cmp_pred@@V?$allocator@U?$pair@$$CBV?$basic_string@DV?$char_traits@D@_STL@@V?$allocator@D@2@@_STL@@V12@@_STL@@@2@@_STL@@QBE_NXZ 0043c2d0 f i clib:cfgfile.obj
 0001:0003b2e0       ?pop_back@?$vector@PAVConfigProperty@@V?$allocator@PAVConfigProperty@@@_STL@@@_STL@@QAEXXZ 0043c2e0 f i clib:cfgfile.obj
 0001:0003b2f0       ?erase@?$vector@PAVConfigProperty@@V?$allocator@PAVConfigProperty@@@_STL@@@_STL@@QAEPAPAVConfigProperty@@PAPAV3@@Z 0043c2f0 f i clib:cfgfile.obj
 0001:0003b320       ?empty@?$set@V?$basic_string@DV?$char_traits@D@_STL@@V?$allocator@D@2@@_STL@@Vci_cmp_pred@@V?$allocator@V?$basic_string@DV?$char_traits@D@_STL@@V?$allocator@D@2@@_STL@@@2@@_STL@@QBE_NXZ 0043c320 f i clib:cfgfile.obj
 0001:0003b330       ?begin@?$_Rb_tree@V?$basic_string@DV?$char_traits@D@_STL@@V?$allocator@D@2@@_STL@@U?$pair@$$CBV?$basic_string@DV?$char_traits@D@_STL@@V?$allocator@D@2@@_STL@@V12@@2@U?$_Select1st@U?$pair@$$CBV?$basic_string@DV?$char_traits@D@_STL@@V?$allocator@D@2@@_STL@@V12@@_STL@@@2@Vci_cmp_pred@@V?$allocator@U?$pair@$$CBV?$basic_string@DV?$char_traits@D@_STL@@V?$allocator@D@2@@_STL@@V12@@_STL@@@2@@_STL@@QAE?AU?$_Rb_tree_iterator@U?$pair@$$CBV?$basic_string@DV?$char_traits@D@_STL@@V?$allocator@D@2@@_STL@@V12@@_STL@@U?$_Nonconst_traits@U?$pair@$$CBV?$basic_string@DV?$char_traits@D@_STL@@V?$allocator@D@2@@_STL@@V12@@_STL@@@2@@2@XZ 0043c330 f i clib:cfgfile.obj
 0001:0003b340       ?end@?$_Rb_tree@V?$basic_string@DV?$char_traits@D@_STL@@V?$allocator@D@2@@_STL@@U?$pair@$$CBV?$basic_string@DV?$char_traits@D@_STL@@V?$allocator@D@2@@_STL@@V12@@2@U?$_Select1st@U?$pair@$$CBV?$basic_string@DV?$char_traits@D@_STL@@V?$allocator@D@2@@_STL@@V12@@_STL@@@2@Vci_cmp_pred@@V?$allocator@U?$pair@$$CBV?$basic_string@DV?$char_traits@D@_STL@@V?$allocator@D@2@@_STL@@V12@@_STL@@@2@@_STL@@QAE?AU?$_Rb_tree_iterator@U?$pair@$$CBV?$basic_string@DV?$char_traits@D@_STL@@V?$allocator@D@2@@_STL@@V12@@_STL@@U?$_Nonconst_traits@U?$pair@$$CBV?$basic_string@DV?$char_traits@D@_STL@@V?$allocator@D@2@@_STL@@V12@@_STL@@@2@@2@XZ 0043c340 f i clib:cfgfile.obj
 0001:0003b350       ?end@?$_Rb_tree@V?$basic_string@DV?$char_traits@D@_STL@@V?$allocator@D@2@@_STL@@U?$pair@$$CBV?$basic_string@DV?$char_traits@D@_STL@@V?$allocator@D@2@@_STL@@V12@@2@U?$_Select1st@U?$pair@$$CBV?$basic_string@DV?$char_traits@D@_STL@@V?$allocator@D@2@@_STL@@V12@@_STL@@@2@Vci_cmp_pred@@V?$allocator@U?$pair@$$CBV?$basic_string@DV?$char_traits@D@_STL@@V?$allocator@D@2@@_STL@@V12@@_STL@@@2@@_STL@@QBE?AU?$_Rb_tree_iterator@U?$pair@$$CBV?$basic_string@DV?$char_traits@D@_STL@@V?$allocator@D@2@@_STL@@V12@@_STL@@U?$_Const_traits@U?$pair@$$CBV?$basic_string@DV?$char_traits@D@_STL@@V?$allocator@D@2@@_STL@@V12@@_STL@@@2@@2@XZ 0043c350 f i clib:cfgfile.obj
 0001:0003b360       ?begin@?$_Rb_tree@V?$basic_string@DV?$char_traits@D@_STL@@V?$allocator@D@2@@_STL@@V12@U?$_Identity@V?$basic_string@DV?$char_traits@D@_STL@@V?$allocator@D@2@@_STL@@@2@Vci_cmp_pred@@V?$allocator@V?$basic_string@DV?$char_traits@D@_STL@@V?$allocator@D@2@@_STL@@@2@@_STL@@QBE?AU?$_Rb_tree_iterator@V?$basic_string@DV?$char_traits@D@_STL@@V?$allocator@D@2@@_STL@@U?$_Const_traits@V?$basic_string@DV?$char_traits@D@_STL@@V?$allocator@D@2@@_STL@@@2@@2@XZ 0043c360 f i clib:cfgfile.obj
 0001:0003b370       ??1?$_STLP_alloc_proxy@PAU?$_Rb_tree_node@U?$pair@$$CBV?$basic_string@DV?$char_traits@D@_STL@@V?$allocator@D@2@@_STL@@V12@@_STL@@@_STL@@U12@V?$allocator@U?$_Rb_tree_node@U?$pair@$$CBV?$basic_string@DV?$char_traits@D@_STL@@V?$allocator@D@2@@_STL@@V12@@_STL@@@_STL@@@2@@_STL@@QAE@XZ 0043c370 f i clib:cfgfile.obj
 0001:0003b380       ?_M_empty_initialize@?$_Rb_tree@V?$basic_string@DV?$char_traits@D@_STL@@V?$allocator@D@2@@_STL@@U?$pair@$$CBV?$basic_string@DV?$char_traits@D@_STL@@V?$allocator@D@2@@_STL@@V12@@2@U?$_Select1st@U?$pair@$$CBV?$basic_string@DV?$char_traits@D@_STL@@V?$allocator@D@2@@_STL@@V12@@_STL@@@2@Vci_cmp_pred@@V?$allocator@U?$pair@$$CBV?$basic_string@DV?$char_traits@D@_STL@@V?$allocator@D@2@@_STL@@V12@@_STL@@@2@@_STL@@AAEXXZ 0043c380 f i clib:cfgfile.obj
 0001:0003b3a0       ?deallocate@?$allocator@U?$_Rb_tree_node@U?$pair@$$CBV?$basic_string@DV?$char_traits@D@_STL@@V?$allocator@D@2@@_STL@@V12@@_STL@@@_STL@@@_STL@@QAEXPAU?$_Rb_tree_node@U?$pair@$$CBV?$basic_string@DV?$char_traits@D@_STL@@V?$allocator@D@2@@_STL@@V12@@_STL@@@2@I@Z 0043c3a0 f i clib:cfgfile.obj
 0001:0003b3e0       ?allocate@?$allocator@PAVConfigProperty@@@_STL@@QAEPAPAVConfigProperty@@IPBX@Z 0043c3e0 f i clib:cfgfile.obj
 0001:0003b410       ??0?$_STLP_alloc_proxy@PAU?$_Rb_tree_node@U?$pair@$$CBV?$basic_string@DV?$char_traits@D@_STL@@V?$allocator@D@2@@_STL@@V12@@_STL@@@_STL@@U12@V?$allocator@U?$_Rb_tree_node@U?$pair@$$CBV?$basic_string@DV?$char_traits@D@_STL@@V?$allocator@D@2@@_STL@@V12@@_STL@@@_STL@@@2@@_STL@@QAE@ABV?$allocator@U?$_Rb_tree_node@U?$pair@$$CBV?$basic_string@DV?$char_traits@D@_STL@@V?$allocator@D@2@@_STL@@V12@@_STL@@@_STL@@@1@PAU?$_Rb_tree_node@U?$pair@$$CBV?$basic_string@DV?$char_traits@D@_STL@@V?$allocator@D@2@@_STL@@V12@@_STL@@@1@@Z 0043c410 f i clib:cfgfile.obj
 0001:0003b420       ?allocate@?$allocator@U?$_Rb_tree_node@U?$pair@$$CBV?$basic_string@DV?$char_traits@D@_STL@@V?$allocator@D@2@@_STL@@V12@@_STL@@@_STL@@@_STL@@QAEPAU?$_Rb_tree_node@U?$pair@$$CBV?$basic_string@DV?$char_traits@D@_STL@@V?$allocator@D@2@@_STL@@V12@@_STL@@@2@IPBX@Z 0043c420 f i clib:cfgfile.obj
 0001:0003b460       ?deallocate@?$allocator@PAVConfigProperty@@@_STL@@QAEXPAPAVConfigProperty@@I@Z 0043c460 f i clib:cfgfile.obj
 0001:0003b490       ??0?$_STLP_alloc_proxy@PADDV?$allocator@D@_STL@@@_STL@@QAE@ABV01@@Z 0043c490 f i clib:cfgfile.obj
 0001:0003b4a0       ?_S_key@?$_Rb_tree@V?$basic_string@DV?$char_traits@D@_STL@@V?$allocator@D@2@@_STL@@U?$pair@$$CBV?$basic_string@DV?$char_traits@D@_STL@@V?$allocator@D@2@@_STL@@V12@@2@U?$_Select1st@U?$pair@$$CBV?$basic_string@DV?$char_traits@D@_STL@@V?$allocator@D@2@@_STL@@V12@@_STL@@@2@Vci_cmp_pred@@V?$allocator@U?$pair@$$CBV?$basic_string@DV?$char_traits@D@_STL@@V?$allocator@D@2@@_STL@@V12@@_STL@@@2@@_STL@@KAABV?$basic_string@DV?$char_traits@D@_STL@@V?$allocator@D@2@@2@PAU?$_Rb_tree_node@U?$pair@$$CBV?$basic_string@DV?$char_traits@D@_STL@@V?$allocator@D@2@@_STL@@V12@@_STL@@@2@@Z 0043c4a0 f i clib:cfgfile.obj
 0001:0003b4b0       ?_M_lower_bound@?$_Rb_tree@V?$basic_string@DV?$char_traits@D@_STL@@V?$allocator@D@2@@_STL@@U?$pair@$$CBV?$basic_string@DV?$char_traits@D@_STL@@V?$allocator@D@2@@_STL@@V12@@2@U?$_Select1st@U?$pair@$$CBV?$basic_string@DV?$char_traits@D@_STL@@V?$allocator@D@2@@_STL@@V12@@_STL@@@2@Vci_cmp_pred@@V?$allocator@U?$pair@$$CBV?$basic_string@DV?$char_traits@D@_STL@@V?$allocator@D@2@@_STL@@V12@@_STL@@@2@@_STL@@ABEPAU?$_Rb_tree_node@U?$pair@$$CBV?$basic_string@DV?$char_traits@D@_STL@@V?$allocator@D@2@@_STL@@V12@@_STL@@@2@ABV?$basic_string@DV?$char_traits@D@_STL@@V?$allocator@D@2@@2@@Z 0043c4b0 f i clib:cfgfile.obj
 0001:0003b4f0       ?_M_upper_bound@?$_Rb_tree@V?$basic_string@DV?$char_traits@D@_STL@@V?$allocator@D@2@@_STL@@U?$pair@$$CBV?$basic_string@DV?$char_traits@D@_STL@@V?$allocator@D@2@@_STL@@V12@@2@U?$_Select1st@U?$pair@$$CBV?$basic_string@DV?$char_traits@D@_STL@@V?$allocator@D@2@@_STL@@V12@@_STL@@@2@Vci_cmp_pred@@V?$allocator@U?$pair@$$CBV?$basic_string@DV?$char_traits@D@_STL@@V?$allocator@D@2@@_STL@@V12@@_STL@@@2@@_STL@@ABEPAU?$_Rb_tree_node@U?$pair@$$CBV?$basic_string@DV?$char_traits@D@_STL@@V?$allocator@D@2@@_STL@@V12@@_STL@@@2@ABV?$basic_string@DV?$char_traits@D@_STL@@V?$allocator@D@2@@2@@Z 0043c4f0 f i clib:cfgfile.obj
 0001:0003b530       ??$_M_find@V?$basic_string@DV?$char_traits@D@_STL@@V?$allocator@D@2@@_STL@@@?$_Rb_tree@V?$basic_string@DV?$char_traits@D@_STL@@V?$allocator@D@2@@_STL@@U?$pair@$$CBV?$basic_string@DV?$char_traits@D@_STL@@V?$allocator@D@2@@_STL@@V12@@2@U?$_Select1st@U?$pair@$$CBV?$basic_string@DV?$char_traits@D@_STL@@V?$allocator@D@2@@_STL@@V12@@_STL@@@2@Vci_cmp_pred@@V?$allocator@U?$pair@$$CBV?$basic_string@DV?$char_traits@D@_STL@@V?$allocator@D@2@@_STL@@V12@@_STL@@@2@@_STL@@ABEPAU?$_Rb_tree_node@U?$pair@$$CBV?$basic_string@DV?$char_traits@D@_STL@@V?$allocator@D@2@@_STL@@V12@@_STL@@@1@ABV?$basic_string@DV?$char_traits@D@_STL@@V?$allocator@D@2@@1@@Z 0043c530 f i clib:cfgfile.obj
 0001:0003b590       ??$__destroy@PAPAVConfigProperty@@PAV1@@_STL@@YAXPAPAVConfigProperty@@00@Z 0043c590 f i clib:cfgfile.obj
 0001:0003b5a0       ??$__distance@U?$_Rb_tree_iterator@U?$pair@$$CBV?$basic_string@DV?$char_traits@D@_STL@@V?$allocator@D@2@@_STL@@V12@@_STL@@U?$_Const_traits@U?$pair@$$CBV?$basic_string@DV?$char_traits@D@_STL@@V?$allocator@D@2@@_STL@@V12@@_STL@@@2@@_STL@@@_STL@@YAHABU?$_Rb_tree_iterator@U?$pair@$$CBV?$basic_string@DV?$char_traits@D@_STL@@V?$allocator@D@2@@_STL@@V12@@_STL@@U?$_Const_traits@U?$pair@$$CBV?$basic_string@DV?$char_traits@D@_STL@@V?$allocator@D@2@@_STL@@V12@@_STL@@@2@@0@0ABUinput_iterator_tag@0@@Z 0043c5a0 f i clib:cfgfile.obj
 0001:0003b5d0       ?compare@?$basic_string@DV?$char_traits@D@_STL@@V?$allocator@D@2@@_STL@@QBEHIIPBD@Z 0043c5d0 f i clib:cfgfile.obj
 0001:0003b670       ?begin@?$multimap@V?$basic_string@DV?$char_traits@D@_STL@@V?$allocator@D@2@@_STL@@V12@Vci_cmp_pred@@V?$allocator@U?$pair@$$CBV?$basic_string@DV?$char_traits@D@_STL@@V?$allocator@D@2@@_STL@@V12@@_STL@@@2@@_STL@@QAE?AU?$_Rb_tree_iterator@U?$pair@$$CBV?$basic_string@DV?$char_traits@D@_STL@@V?$allocator@D@2@@_STL@@V12@@_STL@@U?$_Nonconst_traits@U?$pair@$$CBV?$basic_string@DV?$char_traits@D@_STL@@V?$allocator@D@2@@_STL@@V12@@_STL@@@2@@2@XZ 0043c670 f i clib:cfgfile.obj
 0001:0003b680       ?end@?$multimap@V?$basic_string@DV?$char_traits@D@_STL@@V?$allocator@D@2@@_STL@@V12@Vci_cmp_pred@@V?$allocator@U?$pair@$$CBV?$basic_string@DV?$char_traits@D@_STL@@V?$allocator@D@2@@_STL@@V12@@_STL@@@2@@_STL@@QAE?AU?$_Rb_tree_iterator@U?$pair@$$CBV?$basic_string@DV?$char_traits@D@_STL@@V?$allocator@D@2@@_STL@@V12@@_STL@@U?$_Nonconst_traits@U?$pair@$$CBV?$basic_string@DV?$char_traits@D@_STL@@V?$allocator@D@2@@_STL@@V12@@_STL@@@2@@2@XZ 0043c680 f i clib:cfgfile.obj
 0001:0003b690       ?end@?$multimap@V?$basic_string@DV?$char_traits@D@_STL@@V?$allocator@D@2@@_STL@@V12@Vci_cmp_pred@@V?$allocator@U?$pair@$$CBV?$basic_string@DV?$char_traits@D@_STL@@V?$allocator@D@2@@_STL@@V12@@_STL@@@2@@_STL@@QBE?AU?$_Rb_tree_iterator@U?$pair@$$CBV?$basic_string@DV?$char_traits@D@_STL@@V?$allocator@D@2@@_STL@@V12@@_STL@@U?$_Const_traits@U?$pair@$$CBV?$basic_string@DV?$char_traits@D@_STL@@V?$allocator@D@2@@_STL@@V12@@_STL@@@2@@2@XZ 0043c690 f i clib:cfgfile.obj
 0001:0003b6a0       ?begin@?$set@V?$basic_string@DV?$char_traits@D@_STL@@V?$allocator@D@2@@_STL@@Vci_cmp_pred@@V?$allocator@V?$basic_string@DV?$char_traits@D@_STL@@V?$allocator@D@2@@_STL@@@2@@_STL@@QBE?AU?$_Rb_tree_iterator@V?$basic_string@DV?$char_traits@D@_STL@@V?$allocator@D@2@@_STL@@U?$_Const_traits@V?$basic_string@DV?$char_traits@D@_STL@@V?$allocator@D@2@@_STL@@@2@@2@XZ 0043c6a0 f i clib:cfgfile.obj
 0001:0003b6b0       ?end@?$set@V?$basic_string@DV?$char_traits@D@_STL@@V?$allocator@D@2@@_STL@@Vci_cmp_pred@@V?$allocator@V?$basic_string@DV?$char_traits@D@_STL@@V?$allocator@D@2@@_STL@@@2@@_STL@@QBE?AU?$_Rb_tree_iterator@V?$basic_string@DV?$char_traits@D@_STL@@V?$allocator@D@2@@_STL@@U?$_Const_traits@V?$basic_string@DV?$char_traits@D@_STL@@V?$allocator@D@2@@_STL@@@2@@2@XZ 0043c6b0 f i clib:cfgfile.obj
 0001:0003b6c0       ??1?$_Rb_tree_base@U?$pair@$$CBV?$basic_string@DV?$char_traits@D@_STL@@V?$allocator@D@2@@_STL@@V12@@_STL@@V?$allocator@U?$pair@$$CBV?$basic_string@DV?$char_traits@D@_STL@@V?$allocator@D@2@@_STL@@V12@@_STL@@@2@@_STL@@QAE@XZ 0043c6c0 f i clib:cfgfile.obj
 0001:0003b6e0       ??0?$_Rb_tree_base@U?$pair@$$CBV?$basic_string@DV?$char_traits@D@_STL@@V?$allocator@D@2@@_STL@@V12@@_STL@@V?$allocator@U?$pair@$$CBV?$basic_string@DV?$char_traits@D@_STL@@V?$allocator@D@2@@_STL@@V12@@_STL@@@2@@_STL@@QAE@ABV?$allocator@U?$pair@$$CBV?$basic_string@DV?$char_traits@D@_STL@@V?$allocator@D@2@@_STL@@V12@@_STL@@@1@@Z 0043c6e0 f i clib:cfgfile.obj
 0001:0003b710       ??$swap@V?$_STLP_alloc_proxy@PADDV?$allocator@D@_STL@@@_STL@@@_STL@@YAXAAV?$_STLP_alloc_proxy@PADDV?$allocator@D@_STL@@@0@0@Z 0043c710 f i clib:cfgfile.obj
 0001:0003b730       ??$find@V?$basic_string@DV?$char_traits@D@_STL@@V?$allocator@D@2@@_STL@@@?$_Rb_tree@V?$basic_string@DV?$char_traits@D@_STL@@V?$allocator@D@2@@_STL@@U?$pair@$$CBV?$basic_string@DV?$char_traits@D@_STL@@V?$allocator@D@2@@_STL@@V12@@2@U?$_Select1st@U?$pair@$$CBV?$basic_string@DV?$char_traits@D@_STL@@V?$allocator@D@2@@_STL@@V12@@_STL@@@2@Vci_cmp_pred@@V?$allocator@U?$pair@$$CBV?$basic_string@DV?$char_traits@D@_STL@@V?$allocator@D@2@@_STL@@V12@@_STL@@@2@@_STL@@QAE?AU?$_Rb_tree_iterator@U?$pair@$$CBV?$basic_string@DV?$char_traits@D@_STL@@V?$allocator@D@2@@_STL@@V12@@_STL@@U?$_Nonconst_traits@U?$pair@$$CBV?$basic_string@DV?$char_traits@D@_STL@@V?$allocator@D@2@@_STL@@V12@@_STL@@@2@@1@ABV?$basic_string@DV?$char_traits@D@_STL@@V?$allocator@D@2@@1@@Z 0043c730 f i clib:cfgfile.obj
 0001:0003b750       ??$find@V?$basic_string@DV?$char_traits@D@_STL@@V?$allocator@D@2@@_STL@@@?$_Rb_tree@V?$basic_string@DV?$char_traits@D@_STL@@V?$allocator@D@2@@_STL@@U?$pair@$$CBV?$basic_string@DV?$char_traits@D@_STL@@V?$allocator@D@2@@_STL@@V12@@2@U?$_Select1st@U?$pair@$$CBV?$basic_string@DV?$char_traits@D@_STL@@V?$allocator@D@2@@_STL@@V12@@_STL@@@2@Vci_cmp_pred@@V?$allocator@U?$pair@$$CBV?$basic_string@DV?$char_traits@D@_STL@@V?$allocator@D@2@@_STL@@V12@@_STL@@@2@@_STL@@QBE?AU?$_Rb_tree_iterator@U?$pair@$$CBV?$basic_string@DV?$char_traits@D@_STL@@V?$allocator@D@2@@_STL@@V12@@_STL@@U?$_Const_traits@U?$pair@$$CBV?$basic_string@DV?$char_traits@D@_STL@@V?$allocator@D@2@@_STL@@V12@@_STL@@@2@@1@ABV?$basic_string@DV?$char_traits@D@_STL@@V?$allocator@D@2@@1@@Z 0043c750 f i clib:cfgfile.obj
 0001:0003b770       ??$_Destroy@PAPAVConfigProperty@@@_STL@@YAXPAPAVConfigProperty@@0@Z 0043c770 f i clib:cfgfile.obj
 0001:0003b780       ?lower_bound@?$_Rb_tree@V?$basic_string@DV?$char_traits@D@_STL@@V?$allocator@D@2@@_STL@@U?$pair@$$CBV?$basic_string@DV?$char_traits@D@_STL@@V?$allocator@D@2@@_STL@@V12@@2@U?$_Select1st@U?$pair@$$CBV?$basic_string@DV?$char_traits@D@_STL@@V?$allocator@D@2@@_STL@@V12@@_STL@@@2@Vci_cmp_pred@@V?$allocator@U?$pair@$$CBV?$basic_string@DV?$char_traits@D@_STL@@V?$allocator@D@2@@_STL@@V12@@_STL@@@2@@_STL@@QBE?AU?$_Rb_tree_iterator@U?$pair@$$CBV?$basic_string@DV?$char_traits@D@_STL@@V?$allocator@D@2@@_STL@@V12@@_STL@@U?$_Const_traits@U?$pair@$$CBV?$basic_string@DV?$char_traits@D@_STL@@V?$allocator@D@2@@_STL@@V12@@_STL@@@2@@2@ABV?$basic_string@DV?$char_traits@D@_STL@@V?$allocator@D@2@@2@@Z 0043c780 f i clib:cfgfile.obj
 0001:0003b7a0       ?upper_bound@?$_Rb_tree@V?$basic_string@DV?$char_traits@D@_STL@@V?$allocator@D@2@@_STL@@U?$pair@$$CBV?$basic_string@DV?$char_traits@D@_STL@@V?$allocator@D@2@@_STL@@V12@@2@U?$_Select1st@U?$pair@$$CBV?$basic_string@DV?$char_traits@D@_STL@@V?$allocator@D@2@@_STL@@V12@@_STL@@@2@Vci_cmp_pred@@V?$allocator@U?$pair@$$CBV?$basic_string@DV?$char_traits@D@_STL@@V?$allocator@D@2@@_STL@@V12@@_STL@@@2@@_STL@@QBE?AU?$_Rb_tree_iterator@U?$pair@$$CBV?$basic_string@DV?$char_traits@D@_STL@@V?$allocator@D@2@@_STL@@V12@@_STL@@U?$_Const_traits@U?$pair@$$CBV?$basic_string@DV?$char_traits@D@_STL@@V?$allocator@D@2@@_STL@@V12@@_STL@@@2@@2@ABV?$basic_string@DV?$char_traits@D@_STL@@V?$allocator@D@2@@2@@Z 0043c7a0 f i clib:cfgfile.obj
 0001:0003b7c0       ??$distance@U?$_Rb_tree_iterator@U?$pair@$$CBV?$basic_string@DV?$char_traits@D@_STL@@V?$allocator@D@2@@_STL@@V12@@_STL@@U?$_Const_traits@U?$pair@$$CBV?$basic_string@DV?$char_traits@D@_STL@@V?$allocator@D@2@@_STL@@V12@@_STL@@@2@@_STL@@@_STL@@YAHABU?$_Rb_tree_iterator@U?$pair@$$CBV?$basic_string@DV?$char_traits@D@_STL@@V?$allocator@D@2@@_STL@@V12@@_STL@@U?$_Const_traits@U?$pair@$$CBV?$basic_string@DV?$char_traits@D@_STL@@V?$allocator@D@2@@_STL@@V12@@_STL@@@2@@0@0@Z 0043c7c0 f i clib:cfgfile.obj
 0001:0003b7f0       ?commentline@@YA_NABV?$basic_string@DV?$char_traits@D@_STL@@V?$allocator@D@2@@_STL@@@Z 0043c7f0 f   clib:cfgfile.obj
 0001:0003b820       ?swap@?$basic_string@DV?$char_traits@D@_STL@@V?$allocator@D@2@@_STL@@QAEXAAV12@@Z 0043c820 f i clib:cfgfile.obj
 0001:0003b850       ?find@?$multimap@V?$basic_string@DV?$char_traits@D@_STL@@V?$allocator@D@2@@_STL@@V12@Vci_cmp_pred@@V?$allocator@U?$pair@$$CBV?$basic_string@DV?$char_traits@D@_STL@@V?$allocator@D@2@@_STL@@V12@@_STL@@@2@@_STL@@QAE?AU?$_Rb_tree_iterator@U?$pair@$$CBV?$basic_string@DV?$char_traits@D@_STL@@V?$allocator@D@2@@_STL@@V12@@_STL@@U?$_Nonconst_traits@U?$pair@$$CBV?$basic_string@DV?$char_traits@D@_STL@@V?$allocator@D@2@@_STL@@V12@@_STL@@@2@@2@ABV?$basic_string@DV?$char_traits@D@_STL@@V?$allocator@D@2@@2@@Z 0043c850 f i clib:cfgfile.obj
 0001:0003b870       ?find@?$multimap@V?$basic_string@DV?$char_traits@D@_STL@@V?$allocator@D@2@@_STL@@V12@Vci_cmp_pred@@V?$allocator@U?$pair@$$CBV?$basic_string@DV?$char_traits@D@_STL@@V?$allocator@D@2@@_STL@@V12@@_STL@@@2@@_STL@@QBE?AU?$_Rb_tree_iterator@U?$pair@$$CBV?$basic_string@DV?$char_traits@D@_STL@@V?$allocator@D@2@@_STL@@V12@@_STL@@U?$_Const_traits@U?$pair@$$CBV?$basic_string@DV?$char_traits@D@_STL@@V?$allocator@D@2@@_STL@@V12@@_STL@@@2@@2@ABV?$basic_string@DV?$char_traits@D@_STL@@V?$allocator@D@2@@2@@Z 0043c870 f i clib:cfgfile.obj
 0001:0003b890       ??0?$_Rb_tree@V?$basic_string@DV?$char_traits@D@_STL@@V?$allocator@D@2@@_STL@@U?$pair@$$CBV?$basic_string@DV?$char_traits@D@_STL@@V?$allocator@D@2@@_STL@@V12@@2@U?$_Select1st@U?$pair@$$CBV?$basic_string@DV?$char_traits@D@_STL@@V?$allocator@D@2@@_STL@@V12@@_STL@@@2@Vci_cmp_pred@@V?$allocator@U?$pair@$$CBV?$basic_string@DV?$char_traits@D@_STL@@V?$allocator@D@2@@_STL@@V12@@_STL@@@2@@_STL@@QAE@ABVci_cmp_pred@@ABV?$allocator@U?$pair@$$CBV?$basic_string@DV?$char_traits@D@_STL@@V?$allocator@D@2@@_STL@@V12@@_STL@@@1@@Z 0043c890 f i clib:cfgfile.obj
 0001:0003b8d0       ?_M_clear@?$vector@PAVConfigProperty@@V?$allocator@PAVConfigProperty@@@_STL@@@_STL@@IAEXXZ 0043c8d0 f i clib:cfgfile.obj
 0001:0003b900       ?equal_range@?$_Rb_tree@V?$basic_string@DV?$char_traits@D@_STL@@V?$allocator@D@2@@_STL@@U?$pair@$$CBV?$basic_string@DV?$char_traits@D@_STL@@V?$allocator@D@2@@_STL@@V12@@2@U?$_Select1st@U?$pair@$$CBV?$basic_string@DV?$char_traits@D@_STL@@V?$allocator@D@2@@_STL@@V12@@_STL@@@2@Vci_cmp_pred@@V?$allocator@U?$pair@$$CBV?$basic_string@DV?$char_traits@D@_STL@@V?$allocator@D@2@@_STL@@V12@@_STL@@@2@@_STL@@QBE?AU?$pair@U?$_Rb_tree_iterator@U?$pair@$$CBV?$basic_string@DV?$char_traits@D@_STL@@V?$allocator@D@2@@_STL@@V12@@_STL@@U?$_Const_traits@U?$pair@$$CBV?$basic_string@DV?$char_traits@D@_STL@@V?$allocator@D@2@@_STL@@V12@@_STL@@@2@@_STL@@U12@@2@ABV?$basic_string@DV?$char_traits@D@_STL@@V?$allocator@D@2@@2@@Z 0043c900 f i clib:cfgfile.obj
 0001:0003b930       ?display_error@StubConfigSource@@UBEXABV?$basic_string@DV?$char_traits@D@_STL@@V?$allocator@D@2@@_STL@@_NPBVConfigElemBase@@1@Z 0043c930 f   clib:cfgfile.obj
 0001:0003b990       ?_M_insert_overflow@?$vector@PAVConfigProperty@@V?$allocator@PAVConfigProperty@@@_STL@@@_STL@@IAEXPAPAVConfigProperty@@ABQAV3@ABU__true_type@2@I_N@Z 0043c990 f i clib:cfgfile.obj
 0001:0003baa0       ?count@?$_Rb_tree@V?$basic_string@DV?$char_traits@D@_STL@@V?$allocator@D@2@@_STL@@U?$pair@$$CBV?$basic_string@DV?$char_traits@D@_STL@@V?$allocator@D@2@@_STL@@V12@@2@U?$_Select1st@U?$pair@$$CBV?$basic_string@DV?$char_traits@D@_STL@@V?$allocator@D@2@@_STL@@V12@@_STL@@@2@Vci_cmp_pred@@V?$allocator@U?$pair@$$CBV?$basic_string@DV?$char_traits@D@_STL@@V?$allocator@D@2@@_STL@@V12@@_STL@@@2@@_STL@@QBEIABV?$basic_string@DV?$char_traits@D@_STL@@V?$allocator@D@2@@2@@Z 0043caa0 f i clib:cfgfile.obj
 0001:0003bae0       ??$_M_find@PBD@?$_Rb_tree@V?$basic_string@DV?$char_traits@D@_STL@@V?$allocator@D@2@@_STL@@V12@U?$_Identity@V?$basic_string@DV?$char_traits@D@_STL@@V?$allocator@D@2@@_STL@@@2@Vci_cmp_pred@@V?$allocator@V?$basic_string@DV?$char_traits@D@_STL@@V?$allocator@D@2@@_STL@@@2@@_STL@@ABEPAU?$_Rb_tree_node@V?$basic_string@DV?$char_traits@D@_STL@@V?$allocator@D@2@@_STL@@@1@ABQBD@Z 0043cae0 f i clib:cfgfile.obj
 0001:0003bc00       ??0ConfigProperty@@QAE@PBD0@Z 0043cc00 f   clib:cfgfile.obj
 0001:0003bc60       ??0ConfigProperty@@QAE@PAV?$basic_string@DV?$char_traits@D@_STL@@V?$allocator@D@2@@_STL@@0@Z 0043cc60 f   clib:cfgfile.obj
 0001:0003bd00       ??1ConfigProperty@@QAE@XZ  0043cd00 f   clib:cfgfile.obj
 0001:0003bda0       ??0ConfigElemBase@@IAE@XZ  0043cda0 f   clib:cfgfile.obj
 0001:0003be10       ??1ConfigElemBase@@QAE@XZ  0043ce10 f i clib:cfgfile.obj
 0001:0003beb0       ??_GConfigProperty@@QAEPAXI@Z 0043ceb0 f i clib:cfgfile.obj
 0001:0003bed0       ?remove_prop@VectorConfigElem@@QAE_NPBDPAK@Z 0043ced0 f   clib:cfgfile.obj
 0001:0003bf60       ?throw_error@ConfigElem@@QBEXABV?$basic_string@DV?$char_traits@D@_STL@@V?$allocator@D@2@@_STL@@@Z 0043cf60 f   clib:cfgfile.obj
 0001:0003bfe0       ?throw_error@VectorConfigElem@@QBEXABV?$basic_string@DV?$char_traits@D@_STL@@V?$allocator@D@2@@_STL@@@Z 0043cfe0 f   clib:cfgfile.obj
 0001:0003c060       ??1?$pair@V?$basic_string@DV?$char_traits@D@_STL@@V?$allocator@D@2@@_STL@@V12@@_STL@@QAE@XZ 0043d060 f i clib:cfgfile.obj
 0001:0003c100       ??1?$pair@$$CBV?$basic_string@DV?$char_traits@D@_STL@@V?$allocator@D@2@@_STL@@V12@@_STL@@QAE@XZ 0043d100 f i clib:cfgfile.obj
 0001:0003c1a0       ?display_error@ConfigFile@@MBEXABV?$basic_string@DV?$char_traits@D@_STL@@V?$allocator@D@2@@_STL@@_NPBVConfigElemBase@@1@Z 0043d1a0 f   clib:cfgfile.obj
 0001:0003c310       ?display_and_rethrow_exception@ConfigFile@@IAEXXZ 0043d310 f   clib:cfgfile.obj
 0001:0003c450       ?count@?$multimap@V?$basic_string@DV?$char_traits@D@_STL@@V?$allocator@D@2@@_STL@@V12@Vci_cmp_pred@@V?$allocator@U?$pair@$$CBV?$basic_string@DV?$char_traits@D@_STL@@V?$allocator@D@2@@_STL@@V12@@_STL@@@2@@_STL@@QBEIABV?$basic_string@DV?$char_traits@D@_STL@@V?$allocator@D@2@@2@@Z 0043d450 f i clib:cfgfile.obj
 0001:0003c490       ?push_back@?$vector@PAVConfigProperty@@V?$allocator@PAVConfigProperty@@@_STL@@@_STL@@QAEXABQAVConfigProperty@@@Z 0043d490 f i clib:cfgfile.obj
 0001:0003c4d0       ??$?0V?$basic_string@DV?$char_traits@D@_STL@@V?$allocator@D@2@@_STL@@V01@@?$pair@$$CBV?$basic_string@DV?$char_traits@D@_STL@@V?$allocator@D@2@@_STL@@V12@@_STL@@QAE@ABU?$pair@V?$basic_string@DV?$char_traits@D@_STL@@V?$allocator@D@2@@_STL@@V12@@1@@Z 0043d4d0 f i clib:cfgfile.obj
 0001:0003c530       ??_G?$pair@$$CBV?$basic_string@DV?$char_traits@D@_STL@@V?$allocator@D@2@@_STL@@V12@@_STL@@QAEPAXI@Z 0043d530 f i clib:cfgfile.obj
 0001:0003c550       ??0?$pair@V?$basic_string@DV?$char_traits@D@_STL@@V?$allocator@D@2@@_STL@@V12@@_STL@@QAE@ABV?$basic_string@DV?$char_traits@D@_STL@@V?$allocator@D@2@@1@0@Z 0043d550 f i clib:cfgfile.obj
 0001:0003c5a0       ??$find@PBD@?$_Rb_tree@V?$basic_string@DV?$char_traits@D@_STL@@V?$allocator@D@2@@_STL@@V12@U?$_Identity@V?$basic_string@DV?$char_traits@D@_STL@@V?$allocator@D@2@@_STL@@@2@Vci_cmp_pred@@V?$allocator@V?$basic_string@DV?$char_traits@D@_STL@@V?$allocator@D@2@@_STL@@@2@@_STL@@QBE?AU?$_Rb_tree_iterator@V?$basic_string@DV?$char_traits@D@_STL@@V?$allocator@D@2@@_STL@@U?$_Const_traits@V?$basic_string@DV?$char_traits@D@_STL@@V?$allocator@D@2@@_STL@@@2@@1@ABQBD@Z 0043d5a0 f i clib:cfgfile.obj
 0001:0003c5c0       ??0?$pair@$$CBV?$basic_string@DV?$char_traits@D@_STL@@V?$allocator@D@2@@_STL@@V12@@_STL@@QAE@ABU01@@Z 0043d5c0 f i clib:cfgfile.obj
 0001:0003c620       ??0ConfigProperty@@QAE@ABV?$basic_string@DV?$char_traits@D@_STL@@V?$allocator@D@2@@_STL@@0@Z 0043d620 f   clib:cfgfile.obj
 0001:0003c670       ?has_prop@ConfigElem@@QBE_NPBD@Z 0043d670 f   clib:cfgfile.obj
 0001:0003c730       ?get_prop@ConfigElem@@QBEXPBDPAK@Z 0043d730 f   clib:cfgfile.obj
 0001:0003c800       ?add_prop@VectorConfigElem@@QAEXPBD0@Z 0043d800 f   clib:cfgfile.obj
 0001:0003c8a0       ??$make_pair@V?$basic_string@DV?$char_traits@D@_STL@@V?$allocator@D@2@@_STL@@V12@@_STL@@YA?AU?$pair@V?$basic_string@DV?$char_traits@D@_STL@@V?$allocator@D@2@@_STL@@V12@@0@ABV?$basic_string@DV?$char_traits@D@_STL@@V?$allocator@D@2@@0@0@Z 0043d8a0 f i clib:cfgfile.obj
 0001:0003c900       ??$find@PBD@?$set@V?$basic_string@DV?$char_traits@D@_STL@@V?$allocator@D@2@@_STL@@Vci_cmp_pred@@V?$allocator@V?$basic_string@DV?$char_traits@D@_STL@@V?$allocator@D@2@@_STL@@@2@@_STL@@QBE?AU?$_Rb_tree_iterator@V?$basic_string@DV?$char_traits@D@_STL@@V?$allocator@D@2@@_STL@@U?$_Const_traits@V?$basic_string@DV?$char_traits@D@_STL@@V?$allocator@D@2@@_STL@@@2@@1@ABQBD@Z 0043d900 f i clib:cfgfile.obj
 0001:0003c920       ??$_Destroy@U?$pair@$$CBV?$basic_string@DV?$char_traits@D@_STL@@V?$allocator@D@2@@_STL@@V12@@_STL@@@_STL@@YAXPAU?$pair@$$CBV?$basic_string@DV?$char_traits@D@_STL@@V?$allocator@D@2@@_STL@@V12@@0@@Z 0043d920 f i clib:cfgfile.obj
 0001:0003c930       ??$_Construct@U?$pair@$$CBV?$basic_string@DV?$char_traits@D@_STL@@V?$allocator@D@2@@_STL@@V12@@_STL@@U12@@_STL@@YAXPAU?$pair@$$CBV?$basic_string@DV?$char_traits@D@_STL@@V?$allocator@D@2@@_STL@@V12@@0@ABU10@@Z 0043d930 f i clib:cfgfile.obj
 0001:0003c980       ?erase@?$_Rb_tree@V?$basic_string@DV?$char_traits@D@_STL@@V?$allocator@D@2@@_STL@@U?$pair@$$CBV?$basic_string@DV?$char_traits@D@_STL@@V?$allocator@D@2@@_STL@@V12@@2@U?$_Select1st@U?$pair@$$CBV?$basic_string@DV?$char_traits@D@_STL@@V?$allocator@D@2@@_STL@@V12@@_STL@@@2@Vci_cmp_pred@@V?$allocator@U?$pair@$$CBV?$basic_string@DV?$char_traits@D@_STL@@V?$allocator@D@2@@_STL@@V12@@_STL@@@2@@_STL@@QAEXU?$_Rb_tree_iterator@U?$pair@$$CBV?$basic_string@DV?$char_traits@D@_STL@@V?$allocator@D@2@@_STL@@V12@@_STL@@U?$_Nonconst_traits@U?$pair@$$CBV?$basic_string@DV?$char_traits@D@_STL@@V?$allocator@D@2@@_STL@@V12@@_STL@@@2@@2@@Z 0043d980 f i clib:cfgfile.obj
 0001:0003c9d0       ?_M_erase@?$_Rb_tree@V?$basic_string@DV?$char_traits@D@_STL@@V?$allocator@D@2@@_STL@@U?$pair@$$CBV?$basic_string@DV?$char_traits@D@_STL@@V?$allocator@D@2@@_STL@@V12@@2@U?$_Select1st@U?$pair@$$CBV?$basic_string@DV?$char_traits@D@_STL@@V?$allocator@D@2@@_STL@@V12@@_STL@@@2@Vci_cmp_pred@@V?$allocator@U?$pair@$$CBV?$basic_string@DV?$char_traits@D@_STL@@V?$allocator@D@2@@_STL@@V12@@_STL@@@2@@_STL@@AAEXPAU?$_Rb_tree_node@U?$pair@$$CBV?$basic_string@DV?$char_traits@D@_STL@@V?$allocator@D@2@@_STL@@V12@@_STL@@@2@@Z 0043d9d0 f i clib:cfgfile.obj
 0001:0003ca10       ?_M_create_node@?$_Rb_tree@V?$basic_string@DV?$char_traits@D@_STL@@V?$allocator@D@2@@_STL@@U?$pair@$$CBV?$basic_string@DV?$char_traits@D@_STL@@V?$allocator@D@2@@_STL@@V12@@2@U?$_Select1st@U?$pair@$$CBV?$basic_string@DV?$char_traits@D@_STL@@V?$allocator@D@2@@_STL@@V12@@_STL@@@2@Vci_cmp_pred@@V?$allocator@U?$pair@$$CBV?$basic_string@DV?$char_traits@D@_STL@@V?$allocator@D@2@@_STL@@V12@@_STL@@@2@@_STL@@IAEPAU?$_Rb_tree_node@U?$pair@$$CBV?$basic_string@DV?$char_traits@D@_STL@@V?$allocator@D@2@@_STL@@V12@@_STL@@@2@ABU?$pair@$$CBV?$basic_string@DV?$char_traits@D@_STL@@V?$allocator@D@2@@_STL@@V12@@2@@Z 0043da10 f i clib:cfgfile.obj
 0001:0003caa0       ?set_rest@ConfigElem@@QAEXPBD@Z 0043daa0 f   clib:cfgfile.obj
 0001:0003cad0       ?set_type@ConfigElem@@QAEXPBD@Z 0043dad0 f   clib:cfgfile.obj
 0001:0003cb00       ?remove_prop@VectorConfigElem@@QAE_NPBDPAV?$basic_string@DV?$char_traits@D@_STL@@V?$allocator@D@2@@_STL@@@Z 0043db00 f   clib:cfgfile.obj
 0001:0003cb90       ?read_prop@ConfigElem@@QBE_NPBDPAV?$basic_string@DV?$char_traits@D@_STL@@V?$allocator@D@2@@_STL@@@Z 0043db90 f   clib:cfgfile.obj
 0001:0003cc20       ?read_prop@VectorConfigElem@@QBE_NPBDPAV?$basic_string@DV?$char_traits@D@_STL@@V?$allocator@D@2@@_STL@@@Z 0043dc20 f   clib:cfgfile.obj
 0001:0003cc80       ?remove_prop@VectorConfigElem@@QAE_NPBDPAG@Z 0043dc80 f   clib:cfgfile.obj
 0001:0003ce30       ?prop_not_found@ConfigElem@@IBEXPBD@Z 0043de30 f   clib:cfgfile.obj
 0001:0003cec0       ?read_string@ConfigElem@@QBE?AV?$basic_string@DV?$char_traits@D@_STL@@V?$allocator@D@2@@_STL@@PBD@Z 0043dec0 f   clib:cfgfile.obj
 0001:0003cf90       ?read_string@ConfigElem@@QBE?AV?$basic_string@DV?$char_traits@D@_STL@@V?$allocator@D@2@@_STL@@PBD0@Z 0043df90 f   clib:cfgfile.obj
 0001:0003d060       ?remove_first_prop@VectorConfigElem@@QAE_NPAV?$basic_string@DV?$char_traits@D@_STL@@V?$allocator@D@2@@_STL@@0@Z 0043e060 f   clib:cfgfile.obj
 0001:0003d0f0       ?open@ConfigFile@@QAEXPBD@Z 0043e0f0 f   clib:cfgfile.obj
 0001:0003d200       ?readline@ConfigFile@@IAE_NAAV?$basic_string@DV?$char_traits@D@_STL@@V?$allocator@D@2@@_STL@@@Z 0043e200 f   clib:cfgfile.obj
 0001:0003d2f0       ?erase@?$multimap@V?$basic_string@DV?$char_traits@D@_STL@@V?$allocator@D@2@@_STL@@V12@Vci_cmp_pred@@V?$allocator@U?$pair@$$CBV?$basic_string@DV?$char_traits@D@_STL@@V?$allocator@D@2@@_STL@@V12@@_STL@@@2@@_STL@@QAEXU?$_Rb_tree_iterator@U?$pair@$$CBV?$basic_string@DV?$char_traits@D@_STL@@V?$allocator@D@2@@_STL@@V12@@_STL@@U?$_Nonconst_traits@U?$pair@$$CBV?$basic_string@DV?$char_traits@D@_STL@@V?$allocator@D@2@@_STL@@V12@@_STL@@@2@@2@@Z 0043e2f0 f i clib:cfgfile.obj
 0001:0003d340       ?clear@?$_Rb_tree@V?$basic_string@DV?$char_traits@D@_STL@@V?$allocator@D@2@@_STL@@U?$pair@$$CBV?$basic_string@DV?$char_traits@D@_STL@@V?$allocator@D@2@@_STL@@V12@@2@U?$_Select1st@U?$pair@$$CBV?$basic_string@DV?$char_traits@D@_STL@@V?$allocator@D@2@@_STL@@V12@@_STL@@@2@Vci_cmp_pred@@V?$allocator@U?$pair@$$CBV?$basic_string@DV?$char_traits@D@_STL@@V?$allocator@D@2@@_STL@@V12@@_STL@@@2@@_STL@@QAEXXZ 0043e340 f i clib:cfgfile.obj
 0001:0003d380       ?_M_insert@?$_Rb_tree@V?$basic_string@DV?$char_traits@D@_STL@@V?$allocator@D@2@@_STL@@U?$pair@$$CBV?$basic_string@DV?$char_traits@D@_STL@@V?$allocator@D@2@@_STL@@V12@@2@U?$_Select1st@U?$pair@$$CBV?$basic_string@DV?$char_traits@D@_STL@@V?$allocator@D@2@@_STL@@V12@@_STL@@@2@Vci_cmp_pred@@V?$allocator@U?$pair@$$CBV?$basic_string@DV?$char_traits@D@_STL@@V?$allocator@D@2@@_STL@@V12@@_STL@@@2@@_STL@@AAE?AU?$_Rb_tree_iterator@U?$pair@$$CBV?$basic_string@DV?$char_traits@D@_STL@@V?$allocator@D@2@@_STL@@V12@@_STL@@U?$_Nonconst_traits@U?$pair@$$CBV?$basic_string@DV?$char_traits@D@_STL@@V?$allocator@D@2@@_STL@@V12@@_STL@@@2@@2@PAU_Rb_tree_node_base@2@0ABU?$pair@$$CBV?$basic_string@DV?$char_traits@D@_STL@@V?$allocator@D@2@@_STL@@V12@@2@0@Z 0043e380 f i clib:cfgfile.obj
 0001:0003d430       ?remove_first_prop@ConfigElem@@QAE_NPAV?$basic_string@DV?$char_traits@D@_STL@@V?$allocator@D@2@@_STL@@0@Z 0043e430 f   clib:cfgfile.obj
 0001:0003d4c0       ?remove_prop@ConfigElem@@QAE_NPBDPAV?$basic_string@DV?$char_traits@D@_STL@@V?$allocator@D@2@@_STL@@@Z 0043e4c0 f   clib:cfgfile.obj
 0001:0003d580       ?remove_prop@ConfigElem@@QAE_NPBDPAK@Z 0043e580 f   clib:cfgfile.obj
 0001:0003d640       ?remove_prop@ConfigElem@@QAE_NPBDPAG@Z 0043e640 f   clib:cfgfile.obj
 0001:0003d800       ?remove_ushort@ConfigElem@@QAEGPBD@Z 0043e800 f   clib:cfgfile.obj
 0001:0003d830       ?remove_ushort@ConfigElem@@QAEGPBDG@Z 0043e830 f   clib:cfgfile.obj
 0001:0003d850       ?remove_int@ConfigElem@@QAEHPBDH@Z 0043e850 f   clib:cfgfile.obj
 0001:0003d960       ?remove_unsigned@ConfigElem@@QAEIPBDH@Z 0043e960 f   clib:cfgfile.obj
 0001:0003da70       ?remove_string@ConfigElem@@QAE?AV?$basic_string@DV?$char_traits@D@_STL@@V?$allocator@D@2@@_STL@@PBD@Z 0043ea70 f   clib:cfgfile.obj
 0001:0003db40       ?remove_string@ConfigElem@@QAE?AV?$basic_string@DV?$char_traits@D@_STL@@V?$allocator@D@2@@_STL@@PBD0@Z 0043eb40 f   clib:cfgfile.obj
 0001:0003dc10       ?remove_bool@ConfigElem@@QAE_NPBD@Z 0043ec10 f   clib:cfgfile.obj
 0001:0003dc40       ?remove_bool@ConfigElem@@QAE_NPBD_N@Z 0043ec40 f   clib:cfgfile.obj
 0001:0003dc70       ?remove_float@ConfigElem@@QAEMPBDM@Z 0043ec70 f   clib:cfgfile.obj
 0001:0003dd80       ?remove_double@ConfigElem@@QAENPBDN@Z 0043ed80 f   clib:cfgfile.obj
 0001:0003de30       ?remove_ulong@ConfigElem@@QAEKPBD@Z 0043ee30 f   clib:cfgfile.obj
 0001:0003de60       ?remove_ulong@ConfigElem@@QAEKPBDK@Z 0043ee60 f   clib:cfgfile.obj
 0001:0003de80       ?clear_prop@ConfigElem@@QAEXPBD@Z 0043ee80 f   clib:cfgfile.obj
 0001:0003dea0       ??1ConfigFile@@UAE@XZ      0043eea0 f   clib:cfgfile.obj
 0001:0003df30       ?clear@?$multimap@V?$basic_string@DV?$char_traits@D@_STL@@V?$allocator@D@2@@_STL@@V12@Vci_cmp_pred@@V?$allocator@U?$pair@$$CBV?$basic_string@DV?$char_traits@D@_STL@@V?$allocator@D@2@@_STL@@V12@@_STL@@@2@@_STL@@QAEXXZ 0043ef30 f i clib:cfgfile.obj
 0001:0003df70       ??1?$_Rb_tree@V?$basic_string@DV?$char_traits@D@_STL@@V?$allocator@D@2@@_STL@@U?$pair@$$CBV?$basic_string@DV?$char_traits@D@_STL@@V?$allocator@D@2@@_STL@@V12@@2@U?$_Select1st@U?$pair@$$CBV?$basic_string@DV?$char_traits@D@_STL@@V?$allocator@D@2@@_STL@@V12@@_STL@@@2@Vci_cmp_pred@@V?$allocator@U?$pair@$$CBV?$basic_string@DV?$char_traits@D@_STL@@V?$allocator@D@2@@_STL@@V12@@_STL@@@2@@_STL@@QAE@XZ 0043ef70 f i clib:cfgfile.obj
 0001:0003dff0       ?insert_equal@?$_Rb_tree@V?$basic_string@DV?$char_traits@D@_STL@@V?$allocator@D@2@@_STL@@U?$pair@$$CBV?$basic_string@DV?$char_traits@D@_STL@@V?$allocator@D@2@@_STL@@V12@@2@U?$_Select1st@U?$pair@$$CBV?$basic_string@DV?$char_traits@D@_STL@@V?$allocator@D@2@@_STL@@V12@@_STL@@@2@Vci_cmp_pred@@V?$allocator@U?$pair@$$CBV?$basic_string@DV?$char_traits@D@_STL@@V?$allocator@D@2@@_STL@@V12@@_STL@@@2@@_STL@@QAE?AU?$_Rb_tree_iterator@U?$pair@$$CBV?$basic_string@DV?$char_traits@D@_STL@@V?$allocator@D@2@@_STL@@V12@@_STL@@U?$_Nonconst_traits@U?$pair@$$CBV?$basic_string@DV?$char_traits@D@_STL@@V?$allocator@D@2@@_STL@@V12@@_STL@@@2@@2@ABU?$pair@$$CBV?$basic_string@DV?$char_traits@D@_STL@@V?$allocator@D@2@@_STL@@V12@@2@@Z 0043eff0 f i clib:cfgfile.obj
 0001:0003e040       ??1?$multimap@V?$basic_string@DV?$char_traits@D@_STL@@V?$allocator@D@2@@_STL@@V12@Vci_cmp_pred@@V?$allocator@U?$pair@$$CBV?$basic_string@DV?$char_traits@D@_STL@@V?$allocator@D@2@@_STL@@V12@@_STL@@@2@@_STL@@QAE@XZ 0043f040 f i clib:cfgfile.obj
 0001:0003e050       ??1ConfigElem@@QAE@XZ      0043f050 f   clib:cfgfile.obj
 0001:0003e0a0       ?remove_int@ConfigElem@@QAEHPBD@Z 0043f0a0 f   clib:cfgfile.obj
 0001:0003e100       ?remove_unsigned@ConfigElem@@QAEIPBD@Z 0043f100 f   clib:cfgfile.obj
 0001:0003e160       ??_GConfigFile@@UAEPAXI@Z  0043f160 f i clib:cfgfile.obj
 0001:0003e160       ??_EConfigFile@@UAEPAXI@Z  0043f160 f i clib:cfgfile.obj
 0001:0003e180       ??0?$multimap@V?$basic_string@DV?$char_traits@D@_STL@@V?$allocator@D@2@@_STL@@V12@Vci_cmp_pred@@V?$allocator@U?$pair@$$CBV?$basic_string@DV?$char_traits@D@_STL@@V?$allocator@D@2@@_STL@@V12@@_STL@@@2@@_STL@@QAE@XZ 0043f180 f i clib:cfgfile.obj
 0001:0003e1c0       ?insert@?$multimap@V?$basic_string@DV?$char_traits@D@_STL@@V?$allocator@D@2@@_STL@@V12@Vci_cmp_pred@@V?$allocator@U?$pair@$$CBV?$basic_string@DV?$char_traits@D@_STL@@V?$allocator@D@2@@_STL@@V12@@_STL@@@2@@_STL@@QAE?AU?$_Rb_tree_iterator@U?$pair@$$CBV?$basic_string@DV?$char_traits@D@_STL@@V?$allocator@D@2@@_STL@@V12@@_STL@@U?$_Nonconst_traits@U?$pair@$$CBV?$basic_string@DV?$char_traits@D@_STL@@V?$allocator@D@2@@_STL@@V12@@_STL@@@2@@2@ABU?$pair@$$CBV?$basic_string@DV?$char_traits@D@_STL@@V?$allocator@D@2@@_STL@@V12@@2@@Z 0043f1c0 f i clib:cfgfile.obj
 0001:0003e1e0       ??0ConfigElem@@QAE@XZ      0043f1e0 f   clib:cfgfile.obj
 0001:0003e250       ?add_prop@ConfigElem@@QAEXPBD0@Z 0043f250 f   clib:cfgfile.obj
 0001:0003e390       ?add_prop@ConfigElem@@QAEXPBDG@Z 0043f390 f   clib:cfgfile.obj
 0001:0003e540       ?add_prop@VectorConfigElem@@QAEXPBDG@Z 0043f540 f   clib:cfgfile.obj
 0001:0003e700       ?add_prop@ConfigElem@@QAEXPBDK@Z 0043f700 f   clib:cfgfile.obj
 0001:0003e8b0       ?add_prop@VectorConfigElem@@QAEXPBDK@Z 0043f8b0 f   clib:cfgfile.obj
 0001:0003ea70       ?init@ConfigFile@@IAEXPBD0@Z 0043fa70 f   clib:cfgfile.obj
 0001:0003ec30       ?read_properties@ConfigFile@@IAE_NAAVConfigElem@@@Z 0043fc30 f   clib:cfgfile.obj
 0001:0003ef70       ?read_properties@ConfigFile@@IAE_NAAVVectorConfigElem@@@Z 0043ff70 f   clib:cfgfile.obj
 0001:0003f270       ?_read@ConfigFile@@IAE_NAAVConfigElem@@@Z 00440270 f   clib:cfgfile.obj
 0001:0003f770       ?_read@ConfigFile@@IAE_NAAVVectorConfigElem@@@Z 00440770 f   clib:cfgfile.obj
 0001:0003fc70       ?read@ConfigFile@@QAE_NAAVConfigElem@@@Z 00440c70 f   clib:cfgfile.obj
 0001:0003fcd0       ?readraw@ConfigFile@@QAEXAAVConfigElem@@@Z 00440cd0 f   clib:cfgfile.obj
 0001:0003fd70       ??0ConfigFile@@QAE@PBD0@Z  00440d70 f   clib:cfgfile.obj
 0001:0003fe10       ??0ConfigFile@@QAE@ABV?$basic_string@DV?$char_traits@D@_STL@@V?$allocator@D@2@@_STL@@PBD@Z 00440e10 f   clib:cfgfile.obj
 0001:0003fec0       ?setf@ios_base@_STL@@QAEHHH@Z 00440ec0 f i clib:strutil.obj
 0001:0003fee0       ?hex@_STL@@YAAAVios_base@1@AAV21@@Z 00440ee0 f i clib:strutil.obj
 0001:0003ff00       ??0UnitTest@@QAE@P6AXXZ@Z  00440f00 f i clib:strutil.obj
 0001:0003ff10       ??6?$basic_ostream@DV?$char_traits@D@_STL@@@_STL@@QAEAAV01@P6AAAVios_base@1@AAV21@@Z@Z 00440f10 f i clib:strutil.obj
 0001:0003ff40       ??0?$_Not_within_traits@V?$char_traits@D@_STL@@@_STL@@QAE@PBD0@Z 00440f40 f i clib:strutil.obj
 0001:0003ff60       ??$?GPBD@_STL@@YAHABV?$reverse_iterator@PBD@0@0@Z 00440f60 f i clib:strutil.obj
 0001:0003ff70       ?mklower@@YAXAAV?$basic_string@DV?$char_traits@D@_STL@@V?$allocator@D@2@@_STL@@@Z 00440f70 f   clib:strutil.obj
 0001:0003ffa0       ?mkupper@@YAXAAV?$basic_string@DV?$char_traits@D@_STL@@V?$allocator@D@2@@_STL@@@Z 00440fa0 f   clib:strutil.obj
 0001:0003ffd0       ??$__find_first_of@PBDPBDU?$_Eq_traits@V?$char_traits@D@_STL@@@_STL@@@_STL@@YAPBDPBD000U?$_Eq_traits@V?$char_traits@D@_STL@@@0@@Z 00440fd0 f i clib:strutil.obj
 0001:00040010       ?find_first_of@?$basic_string@DV?$char_traits@D@_STL@@V?$allocator@D@2@@_STL@@QBEIPBDII@Z 00441010 f i clib:strutil.obj
 0001:00040060       ?find_first_of@?$basic_string@DV?$char_traits@D@_STL@@V?$allocator@D@2@@_STL@@QBEIPBDI@Z 00441060 f i clib:strutil.obj
 0001:000400c0       ??R?$_Not_within_traits@V?$char_traits@D@_STL@@@_STL@@QBE_NABD@Z 004410c0 f i clib:strutil.obj
 0001:000400f0       ??$__find_if@PBDU?$_Not_within_traits@V?$char_traits@D@_STL@@@_STL@@@_STL@@YAPBDPBD0U?$_Not_within_traits@V?$char_traits@D@_STL@@@0@ABUrandom_access_iterator_tag@0@@Z 004410f0 f i clib:strutil.obj
 0001:00040230       ??$__find_if@V?$reverse_iterator@PBD@_STL@@U?$_Not_within_traits@V?$char_traits@D@_STL@@@2@@_STL@@YA?AV?$reverse_iterator@PBD@0@V10@0U?$_Not_within_traits@V?$char_traits@D@_STL@@@0@ABUrandom_access_iterator_tag@0@@Z 00441230 f i clib:strutil.obj
 0001:000403c0       ??$find_if@PBDU?$_Not_within_traits@V?$char_traits@D@_STL@@@_STL@@@_STL@@YAPBDPBD0U?$_Not_within_traits@V?$char_traits@D@_STL@@@0@@Z 004413c0 f i clib:strutil.obj
 0001:000403f0       ??$find_if@V?$reverse_iterator@PBD@_STL@@U?$_Not_within_traits@V?$char_traits@D@_STL@@@2@@_STL@@YA?AV?$reverse_iterator@PBD@0@V10@0U?$_Not_within_traits@V?$char_traits@D@_STL@@@0@@Z 004413f0 f i clib:strutil.obj
 0001:00040430       ?strlower@@YA?AV?$basic_string@DV?$char_traits@D@_STL@@V?$allocator@D@2@@_STL@@ABV12@@Z 00441430 f   clib:strutil.obj
 0001:00040500       ?strupper@@YA?AV?$basic_string@DV?$char_traits@D@_STL@@V?$allocator@D@2@@_STL@@ABV12@@Z 00441500 f   clib:strutil.obj
 0001:000405d0       ?find_first_not_of@?$basic_string@DV?$char_traits@D@_STL@@V?$allocator@D@2@@_STL@@QBEIPBDII@Z 004415d0 f i clib:strutil.obj
 0001:00040620       ?find_last_not_of@?$basic_string@DV?$char_traits@D@_STL@@V?$allocator@D@2@@_STL@@QBEIPBDII@Z 00441620 f i clib:strutil.obj
 0001:000406a0       ?find_first_not_of@?$basic_string@DV?$char_traits@D@_STL@@V?$allocator@D@2@@_STL@@QBEIPBDI@Z 004416a0 f i clib:strutil.obj
 0001:00040700       ?find_last_not_of@?$basic_string@DV?$char_traits@D@_STL@@V?$allocator@D@2@@_STL@@QBEIPBDI@Z 00441700 f i clib:strutil.obj
 0001:00040730       ?decodequotedstring@@YAXAAV?$basic_string@DV?$char_traits@D@_STL@@V?$allocator@D@2@@_STL@@@Z 00441730 f   clib:strutil.obj
 0001:000408c0       ?encodequotedstring@@YAXAAV?$basic_string@DV?$char_traits@D@_STL@@V?$allocator@D@2@@_STL@@@Z 004418c0 f   clib:strutil.obj
 0001:00040a10       ?getencodedquotedstring@@YA?AV?$basic_string@DV?$char_traits@D@_STL@@V?$allocator@D@2@@_STL@@ABV12@@Z 00441a10 f   clib:strutil.obj
 0001:00040ac0       ?test_dqs@@YAXABV?$basic_string@DV?$char_traits@D@_STL@@V?$allocator@D@2@@_STL@@0@Z 00441ac0 f   clib:strutil.obj
 0001:00040c10       ?test_convertquotedstring@@YAXXZ 00441c10 f   clib:strutil.obj
 0001:00040ee0       ?splitnamevalue@@YAXABV?$basic_string@DV?$char_traits@D@_STL@@V?$allocator@D@2@@_STL@@AAV12@1@Z 00441ee0 f   clib:strutil.obj
 0001:000410f0       ?test_splitnamevalue@@YAXABV?$basic_string@DV?$char_traits@D@_STL@@V?$allocator@D@2@@_STL@@00@Z 004420f0 f   clib:strutil.obj
 0001:00041240       ?test_splitnamevalue@@YAXXZ 00442240 f   clib:strutil.obj
 0001:00041cc0       ?hexint@@YA?AV?$basic_string@DV?$char_traits@D@_STL@@V?$allocator@D@2@@_STL@@G@Z 00442cc0 f   clib:strutil.obj
 0001:00041d90       ?hexint@@YA?AV?$basic_string@DV?$char_traits@D@_STL@@V?$allocator@D@2@@_STL@@H@Z 00442d90 f   clib:strutil.obj
 0001:00041e60       ?hexint@@YA?AV?$basic_string@DV?$char_traits@D@_STL@@V?$allocator@D@2@@_STL@@I@Z 00442e60 f   clib:strutil.obj
 0001:00041f30       ?hexint@@YA?AV?$basic_string@DV?$char_traits@D@_STL@@V?$allocator@D@2@@_STL@@J@Z 00442f30 f   clib:strutil.obj
 0001:00042000       ?hexint@@YA?AV?$basic_string@DV?$char_traits@D@_STL@@V?$allocator@D@2@@_STL@@K@Z 00443000 f   clib:strutil.obj
 0001:000420d0       ?decint@@YA?AV?$basic_string@DV?$char_traits@D@_STL@@V?$allocator@D@2@@_STL@@G@Z 004430d0 f   clib:strutil.obj
 0001:00042180       ?decint@@YA?AV?$basic_string@DV?$char_traits@D@_STL@@V?$allocator@D@2@@_STL@@I@Z 00443180 f   clib:strutil.obj
 0001:00042230       ?decint@@YA?AV?$basic_string@DV?$char_traits@D@_STL@@V?$allocator@D@2@@_STL@@H@Z 00443230 f   clib:strutil.obj
 0001:000422e0       ?decint@@YA?AV?$basic_string@DV?$char_traits@D@_STL@@V?$allocator@D@2@@_STL@@J@Z 004432e0 f   clib:strutil.obj
 0001:00042390       ?decint@@YA?AV?$basic_string@DV?$char_traits@D@_STL@@V?$allocator@D@2@@_STL@@K@Z 00443390 f   clib:strutil.obj
 0001:00042440       ?stracpy@@YAPADPADPBDI@Z   00443440 f   clib:stracpy.obj
 0001:00042470       ?contents@FileContents@@QBEPBDXZ 00443470 f   clib:filecont.obj
 0001:00042480       ?append@?$basic_string@DV?$char_traits@D@_STL@@V?$allocator@D@2@@_STL@@QAEAAV12@PBDI@Z 00443480 f i clib:filecont.obj
 0001:000424a0       ??0FileContents@@QAE@PBD@Z 004434a0 f   clib:filecont.obj
 0001:000425f0       ?set_contents@FileContents@@QAEXABV?$basic_string@DV?$char_traits@D@_STL@@V?$allocator@D@2@@_STL@@@Z 004435f0 f   clib:filecont.obj
 0001:00042610       ??1structured_exception@@UAE@XZ 00443610 f i clib:strexcpt.obj
 0001:00042620       ?InstallStructuredExceptionHandler@@YAXXZ 00443620 f   clib:strexcpt.obj
 0001:00042640       ??0structured_exception@@QAE@IPBD@Z 00443640 f i clib:strexcpt.obj
 0001:000426e0       ??_Estructured_exception@@UAEPAXI@Z 004436e0 f i clib:strexcpt.obj
 0001:000426e0       ??_Gstructured_exception@@UAEPAXI@Z 004436e0 f i clib:strexcpt.obj
 0001:00042700       ??0access_violation@@QAE@XZ 00443700 f i clib:strexcpt.obj
 0001:00042720       ??_Eaccess_violation@@UAEPAXI@Z 00443720 f i clib:strexcpt.obj
 0001:00042720       ??_Gaccess_violation@@UAEPAXI@Z 00443720 f i clib:strexcpt.obj
 0001:00042740       ??1access_violation@@UAE@XZ 00443740 f i clib:strexcpt.obj
 0001:00042750       ?se_trans_func@@YAXIPAU_EXCEPTION_POINTERS@@@Z 00443750 f   clib:strexcpt.obj
 0001:00042e50       ??0structured_exception@@QAE@ABV0@@Z 00443e50 f i clib:strexcpt.obj
 0001:00042e90       ??0access_violation@@QAE@ABV0@@Z 00443e90 f i clib:strexcpt.obj
 0001:00042ee0       ?alt_se_trans_func@@YAXIPAU_EXCEPTION_POINTERS@@@Z 00443ee0 f   clib:strexcpt.obj
 0001:00042f80       ?InstallOldStructuredExceptionHandler@@YAXXZ 00443f80 f   clib:strexcpt.obj
 0001:00042fa0       ?Log@@YAXPADZZ             00443fa0 f   clib:logfile.obj
 0001:00043170       ?Log2@@YAXPADZZ            00444170 f   clib:logfile.obj
 0001:00043360       ?OpenLogFileName@@YAHPBD_N@Z 00444360 f   clib:logfile.obj
 0001:00043490       ?OpenLogFile@@YAHXZ        00444490 f   clib:logfile.obj
 0001:000434a0       ?CloseLogFile@@YAXXZ       004444a0 f   clib:logfile.obj
 0001:000434d0       ?control_handler@@YGHK@Z   004444d0 f   clib:esignal.obj
 0001:00043510       ?enable_exit_signaller@@YAXXZ 00444510 f   clib:esignal.obj
 0001:00043520       __tcsrchr                  00444520 f i clib:msjexhnd.obj
 0001:00043530       ??0MSJExceptionHandler@@QAE@XZ 00444530 f   clib:msjexhnd.obj
 0001:00043580       ??1MSJExceptionHandler@@QAE@XZ 00444580 f   clib:msjexhnd.obj
 0001:00043590       ?SetLogFileName@MSJExceptionHandler@@QAEXPAD@Z 00444590 f   clib:msjexhnd.obj
 0001:000435b0       ?GetExceptionString@MSJExceptionHandler@@CAPADK@Z 004445b0 f   clib:msjexhnd.obj
 0001:00043820       ?printf@MSJExceptionHandler@@CAHPBDZZ 00444820 f   clib:msjexhnd.obj
 0001:00043890       ?InitImagehlpFunctions@MSJExceptionHandler@@CAHXZ 00444890 f   clib:msjexhnd.obj
 0001:00043930       ??$max@K@_STL@@YAABKABK0@Z 00444930 f i clib:msjexhnd.obj
 0001:00043950       ?GetLogicalAddress@MSJExceptionHandler@@CAHPAXPADKAAK2@Z 00444950 f   clib:msjexhnd.obj
 0001:00043a00       ?IntelStackWalk@MSJExceptionHandler@@CAXPAU_CONTEXT@@@Z 00444a00 f   clib:msjexhnd.obj
 0001:00043b10       ?ImagehlpStackWalk@MSJExceptionHandler@@CAXPAU_CONTEXT@@@Z 00444b10 f   clib:msjexhnd.obj
 0001:00043cd0       ?GenerateExceptionReport@MSJExceptionHandler@@SAXPAU_EXCEPTION_POINTERS@@@Z 00444cd0 f   clib:msjexhnd.obj
 0001:00043e50       ?MSJUnhandledExceptionFilter@MSJExceptionHandler@@SGJPAU_EXCEPTION_POINTERS@@@Z 00444e50 f   clib:msjexhnd.obj
 0001:00043ec0       ?_M_release_lock@_STLP_mutex_base@_STL@@QAEXXZ 00444ec0 f i stlport_vc71_static:dll_main.obj
 0001:00043ed0       ?_Atomic_swap@_STL@@YAJPCJJ@Z 00444ed0 f i stlport_vc71_static:dll_main.obj
 0001:00043ef0       ??0bad_alloc@std@@QAE@PBD@Z 00444ef0 f i stlport_vc71_static:dll_main.obj
 0001:00043f10       ??_Gbad_alloc@std@@UAEPAXI@Z 00444f10 f i stlport_vc71_static:dll_main.obj
 0001:00043f10       ??_Ebad_alloc@std@@UAEPAXI@Z 00444f10 f i stlport_vc71_static:dll_main.obj
 0001:00043f30       ??1bad_alloc@std@@UAE@XZ   00444f30 f i stlport_vc71_static:dll_main.obj
 0001:00043f40       ?allocate@__new_alloc@_STL@@SAPAXI@Z 00444f40 f i stlport_vc71_static:dll_main.obj
 0001:00043f50       ?deallocate@__new_alloc@_STL@@SAXPAXI@Z 00444f50 f i stlport_vc71_static:dll_main.obj
 0001:00043f60       ?__stlp_chunk_malloc@@YAPAXI@Z 00444f60 f i stlport_vc71_static:dll_main.obj
 0001:00043f70       ?_S_minimum@_Rb_tree_node_base@_STL@@SAPAU12@PAU12@@Z 00444f70 f i stlport_vc71_static:dll_main.obj
 0001:00043f90       ?_S_maximum@_Rb_tree_node_base@_STL@@SAPAU12@PAU12@@Z 00444f90 f i stlport_vc71_static:dll_main.obj
 0001:00043fb0       ?what@__Named_exception@_STL@@UBEPBDXZ 00444fb0 f   stlport_vc71_static:dll_main.obj
 0001:00043fd0       ??1__Named_exception@_STL@@UAE@XZ 00444fd0 f   stlport_vc71_static:dll_main.obj
 0001:00043ff0       ??1logic_error@_STL@@UAE@XZ 00444ff0 f   stlport_vc71_static:dll_main.obj
 0001:00044010       ??1runtime_error@_STL@@UAE@XZ 00445010 f   stlport_vc71_static:dll_main.obj
 0001:00044030       ??1domain_error@_STL@@UAE@XZ 00445030 f   stlport_vc71_static:dll_main.obj
 0001:00044050       ??1invalid_argument@_STL@@UAE@XZ 00445050 f   stlport_vc71_static:dll_main.obj
 0001:00044070       ??1length_error@_STL@@UAE@XZ 00445070 f   stlport_vc71_static:dll_main.obj
 0001:00044090       ??1out_of_range@_STL@@UAE@XZ 00445090 f   stlport_vc71_static:dll_main.obj
 0001:000440b0       ??1range_error@_STL@@UAE@XZ 004450b0 f   stlport_vc71_static:dll_main.obj
 0001:000440d0       ??1overflow_error@_STL@@UAE@XZ 004450d0 f   stlport_vc71_static:dll_main.obj
 0001:000440f0       ??1underflow_error@_STL@@UAE@XZ 004450f0 f   stlport_vc71_static:dll_main.obj
 0001:00044110       ?_M_terminate_string_aux@?$basic_string@DV?$char_traits@D@_STL@@V?$allocator@D@2@@_STL@@AAEXABU__false_type@2@@Z 00445110 f i stlport_vc71_static:dll_main.obj
 0001:00044190       ?address@?$allocator@D@_STL@@QBEPADAAD@Z 00445190 f i stlport_vc71_static:dll_main.obj
 0001:000441a0       ?address@?$allocator@D@_STL@@QBEPBDABD@Z 004451a0 f i stlport_vc71_static:dll_main.obj
 0001:000441b0       ?max_size@?$allocator@D@_STL@@QBEIXZ 004451b0 f i stlport_vc71_static:dll_main.obj
 0001:000441c0       ?_S_round_up@?$__node_alloc@$0A@$0A@@_STL@@SAII@Z 004451c0 f i stlport_vc71_static:dll_main.obj
 0001:000441d0       ?_S_round_up@?$__node_alloc@$00$0A@@_STL@@SAII@Z 004451d0 f i stlport_vc71_static:dll_main.obj
 0001:000441e0       ?__extra_before_chunk@?$__debug_alloc@V?$__node_alloc@$00$0A@@_STL@@@_STL@@CAIXZ 004451e0 f i stlport_vc71_static:dll_main.obj
 0001:000441f0       ?__extra_after_chunk@?$__debug_alloc@V?$__node_alloc@$00$0A@@_STL@@@_STL@@CAIXZ 004451f0 f i stlport_vc71_static:dll_main.obj
 0001:00044200       ??0?$__debug_alloc@V?$__node_alloc@$00$0A@@_STL@@@_STL@@QAE@XZ 00445200 f i stlport_vc71_static:dll_main.obj
 0001:00044210       ??1?$__debug_alloc@V?$__node_alloc@$00$0A@@_STL@@@_STL@@QAE@XZ 00445210 f i stlport_vc71_static:dll_main.obj
 0001:00044220       ?__extra_before_chunk@?$__debug_alloc@V?$__node_alloc@$0A@$0A@@_STL@@@_STL@@CAIXZ 00445220 f i stlport_vc71_static:dll_main.obj
 0001:00044230       ?__extra_after_chunk@?$__debug_alloc@V?$__node_alloc@$0A@$0A@@_STL@@@_STL@@CAIXZ 00445230 f i stlport_vc71_static:dll_main.obj
 0001:00044240       ??0?$__debug_alloc@V?$__node_alloc@$0A@$0A@@_STL@@@_STL@@QAE@XZ 00445240 f i stlport_vc71_static:dll_main.obj
 0001:00044250       ??1?$__debug_alloc@V?$__node_alloc@$0A@$0A@@_STL@@@_STL@@QAE@XZ 00445250 f i stlport_vc71_static:dll_main.obj
 0001:00044260       ?__extra_before_chunk@?$__debug_alloc@V__new_alloc@_STL@@@_STL@@CAIXZ 00445260 f i stlport_vc71_static:dll_main.obj
 0001:00044270       ?__extra_after_chunk@?$__debug_alloc@V__new_alloc@_STL@@@_STL@@CAIXZ 00445270 f i stlport_vc71_static:dll_main.obj
 0001:00044280       ??0?$__debug_alloc@V__new_alloc@_STL@@@_STL@@QAE@XZ 00445280 f i stlport_vc71_static:dll_main.obj
 0001:00044290       ??1?$__debug_alloc@V__new_alloc@_STL@@@_STL@@QAE@XZ 00445290 f i stlport_vc71_static:dll_main.obj
 0001:000442a0       ?deallocate@?$__malloc_alloc@$0A@@_STL@@SAXPAXI@Z 004452a0 f i stlport_vc71_static:dll_main.obj
 0001:000442c0       ?set_malloc_handler@?$__malloc_alloc@$0A@@_STL@@SAP6AXXZP6AXXZ@Z 004452c0 f i stlport_vc71_static:dll_main.obj
 0001:000442e0       ??0?$allocator@PAX@_STL@@QAE@XZ 004452e0 f i stlport_vc71_static:dll_main.obj
 0001:000442f0       ??0?$allocator@PAX@_STL@@QAE@ABV01@@Z 004452f0 f i stlport_vc71_static:dll_main.obj
 0001:00044300       ??1?$allocator@PAX@_STL@@QAE@XZ 00445300 f i stlport_vc71_static:dll_main.obj
 0001:00044310       ?address@?$allocator@PAX@_STL@@QBEPAPAXAAPAX@Z 00445310 f i stlport_vc71_static:dll_main.obj
 0001:00044320       ?address@?$allocator@PAX@_STL@@QBEPBQAXABQAX@Z 00445320 f i stlport_vc71_static:dll_main.obj
 0001:00044330       ?max_size@?$allocator@PAX@_STL@@QBEIXZ 00445330 f i stlport_vc71_static:dll_main.obj
 0001:00044340       ??0?$_STLP_alloc_proxy@PAPAXPAXV?$allocator@PAX@_STL@@@_STL@@QAE@ABV?$allocator@PAX@1@PAPAX@Z 00445340 f i stlport_vc71_static:dll_main.obj
 0001:00044360       ?get_allocator@?$vector@PAXV?$allocator@PAX@_STL@@@_STL@@QBE?AV?$allocator@PAX@2@XZ 00445360 f i stlport_vc71_static:dll_main.obj
 0001:00044390       ?begin@?$vector@PAXV?$allocator@PAX@_STL@@@_STL@@QAEPAPAXXZ 00445390 f i stlport_vc71_static:dll_main.obj
 0001:000443a0       ?begin@?$vector@PAXV?$allocator@PAX@_STL@@@_STL@@QBEPBQAXXZ 004453a0 f i stlport_vc71_static:dll_main.obj
 0001:000443b0       ?end@?$vector@PAXV?$allocator@PAX@_STL@@@_STL@@QAEPAPAXXZ 004453b0 f i stlport_vc71_static:dll_main.obj
 0001:000443d0       ?end@?$vector@PAXV?$allocator@PAX@_STL@@@_STL@@QBEPBQAXXZ 004453d0 f i stlport_vc71_static:dll_main.obj
 0001:000443f0       ?size@?$vector@PAXV?$allocator@PAX@_STL@@@_STL@@QBEIXZ 004453f0 f i stlport_vc71_static:dll_main.obj
 0001:00044410       ?max_size@?$vector@PAXV?$allocator@PAX@_STL@@@_STL@@QBEIXZ 00445410 f i stlport_vc71_static:dll_main.obj
 0001:00044420       ?capacity@?$vector@PAXV?$allocator@PAX@_STL@@@_STL@@QBEIXZ 00445420 f i stlport_vc71_static:dll_main.obj
 0001:00044440       ?empty@?$vector@PAXV?$allocator@PAX@_STL@@@_STL@@QBE_NXZ 00445440 f i stlport_vc71_static:dll_main.obj
 0001:00044460       ??A?$vector@PAXV?$allocator@PAX@_STL@@@_STL@@QAEAAPAXI@Z 00445460 f i stlport_vc71_static:dll_main.obj
 0001:00044480       ??A?$vector@PAXV?$allocator@PAX@_STL@@@_STL@@QBEABQAXI@Z 00445480 f i stlport_vc71_static:dll_main.obj
 0001:000444a0       ?front@?$vector@PAXV?$allocator@PAX@_STL@@@_STL@@QAEAAPAXXZ 004454a0 f i stlport_vc71_static:dll_main.obj
 0001:000444c0       ?front@?$vector@PAXV?$allocator@PAX@_STL@@@_STL@@QBEABQAXXZ 004454c0 f i stlport_vc71_static:dll_main.obj
 0001:000444e0       ?back@?$vector@PAXV?$allocator@PAX@_STL@@@_STL@@QAEAAPAXXZ 004454e0 f i stlport_vc71_static:dll_main.obj
 0001:00044500       ?back@?$vector@PAXV?$allocator@PAX@_STL@@@_STL@@QBEABQAXXZ 00445500 f i stlport_vc71_static:dll_main.obj
 0001:00044520       ?_M_set@?$vector@PAXV?$allocator@PAX@_STL@@@_STL@@IAEXPAPAX00@Z 00445520 f i stlport_vc71_static:dll_main.obj
 0001:00044550       ??1?$_STLP_alloc_proxy@PAPAXPAXV?$allocator@PAX@_STL@@@_STL@@QAE@XZ 00445550 f i stlport_vc71_static:dll_main.obj
 0001:00044560       ??0?$reverse_iterator@PAD@_STL@@QAE@PAD@Z 00445560 f i stlport_vc71_static:dll_main.obj
 0001:00044580       ??0?$reverse_iterator@PAPAX@_STL@@QAE@PAPAX@Z 00445580 f i stlport_vc71_static:dll_main.obj
 0001:000445a0       ??0?$reverse_iterator@PBQAX@_STL@@QAE@PBQAX@Z 004455a0 f i stlport_vc71_static:dll_main.obj
 0001:000445c0       ?_Message@?$__stl_debug_engine@_N@_STL@@SAXPBDZZ 004455c0 f i stlport_vc71_static:dll_main.obj
 0001:00044610       ?_IndexedError@?$__stl_debug_engine@_N@_STL@@SAXHPBDH@Z 00445610 f i stlport_vc71_static:dll_main.obj
 0001:00044640       ?_Terminate@?$__stl_debug_engine@_N@_STL@@SAXXZ 00445640 f i stlport_vc71_static:dll_main.obj
 0001:00044650       ?_S_chunk_alloc@?$__node_alloc@$0A@$0A@@_STL@@CAPADIAAH@Z 00445650 f i stlport_vc71_static:dll_main.obj
 0001:00044800       ?_S_chunk_alloc@?$__node_alloc@$00$0A@@_STL@@CAPADIAAH@Z 00445800 f i stlport_vc71_static:dll_main.obj
 0001:000449b0       ?allocate@?$__debug_alloc@V__new_alloc@_STL@@@_STL@@SAPAXI@Z 004459b0 f i stlport_vc71_static:dll_main.obj
 0001:00044a30       ?deallocate@?$__debug_alloc@V__new_alloc@_STL@@@_STL@@SAXPAXI@Z 00445a30 f i stlport_vc71_static:dll_main.obj
 0001:00044ad0       ?_S_oom_malloc@?$__malloc_alloc@$0A@@_STL@@CAPAXI@Z 00445ad0 f i stlport_vc71_static:dll_main.obj
 0001:00044b30       ?_M_increment@?$_Rb_global@_N@_STL@@SAPAU_Rb_tree_node_base@2@PAU32@@Z 00445b30 f i stlport_vc71_static:dll_main.obj
 0001:00044ba0       ?_M_decrement@?$_Rb_global@_N@_STL@@SAPAU_Rb_tree_node_base@2@PAU32@@Z 00445ba0 f i stlport_vc71_static:dll_main.obj
 0001:00044c30       ?_Rotate_left@?$_Rb_global@_N@_STL@@SAXPAU_Rb_tree_node_base@2@AAPAU32@@Z 00445c30 f i stlport_vc71_static:dll_main.obj
 0001:00044cc0       ?_Rotate_right@?$_Rb_global@_N@_STL@@SAXPAU_Rb_tree_node_base@2@AAPAU32@@Z 00445cc0 f i stlport_vc71_static:dll_main.obj
 0001:00044d50       ?_Transfer@?$_List_global@_N@_STL@@SAXPAU_List_node_base@2@00@Z 00445d50 f i stlport_vc71_static:dll_main.obj
 0001:00044db0       ?size@?$_Sl_global@_N@_STL@@SAIPAU_Slist_node_base@2@@Z 00445db0 f i stlport_vc71_static:dll_main.obj
 0001:00044de0       ?__reverse@?$_Sl_global@_N@_STL@@SAPAU_Slist_node_base@2@PAU32@@Z 00445de0 f i stlport_vc71_static:dll_main.obj
 0001:00044e30       ?__splice_after@?$_Sl_global@_N@_STL@@SAXPAU_Slist_node_base@2@00@Z 00445e30 f i stlport_vc71_static:dll_main.obj
 0001:00044e80       ?__previous@?$_Sl_global@_N@_STL@@SAPAU_Slist_node_base@2@PAU32@PBU32@@Z 00445e80 f i stlport_vc71_static:dll_main.obj
 0001:00044eb0       ??$_Construct@D@_STL@@YAXPAD@Z 00445eb0 f i stlport_vc71_static:dll_main.obj
 0001:00044ef0       ??$_Destroy@D@_STL@@YAXPAD@Z 00445ef0 f i stlport_vc71_static:dll_main.obj
 0001:00044f00       ??$_Construct@DD@_STL@@YAXPADABD@Z 00445f00 f i stlport_vc71_static:dll_main.obj
 0001:00044f40       ??$_Construct@PAXPAX@_STL@@YAXPAPAXABQAX@Z 00445f40 f i stlport_vc71_static:dll_main.obj
 0001:00044f80       ??$_Destroy@PAX@_STL@@YAXPAPAX@Z 00445f80 f i stlport_vc71_static:dll_main.obj
 0001:00044f90       ??$fill_n@PAPAXIPAX@_STL@@YAPAPAXPAPAXIABQAX@Z 00445f90 f i stlport_vc71_static:dll_main.obj
 0001:00044fc0       ??$swap@PAPAX@_STL@@YAXAAPAPAX0@Z 00445fc0 f i stlport_vc71_static:dll_main.obj
 0001:00044ff0       ??$__copy_backward_ptrs@PAPAXPAPAX@_STL@@YAPAPAXPAPAX00ABU__true_type@0@@Z 00445ff0 f i stlport_vc71_static:dll_main.obj
 0001:00045010       ??$__copy_ptrs@PAPAXPAPAX@_STL@@YAPAPAXPAPAX00ABU__true_type@0@@Z 00446010 f i stlport_vc71_static:dll_main.obj
 0001:00045030       ??0bad_alloc@std@@QAE@ABV01@@Z 00446030 f i stlport_vc71_static:dll_main.obj
 0001:00045060       ??0?$_STLP_alloc_proxy@PAPAXPAXV?$allocator@PAX@_STL@@@_STL@@QAE@ABV01@@Z 00446060 f i stlport_vc71_static:dll_main.obj
 0001:00045080       ??0?$_Neq_char_bound@V?$char_traits@D@_STL@@@_STL@@QAE@D@Z 00446080 f i stlport_vc71_static:dll_main.obj
 0001:000450a0       ??1?$_Node_Alloc_Lock@$0A@$0A@@_STL@@QAE@XZ 004460a0 f i stlport_vc71_static:dll_main.obj
 0001:000450c0       ??1?$_Node_Alloc_Lock@$00$0A@@_STL@@QAE@XZ 004460c0 f i stlport_vc71_static:dll_main.obj
 0001:000450e0       ?_Ret@?$_BothPtrType@PBQAXPAPAX@_STL@@SA?AU__true_type@2@XZ 004460e0 f i stlport_vc71_static:dll_main.obj
 0001:000450f0       ?_S_nsec_sleep@?$_STLP_mutex_spin@$0A@@_STL@@SAXH@Z 004460f0 f i stlport_vc71_static:dll_main.obj
 0001:00045120       ??$__copy_ptrs@PBQAXPAPAX@_STL@@YAPAPAXPBQAX0PAPAXABU__true_type@0@@Z 00446120 f i stlport_vc71_static:dll_main.obj
 0001:00045140       ??$fill@PAPAXPAX@_STL@@YAXPAPAX0ABQAX@Z 00446140 f i stlport_vc71_static:dll_main.obj
 0001:00045170       ??$swap@_N@_STL@@YAXAA_N0@Z 00446170 f i stlport_vc71_static:dll_main.obj
 0001:000451a0       ??$__uninitialized_fill_n@PAPAXIPAX@_STL@@YAPAPAXPAPAXIABQAXABU__true_type@0@@Z 004461a0 f i stlport_vc71_static:dll_main.obj
 0001:000451e0       ?_Ret@?$_BothPtrType@PAPAXPAPAX@_STL@@SA?AU__true_type@2@XZ 004461e0 f i stlport_vc71_static:dll_main.obj
 0001:000451f0       ?_Ret@?$_OKToMemCpy@PAXPAX@_STL@@SA?AU__true_type@2@XZ 004461f0 f i stlport_vc71_static:dll_main.obj
 0001:00045200       ??$__destroy_aux@PAPAX@_STL@@YAXPAPAX0ABU__true_type@0@@Z 00446200 f i stlport_vc71_static:dll_main.obj
 0001:00045210       ??$_IsOKToMemCpy@PAXPAX@_STL@@YA?AU?$_OKToMemCpy@PAXPAX@0@PAPAX0@Z 00446210 f i stlport_vc71_static:dll_main.obj
 0001:00045220       ??R?$_Neq_char_bound@V?$char_traits@D@_STL@@@_STL@@QBE_NABD@Z 00446220 f i stlport_vc71_static:dll_main.obj
 0001:00045250       ??$_M_move@PAD@?$basic_string@DV?$char_traits@D@_STL@@V?$allocator@D@2@@_STL@@AAEXPAD00@Z 00446250 f i stlport_vc71_static:dll_main.obj
 0001:00045290       ??$_M_inside@PAD@?$basic_string@DV?$char_traits@D@_STL@@V?$allocator@D@2@@_STL@@ABE_NPAD@Z 00446290 f i stlport_vc71_static:dll_main.obj
 0001:000452d0       ??$_M_copy@PAD@?$basic_string@DV?$char_traits@D@_STL@@V?$allocator@D@2@@_STL@@AAEXPAD00@Z 004462d0 f i stlport_vc71_static:dll_main.obj
 0001:00045310       ??$__advance@PADH@_STL@@YAXAAPADHABUrandom_access_iterator_tag@0@@Z 00446310 f i stlport_vc71_static:dll_main.obj
 0001:00045330       ??_Glogic_error@_STL@@UAEPAXI@Z 00446330 f i stlport_vc71_static:dll_main.obj
 0001:00045330       ??_Elogic_error@_STL@@UAEPAXI@Z 00446330 f i stlport_vc71_static:dll_main.obj
 0001:00045350       ??_Edomain_error@_STL@@UAEPAXI@Z 00446350 f i stlport_vc71_static:dll_main.obj
 0001:00045350       ??_Gdomain_error@_STL@@UAEPAXI@Z 00446350 f i stlport_vc71_static:dll_main.obj
 0001:00045370       ??_Einvalid_argument@_STL@@UAEPAXI@Z 00446370 f i stlport_vc71_static:dll_main.obj
 0001:00045370       ??_Ginvalid_argument@_STL@@UAEPAXI@Z 00446370 f i stlport_vc71_static:dll_main.obj
 0001:00045390       ??_Elength_error@_STL@@UAEPAXI@Z 00446390 f i stlport_vc71_static:dll_main.obj
 0001:00045390       ??_Glength_error@_STL@@UAEPAXI@Z 00446390 f i stlport_vc71_static:dll_main.obj
 0001:000453b0       ??_Eout_of_range@_STL@@UAEPAXI@Z 004463b0 f i stlport_vc71_static:dll_main.obj
 0001:000453b0       ??_Gout_of_range@_STL@@UAEPAXI@Z 004463b0 f i stlport_vc71_static:dll_main.obj
 0001:000453d0       ??_Grange_error@_STL@@UAEPAXI@Z 004463d0 f i stlport_vc71_static:dll_main.obj
 0001:000453d0       ??_Erange_error@_STL@@UAEPAXI@Z 004463d0 f i stlport_vc71_static:dll_main.obj
 0001:000453f0       ??_Eoverflow_error@_STL@@UAEPAXI@Z 004463f0 f i stlport_vc71_static:dll_main.obj
 0001:000453f0       ??_Goverflow_error@_STL@@UAEPAXI@Z 004463f0 f i stlport_vc71_static:dll_main.obj
 0001:00045410       ??_Gunderflow_error@_STL@@UAEPAXI@Z 00446410 f i stlport_vc71_static:dll_main.obj
 0001:00045410       ??_Eunderflow_error@_STL@@UAEPAXI@Z 00446410 f i stlport_vc71_static:dll_main.obj
 0001:00045430       ?__get_c_string@_STL@@YAPBDABV?$basic_string@DV?$char_traits@D@_STL@@V?$allocator@D@2@@1@@Z 00446430 f   stlport_vc71_static:dll_main.obj
 0001:00045450       ??0__Named_exception@_STL@@QAE@ABV?$basic_string@DV?$char_traits@D@_STL@@V?$allocator@D@2@@1@@Z 00446450 f   stlport_vc71_static:dll_main.obj
 0001:000454d0       ?_M_construct_null_aux@?$basic_string@DV?$char_traits@D@_STL@@V?$allocator@D@2@@_STL@@AAEXPADABU__false_type@2@@Z 004464d0 f i stlport_vc71_static:dll_main.obj
 0001:00045510       ?rbegin@?$basic_string@DV?$char_traits@D@_STL@@V?$allocator@D@2@@_STL@@QAE?AV?$reverse_iterator@PAD@2@XZ 00446510 f i stlport_vc71_static:dll_main.obj
 0001:00045540       ?rend@?$basic_string@DV?$char_traits@D@_STL@@V?$allocator@D@2@@_STL@@QAE?AV?$reverse_iterator@PAD@2@XZ 00446540 f i stlport_vc71_static:dll_main.obj
 0001:00045570       ?rbegin@?$basic_string@DV?$char_traits@D@_STL@@V?$allocator@D@2@@_STL@@QBE?AV?$reverse_iterator@PBD@2@XZ 00446570 f i stlport_vc71_static:dll_main.obj
 0001:000455a0       ?pop_back@?$basic_string@DV?$char_traits@D@_STL@@V?$allocator@D@2@@_STL@@QAEXXZ 004465a0 f i stlport_vc71_static:dll_main.obj
 0001:000455e0       ?erase@?$basic_string@DV?$char_traits@D@_STL@@V?$allocator@D@2@@_STL@@QAEPADPAD@Z 004465e0 f i stlport_vc71_static:dll_main.obj
 0001:00045640       ?construct@?$allocator@D@_STL@@QAEXPADABD@Z 00446640 f i stlport_vc71_static:dll_main.obj
 0001:00045680       ?destroy@?$allocator@D@_STL@@QAEXPAD@Z 00446680 f i stlport_vc71_static:dll_main.obj
 0001:00045690       ?allocate@?$__malloc_alloc@$0A@@_STL@@SAPAXI@Z 00446690 f i stlport_vc71_static:dll_main.obj
 0001:000456c0       ?construct@?$allocator@PAX@_STL@@QAEXPAPAXABQAX@Z 004466c0 f i stlport_vc71_static:dll_main.obj
 0001:00045700       ?destroy@?$allocator@PAX@_STL@@QAEXPAPAX@Z 00446700 f i stlport_vc71_static:dll_main.obj
 0001:00045710       ??0?$_Vector_base@PAXV?$allocator@PAX@_STL@@@_STL@@QAE@ABV?$allocator@PAX@1@@Z 00446710 f i stlport_vc71_static:dll_main.obj
 0001:00045750       ?rbegin@?$vector@PAXV?$allocator@PAX@_STL@@@_STL@@QAE?AV?$reverse_iterator@PAPAX@2@XZ 00446750 f i stlport_vc71_static:dll_main.obj
 0001:00045780       ?rbegin@?$vector@PAXV?$allocator@PAX@_STL@@@_STL@@QBE?AV?$reverse_iterator@PBQAX@2@XZ 00446780 f i stlport_vc71_static:dll_main.obj
 0001:000457b0       ?rend@?$vector@PAXV?$allocator@PAX@_STL@@@_STL@@QAE?AV?$reverse_iterator@PAPAX@2@XZ 004467b0 f i stlport_vc71_static:dll_main.obj
 0001:000457e0       ?rend@?$vector@PAXV?$allocator@PAX@_STL@@@_STL@@QBE?AV?$reverse_iterator@PBQAX@2@XZ 004467e0 f i stlport_vc71_static:dll_main.obj
 0001:00045810       ?pop_back@?$vector@PAXV?$allocator@PAX@_STL@@@_STL@@QAEXXZ 00446810 f i stlport_vc71_static:dll_main.obj
 0001:00045830       ?erase@?$vector@PAXV?$allocator@PAX@_STL@@@_STL@@QAEPAPAXPAPAX@Z 00446830 f i stlport_vc71_static:dll_main.obj
 0001:00045890       ?__previous@?$_Sl_global@_N@_STL@@SAPBU_Slist_node_base@2@PBU32@0@Z 00446890 f i stlport_vc71_static:dll_main.obj
 0001:000458b0       ?_M_do_lock@?$_STLP_mutex_spin@$0A@@_STL@@SAXPCJ@Z 004468b0 f i stlport_vc71_static:dll_main.obj
 0001:000459c0       ?_Assert@?$__stl_debug_engine@_N@_STL@@SAXPBD0H@Z 004469c0 f i stlport_vc71_static:dll_main.obj
 0001:000459f0       ?_VerboseAssert@?$__stl_debug_engine@_N@_STL@@SAXPBDH0H@Z 004469f0 f i stlport_vc71_static:dll_main.obj
 0001:00045a30       ?_S_refill@?$__node_alloc@$0A@$0A@@_STL@@CAPAXI@Z 00446a30 f i stlport_vc71_static:dll_main.obj
 0001:00045ae0       ?_S_refill@?$__node_alloc@$00$0A@@_STL@@CAPAXI@Z 00446ae0 f i stlport_vc71_static:dll_main.obj
 0001:00045b90       ?_Rebalance@?$_Rb_global@_N@_STL@@SAXPAU_Rb_tree_node_base@2@AAPAU32@@Z 00446b90 f i stlport_vc71_static:dll_main.obj
 0001:00045d20       ?_Rebalance_for_erase@?$_Rb_global@_N@_STL@@SAPAU_Rb_tree_node_base@2@PAU32@AAPAU32@11@Z 00446d20 f i stlport_vc71_static:dll_main.obj
 0001:00046180       ?__splice_after@?$_Sl_global@_N@_STL@@SAXPAU_Slist_node_base@2@0@Z 00447180 f i stlport_vc71_static:dll_main.obj
 0001:000461d0       ??$uninitialized_fill_n@PAPAXIPAX@_STL@@YAPAPAXPAPAXIABQAX@Z 004471d0 f i stlport_vc71_static:dll_main.obj
 0001:00046220       ??$swap@V?$_STLP_alloc_proxy@PAPAXPAXV?$allocator@PAX@_STL@@@_STL@@@_STL@@YAXAAV?$_STLP_alloc_proxy@PAPAXPAXV?$allocator@PAX@_STL@@@0@0@Z 00447220 f i stlport_vc71_static:dll_main.obj
 0001:00046250       ??$__destroy@PAPAXPAX@_STL@@YAXPAPAX00@Z 00447250 f i stlport_vc71_static:dll_main.obj
 0001:00046260       ??$__copy_aux@PBQAXPAPAX@_STL@@YAPAPAXPBQAX0PAPAXABU__true_type@0@@Z 00447260 f i stlport_vc71_static:dll_main.obj
 0001:000462a0       ??$__find_if@V?$reverse_iterator@PBD@_STL@@U?$_Eq_char_bound@V?$char_traits@D@_STL@@@2@@_STL@@YA?AV?$reverse_iterator@PBD@0@V10@0U?$_Eq_char_bound@V?$char_traits@D@_STL@@@0@ABUrandom_access_iterator_tag@0@@Z 004472a0 f i stlport_vc71_static:dll_main.obj
 0001:000464c0       ??$__find_if@PBDU?$_Neq_char_bound@V?$char_traits@D@_STL@@@_STL@@@_STL@@YAPBDPBD0U?$_Neq_char_bound@V?$char_traits@D@_STL@@@0@ABUrandom_access_iterator_tag@0@@Z 004474c0 f i stlport_vc71_static:dll_main.obj
 0001:00046660       ??$__find_if@V?$reverse_iterator@PBD@_STL@@U?$_Neq_char_bound@V?$char_traits@D@_STL@@@2@@_STL@@YA?AV?$reverse_iterator@PBD@0@V10@0U?$_Neq_char_bound@V?$char_traits@D@_STL@@@0@ABUrandom_access_iterator_tag@0@@Z 00447660 f i stlport_vc71_static:dll_main.obj
 0001:000468c0       ??$__copy_aux@PAPAXPAPAX@_STL@@YAPAPAXPAPAX00ABU__true_type@0@@Z 004478c0 f i stlport_vc71_static:dll_main.obj
 0001:00046900       ??$advance@PADH@_STL@@YAXAAPADH@Z 00447900 f i stlport_vc71_static:dll_main.obj
 0001:00046920       ?_M_acquire_lock@_STLP_mutex_base@_STL@@QAEXXZ 00447920 f i stlport_vc71_static:dll_main.obj
 0001:00046930       ??0logic_error@_STL@@QAE@ABV?$basic_string@DV?$char_traits@D@_STL@@V?$allocator@D@2@@1@@Z 00447930 f i stlport_vc71_static:dll_main.obj
 0001:00046950       ??0invalid_argument@_STL@@QAE@ABV?$basic_string@DV?$char_traits@D@_STL@@V?$allocator@D@2@@1@@Z 00447950 f i stlport_vc71_static:dll_main.obj
 0001:00046970       ??0length_error@_STL@@QAE@ABV?$basic_string@DV?$char_traits@D@_STL@@V?$allocator@D@2@@1@@Z 00447970 f i stlport_vc71_static:dll_main.obj
 0001:00046990       ??0out_of_range@_STL@@QAE@ABV?$basic_string@DV?$char_traits@D@_STL@@V?$allocator@D@2@@1@@Z 00447990 f i stlport_vc71_static:dll_main.obj
 0001:000469b0       ??0range_error@_STL@@QAE@ABV?$basic_string@DV?$char_traits@D@_STL@@V?$allocator@D@2@@1@@Z 004479b0 f i stlport_vc71_static:dll_main.obj
 0001:000469d0       ??0overflow_error@_STL@@QAE@ABV?$basic_string@DV?$char_traits@D@_STL@@V?$allocator@D@2@@1@@Z 004479d0 f i stlport_vc71_static:dll_main.obj
 0001:000469f0       ?compare@?$basic_string@DV?$char_traits@D@_STL@@V?$allocator@D@2@@_STL@@QBEHABV12@@Z 004479f0 f i stlport_vc71_static:dll_main.obj
