 uotool

 Timestamp is 4743ce8b (Tue Nov 20 22:22:03 2007)

 Preferred load address is 00400000

 Start         Length     Name                   Class
 0001:00000000 00059356H .text                   CODE
 0001:00059360 000041f2H .text$x                 CODE
 0001:0005d560 00000a93H .text$yc                CODE
 0001:0005e000 000005e4H .text$yd                CODE
 0002:00000000 000001bcH .idata$5                DATA
 0002:000001c0 000065e0H .rdata                  DATA
 0002:000067a0 0000003dH .rdata$debug            DATA
 0002:000067e0 00001584H .rdata$r                DATA
 0002:00007d70 000004c0H .rdata$sxdata           DATA
 0002:00008230 00000004H .rtc$IAA                DATA
 0002:00008234 00000004H .rtc$IZZ                DATA
 0002:00008238 00000004H .rtc$TAA                DATA
 0002:0000823c 00000004H .rtc$TZZ                DATA
 0002:00008240 000046a4H .xdata$x                DATA
 0002:0000c8e4 00000028H .idata$2                DATA
 0002:0000c90c 00000014H .idata$3                DATA
 0002:0000c920 000001bcH .idata$4                DATA
 0002:0000cadc 000007d6H .idata$6                DATA
 0002:0000d2b2 00000000H .edata                  DATA
 0003:00000000 00000004H .CRT$XCA                DATA
 0003:00000004 00000004H .CRT$XCAA               DATA
 0003:00000008 0000011cH .CRT$XCU                DATA
 0003:00000124 00000004H .CRT$XCZ                DATA
 0003:00000128 00000004H .CRT$XIA                DATA
 0003:0000012c 0000000cH .CRT$XIC                DATA
 0003:00000138 00000004H .CRT$XIY                DATA
 0003:0000013c 00000004H .CRT$XIZ                DATA
 0003:00000140 00000004H .CRT$XPA                DATA
 0003:00000144 00000004H .CRT$XPX                DATA
 0003:00000148 00000004H .CRT$XPZ                DATA
 0003:0000014c 00000004H .CRT$XTA                DATA
 0003:00000150 00000004H .CRT$XTB                DATA
 0003:00000154 00000004H .CRT$XTZ                DATA
 0003:00000160 0000295cH .data                   DATA
 0003:00002ac0 00047304H .bss                    DATA
 0004:00000000 00000020H STLPORT_NO_INIT         DATA

  Address         Publics by Value              Rva+Base     Lib:Object

 0000:00000000       __except_list              00000000     <absolute>
 0000:00000130       ___safe_se_handler_count   00000130     <absolute>
 0001:00000000       ?__copy_trivial@_STL@@YAPAXPBX0PAX@Z 00401000 f i multidef.obj
 0001:00000030       ??2@YAPAXIPAX@Z            00401030 f i multidef.obj
 0001:00000040       ??3@YAXPAX0@Z              00401040 f i multidef.obj
 0001:00000050       ?__stl_new@_STL@@YAPAXI@Z  00401050 f i multidef.obj
 0001:00000060       ?__stl_delete@_STL@@YAXPAX@Z 00401060 f i multidef.obj
 0001:00000070       ?_Destroy@_STL@@YAXPAD0@Z  00401070 f i multidef.obj
 0001:00000080       ?uninitialized_copy@_STL@@YAPADPBD0PAD@Z 00401080 f i multidef.obj
 0001:000000b0       ?_M_initialize@_STLP_mutex_base@_STL@@QAEXXZ 004010b0 f i multidef.obj
 0001:000000c0       ?_M_destroy@_STLP_mutex_base@_STL@@QAEXXZ 004010c0 f i multidef.obj
 0001:000000d0       ??0_STLP_mutex@_STL@@QAE@XZ 004010d0 f i multidef.obj
 0001:000000e0       ??1_STLP_mutex@_STL@@QAE@XZ 004010e0 f i multidef.obj
 0001:000000f0       ?to_char_type@?$char_traits@D@_STL@@SADABH@Z 004010f0 f i multidef.obj
 0001:00000100       ?to_int_type@?$char_traits@D@_STL@@SAHABD@Z 00401100 f i multidef.obj
 0001:00000110       ?length@?$char_traits@D@_STL@@SAIPBD@Z 00401110 f i multidef.obj
 0001:00000130       ?assign@?$char_traits@D@_STL@@SAXAADABD@Z 00401130 f i multidef.obj
 0001:00000140       ?is@?$ctype@D@_STL@@QBE_NW4mask@ctype_base@2@D@Z 00401140 f i multidef.obj
 0001:00000160       ?widen@?$ctype@D@_STL@@QBEDD@Z 00401160 f i multidef.obj
 0001:00000170       ?flags@ios_base@_STL@@QBEHXZ 00401170 f i multidef.obj
 0001:00000180       ?flags@ios_base@_STL@@QAEHH@Z 00401180 f i multidef.obj
 0001:00000190       ?setf@ios_base@_STL@@QAEHHH@Z 00401190 f i multidef.obj
 0001:000001b0       ?precision@ios_base@_STL@@QAEHH@Z 004011b0 f i multidef.obj
 0001:000001c0       ?width@ios_base@_STL@@QAEHH@Z 004011c0 f i multidef.obj
 0001:000001d0       ?getloc@ios_base@_STL@@QBE?AVlocale@2@XZ 004011d0 f i multidef.obj
 0001:000001f0       ?rdstate@ios_base@_STL@@QBEHXZ 004011f0 f i multidef.obj
 0001:00000200       ?good@ios_base@_STL@@QBE_NXZ 00401200 f i multidef.obj
 0001:00000210       ?fail@ios_base@_STL@@QBE_NXZ 00401210 f i multidef.obj
 0001:00000220       ?_M_setstate_nothrow@ios_base@_STL@@IAEXH@Z 00401220 f i multidef.obj
 0001:00000230       ?_M_clear_nothrow@ios_base@_STL@@IAEXH@Z 00401230 f i multidef.obj
 0001:00000240       ?_M_get_exception_mask@ios_base@_STL@@IBEHXZ 00401240 f i multidef.obj
 0001:00000250       ?_M_set_exception_mask@ios_base@_STL@@IAEXH@Z 00401250 f i multidef.obj
 0001:00000260       ?_M_check_exception_mask@ios_base@_STL@@IAEXXZ 00401260 f i multidef.obj
 0001:00000270       ?_M_ctype_facet@ios_base@_STL@@QBEPBVfacet@locale@2@XZ 00401270 f i multidef.obj
 0001:00000280       ?dec@_STL@@YAAAVios_base@1@AAV21@@Z 00401280 f i multidef.obj
 0001:000002a0       ?hex@_STL@@YAAAVios_base@1@AAV21@@Z 004012a0 f i multidef.obj
 0001:000002c0       ?_FILE_I_begin@_STL@@YAPADPBU_iobuf@@@Z 004012c0 f i multidef.obj
 0001:000002d0       ?_FILE_I_next@_STL@@YAPADPBU_iobuf@@@Z 004012d0 f i multidef.obj
 0001:000002e0       ?_FILE_I_end@_STL@@YAPADPBU_iobuf@@@Z 004012e0 f i multidef.obj
 0001:000002f0       ?_FILE_I_avail@_STL@@YAHPBU_iobuf@@@Z 004012f0 f i multidef.obj
 0001:00000300       ?_FILE_I_postincr@_STL@@YAAADPAU_iobuf@@@Z 00401300 f i multidef.obj
 0001:00000310       ?_FILE_I_predecr@_STL@@YAAADPAU_iobuf@@@Z 00401310 f i multidef.obj
 0001:00000320       ?_FILE_I_bump@_STL@@YAXPAU_iobuf@@H@Z 00401320 f i multidef.obj
 0001:00000330       ?_FILE_I_set@_STL@@YAXPAU_iobuf@@PAD11@Z 00401330 f i multidef.obj
 0001:00000350       ?_FILE_O_set@_STL@@YAXPAU_iobuf@@PAD11@Z 00401350 f i multidef.obj
 0001:00000370       ??0?$basic_streambuf@DV?$char_traits@D@_STL@@@_STL@@IAE@XZ 00401370 f i multidef.obj
 0001:000003b0       ?gptr@?$basic_streambuf@DV?$char_traits@D@_STL@@@_STL@@IBEPADXZ 004013b0 f i multidef.obj
 0001:000003c0       ?egptr@?$basic_streambuf@DV?$char_traits@D@_STL@@@_STL@@IBEPADXZ 004013c0 f i multidef.obj
 0001:000003d0       ?setg@?$basic_streambuf@DV?$char_traits@D@_STL@@@_STL@@IAEXPAD00@Z 004013d0 f i multidef.obj
 0001:000003f0       ?_M_gptr@?$basic_streambuf@DV?$char_traits@D@_STL@@@_STL@@QBEPADXZ 004013f0 f i multidef.obj
 0001:00000400       ?_M_egptr@?$basic_streambuf@DV?$char_traits@D@_STL@@@_STL@@QBEPADXZ 00401400 f i multidef.obj
 0001:00000410       ?_M_gbump@?$basic_streambuf@DV?$char_traits@D@_STL@@@_STL@@QAEXH@Z 00401410 f i multidef.obj
 0001:00000420       ?setp@?$basic_streambuf@DV?$char_traits@D@_STL@@@_STL@@IAEXPAD0@Z 00401420 f i multidef.obj
 0001:00000440       ?pubsync@?$basic_streambuf@DV?$char_traits@D@_STL@@@_STL@@QAEHXZ 00401440 f i multidef.obj
 0001:00000450       ?sbumpc@?$basic_streambuf@DV?$char_traits@D@_STL@@@_STL@@QAEHXZ 00401450 f i multidef.obj
 0001:00000470       ?sgetc@?$basic_streambuf@DV?$char_traits@D@_STL@@@_STL@@QAEHXZ 00401470 f i multidef.obj
 0001:00000490       ?sputbackc@?$basic_streambuf@DV?$char_traits@D@_STL@@@_STL@@QAEHD@Z 00401490 f i multidef.obj
 0001:000004d0       ??_G?$basic_streambuf@DV?$char_traits@D@_STL@@@_STL@@UAEPAXI@Z 004014d0 f i multidef.obj
 0001:000004d0       ??_E?$basic_streambuf@DV?$char_traits@D@_STL@@@_STL@@UAEPAXI@Z 004014d0 f i multidef.obj
 0001:000004f0       ??8_Rb_tree_base_iterator@_STL@@QBE_NABU01@@Z 004014f0 f i multidef.obj
 0001:00000500       ??9_Rb_tree_base_iterator@_STL@@QBE_NABU01@@Z 00401500 f i multidef.obj
 0001:00000520       ?getkey@MultiDef@@QBEGHH@Z 00401520 f i multidef.obj
 0001:00000530       ?eof@?$__char_traits_base@DH@_STL@@SAHXZ 00401530 f i multidef.obj
 0001:00000540       ??0?$allocator@D@_STL@@QAE@XZ 00401540 f i multidef.obj
 0001:00000550       ??1?$allocator@D@_STL@@QAE@XZ 00401550 f i multidef.obj
 0001:00000560       ??1?$basic_istream@DV?$char_traits@D@_STL@@@_STL@@UAE@XZ 00401560 f i multidef.obj
 0001:00000570       ??5?$basic_istream@DV?$char_traits@D@_STL@@@_STL@@QAEAAV01@P6AAAVios_base@1@AAV21@@Z@Z 00401570 f i multidef.obj
 0001:000005a0       ??1?$basic_ios@DV?$char_traits@D@_STL@@@_STL@@UAE@XZ 004015a0 f i multidef.obj
 0001:000005b0       ?size@?$vector@UMULTI_ELEM@@V?$allocator@UMULTI_ELEM@@@_STL@@@_STL@@QBEIXZ 004015b0 f i multidef.obj
 0001:000005d0       ??0?$allocator@UMULTI_ELEM@@@_STL@@QAE@XZ 004015d0 f i multidef.obj
 0001:000005e0       ??1?$allocator@UMULTI_ELEM@@@_STL@@QAE@XZ 004015e0 f i multidef.obj
 0001:000005f0       ??0?$allocator@PBUMULTI_ELEM@@@_STL@@QAE@XZ 004015f0 f i multidef.obj
 0001:00000600       ??1?$allocator@PBUMULTI_ELEM@@@_STL@@QAE@XZ 00401600 f i multidef.obj
 0001:00000610       ??D?$_Rb_tree_iterator@U?$pair@$$CBGPBUMULTI_ELEM@@@_STL@@U?$_Const_traits@U?$pair@$$CBGPBUMULTI_ELEM@@@_STL@@@2@@_STL@@QBEABU?$pair@$$CBGPBUMULTI_ELEM@@@1@XZ 00401610 f i multidef.obj
 0001:00000620       ??0?$pair@$$CBGPBUMULTI_ELEM@@@_STL@@QAE@ABGABQBUMULTI_ELEM@@@Z 00401620 f i multidef.obj
 0001:00000640       ??0?$_Rb_tree_iterator@U?$pair@$$CBGPAVMultiDef@@@_STL@@U?$_Const_traits@U?$pair@$$CBGPAVMultiDef@@@_STL@@@2@@_STL@@QAE@ABU?$_Rb_tree_iterator@U?$pair@$$CBGPAVMultiDef@@@_STL@@U?$_Nonconst_traits@U?$pair@$$CBGPAVMultiDef@@@_STL@@@2@@1@@Z 00401640 f i multidef.obj
 0001:00000650       ??D?$_Rb_tree_iterator@U?$pair@$$CBGPAVMultiDef@@@_STL@@U?$_Const_traits@U?$pair@$$CBGPAVMultiDef@@@_STL@@@2@@_STL@@QBEABU?$pair@$$CBGPAVMultiDef@@@1@XZ 00401650 f i multidef.obj
 0001:00000660       ??_E?$basic_ios@DV?$char_traits@D@_STL@@@_STL@@UAEPAXI@Z 00401660 f i multidef.obj
 0001:00000660       ??_G?$basic_ios@DV?$char_traits@D@_STL@@@_STL@@UAEPAXI@Z 00401660 f i multidef.obj
 0001:00000680       ??0?$allocator@G@_STL@@QAE@XZ 00401680 f i multidef.obj
 0001:00000690       ??1?$allocator@G@_STL@@QAE@XZ 00401690 f i multidef.obj
 0001:000006a0       ??0?$allocator@U?$pair@$$CBGG@_STL@@@_STL@@QAE@XZ 004016a0 f i multidef.obj
 0001:000006b0       ??1?$allocator@U?$pair@$$CBGG@_STL@@@_STL@@QAE@XZ 004016b0 f i multidef.obj
 0001:000006c0       ??R?$less@G@_STL@@QBE_NABG0@Z 004016c0 f i multidef.obj
 0001:000006e0       ?begin@?$vector@UMULTI_ELEM@@V?$allocator@UMULTI_ELEM@@@_STL@@@_STL@@QAEPAUMULTI_ELEM@@XZ 004016e0 f i multidef.obj
 0001:000006f0       ??0?$allocator@U?$pair@$$CBGPBUMULTI_ELEM@@@_STL@@@_STL@@QAE@XZ 004016f0 f i multidef.obj
 0001:00000700       ??1?$allocator@U?$pair@$$CBGPBUMULTI_ELEM@@@_STL@@@_STL@@QAE@XZ 00401700 f i multidef.obj
 0001:00000710       ??0?$allocator@U?$pair@$$CBGPAVMultiDef@@@_STL@@@_STL@@QAE@XZ 00401710 f i multidef.obj
 0001:00000720       ??1?$allocator@U?$pair@$$CBGPAVMultiDef@@@_STL@@@_STL@@QAE@XZ 00401720 f i multidef.obj
 0001:00000730       ??0?$pair@U?$_Rb_tree_iterator@GU?$_Const_traits@G@_STL@@@_STL@@_N@_STL@@QAE@ABU?$_Rb_tree_iterator@GU?$_Const_traits@G@_STL@@@1@AB_N@Z 00401730 f i multidef.obj
 0001:00000750       ??0?$_Rb_tree_iterator@U?$pair@$$CBGPAVMultiDef@@@_STL@@U?$_Nonconst_traits@U?$pair@$$CBGPAVMultiDef@@@_STL@@@2@@_STL@@QAE@ABU01@@Z 00401750 f i multidef.obj
 0001:00000760       ??D?$_Rb_tree_iterator@U?$pair@$$CBGPAVMultiDef@@@_STL@@U?$_Nonconst_traits@U?$pair@$$CBGPAVMultiDef@@@_STL@@@2@@_STL@@QBEAAU?$pair@$$CBGPAVMultiDef@@@1@XZ 00401760 f i multidef.obj
 0001:00000770       ??0?$pair@$$CBGPAVMultiDef@@@_STL@@QAE@ABGABQAVMultiDef@@@Z 00401770 f i multidef.obj
 0001:00000790       ??1?$_STLP_alloc_proxy@PADDV?$allocator@D@_STL@@@_STL@@QAE@XZ 00401790 f i multidef.obj
 0001:000007a0       ??1?$_STLP_alloc_proxy@PAUMULTI_ELEM@@U1@V?$allocator@UMULTI_ELEM@@@_STL@@@_STL@@QAE@XZ 004017a0 f i multidef.obj
 0001:000007b0       ??1?$_STLP_alloc_proxy@PAPBUMULTI_ELEM@@PBU1@V?$allocator@PBUMULTI_ELEM@@@_STL@@@_STL@@QAE@XZ 004017b0 f i multidef.obj
 0001:000007c0       ?_M_root@?$_Rb_tree@GU?$pair@$$CBGG@_STL@@U?$_Select1st@U?$pair@$$CBGG@_STL@@@2@U?$less@G@2@V?$allocator@U?$pair@$$CBGG@_STL@@@2@@_STL@@IBEAAPAU?$_Rb_tree_node@U?$pair@$$CBGG@_STL@@@2@XZ 004017c0 f i multidef.obj
 0001:000007d0       ?_M_leftmost@?$_Rb_tree@GU?$pair@$$CBGG@_STL@@U?$_Select1st@U?$pair@$$CBGG@_STL@@@2@U?$less@G@2@V?$allocator@U?$pair@$$CBGG@_STL@@@2@@_STL@@IBEAAPAU?$_Rb_tree_node@U?$pair@$$CBGG@_STL@@@2@XZ 004017d0 f i multidef.obj
 0001:000007e0       ?_M_rightmost@?$_Rb_tree@GU?$pair@$$CBGG@_STL@@U?$_Select1st@U?$pair@$$CBGG@_STL@@@2@U?$less@G@2@V?$allocator@U?$pair@$$CBGG@_STL@@@2@@_STL@@IBEAAPAU?$_Rb_tree_node@U?$pair@$$CBGG@_STL@@@2@XZ 004017e0 f i multidef.obj
 0001:000007f0       ??1?$allocator@U?$_Rb_tree_node@U?$pair@$$CBGG@_STL@@@_STL@@@_STL@@QAE@XZ 004017f0 f i multidef.obj
 0001:00000800       ?_M_set@?$vector@UMULTI_ELEM@@V?$allocator@UMULTI_ELEM@@@_STL@@@_STL@@IAEXPAUMULTI_ELEM@@00@Z 00401800 f i multidef.obj
 0001:00000820       ?size@?$vector@PBUMULTI_ELEM@@V?$allocator@PBUMULTI_ELEM@@@_STL@@@_STL@@QBEIXZ 00401820 f i multidef.obj
 0001:00000830       ?_M_set@?$vector@PBUMULTI_ELEM@@V?$allocator@PBUMULTI_ELEM@@@_STL@@@_STL@@IAEXPAPBUMULTI_ELEM@@00@Z 00401830 f i multidef.obj
 0001:00000850       ?_M_root@?$_Rb_tree@GGU?$_Identity@G@_STL@@U?$less@G@2@V?$allocator@G@2@@_STL@@IBEAAPAU?$_Rb_tree_node@G@2@XZ 00401850 f i multidef.obj
 0001:00000860       ?_M_leftmost@?$_Rb_tree@GGU?$_Identity@G@_STL@@U?$less@G@2@V?$allocator@G@2@@_STL@@IBEAAPAU?$_Rb_tree_node@G@2@XZ 00401860 f i multidef.obj
 0001:00000870       ?_M_rightmost@?$_Rb_tree@GGU?$_Identity@G@_STL@@U?$less@G@2@V?$allocator@G@2@@_STL@@IBEAAPAU?$_Rb_tree_node@G@2@XZ 00401870 f i multidef.obj
 0001:00000880       ??1?$allocator@U?$_Rb_tree_node@G@_STL@@@_STL@@QAE@XZ 00401880 f i multidef.obj
 0001:00000890       ?_M_root@?$_Rb_tree@GU?$pair@$$CBGPBUMULTI_ELEM@@@_STL@@U?$_Select1st@U?$pair@$$CBGPBUMULTI_ELEM@@@_STL@@@2@U?$less@G@2@V?$allocator@U?$pair@$$CBGPBUMULTI_ELEM@@@_STL@@@2@@_STL@@IBEAAPAU?$_Rb_tree_node@U?$pair@$$CBGPBUMULTI_ELEM@@@_STL@@@2@XZ 00401890 f i multidef.obj
 0001:000008a0       ?_M_leftmost@?$_Rb_tree@GU?$pair@$$CBGPBUMULTI_ELEM@@@_STL@@U?$_Select1st@U?$pair@$$CBGPBUMULTI_ELEM@@@_STL@@@2@U?$less@G@2@V?$allocator@U?$pair@$$CBGPBUMULTI_ELEM@@@_STL@@@2@@_STL@@IBEAAPAU?$_Rb_tree_node@U?$pair@$$CBGPBUMULTI_ELEM@@@_STL@@@2@XZ 004018a0 f i multidef.obj
 0001:000008b0       ?_M_rightmost@?$_Rb_tree@GU?$pair@$$CBGPBUMULTI_ELEM@@@_STL@@U?$_Select1st@U?$pair@$$CBGPBUMULTI_ELEM@@@_STL@@@2@U?$less@G@2@V?$allocator@U?$pair@$$CBGPBUMULTI_ELEM@@@_STL@@@2@@_STL@@IBEAAPAU?$_Rb_tree_node@U?$pair@$$CBGPBUMULTI_ELEM@@@_STL@@@2@XZ 004018b0 f i multidef.obj
 0001:000008c0       ??1?$allocator@U?$_Rb_tree_node@U?$pair@$$CBGPBUMULTI_ELEM@@@_STL@@@_STL@@@_STL@@QAE@XZ 004018c0 f i multidef.obj
 0001:000008d0       ?_M_root@?$_Rb_tree@GU?$pair@$$CBGPAVMultiDef@@@_STL@@U?$_Select1st@U?$pair@$$CBGPAVMultiDef@@@_STL@@@2@U?$less@G@2@V?$allocator@U?$pair@$$CBGPAVMultiDef@@@_STL@@@2@@_STL@@IBEAAPAU?$_Rb_tree_node@U?$pair@$$CBGPAVMultiDef@@@_STL@@@2@XZ 004018d0 f i multidef.obj
 0001:000008e0       ?_M_leftmost@?$_Rb_tree@GU?$pair@$$CBGPAVMultiDef@@@_STL@@U?$_Select1st@U?$pair@$$CBGPAVMultiDef@@@_STL@@@2@U?$less@G@2@V?$allocator@U?$pair@$$CBGPAVMultiDef@@@_STL@@@2@@_STL@@IBEAAPAU?$_Rb_tree_node@U?$pair@$$CBGPAVMultiDef@@@_STL@@@2@XZ 004018e0 f i multidef.obj
 0001:000008f0       ?_M_rightmost@?$_Rb_tree@GU?$pair@$$CBGPAVMultiDef@@@_STL@@U?$_Select1st@U?$pair@$$CBGPAVMultiDef@@@_STL@@@2@U?$less@G@2@V?$allocator@U?$pair@$$CBGPAVMultiDef@@@_STL@@@2@@_STL@@IBEAAPAU?$_Rb_tree_node@U?$pair@$$CBGPAVMultiDef@@@_STL@@@2@XZ 004018f0 f i multidef.obj
 0001:00000900       ?key_comp@?$_Rb_tree@GU?$pair@$$CBGPAVMultiDef@@@_STL@@U?$_Select1st@U?$pair@$$CBGPAVMultiDef@@@_STL@@@2@U?$less@G@2@V?$allocator@U?$pair@$$CBGPAVMultiDef@@@_STL@@@2@@_STL@@QBE?AU?$less@G@2@XZ 00401900 f i multidef.obj
 0001:00000910       ??1?$allocator@U?$_Rb_tree_node@U?$pair@$$CBGPAVMultiDef@@@_STL@@@_STL@@@_STL@@QAE@XZ 00401910 f i multidef.obj
 0001:00000920       ??0?$pair@U?$_Rb_tree_iterator@U?$pair@$$CBGPBUMULTI_ELEM@@@_STL@@U?$_Const_traits@U?$pair@$$CBGPBUMULTI_ELEM@@@_STL@@@2@@_STL@@U12@@_STL@@QAE@ABU?$_Rb_tree_iterator@U?$pair@$$CBGPBUMULTI_ELEM@@@_STL@@U?$_Const_traits@U?$pair@$$CBGPBUMULTI_ELEM@@@_STL@@@2@@1@0@Z 00401920 f i multidef.obj
 0001:00000940       ??0?$_Rb_tree_iterator@U?$pair@$$CBGPBUMULTI_ELEM@@@_STL@@U?$_Const_traits@U?$pair@$$CBGPBUMULTI_ELEM@@@_STL@@@2@@_STL@@QAE@PAU?$_Rb_tree_node@U?$pair@$$CBGPBUMULTI_ELEM@@@_STL@@@1@@Z 00401940 f i multidef.obj
 0001:00000950       ??0?$_Rb_tree_iterator@GU?$_Const_traits@G@_STL@@@_STL@@QAE@PAU?$_Rb_tree_node@G@1@@Z 00401950 f i multidef.obj
 0001:00000960       ??0?$_Rb_tree_iterator@U?$pair@$$CBGPAVMultiDef@@@_STL@@U?$_Const_traits@U?$pair@$$CBGPAVMultiDef@@@_STL@@@2@@_STL@@QAE@PAU?$_Rb_tree_node@U?$pair@$$CBGPAVMultiDef@@@_STL@@@1@@Z 00401960 f i multidef.obj
 0001:00000970       ??0?$_Rb_tree_iterator@U?$pair@$$CBGPAVMultiDef@@@_STL@@U?$_Nonconst_traits@U?$pair@$$CBGPAVMultiDef@@@_STL@@@2@@_STL@@QAE@PAU?$_Rb_tree_node@U?$pair@$$CBGPAVMultiDef@@@_STL@@@1@@Z 00401970 f i multidef.obj
 0001:00000980       ?rdbuf@?$basic_ios@DV?$char_traits@D@_STL@@@_STL@@QBEPAV?$basic_streambuf@DV?$char_traits@D@_STL@@@2@XZ 00401980 f i multidef.obj
 0001:00000990       ?_S_color@?$_Rb_tree@GU?$pair@$$CBGG@_STL@@U?$_Select1st@U?$pair@$$CBGG@_STL@@@2@U?$less@G@2@V?$allocator@U?$pair@$$CBGG@_STL@@@2@@_STL@@KAAA_NPAU?$_Rb_tree_node@U?$pair@$$CBGG@_STL@@@2@@Z 00401990 f i multidef.obj
 0001:000009a0       ??0?$allocator@UMULTI_ELEM@@@_STL@@QAE@ABV01@@Z 004019a0 f i multidef.obj
 0001:000009b0       ??0?$allocator@PBUMULTI_ELEM@@@_STL@@QAE@ABV01@@Z 004019b0 f i multidef.obj
 0001:000009c0       ?_S_color@?$_Rb_tree@GGU?$_Identity@G@_STL@@U?$less@G@2@V?$allocator@G@2@@_STL@@KAAA_NPAU?$_Rb_tree_node@G@2@@Z 004019c0 f i multidef.obj
 0001:000009d0       ?_S_color@?$_Rb_tree@GU?$pair@$$CBGPBUMULTI_ELEM@@@_STL@@U?$_Select1st@U?$pair@$$CBGPBUMULTI_ELEM@@@_STL@@@2@U?$less@G@2@V?$allocator@U?$pair@$$CBGPBUMULTI_ELEM@@@_STL@@@2@@_STL@@KAAA_NPAU?$_Rb_tree_node@U?$pair@$$CBGPBUMULTI_ELEM@@@_STL@@@2@@Z 004019d0 f i multidef.obj
 0001:000009e0       ?_S_color@?$_Rb_tree@GU?$pair@$$CBGPAVMultiDef@@@_STL@@U?$_Select1st@U?$pair@$$CBGPAVMultiDef@@@_STL@@@2@U?$less@G@2@V?$allocator@U?$pair@$$CBGPAVMultiDef@@@_STL@@@2@@_STL@@KAAA_NPAU?$_Rb_tree_node@U?$pair@$$CBGPAVMultiDef@@@_STL@@@2@@Z 004019e0 f i multidef.obj
 0001:000009f0       ?allocate@?$__node_alloc@$00$0A@@_STL@@SAPAXI@Z 004019f0 f i multidef.obj
 0001:00000a10       ?deallocate@?$__node_alloc@$00$0A@@_STL@@SAXPAXI@Z 00401a10 f i multidef.obj
 0001:00000a40       ??0?$allocator@U?$_Rb_tree_node@U?$pair@$$CBGG@_STL@@@_STL@@@_STL@@QAE@ABV01@@Z 00401a40 f i multidef.obj
 0001:00000a50       ??0?$allocator@U?$_Rb_tree_node@G@_STL@@@_STL@@QAE@ABV01@@Z 00401a50 f i multidef.obj
 0001:00000a60       ?_S_left@?$_Rb_tree@GU?$pair@$$CBGPBUMULTI_ELEM@@@_STL@@U?$_Select1st@U?$pair@$$CBGPBUMULTI_ELEM@@@_STL@@@2@U?$less@G@2@V?$allocator@U?$pair@$$CBGPBUMULTI_ELEM@@@_STL@@@2@@_STL@@KAAAPAU?$_Rb_tree_node@U?$pair@$$CBGPBUMULTI_ELEM@@@_STL@@@2@PAU32@@Z 00401a60 f i multidef.obj
 0001:00000a70       ?_S_right@?$_Rb_tree@GU?$pair@$$CBGPBUMULTI_ELEM@@@_STL@@U?$_Select1st@U?$pair@$$CBGPBUMULTI_ELEM@@@_STL@@@2@U?$less@G@2@V?$allocator@U?$pair@$$CBGPBUMULTI_ELEM@@@_STL@@@2@@_STL@@KAAAPAU?$_Rb_tree_node@U?$pair@$$CBGPBUMULTI_ELEM@@@_STL@@@2@PAU32@@Z 00401a70 f i multidef.obj
 0001:00000a80       ??0?$allocator@U?$_Rb_tree_node@U?$pair@$$CBGPBUMULTI_ELEM@@@_STL@@@_STL@@@_STL@@QAE@ABV01@@Z 00401a80 f i multidef.obj
 0001:00000a90       ?_S_left@?$_Rb_tree@GU?$pair@$$CBGPAVMultiDef@@@_STL@@U?$_Select1st@U?$pair@$$CBGPAVMultiDef@@@_STL@@@2@U?$less@G@2@V?$allocator@U?$pair@$$CBGPAVMultiDef@@@_STL@@@2@@_STL@@KAAAPAU?$_Rb_tree_node@U?$pair@$$CBGPAVMultiDef@@@_STL@@@2@PAU32@@Z 00401a90 f i multidef.obj
 0001:00000aa0       ?_S_right@?$_Rb_tree@GU?$pair@$$CBGPAVMultiDef@@@_STL@@U?$_Select1st@U?$pair@$$CBGPAVMultiDef@@@_STL@@@2@U?$less@G@2@V?$allocator@U?$pair@$$CBGPAVMultiDef@@@_STL@@@2@@_STL@@KAAAPAU?$_Rb_tree_node@U?$pair@$$CBGPAVMultiDef@@@_STL@@@2@PAU32@@Z 00401aa0 f i multidef.obj
 0001:00000ab0       ??0?$allocator@U?$_Rb_tree_node@U?$pair@$$CBGPAVMultiDef@@@_STL@@@_STL@@@_STL@@QAE@ABV01@@Z 00401ab0 f i multidef.obj
 0001:00000ac0       ?_S_value@?$_Rb_tree@GU?$pair@$$CBGPBUMULTI_ELEM@@@_STL@@U?$_Select1st@U?$pair@$$CBGPBUMULTI_ELEM@@@_STL@@@2@U?$less@G@2@V?$allocator@U?$pair@$$CBGPBUMULTI_ELEM@@@_STL@@@2@@_STL@@KAAAU?$pair@$$CBGPBUMULTI_ELEM@@@2@PAU?$_Rb_tree_node@U?$pair@$$CBGPBUMULTI_ELEM@@@_STL@@@2@@Z 00401ac0 f i multidef.obj
 0001:00000ad0       ?_S_value@?$_Rb_tree@GU?$pair@$$CBGPAVMultiDef@@@_STL@@U?$_Select1st@U?$pair@$$CBGPAVMultiDef@@@_STL@@@2@U?$less@G@2@V?$allocator@U?$pair@$$CBGPAVMultiDef@@@_STL@@@2@@_STL@@KAAAU?$pair@$$CBGPAVMultiDef@@@2@PAU?$_Rb_tree_node@U?$pair@$$CBGPAVMultiDef@@@_STL@@@2@@Z 00401ad0 f i multidef.obj
 0001:00000ae0       ??R?$_Select1st@U?$pair@$$CBGPBUMULTI_ELEM@@@_STL@@@_STL@@QBEABGABU?$pair@$$CBGPBUMULTI_ELEM@@@1@@Z 00401ae0 f i multidef.obj
 0001:00000af0       ??R?$_Select1st@U?$pair@$$CBGPAVMultiDef@@@_STL@@@_STL@@QBEABGABU?$pair@$$CBGPAVMultiDef@@@1@@Z 00401af0 f i multidef.obj
 0001:00000b00       ??$_Construct@UMULTI_ELEM@@U1@@_STL@@YAXPAUMULTI_ELEM@@ABU1@@Z 00401b00 f i multidef.obj
 0001:00000b20       ??$_Construct@PBUMULTI_ELEM@@PBU1@@_STL@@YAXPAPBUMULTI_ELEM@@ABQBU1@@Z 00401b20 f i multidef.obj
 0001:00000b40       ??$max@I@_STL@@YAABIABI0@Z 00401b40 f i multidef.obj
 0001:00000b60       ??$fill_n@PAPBUMULTI_ELEM@@IPBU1@@_STL@@YAPAPBUMULTI_ELEM@@PAPBU1@IABQBU1@@Z 00401b60 f i multidef.obj
 0001:00000b80       ??$?0U?$pair@$$CBGG@_STL@@@?$allocator@U?$_Rb_tree_node@U?$pair@$$CBGG@_STL@@@_STL@@@_STL@@QAE@ABV?$allocator@U?$pair@$$CBGG@_STL@@@1@@Z 00401b80 f i multidef.obj
 0001:00000b90       ??$?0G@?$allocator@U?$_Rb_tree_node@G@_STL@@@_STL@@QAE@ABV?$allocator@G@1@@Z 00401b90 f i multidef.obj
 0001:00000ba0       ??$?0U?$pair@$$CBGPBUMULTI_ELEM@@@_STL@@@?$allocator@U?$_Rb_tree_node@U?$pair@$$CBGPBUMULTI_ELEM@@@_STL@@@_STL@@@_STL@@QAE@ABV?$allocator@U?$pair@$$CBGPBUMULTI_ELEM@@@_STL@@@1@@Z 00401ba0 f i multidef.obj
 0001:00000bb0       ??$?0U?$pair@$$CBGPAVMultiDef@@@_STL@@@?$allocator@U?$_Rb_tree_node@U?$pair@$$CBGPAVMultiDef@@@_STL@@@_STL@@@_STL@@QAE@ABV?$allocator@U?$pair@$$CBGPAVMultiDef@@@_STL@@@1@@Z 00401bb0 f i multidef.obj
 0001:00000bc0       ?eq_int_type@?$__char_traits_base@DH@_STL@@SA_NABH0@Z 00401bc0 f i multidef.obj
 0001:00000be0       ?size@?$basic_string@DV?$char_traits@D@_STL@@V?$allocator@D@2@@_STL@@QBEIXZ 00401be0 f i multidef.obj
 0001:00000bf0       ?data@?$basic_string@DV?$char_traits@D@_STL@@V?$allocator@D@2@@_STL@@QBEPBDXZ 00401bf0 f i multidef.obj
 0001:00000c00       ?allocate@?$allocator@D@_STL@@QAEPADIPBX@Z 00401c00 f i multidef.obj
 0001:00000c30       ?_S_left@?$_Rb_tree@GU?$pair@$$CBGG@_STL@@U?$_Select1st@U?$pair@$$CBGG@_STL@@@2@U?$less@G@2@V?$allocator@U?$pair@$$CBGG@_STL@@@2@@_STL@@KAAAPAU?$_Rb_tree_node@U?$pair@$$CBGG@_STL@@@2@PAU32@@Z 00401c30 f i multidef.obj
 0001:00000c40       ?_S_right@?$_Rb_tree@GU?$pair@$$CBGG@_STL@@U?$_Select1st@U?$pair@$$CBGG@_STL@@@2@U?$less@G@2@V?$allocator@U?$pair@$$CBGG@_STL@@@2@@_STL@@KAAAPAU?$_Rb_tree_node@U?$pair@$$CBGG@_STL@@@2@PAU32@@Z 00401c40 f i multidef.obj
 0001:00000c50       ?_S_left@?$_Rb_tree@GGU?$_Identity@G@_STL@@U?$less@G@2@V?$allocator@G@2@@_STL@@KAAAPAU?$_Rb_tree_node@G@2@PAU32@@Z 00401c50 f i multidef.obj
 0001:00000c60       ?_S_right@?$_Rb_tree@GGU?$_Identity@G@_STL@@U?$less@G@2@V?$allocator@G@2@@_STL@@KAAAPAU?$_Rb_tree_node@G@2@PAU32@@Z 00401c60 f i multidef.obj
 0001:00000c70       ?_S_right@?$_Rb_tree@GU?$pair@$$CBGPAVMultiDef@@@_STL@@U?$_Select1st@U?$pair@$$CBGPAVMultiDef@@@_STL@@@2@U?$less@G@2@V?$allocator@U?$pair@$$CBGPAVMultiDef@@@_STL@@@2@@_STL@@KAAAPAU?$_Rb_tree_node@U?$pair@$$CBGPAVMultiDef@@@_STL@@@2@PAU_Rb_tree_node_base@2@@Z 00401c70 f i multidef.obj
 0001:00000c80       ?_S_key@?$_Rb_tree@GU?$pair@$$CBGPAVMultiDef@@@_STL@@U?$_Select1st@U?$pair@$$CBGPAVMultiDef@@@_STL@@@2@U?$less@G@2@V?$allocator@U?$pair@$$CBGPAVMultiDef@@@_STL@@@2@@_STL@@KAABGPAU_Rb_tree_node_base@2@@Z 00401c80 f i multidef.obj
 0001:00000c90       ?size@?$_Rb_tree@GU?$pair@$$CBGPAVMultiDef@@@_STL@@U?$_Select1st@U?$pair@$$CBGPAVMultiDef@@@_STL@@@2@U?$less@G@2@V?$allocator@U?$pair@$$CBGPAVMultiDef@@@_STL@@@2@@_STL@@QBEIXZ 00401c90 f i multidef.obj
 0001:00000ca0       ??E?$_Rb_tree_iterator@U?$pair@$$CBGPAVMultiDef@@@_STL@@U?$_Nonconst_traits@U?$pair@$$CBGPAVMultiDef@@@_STL@@@2@@_STL@@QAEAAU01@XZ 00401ca0 f i multidef.obj
 0001:00000cc0       ??F?$_Rb_tree_iterator@U?$pair@$$CBGPAVMultiDef@@@_STL@@U?$_Nonconst_traits@U?$pair@$$CBGPAVMultiDef@@@_STL@@@2@@_STL@@QAEAAU01@XZ 00401cc0 f i multidef.obj
 0001:00000ce0       ??0?$_Rb_tree_iterator@GU?$_Nonconst_traits@G@_STL@@@_STL@@QAE@PAU?$_Rb_tree_node@G@1@@Z 00401ce0 f i multidef.obj
 0001:00000cf0       ??F?$_Rb_tree_iterator@GU?$_Nonconst_traits@G@_STL@@@_STL@@QAEAAU01@XZ 00401cf0 f i multidef.obj
 0001:00000d10       ??R?$_Identity@G@_STL@@QBEABGABG@Z 00401d10 f i multidef.obj
 0001:00000d20       ??1sentry@?$basic_istream@DV?$char_traits@D@_STL@@@_STL@@QAE@XZ 00401d20 f i multidef.obj
 0001:00000d30       ??Bsentry@?$basic_istream@DV?$char_traits@D@_STL@@@_STL@@QBE_NXZ 00401d30 f i multidef.obj
 0001:00000d40       ?get@?$num_get@DV?$istreambuf_iterator@DV?$char_traits@D@_STL@@@_STL@@@_STL@@QBE?AV?$istreambuf_iterator@DV?$char_traits@D@_STL@@@2@V32@0AAVios_base@2@AAHAAJ@Z 00401d40 f i multidef.obj
 0001:00000d80       ?get@?$num_get@DV?$istreambuf_iterator@DV?$char_traits@D@_STL@@@_STL@@@_STL@@QBE?AV?$istreambuf_iterator@DV?$char_traits@D@_STL@@@2@V32@0AAVios_base@2@AAHAAG@Z 00401d80 f i multidef.obj
 0001:00000dc0       ?_M_terminate_string_aux@?$basic_string@DV?$char_traits@D@_STL@@V?$allocator@D@2@@_STL@@AAEXABU__true_type@2@@Z 00401dc0 f i multidef.obj
 0001:00000dd0       ??0?$allocator@D@_STL@@QAE@ABV01@@Z 00401dd0 f i multidef.obj
 0001:00000de0       ??0?$_STLP_alloc_proxy@PADDV?$allocator@D@_STL@@@_STL@@QAE@ABV?$allocator@D@1@PAD@Z 00401de0 f i multidef.obj
 0001:00000df0       ?_S_value@?$_Rb_tree@GGU?$_Identity@G@_STL@@U?$less@G@2@V?$allocator@G@2@@_STL@@KAAAGPAU?$_Rb_tree_node@G@2@@Z 00401df0 f i multidef.obj
 0001:00000e00       ??0?$_Rb_tree_iterator@GU?$_Nonconst_traits@G@_STL@@@_STL@@QAE@ABU01@@Z 00401e00 f i multidef.obj
 0001:00000e10       ?_M_init@?$istreambuf_iterator@DV?$char_traits@D@_STL@@@_STL@@AAEXPAV?$basic_streambuf@DV?$char_traits@D@_STL@@@2@@Z 00401e10 f i multidef.obj
 0001:00000e30       ?_M_construct_null_aux@?$basic_string@DV?$char_traits@D@_STL@@V?$allocator@D@2@@_STL@@AAEXPADABU__true_type@2@@Z 00401e30 f i multidef.obj
 0001:00000e40       ??$_Destroy@U?$pair@$$CBGG@_STL@@@_STL@@YAXPAU?$pair@$$CBGG@0@@Z 00401e40 f i multidef.obj
 0001:00000e50       ??$_Destroy@G@_STL@@YAXPAG@Z 00401e50 f i multidef.obj
 0001:00000e60       ??$_Destroy@U?$pair@$$CBGPBUMULTI_ELEM@@@_STL@@@_STL@@YAXPAU?$pair@$$CBGPBUMULTI_ELEM@@@0@@Z 00401e60 f i multidef.obj
 0001:00000e70       ??$_Destroy@U?$pair@$$CBGPAVMultiDef@@@_STL@@@_STL@@YAXPAU?$pair@$$CBGPAVMultiDef@@@0@@Z 00401e70 f i multidef.obj
 0001:00000e80       ??0?$basic_ios@DV?$char_traits@D@_STL@@@_STL@@IAE@XZ 00401e80 f i multidef.obj
 0001:00000ea0       ?_M_handle_exception@?$basic_ios@DV?$char_traits@D@_STL@@@_STL@@QAEXH@Z 00401ea0 f i multidef.obj
 0001:00000ec0       ??$use_facet@V?$num_get@DV?$istreambuf_iterator@DV?$char_traits@D@_STL@@@_STL@@@_STL@@@_STL@@YAABV?$num_get@DV?$istreambuf_iterator@DV?$char_traits@D@_STL@@@_STL@@@0@ABVlocale@0@@Z 00401ec0 f i multidef.obj
 0001:00000ed0       ?end@?$basic_string@DV?$char_traits@D@_STL@@V?$allocator@D@2@@_STL@@QAEPADXZ 00401ed0 f i multidef.obj
 0001:00000ee0       ?capacity@?$basic_string@DV?$char_traits@D@_STL@@V?$allocator@D@2@@_STL@@QBEIXZ 00401ee0 f i multidef.obj
 0001:00000ef0       ?max_size@?$_String_base@DV?$allocator@D@_STL@@@_STL@@QBEIXZ 00401ef0 f i multidef.obj
 0001:00000f00       ?tie@?$basic_ios@DV?$char_traits@D@_STL@@@_STL@@QBEPAV?$basic_ostream@DV?$char_traits@D@_STL@@@2@XZ 00401f00 f i multidef.obj
 0001:00000f10       ?tie@?$basic_ios@DV?$char_traits@D@_STL@@@_STL@@QAEPAV?$basic_ostream@DV?$char_traits@D@_STL@@@2@PAV32@@Z 00401f10 f i multidef.obj
 0001:00000f20       ?fill@?$basic_ios@DV?$char_traits@D@_STL@@@_STL@@QAEDD@Z 00401f20 f i multidef.obj
 0001:00000f30       ?_S_parent@?$_Rb_tree@GGU?$_Identity@G@_STL@@U?$less@G@2@V?$allocator@G@2@@_STL@@KAAAPAU?$_Rb_tree_node@G@2@PAU32@@Z 00401f30 f i multidef.obj
 0001:00000f40       ?_S_parent@?$_Rb_tree@GU?$pair@$$CBGPBUMULTI_ELEM@@@_STL@@U?$_Select1st@U?$pair@$$CBGPBUMULTI_ELEM@@@_STL@@@2@U?$less@G@2@V?$allocator@U?$pair@$$CBGPBUMULTI_ELEM@@@_STL@@@2@@_STL@@KAAAPAU?$_Rb_tree_node@U?$pair@$$CBGPBUMULTI_ELEM@@@_STL@@@2@PAU32@@Z 00401f40 f i multidef.obj
 0001:00000f50       ?_S_parent@?$_Rb_tree@GU?$pair@$$CBGPAVMultiDef@@@_STL@@U?$_Select1st@U?$pair@$$CBGPAVMultiDef@@@_STL@@@2@U?$less@G@2@V?$allocator@U?$pair@$$CBGPAVMultiDef@@@_STL@@@2@@_STL@@KAAAPAU?$_Rb_tree_node@U?$pair@$$CBGPAVMultiDef@@@_STL@@@2@PAU32@@Z 00401f50 f i multidef.obj
 0001:00000f60       ?begin@?$_Rb_tree@GU?$pair@$$CBGPAVMultiDef@@@_STL@@U?$_Select1st@U?$pair@$$CBGPAVMultiDef@@@_STL@@@2@U?$less@G@2@V?$allocator@U?$pair@$$CBGPAVMultiDef@@@_STL@@@2@@_STL@@QAE?AU?$_Rb_tree_iterator@U?$pair@$$CBGPAVMultiDef@@@_STL@@U?$_Nonconst_traits@U?$pair@$$CBGPAVMultiDef@@@_STL@@@2@@2@XZ 00401f60 f i multidef.obj
 0001:00000f70       ??0?$_Rb_tree_iterator@U?$pair@$$CBGPBUMULTI_ELEM@@@_STL@@U?$_Nonconst_traits@U?$pair@$$CBGPBUMULTI_ELEM@@@_STL@@@2@@_STL@@QAE@PAU?$_Rb_tree_node@U?$pair@$$CBGPBUMULTI_ELEM@@@_STL@@@1@@Z 00401f70 f i multidef.obj
 0001:00000f80       ??0?$pair@U?$_Rb_tree_iterator@U?$pair@$$CBGPAVMultiDef@@@_STL@@U?$_Nonconst_traits@U?$pair@$$CBGPAVMultiDef@@@_STL@@@2@@_STL@@_N@_STL@@QAE@ABU?$_Rb_tree_iterator@U?$pair@$$CBGPAVMultiDef@@@_STL@@U?$_Nonconst_traits@U?$pair@$$CBGPAVMultiDef@@@_STL@@@2@@1@AB_N@Z 00401f80 f i multidef.obj
 0001:00000fa0       ?_M_throw_length_error@?$_String_base@DV?$allocator@D@_STL@@@_STL@@QBEXXZ 00401fa0 f i multidef.obj
 0001:00000fb0       ?_M_set_ptrs@?$basic_stringbuf@DV?$char_traits@D@_STL@@V?$allocator@D@2@@_STL@@AAEXXZ 00401fb0 f i multidef.obj
 0001:00001010       ?widen@?$basic_ios@DV?$char_traits@D@_STL@@@_STL@@QBEDD@Z 00402010 f i multidef.obj
 0001:00001020       ??$__destroy_aux@PAPBUMULTI_ELEM@@@_STL@@YAXPAPBUMULTI_ELEM@@0ABU__true_type@0@@Z 00402020 f i multidef.obj
 0001:00001030       ??$_Construct@GG@_STL@@YAXPAGABG@Z 00402030 f i multidef.obj
 0001:00001050       ??E?$_Rb_tree_iterator@U?$pair@$$CBGPBUMULTI_ELEM@@@_STL@@U?$_Const_traits@U?$pair@$$CBGPBUMULTI_ELEM@@@_STL@@@2@@_STL@@QAEAAU01@XZ 00402050 f i multidef.obj
 0001:00001070       ??0?$pair@$$CBGPBUMULTI_ELEM@@@_STL@@QAE@ABU01@@Z 00402070 f i multidef.obj
 0001:00001090       ??0?$pair@$$CBGPAVMultiDef@@@_STL@@QAE@ABU01@@Z 00402090 f i multidef.obj
 0001:000010b0       ??0?$_Is_not_wspace@V?$char_traits@D@_STL@@@_STL@@QAE@PBV?$ctype@D@1@@Z 004020b0 f i multidef.obj
 0001:000010c0       ??0?$_Scan_for_not_wspace@V?$char_traits@D@_STL@@@_STL@@QAE@PBV?$ctype@D@1@@Z 004020c0 f i multidef.obj
 0001:000010d0       ??$_Destroy@UMULTI_ELEM@@@_STL@@YAXPAUMULTI_ELEM@@@Z 004020d0 f i multidef.obj
 0001:000010e0       ?_S_eof@?$basic_ios@DV?$char_traits@D@_STL@@@_STL@@SA_NH@Z 004020e0 f i multidef.obj
 0001:000010f0       ??R?$_Is_not_wspace@V?$char_traits@D@_STL@@@_STL@@QBE_ND@Z 004020f0 f i multidef.obj
 0001:00001110       ??R?$_Scan_for_not_wspace@V?$char_traits@D@_STL@@@_STL@@QBEPBDPBD0@Z 00402110 f i multidef.obj
 0001:00001130       ?_Ret@?$_BothPtrType@PADPAD@_STL@@SA?AU__true_type@2@XZ 00402130 f i multidef.obj
 0001:00001140       ??$__distance@PBD@_STL@@YAHABQBD0ABUrandom_access_iterator_tag@0@@Z 00402140 f i multidef.obj
 0001:00001150       ?_Ret@?$_OKToMemCpy@DD@_STL@@SA?AU__true_type@2@XZ 00402150 f i multidef.obj
 0001:00001160       ?move@?$__char_traits_base@DH@_STL@@SAPADPADPBDI@Z 00402160 f i multidef.obj
 0001:00001180       ??$__distance@PAD@_STL@@YAHABQAD0ABUrandom_access_iterator_tag@0@@Z 00402180 f i multidef.obj
 0001:00001190       ??$_IsOKToMemCpy@DD@_STL@@YA?AU?$_OKToMemCpy@DD@0@PAD0@Z 00402190 f i multidef.obj
 0001:000011a0       ??$__copy_ptrs@PADPAD@_STL@@YAPADPAD00ABU__true_type@0@@Z 004021a0 f i multidef.obj
 0001:000011d0       ??Bios_base@_STL@@QBEPAXXZ 004021d0 f i multidef.obj
 0001:000011e0       ??A?$vector@UMULTI_ELEM@@V?$allocator@UMULTI_ELEM@@@_STL@@@_STL@@QAEAAUMULTI_ELEM@@I@Z 004021e0 f i multidef.obj
 0001:000011f0       ??_G?$basic_istream@DV?$char_traits@D@_STL@@@_STL@@UAEPAXI@Z 004021f0 f i multidef.obj
 0001:000011f0       ??_E?$basic_istream@DV?$char_traits@D@_STL@@@_STL@@UAEPAXI@Z 004021f0 f i multidef.obj
 0001:00001220       ?end@?$_Rb_tree@GGU?$_Identity@G@_STL@@U?$less@G@2@V?$allocator@G@2@@_STL@@QBE?AU?$_Rb_tree_iterator@GU?$_Const_traits@G@_STL@@@2@XZ 00402220 f i multidef.obj
 0001:00001230       ?end@?$_Rb_tree@GU?$pair@$$CBGPBUMULTI_ELEM@@@_STL@@U?$_Select1st@U?$pair@$$CBGPBUMULTI_ELEM@@@_STL@@@2@U?$less@G@2@V?$allocator@U?$pair@$$CBGPBUMULTI_ELEM@@@_STL@@@2@@_STL@@QBE?AU?$_Rb_tree_iterator@U?$pair@$$CBGPBUMULTI_ELEM@@@_STL@@U?$_Const_traits@U?$pair@$$CBGPBUMULTI_ELEM@@@_STL@@@2@@2@XZ 00402230 f i multidef.obj
 0001:00001240       ?key_comp@?$map@GPAVMultiDef@@U?$less@G@_STL@@V?$allocator@U?$pair@$$CBGPAVMultiDef@@@_STL@@@3@@_STL@@QBE?AU?$less@G@2@XZ 00402240 f i multidef.obj
 0001:00001250       ?end@?$_Rb_tree@GU?$pair@$$CBGPAVMultiDef@@@_STL@@U?$_Select1st@U?$pair@$$CBGPAVMultiDef@@@_STL@@@2@U?$less@G@2@V?$allocator@U?$pair@$$CBGPAVMultiDef@@@_STL@@@2@@_STL@@QAE?AU?$_Rb_tree_iterator@U?$pair@$$CBGPAVMultiDef@@@_STL@@U?$_Nonconst_traits@U?$pair@$$CBGPAVMultiDef@@@_STL@@@2@@2@XZ 00402250 f i multidef.obj
 0001:00001260       ?end@?$_Rb_tree@GU?$pair@$$CBGPAVMultiDef@@@_STL@@U?$_Select1st@U?$pair@$$CBGPAVMultiDef@@@_STL@@@2@U?$less@G@2@V?$allocator@U?$pair@$$CBGPAVMultiDef@@@_STL@@@2@@_STL@@QBE?AU?$_Rb_tree_iterator@U?$pair@$$CBGPAVMultiDef@@@_STL@@U?$_Const_traits@U?$pair@$$CBGPAVMultiDef@@@_STL@@@2@@2@XZ 00402260 f i multidef.obj
 0001:00001270       ??1?$_STLP_alloc_proxy@PAU?$_Rb_tree_node@U?$pair@$$CBGG@_STL@@@_STL@@U12@V?$allocator@U?$_Rb_tree_node@U?$pair@$$CBGG@_STL@@@_STL@@@2@@_STL@@QAE@XZ 00402270 f i multidef.obj
 0001:00001280       ??1?$_STLP_alloc_proxy@PAU?$_Rb_tree_node@G@_STL@@U12@V?$allocator@U?$_Rb_tree_node@G@_STL@@@2@@_STL@@QAE@XZ 00402280 f i multidef.obj
 0001:00001290       ??1?$_STLP_alloc_proxy@PAU?$_Rb_tree_node@U?$pair@$$CBGPBUMULTI_ELEM@@@_STL@@@_STL@@U12@V?$allocator@U?$_Rb_tree_node@U?$pair@$$CBGPBUMULTI_ELEM@@@_STL@@@_STL@@@2@@_STL@@QAE@XZ 00402290 f i multidef.obj
 0001:000012a0       ??1?$_STLP_alloc_proxy@PAU?$_Rb_tree_node@U?$pair@$$CBGPAVMultiDef@@@_STL@@@_STL@@U12@V?$allocator@U?$_Rb_tree_node@U?$pair@$$CBGPAVMultiDef@@@_STL@@@_STL@@@2@@_STL@@QAE@XZ 004022a0 f i multidef.obj
 0001:000012b0       ?clear@?$basic_ios@DV?$char_traits@D@_STL@@@_STL@@QAEXH@Z 004022b0 f i multidef.obj
 0001:000012d0       ?_M_empty_initialize@?$_Rb_tree@GU?$pair@$$CBGG@_STL@@U?$_Select1st@U?$pair@$$CBGG@_STL@@@2@U?$less@G@2@V?$allocator@U?$pair@$$CBGG@_STL@@@2@@_STL@@AAEXXZ 004022d0 f i multidef.obj
 0001:000012f0       ?deallocate@?$allocator@U?$_Rb_tree_node@U?$pair@$$CBGG@_STL@@@_STL@@@_STL@@QAEXPAU?$_Rb_tree_node@U?$pair@$$CBGG@_STL@@@2@I@Z 004022f0 f i multidef.obj
 0001:00001330       ?allocate@?$allocator@UMULTI_ELEM@@@_STL@@QAEPAUMULTI_ELEM@@IPBX@Z 00402330 f i multidef.obj
 0001:00001360       ?deallocate@?$allocator@UMULTI_ELEM@@@_STL@@QAEXPAUMULTI_ELEM@@I@Z 00402360 f i multidef.obj
 0001:000013a0       ??0?$_STLP_alloc_proxy@PAUMULTI_ELEM@@U1@V?$allocator@UMULTI_ELEM@@@_STL@@@_STL@@QAE@ABV?$allocator@UMULTI_ELEM@@@1@PAUMULTI_ELEM@@@Z 004023a0 f i multidef.obj
 0001:000013b0       ?allocate@?$allocator@PBUMULTI_ELEM@@@_STL@@QAEPAPBUMULTI_ELEM@@IPBX@Z 004023b0 f i multidef.obj
 0001:000013e0       ?deallocate@?$allocator@PBUMULTI_ELEM@@@_STL@@QAEXPAPBUMULTI_ELEM@@I@Z 004023e0 f i multidef.obj
 0001:00001410       ??0?$_STLP_alloc_proxy@PAPBUMULTI_ELEM@@PBU1@V?$allocator@PBUMULTI_ELEM@@@_STL@@@_STL@@QAE@ABV?$allocator@PBUMULTI_ELEM@@@1@PAPBUMULTI_ELEM@@@Z 00402410 f i multidef.obj
 0001:00001420       ?_M_empty_initialize@?$_Rb_tree@GGU?$_Identity@G@_STL@@U?$less@G@2@V?$allocator@G@2@@_STL@@AAEXXZ 00402420 f i multidef.obj
 0001:00001440       ?deallocate@?$allocator@U?$_Rb_tree_node@G@_STL@@@_STL@@QAEXPAU?$_Rb_tree_node@G@2@I@Z 00402440 f i multidef.obj
 0001:00001480       ?_M_empty_initialize@?$_Rb_tree@GU?$pair@$$CBGPBUMULTI_ELEM@@@_STL@@U?$_Select1st@U?$pair@$$CBGPBUMULTI_ELEM@@@_STL@@@2@U?$less@G@2@V?$allocator@U?$pair@$$CBGPBUMULTI_ELEM@@@_STL@@@2@@_STL@@AAEXXZ 00402480 f i multidef.obj
 0001:000014a0       ?deallocate@?$allocator@U?$_Rb_tree_node@U?$pair@$$CBGPBUMULTI_ELEM@@@_STL@@@_STL@@@_STL@@QAEXPAU?$_Rb_tree_node@U?$pair@$$CBGPBUMULTI_ELEM@@@_STL@@@2@I@Z 004024a0 f i multidef.obj
 0001:000014e0       ?_M_empty_initialize@?$_Rb_tree@GU?$pair@$$CBGPAVMultiDef@@@_STL@@U?$_Select1st@U?$pair@$$CBGPAVMultiDef@@@_STL@@@2@U?$less@G@2@V?$allocator@U?$pair@$$CBGPAVMultiDef@@@_STL@@@2@@_STL@@AAEXXZ 004024e0 f i multidef.obj
 0001:00001500       ?deallocate@?$allocator@U?$_Rb_tree_node@U?$pair@$$CBGPAVMultiDef@@@_STL@@@_STL@@@_STL@@QAEXPAU?$_Rb_tree_node@U?$pair@$$CBGPAVMultiDef@@@_STL@@@2@I@Z 00402500 f i multidef.obj
 0001:00001540       ?deallocate@?$allocator@D@_STL@@QAEXPADI@Z 00402540 f i multidef.obj
 0001:00001570       ??0?$_STLP_alloc_proxy@PAU?$_Rb_tree_node@U?$pair@$$CBGG@_STL@@@_STL@@U12@V?$allocator@U?$_Rb_tree_node@U?$pair@$$CBGG@_STL@@@_STL@@@2@@_STL@@QAE@ABV?$allocator@U?$_Rb_tree_node@U?$pair@$$CBGG@_STL@@@_STL@@@1@PAU?$_Rb_tree_node@U?$pair@$$CBGG@_STL@@@1@@Z 00402570 f i multidef.obj
 0001:00001580       ?allocate@?$allocator@U?$_Rb_tree_node@U?$pair@$$CBGG@_STL@@@_STL@@@_STL@@QAEPAU?$_Rb_tree_node@U?$pair@$$CBGG@_STL@@@2@IPBX@Z 00402580 f i multidef.obj
 0001:000015c0       ??0?$_STLP_alloc_proxy@PAU?$_Rb_tree_node@G@_STL@@U12@V?$allocator@U?$_Rb_tree_node@G@_STL@@@2@@_STL@@QAE@ABV?$allocator@U?$_Rb_tree_node@G@_STL@@@1@PAU?$_Rb_tree_node@G@1@@Z 004025c0 f i multidef.obj
 0001:000015d0       ?allocate@?$allocator@U?$_Rb_tree_node@G@_STL@@@_STL@@QAEPAU?$_Rb_tree_node@G@2@IPBX@Z 004025d0 f i multidef.obj
 0001:00001610       ??0?$_STLP_alloc_proxy@PAU?$_Rb_tree_node@U?$pair@$$CBGPBUMULTI_ELEM@@@_STL@@@_STL@@U12@V?$allocator@U?$_Rb_tree_node@U?$pair@$$CBGPBUMULTI_ELEM@@@_STL@@@_STL@@@2@@_STL@@QAE@ABV?$allocator@U?$_Rb_tree_node@U?$pair@$$CBGPBUMULTI_ELEM@@@_STL@@@_STL@@@1@PAU?$_Rb_tree_node@U?$pair@$$CBGPBUMULTI_ELEM@@@_STL@@@1@@Z 00402610 f i multidef.obj
 0001:00001620       ?allocate@?$allocator@U?$_Rb_tree_node@U?$pair@$$CBGPBUMULTI_ELEM@@@_STL@@@_STL@@@_STL@@QAEPAU?$_Rb_tree_node@U?$pair@$$CBGPBUMULTI_ELEM@@@_STL@@@2@IPBX@Z 00402620 f i multidef.obj
 0001:00001660       ??0?$_STLP_alloc_proxy@PAU?$_Rb_tree_node@U?$pair@$$CBGPAVMultiDef@@@_STL@@@_STL@@U12@V?$allocator@U?$_Rb_tree_node@U?$pair@$$CBGPAVMultiDef@@@_STL@@@_STL@@@2@@_STL@@QAE@ABV?$allocator@U?$_Rb_tree_node@U?$pair@$$CBGPAVMultiDef@@@_STL@@@_STL@@@1@PAU?$_Rb_tree_node@U?$pair@$$CBGPAVMultiDef@@@_STL@@@1@@Z 00402660 f i multidef.obj
 0001:00001670       ?allocate@?$allocator@U?$_Rb_tree_node@U?$pair@$$CBGPAVMultiDef@@@_STL@@@_STL@@@_STL@@QAEPAU?$_Rb_tree_node@U?$pair@$$CBGPAVMultiDef@@@_STL@@@2@IPBX@Z 00402670 f i multidef.obj
 0001:000016b0       ?_S_key@?$_Rb_tree@GU?$pair@$$CBGPBUMULTI_ELEM@@@_STL@@U?$_Select1st@U?$pair@$$CBGPBUMULTI_ELEM@@@_STL@@@2@U?$less@G@2@V?$allocator@U?$pair@$$CBGPBUMULTI_ELEM@@@_STL@@@2@@_STL@@KAABGPAU?$_Rb_tree_node@U?$pair@$$CBGPBUMULTI_ELEM@@@_STL@@@2@@Z 004026b0 f i multidef.obj
 0001:000016c0       ?_S_key@?$_Rb_tree@GU?$pair@$$CBGPAVMultiDef@@@_STL@@U?$_Select1st@U?$pair@$$CBGPAVMultiDef@@@_STL@@@2@U?$less@G@2@V?$allocator@U?$pair@$$CBGPAVMultiDef@@@_STL@@@2@@_STL@@KAABGPAU?$_Rb_tree_node@U?$pair@$$CBGPAVMultiDef@@@_STL@@@2@@Z 004026c0 f i multidef.obj
 0001:000016d0       ?_M_erase@?$_Rb_tree@GU?$pair@$$CBGG@_STL@@U?$_Select1st@U?$pair@$$CBGG@_STL@@@2@U?$less@G@2@V?$allocator@U?$pair@$$CBGG@_STL@@@2@@_STL@@AAEXPAU?$_Rb_tree_node@U?$pair@$$CBGG@_STL@@@2@@Z 004026d0 f i multidef.obj
 0001:00001710       ?_M_erase@?$_Rb_tree@GGU?$_Identity@G@_STL@@U?$less@G@2@V?$allocator@G@2@@_STL@@AAEXPAU?$_Rb_tree_node@G@2@@Z 00402710 f i multidef.obj
 0001:00001750       ?_M_erase@?$_Rb_tree@GU?$pair@$$CBGPBUMULTI_ELEM@@@_STL@@U?$_Select1st@U?$pair@$$CBGPBUMULTI_ELEM@@@_STL@@@2@U?$less@G@2@V?$allocator@U?$pair@$$CBGPBUMULTI_ELEM@@@_STL@@@2@@_STL@@AAEXPAU?$_Rb_tree_node@U?$pair@$$CBGPBUMULTI_ELEM@@@_STL@@@2@@Z 00402750 f i multidef.obj
 0001:00001790       ?_M_erase@?$_Rb_tree@GU?$pair@$$CBGPAVMultiDef@@@_STL@@U?$_Select1st@U?$pair@$$CBGPAVMultiDef@@@_STL@@@2@U?$less@G@2@V?$allocator@U?$pair@$$CBGPAVMultiDef@@@_STL@@@2@@_STL@@AAEXPAU?$_Rb_tree_node@U?$pair@$$CBGPAVMultiDef@@@_STL@@@2@@Z 00402790 f i multidef.obj
 0001:000017d0       ?get_allocator@?$basic_string@DV?$char_traits@D@_STL@@V?$allocator@D@2@@_STL@@QBE?AV?$allocator@D@2@XZ 004027d0 f i multidef.obj
 0001:000017e0       ?_M_terminate_string@?$basic_string@DV?$char_traits@D@_STL@@V?$allocator@D@2@@_STL@@AAEXXZ 004027e0 f i multidef.obj
 0001:000017f0       ??0?$_String_base@DV?$allocator@D@_STL@@@_STL@@QAE@ABV?$allocator@D@1@@Z 004027f0 f i multidef.obj
 0001:00001820       ?_S_key@?$_Rb_tree@GGU?$_Identity@G@_STL@@U?$less@G@2@V?$allocator@G@2@@_STL@@KAABGPAU?$_Rb_tree_node@G@2@@Z 00402820 f i multidef.obj
 0001:00001830       ?_S_key@?$_Rb_tree@GGU?$_Identity@G@_STL@@U?$less@G@2@V?$allocator@G@2@@_STL@@KAABGPAU_Rb_tree_node_base@2@@Z 00402830 f i multidef.obj
 0001:00001840       ?begin@?$_Rb_tree@GGU?$_Identity@G@_STL@@U?$less@G@2@V?$allocator@G@2@@_STL@@QAE?AU?$_Rb_tree_iterator@GU?$_Nonconst_traits@G@_STL@@@2@XZ 00402840 f i multidef.obj
 0001:00001850       ??0?$pair@U?$_Rb_tree_iterator@GU?$_Nonconst_traits@G@_STL@@@_STL@@_N@_STL@@QAE@ABU?$_Rb_tree_iterator@GU?$_Nonconst_traits@G@_STL@@@1@AB_N@Z 00402850 f i multidef.obj
 0001:00001870       ??0?$istreambuf_iterator@DV?$char_traits@D@_STL@@@_STL@@QAE@PAV?$basic_streambuf@DV?$char_traits@D@_STL@@@1@@Z 00402870 f i multidef.obj
 0001:00001890       ?_M_construct_null@?$basic_string@DV?$char_traits@D@_STL@@V?$allocator@D@2@@_STL@@AAEXPAD@Z 00402890 f i multidef.obj
 0001:000018a0       ?_M_allocate_block@?$_String_base@DV?$allocator@D@_STL@@@_STL@@QAEXI@Z 004028a0 f i multidef.obj
 0001:00001900       ??$__destroy@PAPBUMULTI_ELEM@@PBU1@@_STL@@YAXPAPBUMULTI_ELEM@@00@Z 00402900 f i multidef.obj
 0001:00001910       ??$_M_find@G@?$_Rb_tree@GGU?$_Identity@G@_STL@@U?$less@G@2@V?$allocator@G@2@@_STL@@ABEPAU?$_Rb_tree_node@G@1@ABG@Z 00402910 f i multidef.obj
 0001:00001950       ??$_M_find@G@?$_Rb_tree@GU?$pair@$$CBGPBUMULTI_ELEM@@@_STL@@U?$_Select1st@U?$pair@$$CBGPBUMULTI_ELEM@@@_STL@@@2@U?$less@G@2@V?$allocator@U?$pair@$$CBGPBUMULTI_ELEM@@@_STL@@@2@@_STL@@ABEPAU?$_Rb_tree_node@U?$pair@$$CBGPBUMULTI_ELEM@@@_STL@@@1@ABG@Z 00402950 f i multidef.obj
 0001:00001990       ??$_M_find@G@?$_Rb_tree@GU?$pair@$$CBGPAVMultiDef@@@_STL@@U?$_Select1st@U?$pair@$$CBGPAVMultiDef@@@_STL@@@2@U?$less@G@2@V?$allocator@U?$pair@$$CBGPAVMultiDef@@@_STL@@@2@@_STL@@ABEPAU?$_Rb_tree_node@U?$pair@$$CBGPAVMultiDef@@@_STL@@@1@ABG@Z 00402990 f i multidef.obj
 0001:000019d0       ?max_size@?$basic_string@DV?$char_traits@D@_STL@@V?$allocator@D@2@@_STL@@QBEIXZ 004029d0 f i multidef.obj
 0001:000019e0       ?_M_create_node@?$_Rb_tree@GGU?$_Identity@G@_STL@@U?$less@G@2@V?$allocator@G@2@@_STL@@IAEPAU?$_Rb_tree_node@G@2@ABG@Z 004029e0 f i multidef.obj
 0001:00001a00       ??$__distance@U?$_Rb_tree_iterator@U?$pair@$$CBGPBUMULTI_ELEM@@@_STL@@U?$_Const_traits@U?$pair@$$CBGPBUMULTI_ELEM@@@_STL@@@2@@_STL@@@_STL@@YAHABU?$_Rb_tree_iterator@U?$pair@$$CBGPBUMULTI_ELEM@@@_STL@@U?$_Const_traits@U?$pair@$$CBGPBUMULTI_ELEM@@@_STL@@@2@@0@0ABUinput_iterator_tag@0@@Z 00402a00 f i multidef.obj
 0001:00001a30       ?rdbuf@?$basic_ios@DV?$char_traits@D@_STL@@@_STL@@QAEPAV?$basic_streambuf@DV?$char_traits@D@_STL@@@2@PAV32@@Z 00402a30 f i multidef.obj
 0001:00001a60       ??$__destroy_aux@PAUMULTI_ELEM@@@_STL@@YAXPAUMULTI_ELEM@@0ABU__false_type@0@@Z 00402a60 f i multidef.obj
 0001:00001a70       ??$_Construct@U?$pair@$$CBGPBUMULTI_ELEM@@@_STL@@U12@@_STL@@YAXPAU?$pair@$$CBGPBUMULTI_ELEM@@@0@ABU10@@Z 00402a70 f i multidef.obj
 0001:00001a90       ??$_Construct@U?$pair@$$CBGPAVMultiDef@@@_STL@@U12@@_STL@@YAXPAU?$pair@$$CBGPAVMultiDef@@@0@ABU10@@Z 00402a90 f i multidef.obj
 0001:00001ab0       ??$distance@PBD@_STL@@YAHABQBD0@Z 00402ab0 f i multidef.obj
 0001:00001ac0       ??$distance@PAD@_STL@@YAHABQAD0@Z 00402ac0 f i multidef.obj
 0001:00001ad0       ??$__copy_aux@PADPAD@_STL@@YAPADPAD00ABU__true_type@0@@Z 00402ad0 f i multidef.obj
 0001:00001b00       ?erase@?$basic_string@DV?$char_traits@D@_STL@@V?$allocator@D@2@@_STL@@QAEPADPAD0@Z 00402b00 f i multidef.obj
 0001:00001b40       ?end@?$multimap@GPBUMULTI_ELEM@@U?$less@G@_STL@@V?$allocator@U?$pair@$$CBGPBUMULTI_ELEM@@@_STL@@@3@@_STL@@QBE?AU?$_Rb_tree_iterator@U?$pair@$$CBGPBUMULTI_ELEM@@@_STL@@U?$_Const_traits@U?$pair@$$CBGPBUMULTI_ELEM@@@_STL@@@2@@2@XZ 00402b40 f i multidef.obj
 0001:00001b50       ?end@?$map@GPAVMultiDef@@U?$less@G@_STL@@V?$allocator@U?$pair@$$CBGPAVMultiDef@@@_STL@@@3@@_STL@@QAE?AU?$_Rb_tree_iterator@U?$pair@$$CBGPAVMultiDef@@@_STL@@U?$_Nonconst_traits@U?$pair@$$CBGPAVMultiDef@@@_STL@@@2@@2@XZ 00402b50 f i multidef.obj
 0001:00001b60       ?setstate@?$basic_ios@DV?$char_traits@D@_STL@@@_STL@@QAEXH@Z 00402b60 f i multidef.obj
 0001:00001b90       ?clear@?$_Rb_tree@GU?$pair@$$CBGG@_STL@@U?$_Select1st@U?$pair@$$CBGG@_STL@@@2@U?$less@G@2@V?$allocator@U?$pair@$$CBGG@_STL@@@2@@_STL@@QAEXXZ 00402b90 f i multidef.obj
 0001:00001bd0       ??1?$_Rb_tree_base@U?$pair@$$CBGG@_STL@@V?$allocator@U?$pair@$$CBGG@_STL@@@2@@_STL@@QAE@XZ 00402bd0 f i multidef.obj
 0001:00001bf0       ??0?$_Vector_base@UMULTI_ELEM@@V?$allocator@UMULTI_ELEM@@@_STL@@@_STL@@QAE@ABV?$allocator@UMULTI_ELEM@@@1@@Z 00402bf0 f i multidef.obj
 0001:00001c20       ??1?$_Vector_base@UMULTI_ELEM@@V?$allocator@UMULTI_ELEM@@@_STL@@@_STL@@QAE@XZ 00402c20 f i multidef.obj
 0001:00001c60       ??0?$_Vector_base@PBUMULTI_ELEM@@V?$allocator@PBUMULTI_ELEM@@@_STL@@@_STL@@QAE@ABV?$allocator@PBUMULTI_ELEM@@@1@@Z 00402c60 f i multidef.obj
 0001:00001c90       ??1?$_Vector_base@PBUMULTI_ELEM@@V?$allocator@PBUMULTI_ELEM@@@_STL@@@_STL@@QAE@XZ 00402c90 f i multidef.obj
 0001:00001cc0       ?clear@?$_Rb_tree@GGU?$_Identity@G@_STL@@U?$less@G@2@V?$allocator@G@2@@_STL@@QAEXXZ 00402cc0 f i multidef.obj
 0001:00001d00       ??1?$_Rb_tree_base@GV?$allocator@G@_STL@@@_STL@@QAE@XZ 00402d00 f i multidef.obj
 0001:00001d20       ?clear@?$_Rb_tree@GU?$pair@$$CBGPBUMULTI_ELEM@@@_STL@@U?$_Select1st@U?$pair@$$CBGPBUMULTI_ELEM@@@_STL@@@2@U?$less@G@2@V?$allocator@U?$pair@$$CBGPBUMULTI_ELEM@@@_STL@@@2@@_STL@@QAEXXZ 00402d20 f i multidef.obj
 0001:00001d60       ??1?$_Rb_tree_base@U?$pair@$$CBGPBUMULTI_ELEM@@@_STL@@V?$allocator@U?$pair@$$CBGPBUMULTI_ELEM@@@_STL@@@2@@_STL@@QAE@XZ 00402d60 f i multidef.obj
 0001:00001d80       ?clear@?$_Rb_tree@GU?$pair@$$CBGPAVMultiDef@@@_STL@@U?$_Select1st@U?$pair@$$CBGPAVMultiDef@@@_STL@@@2@U?$less@G@2@V?$allocator@U?$pair@$$CBGPAVMultiDef@@@_STL@@@2@@_STL@@QAEXXZ 00402d80 f i multidef.obj
 0001:00001dc0       ??1?$_Rb_tree_base@U?$pair@$$CBGPAVMultiDef@@@_STL@@V?$allocator@U?$pair@$$CBGPAVMultiDef@@@_STL@@@2@@_STL@@QAE@XZ 00402dc0 f i multidef.obj
 0001:00001de0       ?_M_deallocate_block@?$_String_base@DV?$allocator@D@_STL@@@_STL@@QAEXXZ 00402de0 f i multidef.obj
 0001:00001e10       ??0?$_Rb_tree_base@U?$pair@$$CBGG@_STL@@V?$allocator@U?$pair@$$CBGG@_STL@@@2@@_STL@@QAE@ABV?$allocator@U?$pair@$$CBGG@_STL@@@1@@Z 00402e10 f i multidef.obj
 0001:00001e40       ??0?$_Rb_tree_base@GV?$allocator@G@_STL@@@_STL@@QAE@ABV?$allocator@G@1@@Z 00402e40 f i multidef.obj
 0001:00001e70       ??0?$_Rb_tree_base@U?$pair@$$CBGPBUMULTI_ELEM@@@_STL@@V?$allocator@U?$pair@$$CBGPBUMULTI_ELEM@@@_STL@@@2@@_STL@@QAE@ABV?$allocator@U?$pair@$$CBGPBUMULTI_ELEM@@@_STL@@@1@@Z 00402e70 f i multidef.obj
 0001:00001ea0       ??0?$_Rb_tree_base@U?$pair@$$CBGPAVMultiDef@@@_STL@@V?$allocator@U?$pair@$$CBGPAVMultiDef@@@_STL@@@2@@_STL@@QAE@ABV?$allocator@U?$pair@$$CBGPAVMultiDef@@@_STL@@@1@@Z 00402ea0 f i multidef.obj
 0001:00001ed0       ?_M_lower_bound@?$_Rb_tree@GU?$pair@$$CBGPBUMULTI_ELEM@@@_STL@@U?$_Select1st@U?$pair@$$CBGPBUMULTI_ELEM@@@_STL@@@2@U?$less@G@2@V?$allocator@U?$pair@$$CBGPBUMULTI_ELEM@@@_STL@@@2@@_STL@@ABEPAU?$_Rb_tree_node@U?$pair@$$CBGPBUMULTI_ELEM@@@_STL@@@2@ABG@Z 00402ed0 f i multidef.obj
 0001:00001f00       ?_M_upper_bound@?$_Rb_tree@GU?$pair@$$CBGPBUMULTI_ELEM@@@_STL@@U?$_Select1st@U?$pair@$$CBGPBUMULTI_ELEM@@@_STL@@@2@U?$less@G@2@V?$allocator@U?$pair@$$CBGPBUMULTI_ELEM@@@_STL@@@2@@_STL@@ABEPAU?$_Rb_tree_node@U?$pair@$$CBGPBUMULTI_ELEM@@@_STL@@@2@ABG@Z 00402f00 f i multidef.obj
 0001:00001f30       ?_M_lower_bound@?$_Rb_tree@GU?$pair@$$CBGPAVMultiDef@@@_STL@@U?$_Select1st@U?$pair@$$CBGPAVMultiDef@@@_STL@@@2@U?$less@G@2@V?$allocator@U?$pair@$$CBGPAVMultiDef@@@_STL@@@2@@_STL@@ABEPAU?$_Rb_tree_node@U?$pair@$$CBGPAVMultiDef@@@_STL@@@2@ABG@Z 00402f30 f i multidef.obj
 0001:00001f60       ??$_Destroy@PAPBUMULTI_ELEM@@@_STL@@YAXPAPBUMULTI_ELEM@@0@Z 00402f60 f i multidef.obj
 0001:00001f70       ??$find@G@?$_Rb_tree@GGU?$_Identity@G@_STL@@U?$less@G@2@V?$allocator@G@2@@_STL@@QBE?AU?$_Rb_tree_iterator@GU?$_Const_traits@G@_STL@@@1@ABG@Z 00402f70 f i multidef.obj
 0001:00001f90       ??$find@G@?$_Rb_tree@GU?$pair@$$CBGPBUMULTI_ELEM@@@_STL@@U?$_Select1st@U?$pair@$$CBGPBUMULTI_ELEM@@@_STL@@@2@U?$less@G@2@V?$allocator@U?$pair@$$CBGPBUMULTI_ELEM@@@_STL@@@2@@_STL@@QBE?AU?$_Rb_tree_iterator@U?$pair@$$CBGPBUMULTI_ELEM@@@_STL@@U?$_Const_traits@U?$pair@$$CBGPBUMULTI_ELEM@@@_STL@@@2@@1@ABG@Z 00402f90 f i multidef.obj
 0001:00001fb0       ??$find@G@?$_Rb_tree@GU?$pair@$$CBGPAVMultiDef@@@_STL@@U?$_Select1st@U?$pair@$$CBGPAVMultiDef@@@_STL@@@2@U?$less@G@2@V?$allocator@U?$pair@$$CBGPAVMultiDef@@@_STL@@@2@@_STL@@QAE?AU?$_Rb_tree_iterator@U?$pair@$$CBGPAVMultiDef@@@_STL@@U?$_Nonconst_traits@U?$pair@$$CBGPAVMultiDef@@@_STL@@@2@@1@ABG@Z 00402fb0 f i multidef.obj
 0001:00001fd0       ??$find@G@?$_Rb_tree@GU?$pair@$$CBGPAVMultiDef@@@_STL@@U?$_Select1st@U?$pair@$$CBGPAVMultiDef@@@_STL@@@2@U?$less@G@2@V?$allocator@U?$pair@$$CBGPAVMultiDef@@@_STL@@@2@@_STL@@QBE?AU?$_Rb_tree_iterator@U?$pair@$$CBGPAVMultiDef@@@_STL@@U?$_Const_traits@U?$pair@$$CBGPAVMultiDef@@@_STL@@@2@@1@ABG@Z 00402fd0 f i multidef.obj
 0001:00001ff0       ??0?$_String_base@DV?$allocator@D@_STL@@@_STL@@QAE@ABV?$allocator@D@1@I@Z 00402ff0 f i multidef.obj
 0001:00002030       ?_M_insert@?$_Rb_tree@GGU?$_Identity@G@_STL@@U?$less@G@2@V?$allocator@G@2@@_STL@@AAE?AU?$_Rb_tree_iterator@GU?$_Nonconst_traits@G@_STL@@@2@PAU_Rb_tree_node_base@2@0ABG0@Z 00403030 f i multidef.obj
 0001:000020d0       ??$distance@U?$_Rb_tree_iterator@U?$pair@$$CBGPBUMULTI_ELEM@@@_STL@@U?$_Const_traits@U?$pair@$$CBGPBUMULTI_ELEM@@@_STL@@@2@@_STL@@@_STL@@YAHABU?$_Rb_tree_iterator@U?$pair@$$CBGPBUMULTI_ELEM@@@_STL@@U?$_Const_traits@U?$pair@$$CBGPBUMULTI_ELEM@@@_STL@@@2@@0@0@Z 004030d0 f i multidef.obj
 0001:00002100       ??$__destroy@PAUMULTI_ELEM@@U1@@_STL@@YAXPAUMULTI_ELEM@@00@Z 00403100 f i multidef.obj
 0001:00002110       ?flush@?$basic_ostream@DV?$char_traits@D@_STL@@@_STL@@QAEAAV12@XZ 00403110 f i multidef.obj
 0001:00002160       ?_M_create_node@?$_Rb_tree@GU?$pair@$$CBGPBUMULTI_ELEM@@@_STL@@U?$_Select1st@U?$pair@$$CBGPBUMULTI_ELEM@@@_STL@@@2@U?$less@G@2@V?$allocator@U?$pair@$$CBGPBUMULTI_ELEM@@@_STL@@@2@@_STL@@IAEPAU?$_Rb_tree_node@U?$pair@$$CBGPBUMULTI_ELEM@@@_STL@@@2@ABU?$pair@$$CBGPBUMULTI_ELEM@@@2@@Z 00403160 f i multidef.obj
 0001:00002190       ?_M_create_node@?$_Rb_tree@GU?$pair@$$CBGPAVMultiDef@@@_STL@@U?$_Select1st@U?$pair@$$CBGPAVMultiDef@@@_STL@@@2@U?$less@G@2@V?$allocator@U?$pair@$$CBGPAVMultiDef@@@_STL@@@2@@_STL@@IAEPAU?$_Rb_tree_node@U?$pair@$$CBGPAVMultiDef@@@_STL@@@2@ABU?$pair@$$CBGPAVMultiDef@@@2@@Z 00403190 f i multidef.obj
 0001:000021c0       ??$__uninitialized_copy@PADPAD@_STL@@YAPADPAD00ABU__true_type@0@@Z 004031c0 f i multidef.obj
 0001:000021f0       ??$_M_ignore_unbuffered@DV?$char_traits@D@_STL@@U?$_Is_not_wspace@V?$char_traits@D@_STL@@@2@@_STL@@YAXPAV?$basic_istream@DV?$char_traits@D@_STL@@@0@PAV?$basic_streambuf@DV?$char_traits@D@_STL@@@0@U?$_Is_not_wspace@V?$char_traits@D@_STL@@@0@_N3@Z 004031f0 f i multidef.obj
 0001:00002330       ??1?$_Rb_tree@GU?$pair@$$CBGG@_STL@@U?$_Select1st@U?$pair@$$CBGG@_STL@@@2@U?$less@G@2@V?$allocator@U?$pair@$$CBGG@_STL@@@2@@_STL@@QAE@XZ 00403330 f i multidef.obj
 0001:000023b0       ??0?$vector@UMULTI_ELEM@@V?$allocator@UMULTI_ELEM@@@_STL@@@_STL@@QAE@ABV?$allocator@UMULTI_ELEM@@@1@@Z 004033b0 f i multidef.obj
 0001:000023c0       ??0?$vector@PBUMULTI_ELEM@@V?$allocator@PBUMULTI_ELEM@@@_STL@@@_STL@@QAE@ABV?$allocator@PBUMULTI_ELEM@@@1@@Z 004033c0 f i multidef.obj
 0001:000023d0       ??1?$vector@PBUMULTI_ELEM@@V?$allocator@PBUMULTI_ELEM@@@_STL@@@_STL@@QAE@XZ 004033d0 f i multidef.obj
 0001:00002400       ?count@?$set@GU?$less@G@_STL@@V?$allocator@G@2@@_STL@@QBEIABG@Z 00403400 f i multidef.obj
 0001:00002420       ??1?$_Rb_tree@GGU?$_Identity@G@_STL@@U?$less@G@2@V?$allocator@G@2@@_STL@@QAE@XZ 00403420 f i multidef.obj
 0001:000024a0       ?find@?$multimap@GPBUMULTI_ELEM@@U?$less@G@_STL@@V?$allocator@U?$pair@$$CBGPBUMULTI_ELEM@@@_STL@@@3@@_STL@@QBE?AU?$_Rb_tree_iterator@U?$pair@$$CBGPBUMULTI_ELEM@@@_STL@@U?$_Const_traits@U?$pair@$$CBGPBUMULTI_ELEM@@@_STL@@@2@@2@ABG@Z 004034a0 f i multidef.obj
 0001:000024c0       ??1?$_Rb_tree@GU?$pair@$$CBGPBUMULTI_ELEM@@@_STL@@U?$_Select1st@U?$pair@$$CBGPBUMULTI_ELEM@@@_STL@@@2@U?$less@G@2@V?$allocator@U?$pair@$$CBGPBUMULTI_ELEM@@@_STL@@@2@@_STL@@QAE@XZ 004034c0 f i multidef.obj
 0001:00002540       ?find@?$map@GPAVMultiDef@@U?$less@G@_STL@@V?$allocator@U?$pair@$$CBGPAVMultiDef@@@_STL@@@3@@_STL@@QAE?AU?$_Rb_tree_iterator@U?$pair@$$CBGPAVMultiDef@@@_STL@@U?$_Nonconst_traits@U?$pair@$$CBGPAVMultiDef@@@_STL@@@2@@2@ABG@Z 00403540 f i multidef.obj
 0001:00002560       ?count@?$map@GPAVMultiDef@@U?$less@G@_STL@@V?$allocator@U?$pair@$$CBGPAVMultiDef@@@_STL@@@3@@_STL@@QBEIABG@Z 00403560 f i multidef.obj
 0001:00002580       ??1?$_Rb_tree@GU?$pair@$$CBGPAVMultiDef@@@_STL@@U?$_Select1st@U?$pair@$$CBGPAVMultiDef@@@_STL@@@2@U?$less@G@2@V?$allocator@U?$pair@$$CBGPAVMultiDef@@@_STL@@@2@@_STL@@QAE@XZ 00403580 f i multidef.obj
 0001:00002600       ??1?$_String_base@DV?$allocator@D@_STL@@@_STL@@QAE@XZ 00403600 f i multidef.obj
 0001:00002630       ??0?$_Rb_tree@GU?$pair@$$CBGG@_STL@@U?$_Select1st@U?$pair@$$CBGG@_STL@@@2@U?$less@G@2@V?$allocator@U?$pair@$$CBGG@_STL@@@2@@_STL@@QAE@ABU?$less@G@1@ABV?$allocator@U?$pair@$$CBGG@_STL@@@1@@Z 00403630 f i multidef.obj
 0001:00002670       ??0?$_Rb_tree@GGU?$_Identity@G@_STL@@U?$less@G@2@V?$allocator@G@2@@_STL@@QAE@ABU?$less@G@1@ABV?$allocator@G@1@@Z 00403670 f i multidef.obj
 0001:000026b0       ??0?$_Rb_tree@GU?$pair@$$CBGPBUMULTI_ELEM@@@_STL@@U?$_Select1st@U?$pair@$$CBGPBUMULTI_ELEM@@@_STL@@@2@U?$less@G@2@V?$allocator@U?$pair@$$CBGPBUMULTI_ELEM@@@_STL@@@2@@_STL@@QAE@ABU?$less@G@1@ABV?$allocator@U?$pair@$$CBGPBUMULTI_ELEM@@@_STL@@@1@@Z 004036b0 f i multidef.obj
 0001:000026f0       ??0?$_Rb_tree@GU?$pair@$$CBGPAVMultiDef@@@_STL@@U?$_Select1st@U?$pair@$$CBGPAVMultiDef@@@_STL@@@2@U?$less@G@2@V?$allocator@U?$pair@$$CBGPAVMultiDef@@@_STL@@@2@@_STL@@QAE@ABU?$less@G@1@ABV?$allocator@U?$pair@$$CBGPAVMultiDef@@@_STL@@@1@@Z 004036f0 f i multidef.obj
 0001:00002730       ?_M_clear@?$vector@PBUMULTI_ELEM@@V?$allocator@PBUMULTI_ELEM@@@_STL@@@_STL@@IAEXXZ 00403730 f i multidef.obj
 0001:00002760       ?lower_bound@?$_Rb_tree@GU?$pair@$$CBGPBUMULTI_ELEM@@@_STL@@U?$_Select1st@U?$pair@$$CBGPBUMULTI_ELEM@@@_STL@@@2@U?$less@G@2@V?$allocator@U?$pair@$$CBGPBUMULTI_ELEM@@@_STL@@@2@@_STL@@QBE?AU?$_Rb_tree_iterator@U?$pair@$$CBGPBUMULTI_ELEM@@@_STL@@U?$_Const_traits@U?$pair@$$CBGPBUMULTI_ELEM@@@_STL@@@2@@2@ABG@Z 00403760 f i multidef.obj
 0001:00002790       ?upper_bound@?$_Rb_tree@GU?$pair@$$CBGPBUMULTI_ELEM@@@_STL@@U?$_Select1st@U?$pair@$$CBGPBUMULTI_ELEM@@@_STL@@@2@U?$less@G@2@V?$allocator@U?$pair@$$CBGPBUMULTI_ELEM@@@_STL@@@2@@_STL@@QBE?AU?$_Rb_tree_iterator@U?$pair@$$CBGPBUMULTI_ELEM@@@_STL@@U?$_Const_traits@U?$pair@$$CBGPBUMULTI_ELEM@@@_STL@@@2@@2@ABG@Z 00403790 f i multidef.obj
 0001:000027c0       ?lower_bound@?$_Rb_tree@GU?$pair@$$CBGPAVMultiDef@@@_STL@@U?$_Select1st@U?$pair@$$CBGPAVMultiDef@@@_STL@@@2@U?$less@G@2@V?$allocator@U?$pair@$$CBGPAVMultiDef@@@_STL@@@2@@_STL@@QAE?AU?$_Rb_tree_iterator@U?$pair@$$CBGPAVMultiDef@@@_STL@@U?$_Nonconst_traits@U?$pair@$$CBGPAVMultiDef@@@_STL@@@2@@2@ABG@Z 004037c0 f i multidef.obj
 0001:000027f0       ??0?$basic_string@DV?$char_traits@D@_STL@@V?$allocator@D@2@@_STL@@QAE@XZ 004037f0 f i multidef.obj
 0001:00002860       ?insert_unique@?$_Rb_tree@GGU?$_Identity@G@_STL@@U?$less@G@2@V?$allocator@G@2@@_STL@@QAE?AU?$pair@U?$_Rb_tree_iterator@GU?$_Nonconst_traits@G@_STL@@@_STL@@_N@2@ABG@Z 00403860 f i multidef.obj
 0001:00002900       ??$_Destroy@PAUMULTI_ELEM@@@_STL@@YAXPAUMULTI_ELEM@@0@Z 00403900 f i multidef.obj
 0001:00002910       ??$__uninitialized_copy@PAUMULTI_ELEM@@PAU1@@_STL@@YAPAUMULTI_ELEM@@PAU1@00ABU__false_type@0@@Z 00403910 f i multidef.obj
 0001:00002950       ??$__uninitialized_fill_n@PAUMULTI_ELEM@@IU1@@_STL@@YAPAUMULTI_ELEM@@PAU1@IABU1@ABU__false_type@0@@Z 00403950 f i multidef.obj
 0001:00002990       ??0?$basic_string@DV?$char_traits@D@_STL@@V?$allocator@D@2@@_STL@@QAE@U_String_reserve_t@1@IABV?$allocator@D@1@@Z 00403990 f i multidef.obj
 0001:000029c0       ?_M_insert@?$_Rb_tree@GU?$pair@$$CBGPBUMULTI_ELEM@@@_STL@@U?$_Select1st@U?$pair@$$CBGPBUMULTI_ELEM@@@_STL@@@2@U?$less@G@2@V?$allocator@U?$pair@$$CBGPBUMULTI_ELEM@@@_STL@@@2@@_STL@@AAE?AU?$_Rb_tree_iterator@U?$pair@$$CBGPBUMULTI_ELEM@@@_STL@@U?$_Nonconst_traits@U?$pair@$$CBGPBUMULTI_ELEM@@@_STL@@@2@@2@PAU_Rb_tree_node_base@2@0ABU?$pair@$$CBGPBUMULTI_ELEM@@@2@0@Z 004039c0 f i multidef.obj
 0001:00002a60       ?_M_insert@?$_Rb_tree@GU?$pair@$$CBGPAVMultiDef@@@_STL@@U?$_Select1st@U?$pair@$$CBGPAVMultiDef@@@_STL@@@2@U?$less@G@2@V?$allocator@U?$pair@$$CBGPAVMultiDef@@@_STL@@@2@@_STL@@AAE?AU?$_Rb_tree_iterator@U?$pair@$$CBGPAVMultiDef@@@_STL@@U?$_Nonconst_traits@U?$pair@$$CBGPAVMultiDef@@@_STL@@@2@@2@PAU_Rb_tree_node_base@2@0ABU?$pair@$$CBGPAVMultiDef@@@2@0@Z 00403a60 f i multidef.obj
 0001:00002b00       ?insert_unique@?$_Rb_tree@GU?$pair@$$CBGPAVMultiDef@@@_STL@@U?$_Select1st@U?$pair@$$CBGPAVMultiDef@@@_STL@@@2@U?$less@G@2@V?$allocator@U?$pair@$$CBGPAVMultiDef@@@_STL@@@2@@_STL@@QAE?AU?$pair@U?$_Rb_tree_iterator@U?$pair@$$CBGPAVMultiDef@@@_STL@@U?$_Nonconst_traits@U?$pair@$$CBGPAVMultiDef@@@_STL@@@2@@_STL@@_N@2@ABU?$pair@$$CBGPAVMultiDef@@@2@@Z 00403b00 f i multidef.obj
 0001:00002ba0       ??$_M_init_noskip@DV?$char_traits@D@_STL@@@_STL@@YA_NAAV?$basic_istream@DV?$char_traits@D@_STL@@@0@@Z 00403ba0 f i multidef.obj
 0001:00002c10       ??$uninitialized_copy@PADPAD@_STL@@YAPADPAD00@Z 00403c10 f i multidef.obj
 0001:00002c40       ??$_M_range_initialize@PAD@?$basic_string@DV?$char_traits@D@_STL@@V?$allocator@D@2@@_STL@@AAEXPAD0ABUforward_iterator_tag@1@@Z 00403c40 f i multidef.obj
 0001:00002c80       ??$append@PBD@?$basic_string@DV?$char_traits@D@_STL@@V?$allocator@D@2@@_STL@@AAEAAV01@PBD0ABUforward_iterator_tag@1@@Z 00403c80 f i multidef.obj
 0001:00002de0       ??$append@PAD@?$basic_string@DV?$char_traits@D@_STL@@V?$allocator@D@2@@_STL@@AAEAAV01@PAD0ABUforward_iterator_tag@1@@Z 00403de0 f i multidef.obj
 0001:00002f40       ??$_M_ignore_buffered@DV?$char_traits@D@_STL@@U?$_Is_not_wspace@V?$char_traits@D@_STL@@@2@U?$_Scan_for_not_wspace@V?$char_traits@D@_STL@@@2@@_STL@@YAXPAV?$basic_istream@DV?$char_traits@D@_STL@@@0@PAV?$basic_streambuf@DV?$char_traits@D@_STL@@@0@U?$_Is_not_wspace@V?$char_traits@D@_STL@@@0@U?$_Scan_for_not_wspace@V?$char_traits@D@_STL@@@0@_N4@Z 00403f40 f i multidef.obj
 0001:000030b0       ??1?$set@GU?$less@G@_STL@@V?$allocator@G@2@@_STL@@QAE@XZ 004040b0 f i multidef.obj
 0001:000030c0       ??1?$multimap@GPBUMULTI_ELEM@@U?$less@G@_STL@@V?$allocator@U?$pair@$$CBGPBUMULTI_ELEM@@@_STL@@@3@@_STL@@QAE@XZ 004040c0 f i multidef.obj
 0001:000030d0       ??1?$map@GPAVMultiDef@@U?$less@G@_STL@@V?$allocator@U?$pair@$$CBGPAVMultiDef@@@_STL@@@3@@_STL@@QAE@XZ 004040d0 f i multidef.obj
 0001:000030e0       ??1?$map@GGU?$less@G@_STL@@V?$allocator@U?$pair@$$CBGG@_STL@@@2@@_STL@@QAE@XZ 004040e0 f i multidef.obj
 0001:000030f0       ?MultiDefByGraphicExists@@YA_NG@Z 004040f0 f   multidef.obj
 0001:00003130       ?MultiDefByGraphic@@YAPBVMultiDef@@G@Z 00404130 f   multidef.obj
 0001:000031c0       ??1?$basic_string@DV?$char_traits@D@_STL@@V?$allocator@D@2@@_STL@@QAE@XZ 004041c0 f i multidef.obj
 0001:000031f0       ??0?$map@GGU?$less@G@_STL@@V?$allocator@U?$pair@$$CBGG@_STL@@@2@@_STL@@QAE@XZ 004041f0 f i multidef.obj
 0001:00003230       ??1?$vector@UMULTI_ELEM@@V?$allocator@UMULTI_ELEM@@@_STL@@@_STL@@QAE@XZ 00404230 f i multidef.obj
 0001:00003270       ??0?$set@GU?$less@G@_STL@@V?$allocator@G@2@@_STL@@QAE@XZ 00404270 f i multidef.obj
 0001:000032b0       ?insert@?$set@GU?$less@G@_STL@@V?$allocator@G@2@@_STL@@QAE?AU?$pair@U?$_Rb_tree_iterator@GU?$_Const_traits@G@_STL@@@_STL@@_N@2@ABG@Z 004042b0 f i multidef.obj
 0001:000032e0       ??0?$multimap@GPBUMULTI_ELEM@@U?$less@G@_STL@@V?$allocator@U?$pair@$$CBGPBUMULTI_ELEM@@@_STL@@@3@@_STL@@QAE@XZ 004042e0 f i multidef.obj
 0001:00003320       ??0?$map@GPAVMultiDef@@U?$less@G@_STL@@V?$allocator@U?$pair@$$CBGPAVMultiDef@@@_STL@@@3@@_STL@@QAE@XZ 00404320 f i multidef.obj
 0001:00003360       ?_M_insert_overflow@?$vector@PBUMULTI_ELEM@@V?$allocator@PBUMULTI_ELEM@@@_STL@@@_STL@@IAEXPAPBUMULTI_ELEM@@ABQBU3@ABU__true_type@2@I_N@Z 00404360 f i multidef.obj
 0001:00003470       ?equal_range@?$_Rb_tree@GU?$pair@$$CBGPBUMULTI_ELEM@@@_STL@@U?$_Select1st@U?$pair@$$CBGPBUMULTI_ELEM@@@_STL@@@2@U?$less@G@2@V?$allocator@U?$pair@$$CBGPBUMULTI_ELEM@@@_STL@@@2@@_STL@@QBE?AU?$pair@U?$_Rb_tree_iterator@U?$pair@$$CBGPBUMULTI_ELEM@@@_STL@@U?$_Const_traits@U?$pair@$$CBGPBUMULTI_ELEM@@@_STL@@@2@@_STL@@U12@@2@ABG@Z 00404470 f i multidef.obj
 0001:000034d0       ?lower_bound@?$map@GPAVMultiDef@@U?$less@G@_STL@@V?$allocator@U?$pair@$$CBGPAVMultiDef@@@_STL@@@3@@_STL@@QAE?AU?$_Rb_tree_iterator@U?$pair@$$CBGPAVMultiDef@@@_STL@@U?$_Nonconst_traits@U?$pair@$$CBGPAVMultiDef@@@_STL@@@2@@2@ABG@Z 004044d0 f i multidef.obj
 0001:00003500       ?_M_clear@?$vector@UMULTI_ELEM@@V?$allocator@UMULTI_ELEM@@@_STL@@@_STL@@IAEXXZ 00404500 f i multidef.obj
 0001:00003540       ?insert_equal@?$_Rb_tree@GU?$pair@$$CBGPBUMULTI_ELEM@@@_STL@@U?$_Select1st@U?$pair@$$CBGPBUMULTI_ELEM@@@_STL@@@2@U?$less@G@2@V?$allocator@U?$pair@$$CBGPBUMULTI_ELEM@@@_STL@@@2@@_STL@@QAE?AU?$_Rb_tree_iterator@U?$pair@$$CBGPBUMULTI_ELEM@@@_STL@@U?$_Nonconst_traits@U?$pair@$$CBGPBUMULTI_ELEM@@@_STL@@@2@@2@ABU?$pair@$$CBGPBUMULTI_ELEM@@@2@@Z 00404540 f i multidef.obj
 0001:00003580       ?count@?$_Rb_tree@GU?$pair@$$CBGPBUMULTI_ELEM@@@_STL@@U?$_Select1st@U?$pair@$$CBGPBUMULTI_ELEM@@@_STL@@@2@U?$less@G@2@V?$allocator@U?$pair@$$CBGPBUMULTI_ELEM@@@_STL@@@2@@_STL@@QBEIABG@Z 00404580 f i multidef.obj
 0001:000035c0       ?insert_unique@?$_Rb_tree@GU?$pair@$$CBGPAVMultiDef@@@_STL@@U?$_Select1st@U?$pair@$$CBGPAVMultiDef@@@_STL@@@2@U?$less@G@2@V?$allocator@U?$pair@$$CBGPAVMultiDef@@@_STL@@@2@@_STL@@QAE?AU?$_Rb_tree_iterator@U?$pair@$$CBGPAVMultiDef@@@_STL@@U?$_Nonconst_traits@U?$pair@$$CBGPAVMultiDef@@@_STL@@@2@@2@U32@ABU?$pair@$$CBGPAVMultiDef@@@2@@Z 004045c0 f i multidef.obj
 0001:00003820       ??1?$basic_stringbuf@DV?$char_traits@D@_STL@@V?$allocator@D@2@@_STL@@UAE@XZ 00404820 f i multidef.obj
 0001:000038a0       ?underflow@?$basic_stringbuf@DV?$char_traits@D@_STL@@V?$allocator@D@2@@_STL@@MAEHXZ 004048a0 f i multidef.obj
 0001:000038c0       ?uflow@?$basic_stringbuf@DV?$char_traits@D@_STL@@V?$allocator@D@2@@_STL@@MAEHXZ 004048c0 f i multidef.obj
 0001:000038f0       ?pbackfail@?$basic_stringbuf@DV?$char_traits@D@_STL@@V?$allocator@D@2@@_STL@@MAEHH@Z 004048f0 f i multidef.obj
 0001:00003960       ??1?$basic_istringstream@DV?$char_traits@D@_STL@@V?$allocator@D@2@@_STL@@UAE@XZ 00404960 f i multidef.obj
 0001:000039c0       ??_G?$basic_stringbuf@DV?$char_traits@D@_STL@@V?$allocator@D@2@@_STL@@UAEPAXI@Z 004049c0 f i multidef.obj
 0001:000039c0       ??_E?$basic_stringbuf@DV?$char_traits@D@_STL@@V?$allocator@D@2@@_STL@@UAEPAXI@Z 004049c0 f i multidef.obj
 0001:000039e0       ??$_M_range_initialize@PAD@?$basic_string@DV?$char_traits@D@_STL@@V?$allocator@D@2@@_STL@@AAEXPAD0@Z 004049e0 f i multidef.obj
 0001:00003a20       ??$_M_append_dispatch@PBD@?$basic_string@DV?$char_traits@D@_STL@@V?$allocator@D@2@@_STL@@AAEAAV01@PBD0ABU__false_type@1@@Z 00404a20 f i multidef.obj
 0001:00003a30       ??$_M_append_dispatch@PAD@?$basic_string@DV?$char_traits@D@_STL@@V?$allocator@D@2@@_STL@@AAEAAV01@PAD0ABU__false_type@1@@Z 00404a30 f i multidef.obj
 0001:00003a40       ?_M_skip_whitespace@?$basic_istream@DV?$char_traits@D@_STL@@@_STL@@QAEX_N@Z 00404a40 f i multidef.obj
 0001:00003ac0       ?grouping@?$numpunct@D@_STL@@QBE?AV?$basic_string@DV?$char_traits@D@_STL@@V?$allocator@D@2@@2@XZ 00404ac0 f i multidef.obj
 0001:00003ae0       ??_D?$basic_istringstream@DV?$char_traits@D@_STL@@V?$allocator@D@2@@_STL@@QAEXXZ 00404ae0 f i multidef.obj
 0001:00003b00       ??1MultiDef@@QAE@XZ        00404b00 f   multidef.obj
 0001:00003c20       ?push_back@?$vector@PBUMULTI_ELEM@@V?$allocator@PBUMULTI_ELEM@@@_STL@@@_STL@@QAEXABQBUMULTI_ELEM@@@Z 00404c20 f i multidef.obj
 0001:00003c60       ?insert@?$multimap@GPBUMULTI_ELEM@@U?$less@G@_STL@@V?$allocator@U?$pair@$$CBGPBUMULTI_ELEM@@@_STL@@@3@@_STL@@QAE?AU?$_Rb_tree_iterator@U?$pair@$$CBGPBUMULTI_ELEM@@@_STL@@U?$_Nonconst_traits@U?$pair@$$CBGPBUMULTI_ELEM@@@_STL@@@2@@2@ABU?$pair@$$CBGPBUMULTI_ELEM@@@2@@Z 00404c60 f i multidef.obj
 0001:00003c80       ?count@?$multimap@GPBUMULTI_ELEM@@U?$less@G@_STL@@V?$allocator@U?$pair@$$CBGPBUMULTI_ELEM@@@_STL@@@3@@_STL@@QBEIABG@Z 00404c80 f i multidef.obj
 0001:00003c90       ?equal_range@?$multimap@GPBUMULTI_ELEM@@U?$less@G@_STL@@V?$allocator@U?$pair@$$CBGPBUMULTI_ELEM@@@_STL@@@3@@_STL@@QBE?AU?$pair@U?$_Rb_tree_iterator@U?$pair@$$CBGPBUMULTI_ELEM@@@_STL@@U?$_Const_traits@U?$pair@$$CBGPBUMULTI_ELEM@@@_STL@@@2@@_STL@@U12@@2@ABG@Z 00404c90 f i multidef.obj
 0001:00003cb0       ?_M_insert_overflow@?$vector@UMULTI_ELEM@@V?$allocator@UMULTI_ELEM@@@_STL@@@_STL@@IAEXPAUMULTI_ELEM@@ABU3@ABU__false_type@2@I_N@Z 00404cb0 f i multidef.obj
 0001:00003e40       ?insert@?$map@GPAVMultiDef@@U?$less@G@_STL@@V?$allocator@U?$pair@$$CBGPAVMultiDef@@@_STL@@@3@@_STL@@QAE?AU?$_Rb_tree_iterator@U?$pair@$$CBGPAVMultiDef@@@_STL@@U?$_Nonconst_traits@U?$pair@$$CBGPAVMultiDef@@@_STL@@@2@@2@U32@ABU?$pair@$$CBGPAVMultiDef@@@2@@Z 00404e40 f i multidef.obj
 0001:00003e60       ??_G?$basic_istringstream@DV?$char_traits@D@_STL@@V?$allocator@D@2@@_STL@@UAEPAXI@Z 00404e60 f i multidef.obj
 0001:00003e60       ??_E?$basic_istringstream@DV?$char_traits@D@_STL@@V?$allocator@D@2@@_STL@@UAEPAXI@Z 00404e60 f i multidef.obj
 0001:00003e90       ??0?$basic_string@DV?$char_traits@D@_STL@@V?$allocator@D@2@@_STL@@QAE@ABV01@@Z 00404e90 f i multidef.obj
 0001:00003f10       ??$append@PBD@?$basic_string@DV?$char_traits@D@_STL@@V?$allocator@D@2@@_STL@@QAEAAV01@PBD0@Z 00404f10 f i multidef.obj
 0001:00003f30       ??0?$basic_stringbuf@DV?$char_traits@D@_STL@@V?$allocator@D@2@@_STL@@QAE@ABV?$basic_string@DV?$char_traits@D@_STL@@V?$allocator@D@2@@1@H@Z 00404f30 f i multidef.obj
 0001:00003fc0       ??$append@PAD@?$basic_string@DV?$char_traits@D@_STL@@V?$allocator@D@2@@_STL@@QAEAAV01@PAD0@Z 00404fc0 f i multidef.obj
 0001:00003fe0       ??$_M_init_skip@DV?$char_traits@D@_STL@@@_STL@@YA_NAAV?$basic_istream@DV?$char_traits@D@_STL@@@0@@Z 00404fe0 f i multidef.obj
 0001:00004040       ??$_M_assign_dispatch@PAD@?$basic_string@DV?$char_traits@D@_STL@@V?$allocator@D@2@@_STL@@AAEAAV01@PAD0ABU__false_type@1@@Z 00405040 f i multidef.obj
 0001:000040b0       ?findcomponents@MultiDef@@QBE_NAAU?$_Rb_tree_iterator@U?$pair@$$CBGPBUMULTI_ELEM@@@_STL@@U?$_Const_traits@U?$pair@$$CBGPBUMULTI_ELEM@@@_STL@@@2@@_STL@@0HH@Z 004050b0 f   multidef.obj
 0001:00004110       ?body_contains@MultiDef@@QBE_NHH@Z 00405110 f   multidef.obj
 0001:00004160       ?find_component@MultiDef@@QBEPBUMULTI_ELEM@@HH@Z 00405160 f   multidef.obj
 0001:000041a0       ?add_to_internal_hull@MultiDef@@QAEXPBUMULTI_ELEM@@@Z 004051a0 f   multidef.obj
 0001:00004220       ?addrec@MultiDef@@QAEXPBUMULTI_ELEM@@@Z 00405220 f   multidef.obj
 0001:00004330       ?push_back@?$vector@UMULTI_ELEM@@V?$allocator@UMULTI_ELEM@@@_STL@@@_STL@@QAEXABUMULTI_ELEM@@@Z 00405330 f i multidef.obj
 0001:00004380       ??A?$map@GPAVMultiDef@@U?$less@G@_STL@@V?$allocator@U?$pair@$$CBGPAVMultiDef@@@_STL@@@3@@_STL@@QAEAAPAVMultiDef@@ABG@Z 00405380 f i multidef.obj
 0001:00004400       ?overflow@?$basic_stringbuf@DV?$char_traits@D@_STL@@V?$allocator@D@2@@_STL@@MAEHH@Z 00405400 f i multidef.obj
 0001:000044f0       ?push_back@?$basic_string@DV?$char_traits@D@_STL@@V?$allocator@D@2@@_STL@@QAEXD@Z 004054f0 f i multidef.obj
 0001:00004550       ?reserve@?$basic_string@DV?$char_traits@D@_STL@@V?$allocator@D@2@@_STL@@QAEXI@Z 00405550 f i multidef.obj
 0001:00004620       ?_M_append_buffer@?$basic_stringbuf@DV?$char_traits@D@_STL@@V?$allocator@D@2@@_STL@@ABEXXZ 00405620 f i multidef.obj
 0001:00004680       ?xsputn@?$basic_stringbuf@DV?$char_traits@D@_STL@@V?$allocator@D@2@@_STL@@MAEHPBDH@Z 00405680 f i multidef.obj
 0001:000047f0       ?_M_xsputnc@?$basic_stringbuf@DV?$char_traits@D@_STL@@V?$allocator@D@2@@_STL@@MAEHDH@Z 004057f0 f i multidef.obj
 0001:00004950       ?append@?$basic_string@DV?$char_traits@D@_STL@@V?$allocator@D@2@@_STL@@QAEAAV12@ID@Z 00405950 f i multidef.obj
 0001:00004a00       ?setbuf@?$basic_stringbuf@DV?$char_traits@D@_STL@@V?$allocator@D@2@@_STL@@MAEPAV?$basic_streambuf@DV?$char_traits@D@_STL@@@2@PADH@Z 00405a00 f i multidef.obj
 0001:00004ad0       ?seekoff@?$basic_stringbuf@DV?$char_traits@D@_STL@@V?$allocator@D@2@@_STL@@MAE?AV?$fpos@H@2@JHH@Z 00405ad0 f i multidef.obj
 0001:00004c50       ?seekpos@?$basic_stringbuf@DV?$char_traits@D@_STL@@V?$allocator@D@2@@_STL@@MAE?AV?$fpos@H@2@V32@H@Z 00405c50 f i multidef.obj
 0001:00004d80       ?append@?$basic_string@DV?$char_traits@D@_STL@@V?$allocator@D@2@@_STL@@QAEAAV12@ABV12@@Z 00405d80 f i multidef.obj
 0001:00004da0       ??0sentry@?$basic_istream@DV?$char_traits@D@_STL@@@_STL@@QAE@AAV12@_N@Z 00405da0 f i multidef.obj
 0001:00004de0       ??$assign@PAD@?$basic_string@DV?$char_traits@D@_STL@@V?$allocator@D@2@@_STL@@QAEAAV01@PAD0@Z 00405de0 f i multidef.obj
 0001:00004e00       ?add_to_hull@MultiDef@@QAEXPBUMULTI_ELEM@@@Z 00405e00 f   multidef.obj
 0001:00004f00       ?add_body_tohull@MultiDef@@QAEXXZ 00405f00 f   multidef.obj
 0001:00005300       ?computehull@MultiDef@@QAEXXZ 00406300 f   multidef.obj
 0001:00005310       ?init@MultiDef@@QAEXXZ     00406310 f   multidef.obj
 0001:00005370       ??$?HDV?$char_traits@D@_STL@@V?$allocator@D@1@@_STL@@YA?AV?$basic_string@DV?$char_traits@D@_STL@@V?$allocator@D@2@@0@PBDABV10@@Z 00406370 f i multidef.obj
 0001:00005480       ??$?HDV?$char_traits@D@_STL@@V?$allocator@D@1@@_STL@@YA?AV?$basic_string@DV?$char_traits@D@_STL@@V?$allocator@D@2@@0@ABV10@PBD@Z 00406480 f i multidef.obj
 0001:00005590       ??$?HDV?$char_traits@D@_STL@@V?$allocator@D@1@@_STL@@YA?AV?$basic_string@DV?$char_traits@D@_STL@@V?$allocator@D@2@@0@ABV10@0@Z 00406590 f i multidef.obj
 0001:00005690       ??$_M_get_num@DV?$char_traits@D@_STL@@J@_STL@@YAHAAV?$basic_istream@DV?$char_traits@D@_STL@@@0@AAJ@Z 00406690 f i multidef.obj
 0001:000057b0       ??$_M_get_num@DV?$char_traits@D@_STL@@G@_STL@@YAHAAV?$basic_istream@DV?$char_traits@D@_STL@@@0@AAG@Z 004067b0 f i multidef.obj
 0001:000058d0       ??4?$basic_string@DV?$char_traits@D@_STL@@V?$allocator@D@2@@_STL@@QAEAAV01@ABV01@@Z 004068d0 f i multidef.obj
 0001:00005900       ??5?$basic_istream@DV?$char_traits@D@_STL@@@_STL@@QAEAAV01@AAF@Z 00406900 f i multidef.obj
 0001:00005960       ??5?$basic_istream@DV?$char_traits@D@_STL@@@_STL@@QAEAAV01@AAG@Z 00406960 f i multidef.obj
 0001:00005980       ?imbue@?$basic_ios@DV?$char_traits@D@_STL@@@_STL@@QAE?AVlocale@2@ABV32@@Z 00406980 f i multidef.obj
 0001:00005a90       ?init@?$basic_ios@DV?$char_traits@D@_STL@@@_STL@@IAEXPAV?$basic_streambuf@DV?$char_traits@D@_STL@@@2@@Z 00406a90 f i multidef.obj
 0001:00005b50       ??0?$basic_istream@DV?$char_traits@D@_STL@@@_STL@@QAE@PAV?$basic_streambuf@DV?$char_traits@D@_STL@@@1@@Z 00406b50 f i multidef.obj
 0001:00005be0       ??0?$basic_istringstream@DV?$char_traits@D@_STL@@V?$allocator@D@2@@_STL@@QAE@ABV?$basic_string@DV?$char_traits@D@_STL@@V?$allocator@D@2@@1@H@Z 00406be0 f i multidef.obj
 0001:00005cb0       ??0MultiDef@@QAE@AAVConfigElem@@G@Z 00406cb0 f   multidef.obj
 0001:000066b0       ?read_multidefs@@YAXXZ     004076b0 f   multidef.obj
 0001:000067b0       ?width@ios_base@_STL@@QBEHXZ 004077b0 f i polfile1.obj
 0001:000067c0       ?_FILE_O_avail@_STL@@YAHPBU_iobuf@@@Z 004077c0 f i polfile1.obj
 0001:000067d0       ?_FILE_O_postincr@_STL@@YAAADPAU_iobuf@@@Z 004077d0 f i polfile1.obj
 0001:000067e0       ?sputc@?$basic_streambuf@DV?$char_traits@D@_STL@@@_STL@@QAEHD@Z 004077e0 f i polfile1.obj
 0001:00006820       ?sputn@?$basic_streambuf@DV?$char_traits@D@_STL@@@_STL@@QAEHPBDH@Z 00407820 f i polfile1.obj
 0001:00006830       ?_M_sputnc@?$basic_streambuf@DV?$char_traits@D@_STL@@@_STL@@QAEHDH@Z 00407830 f i polfile1.obj
 0001:00006840       ?c_str@?$basic_string@DV?$char_traits@D@_STL@@V?$allocator@D@2@@_STL@@QBEPBDXZ 00407840 f i polfile1.obj
 0001:00006850       ??6?$basic_ostream@DV?$char_traits@D@_STL@@@_STL@@QAEAAV01@P6AAAV01@AAV01@@Z@Z 00407850 f i polfile1.obj
 0001:00006860       ??6?$basic_ostream@DV?$char_traits@D@_STL@@@_STL@@QAEAAV01@P6AAAVios_base@1@AAV21@@Z@Z 00407860 f i polfile1.obj
 0001:00006890       ?size@?$vector@USTATIC_ENTRY@@V?$allocator@USTATIC_ENTRY@@@_STL@@@_STL@@QBEIXZ 00407890 f i polfile1.obj
 0001:000068a0       ??0?$allocator@USTATIC_ENTRY@@@_STL@@QAE@XZ 004078a0 f i polfile1.obj
 0001:000068b0       ??1?$allocator@USTATIC_ENTRY@@@_STL@@QAE@XZ 004078b0 f i polfile1.obj
 0001:000068c0       ?begin@?$vector@USTATIC_ENTRY@@V?$allocator@USTATIC_ENTRY@@@_STL@@@_STL@@QAEPAUSTATIC_ENTRY@@XZ 004078c0 f i polfile1.obj
 0001:000068d0       ??1?$_STLP_alloc_proxy@PAUSTATIC_ENTRY@@U1@V?$allocator@USTATIC_ENTRY@@@_STL@@@_STL@@QAE@XZ 004078d0 f i polfile1.obj
 0001:000068e0       ?_M_set@?$vector@USTATIC_ENTRY@@V?$allocator@USTATIC_ENTRY@@@_STL@@@_STL@@IAEXPAUSTATIC_ENTRY@@00@Z 004078e0 f i polfile1.obj
 0001:00006900       ??0?$allocator@USTATIC_ENTRY@@@_STL@@QAE@ABV01@@Z 00407900 f i polfile1.obj
 0001:00006910       ??$_Construct@USTATIC_ENTRY@@U1@@_STL@@YAXPAUSTATIC_ENTRY@@ABU1@@Z 00407910 f i polfile1.obj
 0001:00006930       ?fill@?$basic_ios@DV?$char_traits@D@_STL@@@_STL@@QBEDXZ 00407930 f i polfile1.obj
 0001:00006940       ??Bsentry@?$basic_ostream@DV?$char_traits@D@_STL@@@_STL@@QBE_NXZ 00407940 f i polfile1.obj
 0001:00006950       ?put@?$num_put@DV?$ostreambuf_iterator@DV?$char_traits@D@_STL@@@_STL@@@_STL@@QBE?AV?$ostreambuf_iterator@DV?$char_traits@D@_STL@@@2@V32@AAVios_base@2@DJ@Z 00407950 f i polfile1.obj
 0001:00006980       ?put@?$num_put@DV?$ostreambuf_iterator@DV?$char_traits@D@_STL@@@_STL@@@_STL@@QBE?AV?$ostreambuf_iterator@DV?$char_traits@D@_STL@@@2@V32@AAVios_base@2@DK@Z 00407980 f i polfile1.obj
 0001:000069b0       ??0?$ostreambuf_iterator@DV?$char_traits@D@_STL@@@_STL@@QAE@PAV?$basic_streambuf@DV?$char_traits@D@_STL@@@1@@Z 004079b0 f i polfile1.obj
 0001:000069d0       ?failed@?$ostreambuf_iterator@DV?$char_traits@D@_STL@@@_STL@@QBE_NXZ 004079d0 f i polfile1.obj
 0001:000069e0       ??$use_facet@V?$num_put@DV?$ostreambuf_iterator@DV?$char_traits@D@_STL@@@_STL@@@_STL@@@_STL@@YAABV?$num_put@DV?$ostreambuf_iterator@DV?$char_traits@D@_STL@@@_STL@@@0@ABVlocale@0@@Z 004079e0 f i polfile1.obj
 0001:000069f0       ??$_Destroy@USTATIC_ENTRY@@@_STL@@YAXPAUSTATIC_ENTRY@@@Z 004079f0 f i polfile1.obj
 0001:00006a00       ??A?$vector@USTATIC_ENTRY@@V?$allocator@USTATIC_ENTRY@@@_STL@@@_STL@@QAEAAUSTATIC_ENTRY@@I@Z 00407a00 f i polfile1.obj
 0001:00006a10       ?allocate@?$allocator@USTATIC_ENTRY@@@_STL@@QAEPAUSTATIC_ENTRY@@IPBX@Z 00407a10 f i polfile1.obj
 0001:00006a40       ?deallocate@?$allocator@USTATIC_ENTRY@@@_STL@@QAEXPAUSTATIC_ENTRY@@I@Z 00407a40 f i polfile1.obj
 0001:00006a70       ??0?$_STLP_alloc_proxy@PAUSTATIC_ENTRY@@U1@V?$allocator@USTATIC_ENTRY@@@_STL@@@_STL@@QAE@ABV?$allocator@USTATIC_ENTRY@@@1@PAUSTATIC_ENTRY@@@Z 00407a70 f i polfile1.obj
 0001:00006a80       ??1sentry@?$basic_ostream@DV?$char_traits@D@_STL@@@_STL@@QAE@XZ 00407a80 f i polfile1.obj
 0001:00006aa0       ??$_M_init@DV?$char_traits@D@_STL@@@_STL@@YA_NAAV?$basic_ostream@DV?$char_traits@D@_STL@@@0@@Z 00407aa0 f i polfile1.obj
 0001:00006b00       ??$__destroy_aux@PAUSTATIC_ENTRY@@@_STL@@YAXPAUSTATIC_ENTRY@@0ABU__false_type@0@@Z 00407b00 f i polfile1.obj
 0001:00006b10       ?newstat_dont_add@@YA_NAAV?$vector@USTATIC_ENTRY@@V?$allocator@USTATIC_ENTRY@@@_STL@@@_STL@@PAUUSTRUCT_STATIC@@@Z 00407b10 f   polfile1.obj
 0001:00006bc0       ??0?$_Vector_base@USTATIC_ENTRY@@V?$allocator@USTATIC_ENTRY@@@_STL@@@_STL@@QAE@ABV?$allocator@USTATIC_ENTRY@@@1@@Z 00407bc0 f i polfile1.obj
 0001:00006bf0       ??1?$_Vector_base@USTATIC_ENTRY@@V?$allocator@USTATIC_ENTRY@@@_STL@@@_STL@@QAE@XZ 00407bf0 f i polfile1.obj
 0001:00006c20       ??0sentry@?$basic_ostream@DV?$char_traits@D@_STL@@@_STL@@QAE@AAV12@@Z 00407c20 f i polfile1.obj
 0001:00006c40       ?_M_put_nowiden@?$basic_ostream@DV?$char_traits@D@_STL@@@_STL@@QAEXPBD@Z 00407c40 f i polfile1.obj
 0001:00006e00       ?put@?$basic_ostream@DV?$char_traits@D@_STL@@@_STL@@QAEAAV12@D@Z 00407e00 f i polfile1.obj
 0001:00006f10       ??$__destroy@PAUSTATIC_ENTRY@@U1@@_STL@@YAXPAUSTATIC_ENTRY@@00@Z 00407f10 f i polfile1.obj
 0001:00006f20       ??$_M_range_initialize@PBD@?$basic_string@DV?$char_traits@D@_STL@@V?$allocator@D@2@@_STL@@AAEXPBD0ABUforward_iterator_tag@1@@Z 00407f20 f i polfile1.obj
 0001:00006f60       ??0?$vector@USTATIC_ENTRY@@V?$allocator@USTATIC_ENTRY@@@_STL@@@_STL@@QAE@ABV?$allocator@USTATIC_ENTRY@@@1@@Z 00407f60 f i polfile1.obj
 0001:00006f70       ??$?6V?$char_traits@D@_STL@@@_STL@@YAAAV?$basic_ostream@DV?$char_traits@D@_STL@@@0@AAV10@PBD@Z 00407f70 f i polfile1.obj
 0001:00006f90       ??$endl@DV?$char_traits@D@_STL@@@_STL@@YAAAV?$basic_ostream@DV?$char_traits@D@_STL@@@0@AAV10@@Z 00407f90 f i polfile1.obj
 0001:00006ff0       ??$_M_put_num@DV?$char_traits@D@_STL@@K@_STL@@YAAAV?$basic_ostream@DV?$char_traits@D@_STL@@@0@AAV10@K@Z 00407ff0 f i polfile1.obj
 0001:00007130       ??$_M_put_num@DV?$char_traits@D@_STL@@J@_STL@@YAAAV?$basic_ostream@DV?$char_traits@D@_STL@@@0@AAV10@J@Z 00408130 f i polfile1.obj
 0001:00007270       ??$_Destroy@PAUSTATIC_ENTRY@@@_STL@@YAXPAUSTATIC_ENTRY@@0@Z 00408270 f i polfile1.obj
 0001:00007280       ??$__uninitialized_copy@PAUSTATIC_ENTRY@@PAU1@@_STL@@YAPAUSTATIC_ENTRY@@PAU1@00ABU__false_type@0@@Z 00408280 f i polfile1.obj
 0001:000072b0       ??$__uninitialized_fill_n@PAUSTATIC_ENTRY@@IU1@@_STL@@YAPAUSTATIC_ENTRY@@PAU1@IABU1@ABU__false_type@0@@Z 004082b0 f i polfile1.obj
 0001:000072e0       ??$_M_range_initialize@PBD@?$basic_string@DV?$char_traits@D@_STL@@V?$allocator@D@2@@_STL@@AAEXPBD0@Z 004082e0 f i polfile1.obj
 0001:00007320       ??6?$basic_ostream@DV?$char_traits@D@_STL@@@_STL@@QAEAAV01@G@Z 00408320 f i polfile1.obj
 0001:00007340       ??6?$basic_ostream@DV?$char_traits@D@_STL@@@_STL@@QAEAAV01@H@Z 00408340 f i polfile1.obj
 0001:00007360       ??6?$basic_ostream@DV?$char_traits@D@_STL@@@_STL@@QAEAAV01@I@Z 00408360 f i polfile1.obj
 0001:00007380       ??1?$vector@USTATIC_ENTRY@@V?$allocator@USTATIC_ENTRY@@@_STL@@@_STL@@QAE@XZ 00408380 f i polfile1.obj
 0001:000073b0       ?_M_clear@?$vector@USTATIC_ENTRY@@V?$allocator@USTATIC_ENTRY@@@_STL@@@_STL@@IAEXXZ 004083b0 f i polfile1.obj
 0001:000073e0       ??0?$basic_string@DV?$char_traits@D@_STL@@V?$allocator@D@2@@_STL@@QAE@PBDABV?$allocator@D@1@@Z 004083e0 f i polfile1.obj
 0001:00007470       ??1RealmDescriptor@@QAE@XZ 00408470 f i polfile1.obj
 0001:00007540       ?_M_insert_overflow@?$vector@USTATIC_ENTRY@@V?$allocator@USTATIC_ENTRY@@@_STL@@@_STL@@IAEXPAUSTATIC_ENTRY@@ABU3@ABU__false_type@2@I_N@Z 00408540 f i polfile1.obj
 0001:00007690       ?push_back@?$vector@USTATIC_ENTRY@@V?$allocator@USTATIC_ENTRY@@@_STL@@@_STL@@QAEXABUSTATIC_ENTRY@@@Z 00408690 f i polfile1.obj
 0001:000076d0       ?write_pol_static_files@@YAHABV?$basic_string@DV?$char_traits@D@_STL@@V?$allocator@D@2@@_STL@@@Z 004086d0 f   polfile1.obj
 0001:00007ec0       ??0runtime_error@_STL@@QAE@ABV?$basic_string@DV?$char_traits@D@_STL@@V?$allocator@D@2@@1@@Z 00408ec0 f i uofile00.obj
 0001:00007ee0       ??_Gruntime_error@_STL@@UAEPAXI@Z 00408ee0 f i uofile00.obj
 0001:00007ee0       ??_Eruntime_error@_STL@@UAEPAXI@Z 00408ee0 f i uofile00.obj
 0001:00007f00       ?_FILE_O_begin@_STL@@YAPADPBU_iobuf@@@Z 00408f00 f i uofile00.obj
 0001:00007f10       ?_FILE_O_next@_STL@@YAPADPBU_iobuf@@@Z 00408f10 f i uofile00.obj
 0001:00007f20       ?_FILE_O_end@_STL@@YAPADPBU_iobuf@@@Z 00408f20 f i uofile00.obj
 0001:00007f30       ?pbase@?$basic_streambuf@DV?$char_traits@D@_STL@@@_STL@@IBEPADXZ 00408f30 f i uofile00.obj
 0001:00007f40       ?pptr@?$basic_streambuf@DV?$char_traits@D@_STL@@@_STL@@IBEPADXZ 00408f40 f i uofile00.obj
 0001:00007f50       ?epptr@?$basic_streambuf@DV?$char_traits@D@_STL@@@_STL@@IBEPADXZ 00408f50 f i uofile00.obj
 0001:00007f60       ?copy@?$__char_traits_base@DH@_STL@@SAPADPADPBDI@Z 00408f60 f i uofile00.obj
 0001:00007f90       ?begin@?$basic_string@DV?$char_traits@D@_STL@@V?$allocator@D@2@@_STL@@QAEPADXZ 00408f90 f i uofile00.obj
 0001:00007fa0       ??1?$basic_ostream@DV?$char_traits@D@_STL@@@_STL@@UAE@XZ 00408fa0 f i uofile00.obj
 0001:00007fb0       ??_E?$basic_ostream@DV?$char_traits@D@_STL@@@_STL@@UAEPAXI@Z 00408fb0 f i uofile00.obj
 0001:00007fb0       ??_G?$basic_ostream@DV?$char_traits@D@_STL@@@_STL@@UAEPAXI@Z 00408fb0 f i uofile00.obj
 0001:00007fe0       ??$__stlp_string_fill@DV?$char_traits@D@_STL@@@_STL@@YA_NAAV?$basic_ostream@DV?$char_traits@D@_STL@@@0@PAV?$basic_streambuf@DV?$char_traits@D@_STL@@@0@I@Z 00408fe0 f i uofile00.obj
 0001:00008040       ??$?6DV?$char_traits@D@_STL@@V?$allocator@D@1@@_STL@@YAAAV?$basic_ostream@DV?$char_traits@D@_STL@@@0@AAV10@ABV?$basic_string@DV?$char_traits@D@_STL@@V?$allocator@D@2@@0@@Z 00409040 f i uofile00.obj
 0001:00008160       ??6?$basic_ostream@DV?$char_traits@D@_STL@@@_STL@@QAEAAV01@J@Z 00409160 f i uofile00.obj
 0001:00008180       ??1?$basic_ostringstream@DV?$char_traits@D@_STL@@V?$allocator@D@2@@_STL@@UAE@XZ 00409180 f i uofile00.obj
 0001:000081e0       ??0?$basic_stringbuf@DV?$char_traits@D@_STL@@V?$allocator@D@2@@_STL@@QAE@H@Z 004091e0 f i uofile00.obj
 0001:00008260       ??_D?$basic_ostringstream@DV?$char_traits@D@_STL@@V?$allocator@D@2@@_STL@@QAEXXZ 00409260 f i uofile00.obj
 0001:00008280       ??_G?$basic_ostringstream@DV?$char_traits@D@_STL@@V?$allocator@D@2@@_STL@@UAEPAXI@Z 00409280 f i uofile00.obj
 0001:00008280       ??_E?$basic_ostringstream@DV?$char_traits@D@_STL@@V?$allocator@D@2@@_STL@@UAEPAXI@Z 00409280 f i uofile00.obj
 0001:000082b0       ?assign@?$basic_string@DV?$char_traits@D@_STL@@V?$allocator@D@2@@_STL@@QAEAAV12@PBD0@Z 004092b0 f i uofile00.obj
 0001:00008350       ?str@?$basic_stringbuf@DV?$char_traits@D@_STL@@V?$allocator@D@2@@_STL@@QBE?AV?$basic_string@DV?$char_traits@D@_STL@@V?$allocator@D@2@@2@XZ 00409350 f i uofile00.obj
 0001:00008380       ?open_uo_file@@YAPAU_iobuf@@ABV?$basic_string@DV?$char_traits@D@_STL@@V?$allocator@D@2@@_STL@@@Z 00409380 f   uofile00.obj
 0001:000085a0       ??0__Named_exception@_STL@@QAE@ABV01@@Z 004095a0 f i uofile00.obj
 0001:000085d0       ??_G__Named_exception@_STL@@UAEPAXI@Z 004095d0 f i uofile00.obj
 0001:000085d0       ??_E__Named_exception@_STL@@UAEPAXI@Z 004095d0 f i uofile00.obj
 0001:000085f0       ??0runtime_error@_STL@@QAE@ABV01@@Z 004095f0 f i uofile00.obj
 0001:00008620       ??4?$basic_string@DV?$char_traits@D@_STL@@V?$allocator@D@2@@_STL@@QAEAAV01@PBD@Z 00409620 f i uofile00.obj
 0001:00008650       ?str@?$basic_ostringstream@DV?$char_traits@D@_STL@@V?$allocator@D@2@@_STL@@QBE?AV?$basic_string@DV?$char_traits@D@_STL@@V?$allocator@D@2@@2@XZ 00409650 f i uofile00.obj
 0001:00008670       ??0?$basic_ostream@DV?$char_traits@D@_STL@@@_STL@@QAE@PAV?$basic_streambuf@DV?$char_traits@D@_STL@@@1@@Z 00409670 f i uofile00.obj
 0001:00008700       ??0?$basic_ostringstream@DV?$char_traits@D@_STL@@V?$allocator@D@2@@_STL@@QAE@H@Z 00409700 f i uofile00.obj
 0001:000087d0       ??$tostring@J@@YA?AV?$basic_string@DV?$char_traits@D@_STL@@V?$allocator@D@2@@_STL@@ABJ@Z 004097d0 f i uofile00.obj
 0001:00008880       ?open_uo_data_files@@YAXXZ 00409880 f   uofile00.obj
 0001:00009320       ?landtile_uoflags@@YAKG@Z  0040a320 f   uofile01.obj
 0001:00009360       ??0?$pair@$$CBKUUSTRUCT_VERSION@@@_STL@@QAE@ABKABUUSTRUCT_VERSION@@@Z 0040a360 f i uofile01.obj
 0001:000093a0       ??0?$_Rb_tree_iterator@U?$pair@$$CBKUUSTRUCT_VERSION@@@_STL@@U?$_Const_traits@U?$pair@$$CBKUUSTRUCT_VERSION@@@_STL@@@2@@_STL@@QAE@ABU?$_Rb_tree_iterator@U?$pair@$$CBKUUSTRUCT_VERSION@@@_STL@@U?$_Nonconst_traits@U?$pair@$$CBKUUSTRUCT_VERSION@@@_STL@@@2@@1@@Z 0040a3a0 f i uofile01.obj
 0001:000093b0       ??D?$_Rb_tree_iterator@U?$pair@$$CBKUUSTRUCT_VERSION@@@_STL@@U?$_Const_traits@U?$pair@$$CBKUUSTRUCT_VERSION@@@_STL@@@2@@_STL@@QBEABU?$pair@$$CBKUUSTRUCT_VERSION@@@1@XZ 0040a3b0 f i uofile01.obj
 0001:000093c0       ??0?$allocator@U?$pair@$$CBKUUSTRUCT_VERSION@@@_STL@@@_STL@@QAE@XZ 0040a3c0 f i uofile01.obj
 0001:000093d0       ??1?$allocator@U?$pair@$$CBKUUSTRUCT_VERSION@@@_STL@@@_STL@@QAE@XZ 0040a3d0 f i uofile01.obj
 0001:000093e0       ?_M_root@?$_Rb_tree@KU?$pair@$$CBKUUSTRUCT_VERSION@@@_STL@@U?$_Select1st@U?$pair@$$CBKUUSTRUCT_VERSION@@@_STL@@@2@U?$less@K@2@V?$allocator@U?$pair@$$CBKUUSTRUCT_VERSION@@@_STL@@@2@@_STL@@IBEAAPAU?$_Rb_tree_node@U?$pair@$$CBKUUSTRUCT_VERSION@@@_STL@@@2@XZ 0040a3e0 f i uofile01.obj
 0001:000093f0       ?_M_leftmost@?$_Rb_tree@KU?$pair@$$CBKUUSTRUCT_VERSION@@@_STL@@U?$_Select1st@U?$pair@$$CBKUUSTRUCT_VERSION@@@_STL@@@2@U?$less@K@2@V?$allocator@U?$pair@$$CBKUUSTRUCT_VERSION@@@_STL@@@2@@_STL@@IBEAAPAU?$_Rb_tree_node@U?$pair@$$CBKUUSTRUCT_VERSION@@@_STL@@@2@XZ 0040a3f0 f i uofile01.obj
 0001:00009400       ?_M_rightmost@?$_Rb_tree@KU?$pair@$$CBKUUSTRUCT_VERSION@@@_STL@@U?$_Select1st@U?$pair@$$CBKUUSTRUCT_VERSION@@@_STL@@@2@U?$less@K@2@V?$allocator@U?$pair@$$CBKUUSTRUCT_VERSION@@@_STL@@@2@@_STL@@IBEAAPAU?$_Rb_tree_node@U?$pair@$$CBKUUSTRUCT_VERSION@@@_STL@@@2@XZ 0040a400 f i uofile01.obj
 0001:00009410       ??1?$allocator@U?$_Rb_tree_node@U?$pair@$$CBKUUSTRUCT_VERSION@@@_STL@@@_STL@@@_STL@@QAE@XZ 0040a410 f i uofile01.obj
 0001:00009420       ??0?$_Rb_tree_iterator@U?$pair@$$CBKUUSTRUCT_VERSION@@@_STL@@U?$_Nonconst_traits@U?$pair@$$CBKUUSTRUCT_VERSION@@@_STL@@@2@@_STL@@QAE@PAU?$_Rb_tree_node@U?$pair@$$CBKUUSTRUCT_VERSION@@@_STL@@@1@@Z 0040a420 f i uofile01.obj
 0001:00009430       ?_S_color@?$_Rb_tree@KU?$pair@$$CBKUUSTRUCT_VERSION@@@_STL@@U?$_Select1st@U?$pair@$$CBKUUSTRUCT_VERSION@@@_STL@@@2@U?$less@K@2@V?$allocator@U?$pair@$$CBKUUSTRUCT_VERSION@@@_STL@@@2@@_STL@@KAAA_NPAU?$_Rb_tree_node@U?$pair@$$CBKUUSTRUCT_VERSION@@@_STL@@@2@@Z 0040a430 f i uofile01.obj
 0001:00009440       ??0?$allocator@U?$_Rb_tree_node@U?$pair@$$CBKUUSTRUCT_VERSION@@@_STL@@@_STL@@@_STL@@QAE@ABV01@@Z 0040a440 f i uofile01.obj
 0001:00009450       ??$?0U?$pair@$$CBKUUSTRUCT_VERSION@@@_STL@@@?$allocator@U?$_Rb_tree_node@U?$pair@$$CBKUUSTRUCT_VERSION@@@_STL@@@_STL@@@_STL@@QAE@ABV?$allocator@U?$pair@$$CBKUUSTRUCT_VERSION@@@_STL@@@1@@Z 0040a450 f i uofile01.obj
 0001:00009460       ?_S_left@?$_Rb_tree@KU?$pair@$$CBKUUSTRUCT_VERSION@@@_STL@@U?$_Select1st@U?$pair@$$CBKUUSTRUCT_VERSION@@@_STL@@@2@U?$less@K@2@V?$allocator@U?$pair@$$CBKUUSTRUCT_VERSION@@@_STL@@@2@@_STL@@KAAAPAU?$_Rb_tree_node@U?$pair@$$CBKUUSTRUCT_VERSION@@@_STL@@@2@PAU32@@Z 0040a460 f i uofile01.obj
 0001:00009470       ?_S_right@?$_Rb_tree@KU?$pair@$$CBKUUSTRUCT_VERSION@@@_STL@@U?$_Select1st@U?$pair@$$CBKUUSTRUCT_VERSION@@@_STL@@@2@U?$less@K@2@V?$allocator@U?$pair@$$CBKUUSTRUCT_VERSION@@@_STL@@@2@@_STL@@KAAAPAU?$_Rb_tree_node@U?$pair@$$CBKUUSTRUCT_VERSION@@@_STL@@@2@PAU32@@Z 0040a470 f i uofile01.obj
 0001:00009480       ?begin@?$_Rb_tree@KU?$pair@$$CBKUUSTRUCT_VERSION@@@_STL@@U?$_Select1st@U?$pair@$$CBKUUSTRUCT_VERSION@@@_STL@@@2@U?$less@K@2@V?$allocator@U?$pair@$$CBKUUSTRUCT_VERSION@@@_STL@@@2@@_STL@@QAE?AU?$_Rb_tree_iterator@U?$pair@$$CBKUUSTRUCT_VERSION@@@_STL@@U?$_Nonconst_traits@U?$pair@$$CBKUUSTRUCT_VERSION@@@_STL@@@2@@2@XZ 0040a480 f i uofile01.obj
 0001:00009490       ??R?$less@K@_STL@@QBE_NABK0@Z 0040a490 f i uofile01.obj
 0001:000094b0       ??F?$_Rb_tree_iterator@U?$pair@$$CBKUUSTRUCT_VERSION@@@_STL@@U?$_Nonconst_traits@U?$pair@$$CBKUUSTRUCT_VERSION@@@_STL@@@2@@_STL@@QAEAAU01@XZ 0040a4b0 f i uofile01.obj
 0001:000094d0       ??R?$_Select1st@U?$pair@$$CBKUUSTRUCT_VERSION@@@_STL@@@_STL@@QBEABKABU?$pair@$$CBKUUSTRUCT_VERSION@@@1@@Z 0040a4d0 f i uofile01.obj
 0001:000094e0       ?_S_value@?$_Rb_tree@KU?$pair@$$CBKUUSTRUCT_VERSION@@@_STL@@U?$_Select1st@U?$pair@$$CBKUUSTRUCT_VERSION@@@_STL@@@2@U?$less@K@2@V?$allocator@U?$pair@$$CBKUUSTRUCT_VERSION@@@_STL@@@2@@_STL@@KAAAU?$pair@$$CBKUUSTRUCT_VERSION@@@2@PAU?$_Rb_tree_node@U?$pair@$$CBKUUSTRUCT_VERSION@@@_STL@@@2@@Z 0040a4e0 f i uofile01.obj
 0001:000094f0       ??0?$_Rb_tree_iterator@U?$pair@$$CBKUUSTRUCT_VERSION@@@_STL@@U?$_Nonconst_traits@U?$pair@$$CBKUUSTRUCT_VERSION@@@_STL@@@2@@_STL@@QAE@ABU01@@Z 0040a4f0 f i uofile01.obj
 0001:00009500       ??$_Destroy@U?$pair@$$CBKUUSTRUCT_VERSION@@@_STL@@@_STL@@YAXPAU?$pair@$$CBKUUSTRUCT_VERSION@@@0@@Z 0040a500 f i uofile01.obj
 0001:00009510       ?_S_parent@?$_Rb_tree@KU?$pair@$$CBKUUSTRUCT_VERSION@@@_STL@@U?$_Select1st@U?$pair@$$CBKUUSTRUCT_VERSION@@@_STL@@@2@U?$less@K@2@V?$allocator@U?$pair@$$CBKUUSTRUCT_VERSION@@@_STL@@@2@@_STL@@KAAAPAU?$_Rb_tree_node@U?$pair@$$CBKUUSTRUCT_VERSION@@@_STL@@@2@PAU32@@Z 0040a510 f i uofile01.obj
 0001:00009520       ??0?$pair@$$CBKUUSTRUCT_VERSION@@@_STL@@QAE@ABU01@@Z 0040a520 f i uofile01.obj
 0001:00009560       ?end@?$_Rb_tree@KU?$pair@$$CBKUUSTRUCT_VERSION@@@_STL@@U?$_Select1st@U?$pair@$$CBKUUSTRUCT_VERSION@@@_STL@@@2@U?$less@K@2@V?$allocator@U?$pair@$$CBKUUSTRUCT_VERSION@@@_STL@@@2@@_STL@@QAE?AU?$_Rb_tree_iterator@U?$pair@$$CBKUUSTRUCT_VERSION@@@_STL@@U?$_Nonconst_traits@U?$pair@$$CBKUUSTRUCT_VERSION@@@_STL@@@2@@2@XZ 0040a560 f i uofile01.obj
 0001:00009570       ??1?$_STLP_alloc_proxy@PAU?$_Rb_tree_node@U?$pair@$$CBKUUSTRUCT_VERSION@@@_STL@@@_STL@@U12@V?$allocator@U?$_Rb_tree_node@U?$pair@$$CBKUUSTRUCT_VERSION@@@_STL@@@_STL@@@2@@_STL@@QAE@XZ 0040a570 f i uofile01.obj
 0001:00009580       ?_M_empty_initialize@?$_Rb_tree@KU?$pair@$$CBKUUSTRUCT_VERSION@@@_STL@@U?$_Select1st@U?$pair@$$CBKUUSTRUCT_VERSION@@@_STL@@@2@U?$less@K@2@V?$allocator@U?$pair@$$CBKUUSTRUCT_VERSION@@@_STL@@@2@@_STL@@AAEXXZ 0040a580 f i uofile01.obj
 0001:000095a0       ?deallocate@?$allocator@U?$_Rb_tree_node@U?$pair@$$CBKUUSTRUCT_VERSION@@@_STL@@@_STL@@@_STL@@QAEXPAU?$_Rb_tree_node@U?$pair@$$CBKUUSTRUCT_VERSION@@@_STL@@@2@I@Z 0040a5a0 f i uofile01.obj
 0001:000095e0       ??0?$_STLP_alloc_proxy@PAU?$_Rb_tree_node@U?$pair@$$CBKUUSTRUCT_VERSION@@@_STL@@@_STL@@U12@V?$allocator@U?$_Rb_tree_node@U?$pair@$$CBKUUSTRUCT_VERSION@@@_STL@@@_STL@@@2@@_STL@@QAE@ABV?$allocator@U?$_Rb_tree_node@U?$pair@$$CBKUUSTRUCT_VERSION@@@_STL@@@_STL@@@1@PAU?$_Rb_tree_node@U?$pair@$$CBKUUSTRUCT_VERSION@@@_STL@@@1@@Z 0040a5e0 f i uofile01.obj
 0001:000095f0       ?allocate@?$allocator@U?$_Rb_tree_node@U?$pair@$$CBKUUSTRUCT_VERSION@@@_STL@@@_STL@@@_STL@@QAEPAU?$_Rb_tree_node@U?$pair@$$CBKUUSTRUCT_VERSION@@@_STL@@@2@IPBX@Z 0040a5f0 f i uofile01.obj
 0001:00009630       ?_M_erase@?$_Rb_tree@KU?$pair@$$CBKUUSTRUCT_VERSION@@@_STL@@U?$_Select1st@U?$pair@$$CBKUUSTRUCT_VERSION@@@_STL@@@2@U?$less@K@2@V?$allocator@U?$pair@$$CBKUUSTRUCT_VERSION@@@_STL@@@2@@_STL@@AAEXPAU?$_Rb_tree_node@U?$pair@$$CBKUUSTRUCT_VERSION@@@_STL@@@2@@Z 0040a630 f i uofile01.obj
 0001:00009670       ?_S_key@?$_Rb_tree@KU?$pair@$$CBKUUSTRUCT_VERSION@@@_STL@@U?$_Select1st@U?$pair@$$CBKUUSTRUCT_VERSION@@@_STL@@@2@U?$less@K@2@V?$allocator@U?$pair@$$CBKUUSTRUCT_VERSION@@@_STL@@@2@@_STL@@KAABKPAU?$_Rb_tree_node@U?$pair@$$CBKUUSTRUCT_VERSION@@@_STL@@@2@@Z 0040a670 f i uofile01.obj
 0001:00009680       ?_S_key@?$_Rb_tree@KU?$pair@$$CBKUUSTRUCT_VERSION@@@_STL@@U?$_Select1st@U?$pair@$$CBKUUSTRUCT_VERSION@@@_STL@@@2@U?$less@K@2@V?$allocator@U?$pair@$$CBKUUSTRUCT_VERSION@@@_STL@@@2@@_STL@@KAABKPAU_Rb_tree_node_base@2@@Z 0040a680 f i uofile01.obj
 0001:00009690       ??0?$pair@U?$_Rb_tree_iterator@U?$pair@$$CBKUUSTRUCT_VERSION@@@_STL@@U?$_Nonconst_traits@U?$pair@$$CBKUUSTRUCT_VERSION@@@_STL@@@2@@_STL@@_N@_STL@@QAE@ABU?$_Rb_tree_iterator@U?$pair@$$CBKUUSTRUCT_VERSION@@@_STL@@U?$_Nonconst_traits@U?$pair@$$CBKUUSTRUCT_VERSION@@@_STL@@@2@@1@AB_N@Z 0040a690 f i uofile01.obj
 0001:000096b0       ??$_M_find@K@?$_Rb_tree@KU?$pair@$$CBKUUSTRUCT_VERSION@@@_STL@@U?$_Select1st@U?$pair@$$CBKUUSTRUCT_VERSION@@@_STL@@@2@U?$less@K@2@V?$allocator@U?$pair@$$CBKUUSTRUCT_VERSION@@@_STL@@@2@@_STL@@ABEPAU?$_Rb_tree_node@U?$pair@$$CBKUUSTRUCT_VERSION@@@_STL@@@1@ABK@Z 0040a6b0 f i uofile01.obj
 0001:000096f0       ??$_Construct@U?$pair@$$CBKUUSTRUCT_VERSION@@@_STL@@U12@@_STL@@YAXPAU?$pair@$$CBKUUSTRUCT_VERSION@@@0@ABU10@@Z 0040a6f0 f i uofile01.obj
 0001:00009730       ?end@?$map@KUUSTRUCT_VERSION@@U?$less@K@_STL@@V?$allocator@U?$pair@$$CBKUUSTRUCT_VERSION@@@_STL@@@3@@_STL@@QAE?AU?$_Rb_tree_iterator@U?$pair@$$CBKUUSTRUCT_VERSION@@@_STL@@U?$_Nonconst_traits@U?$pair@$$CBKUUSTRUCT_VERSION@@@_STL@@@2@@2@XZ 0040a730 f i uofile01.obj
 0001:00009740       ?clear@?$_Rb_tree@KU?$pair@$$CBKUUSTRUCT_VERSION@@@_STL@@U?$_Select1st@U?$pair@$$CBKUUSTRUCT_VERSION@@@_STL@@@2@U?$less@K@2@V?$allocator@U?$pair@$$CBKUUSTRUCT_VERSION@@@_STL@@@2@@_STL@@QAEXXZ 0040a740 f i uofile01.obj
 0001:00009780       ??1?$_Rb_tree_base@U?$pair@$$CBKUUSTRUCT_VERSION@@@_STL@@V?$allocator@U?$pair@$$CBKUUSTRUCT_VERSION@@@_STL@@@2@@_STL@@QAE@XZ 0040a780 f i uofile01.obj
 0001:000097a0       ??0?$_Rb_tree_base@U?$pair@$$CBKUUSTRUCT_VERSION@@@_STL@@V?$allocator@U?$pair@$$CBKUUSTRUCT_VERSION@@@_STL@@@2@@_STL@@QAE@ABV?$allocator@U?$pair@$$CBKUUSTRUCT_VERSION@@@_STL@@@1@@Z 0040a7a0 f i uofile01.obj
 0001:000097d0       ??$find@K@?$_Rb_tree@KU?$pair@$$CBKUUSTRUCT_VERSION@@@_STL@@U?$_Select1st@U?$pair@$$CBKUUSTRUCT_VERSION@@@_STL@@@2@U?$less@K@2@V?$allocator@U?$pair@$$CBKUUSTRUCT_VERSION@@@_STL@@@2@@_STL@@QAE?AU?$_Rb_tree_iterator@U?$pair@$$CBKUUSTRUCT_VERSION@@@_STL@@U?$_Nonconst_traits@U?$pair@$$CBKUUSTRUCT_VERSION@@@_STL@@@2@@1@ABK@Z 0040a7d0 f i uofile01.obj
 0001:00009820       ?_M_create_node@?$_Rb_tree@KU?$pair@$$CBKUUSTRUCT_VERSION@@@_STL@@U?$_Select1st@U?$pair@$$CBKUUSTRUCT_VERSION@@@_STL@@@2@U?$less@K@2@V?$allocator@U?$pair@$$CBKUUSTRUCT_VERSION@@@_STL@@@2@@_STL@@IAEPAU?$_Rb_tree_node@U?$pair@$$CBKUUSTRUCT_VERSION@@@_STL@@@2@ABU?$pair@$$CBKUUSTRUCT_VERSION@@@2@@Z 0040a820 f i uofile01.obj
 0001:00009860       ?find@?$map@KUUSTRUCT_VERSION@@U?$less@K@_STL@@V?$allocator@U?$pair@$$CBKUUSTRUCT_VERSION@@@_STL@@@3@@_STL@@QAE?AU?$_Rb_tree_iterator@U?$pair@$$CBKUUSTRUCT_VERSION@@@_STL@@U?$_Nonconst_traits@U?$pair@$$CBKUUSTRUCT_VERSION@@@_STL@@@2@@2@ABK@Z 0040a860 f i uofile01.obj
 0001:00009880       ??1?$_Rb_tree@KU?$pair@$$CBKUUSTRUCT_VERSION@@@_STL@@U?$_Select1st@U?$pair@$$CBKUUSTRUCT_VERSION@@@_STL@@@2@U?$less@K@2@V?$allocator@U?$pair@$$CBKUUSTRUCT_VERSION@@@_STL@@@2@@_STL@@QAE@XZ 0040a880 f i uofile01.obj
 0001:00009900       ??0?$_Rb_tree@KU?$pair@$$CBKUUSTRUCT_VERSION@@@_STL@@U?$_Select1st@U?$pair@$$CBKUUSTRUCT_VERSION@@@_STL@@@2@U?$less@K@2@V?$allocator@U?$pair@$$CBKUUSTRUCT_VERSION@@@_STL@@@2@@_STL@@QAE@ABU?$less@K@1@ABV?$allocator@U?$pair@$$CBKUUSTRUCT_VERSION@@@_STL@@@1@@Z 0040a900 f i uofile01.obj
 0001:00009940       ?_M_insert@?$_Rb_tree@KU?$pair@$$CBKUUSTRUCT_VERSION@@@_STL@@U?$_Select1st@U?$pair@$$CBKUUSTRUCT_VERSION@@@_STL@@@2@U?$less@K@2@V?$allocator@U?$pair@$$CBKUUSTRUCT_VERSION@@@_STL@@@2@@_STL@@AAE?AU?$_Rb_tree_iterator@U?$pair@$$CBKUUSTRUCT_VERSION@@@_STL@@U?$_Nonconst_traits@U?$pair@$$CBKUUSTRUCT_VERSION@@@_STL@@@2@@2@PAU_Rb_tree_node_base@2@0ABU?$pair@$$CBKUUSTRUCT_VERSION@@@2@0@Z 0040a940 f i uofile01.obj
 0001:000099e0       ?find@VerdataIndexes@@QAE_NKAAPBUUSTRUCT_VERSION@@@Z 0040a9e0 f   uofile01.obj
 0001:00009a20       ??1?$map@KUUSTRUCT_VERSION@@U?$less@K@_STL@@V?$allocator@U?$pair@$$CBKUUSTRUCT_VERSION@@@_STL@@@3@@_STL@@QAE@XZ 0040aa20 f i uofile01.obj
 0001:00009a30       ?check_verdata@@YA_NKKAAPBUUSTRUCT_VERSION@@@Z 0040aa30 f   uofile01.obj
 0001:00009ad0       ?readtile@@YAXGPAUUSTRUCT_TILE@@@Z 0040aad0 f   uofile01.obj
 0001:00009ba0       ?readlandtile@@YAXGPAUUSTRUCT_LAND_TILE@@@Z 0040aba0 f   uofile01.obj
 0001:00009c30       ?read_objinfo@@YAXGAAUUSTRUCT_TILE@@@Z 0040ac30 f   uofile01.obj
 0001:00009c40       ?tileheight@@YADG@Z        0040ac40 f   uofile01.obj
 0001:00009c90       ?tilelayer@@YAEG@Z         0040ac90 f   uofile01.obj
 0001:00009cd0       ?tileweight@@YAGG@Z        0040acd0 f   uofile01.obj
 0001:00009cf0       ?tile_uoflags@@YAKG@Z      0040acf0 f   uofile01.obj
 0001:00009dd0       ??0?$map@KUUSTRUCT_VERSION@@U?$less@K@_STL@@V?$allocator@U?$pair@$$CBKUUSTRUCT_VERSION@@@_STL@@@3@@_STL@@QAE@XZ 0040add0 f i uofile01.obj
 0001:00009e10       ?insert_unique@?$_Rb_tree@KU?$pair@$$CBKUUSTRUCT_VERSION@@@_STL@@U?$_Select1st@U?$pair@$$CBKUUSTRUCT_VERSION@@@_STL@@@2@U?$less@K@2@V?$allocator@U?$pair@$$CBKUUSTRUCT_VERSION@@@_STL@@@2@@_STL@@QAE?AU?$pair@U?$_Rb_tree_iterator@U?$pair@$$CBKUUSTRUCT_VERSION@@@_STL@@U?$_Nonconst_traits@U?$pair@$$CBKUUSTRUCT_VERSION@@@_STL@@@2@@_STL@@_N@2@ABU?$pair@$$CBKUUSTRUCT_VERSION@@@2@@Z 0040ae10 f i uofile01.obj
 0001:00009eb0       ??0VerdataIndexes@@QAE@XZ  0040aeb0 f i uofile01.obj
 0001:00009ef0       ??1VerdataIndexes@@QAE@XZ  0040aef0 f i uofile01.obj
 0001:00009f00       ?insert@?$map@KUUSTRUCT_VERSION@@U?$less@K@_STL@@V?$allocator@U?$pair@$$CBKUUSTRUCT_VERSION@@@_STL@@@3@@_STL@@QAE?AU?$pair@U?$_Rb_tree_iterator@U?$pair@$$CBKUUSTRUCT_VERSION@@@_STL@@U?$_Nonconst_traits@U?$pair@$$CBKUUSTRUCT_VERSION@@@_STL@@@2@@_STL@@_N@2@ABU?$pair@$$CBKUUSTRUCT_VERSION@@@2@@Z 0040af00 f i uofile01.obj
 0001:00009f20       ?insert@VerdataIndexes@@QAEXABUUSTRUCT_VERSION@@@Z 0040af20 f   uofile01.obj
 0001:0000a020       ?read_uo_data@@YAXXZ       0040b020 f   uofile01.obj
 0001:0000a040       ??0?$_Rb_tree_iterator@U?$pair@$$CBKK@_STL@@U?$_Const_traits@U?$pair@$$CBKK@_STL@@@2@@_STL@@QAE@ABU?$_Rb_tree_iterator@U?$pair@$$CBKK@_STL@@U?$_Nonconst_traits@U?$pair@$$CBKK@_STL@@@2@@1@@Z 0040b040 f i uofile02.obj
 0001:0000a050       ??D?$_Rb_tree_iterator@U?$pair@$$CBKK@_STL@@U?$_Const_traits@U?$pair@$$CBKK@_STL@@@2@@_STL@@QBEABU?$pair@$$CBKK@1@XZ 0040b050 f i uofile02.obj
 0001:0000a060       ??0?$allocator@U?$pair@$$CBKK@_STL@@@_STL@@QAE@XZ 0040b060 f i uofile02.obj
 0001:0000a070       ??1?$allocator@U?$pair@$$CBKK@_STL@@@_STL@@QAE@XZ 0040b070 f i uofile02.obj
 0001:0000a080       ??0?$_Rb_tree_iterator@U?$pair@$$CBKK@_STL@@U?$_Nonconst_traits@U?$pair@$$CBKK@_STL@@@2@@_STL@@QAE@ABU01@@Z 0040b080 f i uofile02.obj
 0001:0000a090       ??D?$_Rb_tree_iterator@U?$pair@$$CBKK@_STL@@U?$_Nonconst_traits@U?$pair@$$CBKK@_STL@@@2@@_STL@@QBEAAU?$pair@$$CBKK@1@XZ 0040b090 f i uofile02.obj
 0001:0000a0a0       ??0?$pair@$$CBKK@_STL@@QAE@ABK0@Z 0040b0a0 f i uofile02.obj
 0001:0000a0c0       ?_M_root@?$_Rb_tree@KU?$pair@$$CBKK@_STL@@U?$_Select1st@U?$pair@$$CBKK@_STL@@@2@U?$less@K@2@V?$allocator@U?$pair@$$CBKK@_STL@@@2@@_STL@@IBEAAPAU?$_Rb_tree_node@U?$pair@$$CBKK@_STL@@@2@XZ 0040b0c0 f i uofile02.obj
 0001:0000a0d0       ?_M_leftmost@?$_Rb_tree@KU?$pair@$$CBKK@_STL@@U?$_Select1st@U?$pair@$$CBKK@_STL@@@2@U?$less@K@2@V?$allocator@U?$pair@$$CBKK@_STL@@@2@@_STL@@IBEAAPAU?$_Rb_tree_node@U?$pair@$$CBKK@_STL@@@2@XZ 0040b0d0 f i uofile02.obj
 0001:0000a0e0       ?_M_rightmost@?$_Rb_tree@KU?$pair@$$CBKK@_STL@@U?$_Select1st@U?$pair@$$CBKK@_STL@@@2@U?$less@K@2@V?$allocator@U?$pair@$$CBKK@_STL@@@2@@_STL@@IBEAAPAU?$_Rb_tree_node@U?$pair@$$CBKK@_STL@@@2@XZ 0040b0e0 f i uofile02.obj
 0001:0000a0f0       ?key_comp@?$_Rb_tree@KU?$pair@$$CBKK@_STL@@U?$_Select1st@U?$pair@$$CBKK@_STL@@@2@U?$less@K@2@V?$allocator@U?$pair@$$CBKK@_STL@@@2@@_STL@@QBE?AU?$less@K@2@XZ 0040b0f0 f i uofile02.obj
 0001:0000a100       ??1?$allocator@U?$_Rb_tree_node@U?$pair@$$CBKK@_STL@@@_STL@@@_STL@@QAE@XZ 0040b100 f i uofile02.obj
 0001:0000a110       ??0?$_Rb_tree_iterator@U?$pair@$$CBKK@_STL@@U?$_Nonconst_traits@U?$pair@$$CBKK@_STL@@@2@@_STL@@QAE@PAU?$_Rb_tree_node@U?$pair@$$CBKK@_STL@@@1@@Z 0040b110 f i uofile02.obj
 0001:0000a120       ?_S_color@?$_Rb_tree@KU?$pair@$$CBKK@_STL@@U?$_Select1st@U?$pair@$$CBKK@_STL@@@2@U?$less@K@2@V?$allocator@U?$pair@$$CBKK@_STL@@@2@@_STL@@KAAA_NPAU?$_Rb_tree_node@U?$pair@$$CBKK@_STL@@@2@@Z 0040b120 f i uofile02.obj
 0001:0000a130       ?_S_left@?$_Rb_tree@KU?$pair@$$CBKK@_STL@@U?$_Select1st@U?$pair@$$CBKK@_STL@@@2@U?$less@K@2@V?$allocator@U?$pair@$$CBKK@_STL@@@2@@_STL@@KAAAPAU?$_Rb_tree_node@U?$pair@$$CBKK@_STL@@@2@PAU32@@Z 0040b130 f i uofile02.obj
 0001:0000a140       ?_S_right@?$_Rb_tree@KU?$pair@$$CBKK@_STL@@U?$_Select1st@U?$pair@$$CBKK@_STL@@@2@U?$less@K@2@V?$allocator@U?$pair@$$CBKK@_STL@@@2@@_STL@@KAAAPAU?$_Rb_tree_node@U?$pair@$$CBKK@_STL@@@2@PAU32@@Z 0040b140 f i uofile02.obj
 0001:0000a150       ??0?$allocator@U?$_Rb_tree_node@U?$pair@$$CBKK@_STL@@@_STL@@@_STL@@QAE@ABV01@@Z 0040b150 f i uofile02.obj
 0001:0000a160       ?_S_value@?$_Rb_tree@KU?$pair@$$CBKK@_STL@@U?$_Select1st@U?$pair@$$CBKK@_STL@@@2@U?$less@K@2@V?$allocator@U?$pair@$$CBKK@_STL@@@2@@_STL@@KAAAU?$pair@$$CBKK@2@PAU?$_Rb_tree_node@U?$pair@$$CBKK@_STL@@@2@@Z 0040b160 f i uofile02.obj
 0001:0000a170       ??R?$_Select1st@U?$pair@$$CBKK@_STL@@@_STL@@QBEABKABU?$pair@$$CBKK@1@@Z 0040b170 f i uofile02.obj
 0001:0000a180       ??$?0U?$pair@$$CBKK@_STL@@@?$allocator@U?$_Rb_tree_node@U?$pair@$$CBKK@_STL@@@_STL@@@_STL@@QAE@ABV?$allocator@U?$pair@$$CBKK@_STL@@@1@@Z 0040b180 f i uofile02.obj
 0001:0000a190       ?_S_right@?$_Rb_tree@KU?$pair@$$CBKK@_STL@@U?$_Select1st@U?$pair@$$CBKK@_STL@@@2@U?$less@K@2@V?$allocator@U?$pair@$$CBKK@_STL@@@2@@_STL@@KAAAPAU?$_Rb_tree_node@U?$pair@$$CBKK@_STL@@@2@PAU_Rb_tree_node_base@2@@Z 0040b190 f i uofile02.obj
 0001:0000a1a0       ?_S_key@?$_Rb_tree@KU?$pair@$$CBKK@_STL@@U?$_Select1st@U?$pair@$$CBKK@_STL@@@2@U?$less@K@2@V?$allocator@U?$pair@$$CBKK@_STL@@@2@@_STL@@KAABKPAU_Rb_tree_node_base@2@@Z 0040b1a0 f i uofile02.obj
 0001:0000a1b0       ?size@?$_Rb_tree@KU?$pair@$$CBKK@_STL@@U?$_Select1st@U?$pair@$$CBKK@_STL@@@2@U?$less@K@2@V?$allocator@U?$pair@$$CBKK@_STL@@@2@@_STL@@QBEIXZ 0040b1b0 f i uofile02.obj
 0001:0000a1c0       ??E?$_Rb_tree_iterator@U?$pair@$$CBKK@_STL@@U?$_Nonconst_traits@U?$pair@$$CBKK@_STL@@@2@@_STL@@QAEAAU01@XZ 0040b1c0 f i uofile02.obj
 0001:0000a1e0       ??F?$_Rb_tree_iterator@U?$pair@$$CBKK@_STL@@U?$_Nonconst_traits@U?$pair@$$CBKK@_STL@@@2@@_STL@@QAEAAU01@XZ 0040b1e0 f i uofile02.obj
 0001:0000a200       ??$_Destroy@U?$pair@$$CBKK@_STL@@@_STL@@YAXPAU?$pair@$$CBKK@0@@Z 0040b200 f i uofile02.obj
 0001:0000a210       ?_S_parent@?$_Rb_tree@KU?$pair@$$CBKK@_STL@@U?$_Select1st@U?$pair@$$CBKK@_STL@@@2@U?$less@K@2@V?$allocator@U?$pair@$$CBKK@_STL@@@2@@_STL@@KAAAPAU?$_Rb_tree_node@U?$pair@$$CBKK@_STL@@@2@PAU32@@Z 0040b210 f i uofile02.obj
 0001:0000a220       ?begin@?$_Rb_tree@KU?$pair@$$CBKK@_STL@@U?$_Select1st@U?$pair@$$CBKK@_STL@@@2@U?$less@K@2@V?$allocator@U?$pair@$$CBKK@_STL@@@2@@_STL@@QAE?AU?$_Rb_tree_iterator@U?$pair@$$CBKK@_STL@@U?$_Nonconst_traits@U?$pair@$$CBKK@_STL@@@2@@2@XZ 0040b220 f i uofile02.obj
 0001:0000a230       ??0?$pair@U?$_Rb_tree_iterator@U?$pair@$$CBKK@_STL@@U?$_Nonconst_traits@U?$pair@$$CBKK@_STL@@@2@@_STL@@_N@_STL@@QAE@ABU?$_Rb_tree_iterator@U?$pair@$$CBKK@_STL@@U?$_Nonconst_traits@U?$pair@$$CBKK@_STL@@@2@@1@AB_N@Z 0040b230 f i uofile02.obj
 0001:0000a250       ??0?$pair@$$CBKK@_STL@@QAE@ABU01@@Z 0040b250 f i uofile02.obj
 0001:0000a270       ?key_comp@?$map@KKU?$less@K@_STL@@V?$allocator@U?$pair@$$CBKK@_STL@@@2@@_STL@@QBE?AU?$less@K@2@XZ 0040b270 f i uofile02.obj
 0001:0000a280       ?end@?$_Rb_tree@KU?$pair@$$CBKK@_STL@@U?$_Select1st@U?$pair@$$CBKK@_STL@@@2@U?$less@K@2@V?$allocator@U?$pair@$$CBKK@_STL@@@2@@_STL@@QAE?AU?$_Rb_tree_iterator@U?$pair@$$CBKK@_STL@@U?$_Nonconst_traits@U?$pair@$$CBKK@_STL@@@2@@2@XZ 0040b280 f i uofile02.obj
 0001:0000a290       ??1?$_STLP_alloc_proxy@PAU?$_Rb_tree_node@U?$pair@$$CBKK@_STL@@@_STL@@U12@V?$allocator@U?$_Rb_tree_node@U?$pair@$$CBKK@_STL@@@_STL@@@2@@_STL@@QAE@XZ 0040b290 f i uofile02.obj
 0001:0000a2a0       ?_M_empty_initialize@?$_Rb_tree@KU?$pair@$$CBKK@_STL@@U?$_Select1st@U?$pair@$$CBKK@_STL@@@2@U?$less@K@2@V?$allocator@U?$pair@$$CBKK@_STL@@@2@@_STL@@AAEXXZ 0040b2a0 f i uofile02.obj
 0001:0000a2c0       ?deallocate@?$allocator@U?$_Rb_tree_node@U?$pair@$$CBKK@_STL@@@_STL@@@_STL@@QAEXPAU?$_Rb_tree_node@U?$pair@$$CBKK@_STL@@@2@I@Z 0040b2c0 f i uofile02.obj
 0001:0000a300       ??0?$_STLP_alloc_proxy@PAU?$_Rb_tree_node@U?$pair@$$CBKK@_STL@@@_STL@@U12@V?$allocator@U?$_Rb_tree_node@U?$pair@$$CBKK@_STL@@@_STL@@@2@@_STL@@QAE@ABV?$allocator@U?$_Rb_tree_node@U?$pair@$$CBKK@_STL@@@_STL@@@1@PAU?$_Rb_tree_node@U?$pair@$$CBKK@_STL@@@1@@Z 0040b300 f i uofile02.obj
 0001:0000a310       ?allocate@?$allocator@U?$_Rb_tree_node@U?$pair@$$CBKK@_STL@@@_STL@@@_STL@@QAEPAU?$_Rb_tree_node@U?$pair@$$CBKK@_STL@@@2@IPBX@Z 0040b310 f i uofile02.obj
 0001:0000a350       ?_S_key@?$_Rb_tree@KU?$pair@$$CBKK@_STL@@U?$_Select1st@U?$pair@$$CBKK@_STL@@@2@U?$less@K@2@V?$allocator@U?$pair@$$CBKK@_STL@@@2@@_STL@@KAABKPAU?$_Rb_tree_node@U?$pair@$$CBKK@_STL@@@2@@Z 0040b350 f i uofile02.obj
 0001:0000a360       ?_M_erase@?$_Rb_tree@KU?$pair@$$CBKK@_STL@@U?$_Select1st@U?$pair@$$CBKK@_STL@@@2@U?$less@K@2@V?$allocator@U?$pair@$$CBKK@_STL@@@2@@_STL@@AAEXPAU?$_Rb_tree_node@U?$pair@$$CBKK@_STL@@@2@@Z 0040b360 f i uofile02.obj
 0001:0000a3a0       ??$_M_find@K@?$_Rb_tree@KU?$pair@$$CBKK@_STL@@U?$_Select1st@U?$pair@$$CBKK@_STL@@@2@U?$less@K@2@V?$allocator@U?$pair@$$CBKK@_STL@@@2@@_STL@@ABEPAU?$_Rb_tree_node@U?$pair@$$CBKK@_STL@@@1@ABK@Z 0040b3a0 f i uofile02.obj
 0001:0000a3e0       ??$_Construct@U?$pair@$$CBKK@_STL@@U12@@_STL@@YAXPAU?$pair@$$CBKK@0@ABU10@@Z 0040b3e0 f i uofile02.obj
 0001:0000a400       ?end@?$map@KKU?$less@K@_STL@@V?$allocator@U?$pair@$$CBKK@_STL@@@2@@_STL@@QAE?AU?$_Rb_tree_iterator@U?$pair@$$CBKK@_STL@@U?$_Nonconst_traits@U?$pair@$$CBKK@_STL@@@2@@2@XZ 0040b400 f i uofile02.obj
 0001:0000a410       ?clear@?$_Rb_tree@KU?$pair@$$CBKK@_STL@@U?$_Select1st@U?$pair@$$CBKK@_STL@@@2@U?$less@K@2@V?$allocator@U?$pair@$$CBKK@_STL@@@2@@_STL@@QAEXXZ 0040b410 f i uofile02.obj
 0001:0000a450       ??1?$_Rb_tree_base@U?$pair@$$CBKK@_STL@@V?$allocator@U?$pair@$$CBKK@_STL@@@2@@_STL@@QAE@XZ 0040b450 f i uofile02.obj
 0001:0000a470       ??0?$_Rb_tree_base@U?$pair@$$CBKK@_STL@@V?$allocator@U?$pair@$$CBKK@_STL@@@2@@_STL@@QAE@ABV?$allocator@U?$pair@$$CBKK@_STL@@@1@@Z 0040b470 f i uofile02.obj
 0001:0000a4a0       ?_M_lower_bound@?$_Rb_tree@KU?$pair@$$CBKK@_STL@@U?$_Select1st@U?$pair@$$CBKK@_STL@@@2@U?$less@K@2@V?$allocator@U?$pair@$$CBKK@_STL@@@2@@_STL@@ABEPAU?$_Rb_tree_node@U?$pair@$$CBKK@_STL@@@2@ABK@Z 0040b4a0 f i uofile02.obj
 0001:0000a4d0       ??$find@K@?$_Rb_tree@KU?$pair@$$CBKK@_STL@@U?$_Select1st@U?$pair@$$CBKK@_STL@@@2@U?$less@K@2@V?$allocator@U?$pair@$$CBKK@_STL@@@2@@_STL@@QAE?AU?$_Rb_tree_iterator@U?$pair@$$CBKK@_STL@@U?$_Nonconst_traits@U?$pair@$$CBKK@_STL@@@2@@1@ABK@Z 0040b4d0 f i uofile02.obj
 0001:0000a520       ?_M_create_node@?$_Rb_tree@KU?$pair@$$CBKK@_STL@@U?$_Select1st@U?$pair@$$CBKK@_STL@@@2@U?$less@K@2@V?$allocator@U?$pair@$$CBKK@_STL@@@2@@_STL@@IAEPAU?$_Rb_tree_node@U?$pair@$$CBKK@_STL@@@2@ABU?$pair@$$CBKK@2@@Z 0040b520 f i uofile02.obj
 0001:0000a550       ?find@?$map@KKU?$less@K@_STL@@V?$allocator@U?$pair@$$CBKK@_STL@@@2@@_STL@@QAE?AU?$_Rb_tree_iterator@U?$pair@$$CBKK@_STL@@U?$_Nonconst_traits@U?$pair@$$CBKK@_STL@@@2@@2@ABK@Z 0040b550 f i uofile02.obj
 0001:0000a570       ??1?$_Rb_tree@KU?$pair@$$CBKK@_STL@@U?$_Select1st@U?$pair@$$CBKK@_STL@@@2@U?$less@K@2@V?$allocator@U?$pair@$$CBKK@_STL@@@2@@_STL@@QAE@XZ 0040b570 f i uofile02.obj
 0001:0000a5f0       ??0?$_Rb_tree@KU?$pair@$$CBKK@_STL@@U?$_Select1st@U?$pair@$$CBKK@_STL@@@2@U?$less@K@2@V?$allocator@U?$pair@$$CBKK@_STL@@@2@@_STL@@QAE@ABU?$less@K@1@ABV?$allocator@U?$pair@$$CBKK@_STL@@@1@@Z 0040b5f0 f i uofile02.obj
 0001:0000a630       ?lower_bound@?$_Rb_tree@KU?$pair@$$CBKK@_STL@@U?$_Select1st@U?$pair@$$CBKK@_STL@@@2@U?$less@K@2@V?$allocator@U?$pair@$$CBKK@_STL@@@2@@_STL@@QAE?AU?$_Rb_tree_iterator@U?$pair@$$CBKK@_STL@@U?$_Nonconst_traits@U?$pair@$$CBKK@_STL@@@2@@2@ABK@Z 0040b630 f i uofile02.obj
 0001:0000a660       ??6?$basic_ostream@DV?$char_traits@D@_STL@@@_STL@@QAEAAV01@K@Z 0040b660 f i uofile02.obj
 0001:0000a680       ?_M_insert@?$_Rb_tree@KU?$pair@$$CBKK@_STL@@U?$_Select1st@U?$pair@$$CBKK@_STL@@@2@U?$less@K@2@V?$allocator@U?$pair@$$CBKK@_STL@@@2@@_STL@@AAE?AU?$_Rb_tree_iterator@U?$pair@$$CBKK@_STL@@U?$_Nonconst_traits@U?$pair@$$CBKK@_STL@@@2@@2@PAU_Rb_tree_node_base@2@0ABU?$pair@$$CBKK@2@0@Z 0040b680 f i uofile02.obj
 0001:0000a720       ?insert_unique@?$_Rb_tree@KU?$pair@$$CBKK@_STL@@U?$_Select1st@U?$pair@$$CBKK@_STL@@@2@U?$less@K@2@V?$allocator@U?$pair@$$CBKK@_STL@@@2@@_STL@@QAE?AU?$pair@U?$_Rb_tree_iterator@U?$pair@$$CBKK@_STL@@U?$_Nonconst_traits@U?$pair@$$CBKK@_STL@@@2@@_STL@@_N@2@ABU?$pair@$$CBKK@2@@Z 0040b720 f i uofile02.obj
 0001:0000a7c0       ??1?$map@KKU?$less@K@_STL@@V?$allocator@U?$pair@$$CBKK@_STL@@@2@@_STL@@QAE@XZ 0040b7c0 f i uofile02.obj
 0001:0000a7d0       ??0?$map@KKU?$less@K@_STL@@V?$allocator@U?$pair@$$CBKK@_STL@@@2@@_STL@@QAE@XZ 0040b7d0 f i uofile02.obj
 0001:0000a810       ?lower_bound@?$map@KKU?$less@K@_STL@@V?$allocator@U?$pair@$$CBKK@_STL@@@2@@_STL@@QAE?AU?$_Rb_tree_iterator@U?$pair@$$CBKK@_STL@@U?$_Nonconst_traits@U?$pair@$$CBKK@_STL@@@2@@2@ABK@Z 0040b810 f i uofile02.obj
 0001:0000a840       ?insert_unique@?$_Rb_tree@KU?$pair@$$CBKK@_STL@@U?$_Select1st@U?$pair@$$CBKK@_STL@@@2@U?$less@K@2@V?$allocator@U?$pair@$$CBKK@_STL@@@2@@_STL@@QAE?AU?$_Rb_tree_iterator@U?$pair@$$CBKK@_STL@@U?$_Nonconst_traits@U?$pair@$$CBKK@_STL@@@2@@2@U32@ABU?$pair@$$CBKK@2@@Z 0040b840 f i uofile02.obj
 0001:0000aa90       ?insert@?$map@KKU?$less@K@_STL@@V?$allocator@U?$pair@$$CBKK@_STL@@@2@@_STL@@QAE?AU?$_Rb_tree_iterator@U?$pair@$$CBKK@_STL@@U?$_Nonconst_traits@U?$pair@$$CBKK@_STL@@@2@@2@U32@ABU?$pair@$$CBKK@2@@Z 0040ba90 f i uofile02.obj
 0001:0000aab0       ??A?$map@KKU?$less@K@_STL@@V?$allocator@U?$pair@$$CBKK@_STL@@@2@@_STL@@QAEAAKABK@Z 0040bab0 f i uofile02.obj
 0001:0000ab30       ?read_static_diffs@@YAXXZ  0040bb30 f   uofile02.obj
 0001:0000ab90       ??$tostring@K@@YA?AV?$basic_string@DV?$char_traits@D@_STL@@V?$allocator@D@2@@_STL@@ABK@Z 0040bb90 f i uofile02.obj
 0001:0000ac40       ??$tostring@G@@YA?AV?$basic_string@DV?$char_traits@D@_STL@@V?$allocator@D@2@@_STL@@ABG@Z 0040bc40 f i uofile02.obj
 0001:0000acf0       ??$tostring@H@@YA?AV?$basic_string@DV?$char_traits@D@_STL@@V?$allocator@D@2@@_STL@@ABH@Z 0040bcf0 f i uofile02.obj
 0001:0000ada0       ?readstaticblock@@YAXPAPAUUSTRUCT_STATIC@@PAHGG@Z 0040bda0 f   uofile02.obj
 0001:0000bef0       ?iswater@@YA_NG@Z          0040cef0 f i uofile04.obj
 0001:0000bf10       ??0?$allocator@K@_STL@@QAE@XZ 0040cf10 f i uofile04.obj
 0001:0000bf20       ??1?$allocator@K@_STL@@QAE@XZ 0040cf20 f i uofile04.obj
 0001:0000bf30       ??0?$pair@U?$_Rb_tree_iterator@KU?$_Const_traits@K@_STL@@@_STL@@_N@_STL@@QAE@ABU?$_Rb_tree_iterator@KU?$_Const_traits@K@_STL@@@1@AB_N@Z 0040cf30 f i uofile04.obj
 0001:0000bf50       ?_M_root@?$_Rb_tree@KKU?$_Identity@K@_STL@@U?$less@K@2@V?$allocator@K@2@@_STL@@IBEAAPAU?$_Rb_tree_node@K@2@XZ 0040cf50 f i uofile04.obj
 0001:0000bf60       ?_M_leftmost@?$_Rb_tree@KKU?$_Identity@K@_STL@@U?$less@K@2@V?$allocator@K@2@@_STL@@IBEAAPAU?$_Rb_tree_node@K@2@XZ 0040cf60 f i uofile04.obj
 0001:0000bf70       ?_M_rightmost@?$_Rb_tree@KKU?$_Identity@K@_STL@@U?$less@K@2@V?$allocator@K@2@@_STL@@IBEAAPAU?$_Rb_tree_node@K@2@XZ 0040cf70 f i uofile04.obj
 0001:0000bf80       ??1?$allocator@U?$_Rb_tree_node@K@_STL@@@_STL@@QAE@XZ 0040cf80 f i uofile04.obj
 0001:0000bf90       ?_S_color@?$_Rb_tree@KKU?$_Identity@K@_STL@@U?$less@K@2@V?$allocator@K@2@@_STL@@KAAA_NPAU?$_Rb_tree_node@K@2@@Z 0040cf90 f i uofile04.obj
 0001:0000bfa0       ??0?$allocator@U?$_Rb_tree_node@K@_STL@@@_STL@@QAE@ABV01@@Z 0040cfa0 f i uofile04.obj
 0001:0000bfb0       ??$?0K@?$allocator@U?$_Rb_tree_node@K@_STL@@@_STL@@QAE@ABV?$allocator@K@1@@Z 0040cfb0 f i uofile04.obj
 0001:0000bfc0       ?_S_left@?$_Rb_tree@KKU?$_Identity@K@_STL@@U?$less@K@2@V?$allocator@K@2@@_STL@@KAAAPAU?$_Rb_tree_node@K@2@PAU32@@Z 0040cfc0 f i uofile04.obj
 0001:0000bfd0       ?_S_right@?$_Rb_tree@KKU?$_Identity@K@_STL@@U?$less@K@2@V?$allocator@K@2@@_STL@@KAAAPAU?$_Rb_tree_node@K@2@PAU32@@Z 0040cfd0 f i uofile04.obj
 0001:0000bfe0       ??0?$_Rb_tree_iterator@KU?$_Nonconst_traits@K@_STL@@@_STL@@QAE@PAU?$_Rb_tree_node@K@1@@Z 0040cfe0 f i uofile04.obj
 0001:0000bff0       ??F?$_Rb_tree_iterator@KU?$_Nonconst_traits@K@_STL@@@_STL@@QAEAAU01@XZ 0040cff0 f i uofile04.obj
 0001:0000c010       ??R?$_Identity@K@_STL@@QBEABKABK@Z 0040d010 f i uofile04.obj
 0001:0000c020       ?_S_value@?$_Rb_tree@KKU?$_Identity@K@_STL@@U?$less@K@2@V?$allocator@K@2@@_STL@@KAAAKPAU?$_Rb_tree_node@K@2@@Z 0040d020 f i uofile04.obj
 0001:0000c030       ??0?$_Rb_tree_iterator@KU?$_Nonconst_traits@K@_STL@@@_STL@@QAE@ABU01@@Z 0040d030 f i uofile04.obj
 0001:0000c040       ??$_Destroy@K@_STL@@YAXPAK@Z 0040d040 f i uofile04.obj
 0001:0000c050       ?_S_parent@?$_Rb_tree@KKU?$_Identity@K@_STL@@U?$less@K@2@V?$allocator@K@2@@_STL@@KAAAPAU?$_Rb_tree_node@K@2@PAU32@@Z 0040d050 f i uofile04.obj
 0001:0000c060       ??$_Construct@KK@_STL@@YAXPAKABK@Z 0040d060 f i uofile04.obj
 0001:0000c080       ??1?$_STLP_alloc_proxy@PAU?$_Rb_tree_node@K@_STL@@U12@V?$allocator@U?$_Rb_tree_node@K@_STL@@@2@@_STL@@QAE@XZ 0040d080 f i uofile04.obj
 0001:0000c090       ?_M_empty_initialize@?$_Rb_tree@KKU?$_Identity@K@_STL@@U?$less@K@2@V?$allocator@K@2@@_STL@@AAEXXZ 0040d090 f i uofile04.obj
 0001:0000c0b0       ?deallocate@?$allocator@U?$_Rb_tree_node@K@_STL@@@_STL@@QAEXPAU?$_Rb_tree_node@K@2@I@Z 0040d0b0 f i uofile04.obj
 0001:0000c0f0       ??0?$_STLP_alloc_proxy@PAU?$_Rb_tree_node@K@_STL@@U12@V?$allocator@U?$_Rb_tree_node@K@_STL@@@2@@_STL@@QAE@ABV?$allocator@U?$_Rb_tree_node@K@_STL@@@1@PAU?$_Rb_tree_node@K@1@@Z 0040d0f0 f i uofile04.obj
 0001:0000c100       ?allocate@?$allocator@U?$_Rb_tree_node@K@_STL@@@_STL@@QAEPAU?$_Rb_tree_node@K@2@IPBX@Z 0040d100 f i uofile04.obj
 0001:0000c140       ?_M_erase@?$_Rb_tree@KKU?$_Identity@K@_STL@@U?$less@K@2@V?$allocator@K@2@@_STL@@AAEXPAU?$_Rb_tree_node@K@2@@Z 0040d140 f i uofile04.obj
 0001:0000c180       ?_S_key@?$_Rb_tree@KKU?$_Identity@K@_STL@@U?$less@K@2@V?$allocator@K@2@@_STL@@KAABKPAU?$_Rb_tree_node@K@2@@Z 0040d180 f i uofile04.obj
 0001:0000c190       ?_S_key@?$_Rb_tree@KKU?$_Identity@K@_STL@@U?$less@K@2@V?$allocator@K@2@@_STL@@KAABKPAU_Rb_tree_node_base@2@@Z 0040d190 f i uofile04.obj
 0001:0000c1a0       ?begin@?$_Rb_tree@KKU?$_Identity@K@_STL@@U?$less@K@2@V?$allocator@K@2@@_STL@@QAE?AU?$_Rb_tree_iterator@KU?$_Nonconst_traits@K@_STL@@@2@XZ 0040d1a0 f i uofile04.obj
 0001:0000c1b0       ??0?$pair@U?$_Rb_tree_iterator@KU?$_Nonconst_traits@K@_STL@@@_STL@@_N@_STL@@QAE@ABU?$_Rb_tree_iterator@KU?$_Nonconst_traits@K@_STL@@@1@AB_N@Z 0040d1b0 f i uofile04.obj
 0001:0000c1d0       ?_M_create_node@?$_Rb_tree@KKU?$_Identity@K@_STL@@U?$less@K@2@V?$allocator@K@2@@_STL@@IAEPAU?$_Rb_tree_node@K@2@ABK@Z 0040d1d0 f i uofile04.obj
 0001:0000c1f0       ?clear@?$_Rb_tree@KKU?$_Identity@K@_STL@@U?$less@K@2@V?$allocator@K@2@@_STL@@QAEXXZ 0040d1f0 f i uofile04.obj
 0001:0000c230       ??1?$_Rb_tree_base@KV?$allocator@K@_STL@@@_STL@@QAE@XZ 0040d230 f i uofile04.obj
 0001:0000c250       ??0?$_Rb_tree_base@KV?$allocator@K@_STL@@@_STL@@QAE@ABV?$allocator@K@1@@Z 0040d250 f i uofile04.obj
 0001:0000c280       ?_M_insert@?$_Rb_tree@KKU?$_Identity@K@_STL@@U?$less@K@2@V?$allocator@K@2@@_STL@@AAE?AU?$_Rb_tree_iterator@KU?$_Nonconst_traits@K@_STL@@@2@PAU_Rb_tree_node_base@2@0ABK0@Z 0040d280 f i uofile04.obj
 0001:0000c320       ??1?$_Rb_tree@KKU?$_Identity@K@_STL@@U?$less@K@2@V?$allocator@K@2@@_STL@@QAE@XZ 0040d320 f i uofile04.obj
 0001:0000c3a0       ??0?$_Rb_tree@KKU?$_Identity@K@_STL@@U?$less@K@2@V?$allocator@K@2@@_STL@@QAE@ABU?$less@K@1@ABV?$allocator@K@1@@Z 0040d3a0 f i uofile04.obj
 0001:0000c3e0       ?insert_unique@?$_Rb_tree@KKU?$_Identity@K@_STL@@U?$less@K@2@V?$allocator@K@2@@_STL@@QAE?AU?$pair@U?$_Rb_tree_iterator@KU?$_Nonconst_traits@K@_STL@@@_STL@@_N@2@ABK@Z 0040d3e0 f i uofile04.obj
 0001:0000c480       ??1?$set@KU?$less@K@_STL@@V?$allocator@K@2@@_STL@@QAE@XZ 0040d480 f i uofile04.obj
 0001:0000c490       ??0?$set@KU?$less@K@_STL@@V?$allocator@K@2@@_STL@@QAE@XZ 0040d490 f i uofile04.obj
 0001:0000c4d0       ?insert@?$set@KU?$less@K@_STL@@V?$allocator@K@2@@_STL@@QAE?AU?$pair@U?$_Rb_tree_iterator@KU?$_Const_traits@K@_STL@@@_STL@@_N@2@ABK@Z 0040d4d0 f i uofile04.obj
 0001:0000c500       ?readwater@@YAXXZ          0040d500 f   uofile04.obj
 0001:0000c630       ?staticsmax@@YAXXZ         0040d630 f   uofile05.obj
 0001:0000c750       ??0StaticRec@@QAE@GCKD@Z   0040d750 f i uofile06.obj
 0001:0000c780       ?flags_standable@@YA_NK@Z  0040d780 f i uofile06.obj
 0001:0000c7a0       ?flags_swimmable@@YA_NK@Z  0040d7a0 f i uofile06.obj
 0001:0000c7c0       ?begin@?$vector@UStaticRec@@V?$allocator@UStaticRec@@@_STL@@@_STL@@QAEPAUStaticRec@@XZ 0040d7c0 f i uofile06.obj
 0001:0000c7d0       ?end@?$vector@UStaticRec@@V?$allocator@UStaticRec@@@_STL@@@_STL@@QAEPAUStaticRec@@XZ 0040d7d0 f i uofile06.obj
 0001:0000c7e0       ?empty@?$vector@UStaticRec@@V?$allocator@UStaticRec@@@_STL@@@_STL@@QBE_NXZ 0040d7e0 f i uofile06.obj
 0001:0000c7f0       ?size@?$vector@UStaticRec@@V?$allocator@UStaticRec@@@_STL@@@_STL@@QBEIXZ 0040d7f0 f i uofile06.obj
 0001:0000c810       ?_M_set@?$vector@UStaticRec@@V?$allocator@UStaticRec@@@_STL@@@_STL@@IAEXPAUStaticRec@@00@Z 0040d810 f i uofile06.obj
 0001:0000c830       ??$_Construct@UStaticRec@@U1@@_STL@@YAXPAUStaticRec@@ABU1@@Z 0040d830 f i uofile06.obj
 0001:0000c850       ??$_Destroy@UStaticRec@@@_STL@@YAXPAUStaticRec@@@Z 0040d850 f i uofile06.obj
 0001:0000c860       ?statics_dropheight@@YAXAAV?$vector@UStaticRec@@V?$allocator@UStaticRec@@@_STL@@@_STL@@GGHPA_NPAH@Z 0040d860 f   uofile06.obj
 0001:0000c960       ?statics_standheight@@YAXAAV?$vector@UStaticRec@@V?$allocator@UStaticRec@@@_STL@@@_STL@@GGHPA_NPAH@Z 0040d960 f   uofile06.obj
 0001:0000ca50       ?allocate@?$allocator@UStaticRec@@@_STL@@QAEPAUStaticRec@@IPBX@Z 0040da50 f i uofile06.obj
 0001:0000ca90       ?deallocate@?$allocator@UStaticRec@@@_STL@@QAEXPAUStaticRec@@I@Z 0040da90 f i uofile06.obj
 0001:0000cad0       ??$__destroy_aux@PAUStaticRec@@@_STL@@YAXPAUStaticRec@@0ABU__false_type@0@@Z 0040dad0 f i uofile06.obj
 0001:0000cae0       ??$__destroy@PAUStaticRec@@U1@@_STL@@YAXPAUStaticRec@@00@Z 0040dae0 f i uofile06.obj
 0001:0000caf0       ??$_Destroy@PAUStaticRec@@@_STL@@YAXPAUStaticRec@@0@Z 0040daf0 f i uofile06.obj
 0001:0000cb00       ?_M_clear@?$vector@UStaticRec@@V?$allocator@UStaticRec@@@_STL@@@_STL@@IAEXXZ 0040db00 f i uofile06.obj
 0001:0000cb40       ??$__uninitialized_copy@PAUStaticRec@@PAU1@@_STL@@YAPAUStaticRec@@PAU1@00ABU__false_type@0@@Z 0040db40 f i uofile06.obj
 0001:0000cb80       ??$__uninitialized_fill_n@PAUStaticRec@@IU1@@_STL@@YAPAUStaticRec@@PAU1@IABU1@ABU__false_type@0@@Z 0040db80 f i uofile06.obj
 0001:0000cbc0       ?_M_insert_overflow@?$vector@UStaticRec@@V?$allocator@UStaticRec@@@_STL@@@_STL@@IAEXPAUStaticRec@@ABU3@ABU__false_type@2@I_N@Z 0040dbc0 f i uofile06.obj
 0001:0000cd50       ?push_back@?$vector@UStaticRec@@V?$allocator@UStaticRec@@@_STL@@@_STL@@QAEXABUStaticRec@@@Z 0040dd50 f i uofile06.obj
 0001:0000cd90       ?standheight@@YAXW4MOVEMODE@@AAV?$vector@UStaticRec@@V?$allocator@UStaticRec@@@_STL@@@_STL@@GGHPA_NPAH@Z 0040dd90 f   uofile06.obj
 0001:0000cfa0       ??0StaticRec@@QAE@GC@Z     0040dfa0 f i uofile07.obj
 0001:0000cfd0       ?readstatics@@YAXAAV?$vector@UStaticRec@@V?$allocator@UStaticRec@@@_STL@@@_STL@@GG@Z 0040dfd0 f   uofile07.obj
 0001:0000d0f0       ?readstatics@@YAXAAV?$vector@UStaticRec@@V?$allocator@UStaticRec@@@_STL@@@_STL@@GGK@Z 0040e0f0 f   uofile07.obj
 0001:0000d210       ?readallstatics@@YAXAAV?$vector@UStaticRec@@V?$allocator@UStaticRec@@@_STL@@@_STL@@GG@Z 0040e210 f   uofile07.obj
 0001:0000d320       ?rawmapinfo@@YACGGPAUUSTRUCT_MAPINFO@@@Z 0040e320 f   uofile08.obj
 0001:0000d5c0       ?groundheight@@YA_NGGPAH@Z 0040e5c0 f   uofile08.obj
 0001:0000d690       ?getmapinfo@@YAXGGPAHPAUUSTRUCT_MAPINFO@@@Z 0040e690 f   uofile08.obj
 0001:0000d730       ?safe_getmapinfo@@YAXGGPAHPAUUSTRUCT_MAPINFO@@@Z 0040e730 f   uofile08.obj
 0001:0000d800       ?read_map_difs@@YAXXZ      0040e800 f   uofile08.obj
 0001:0000d860       ?compare@?$char_traits@D@_STL@@SAHPBD0I@Z 0040e860 f i uotool.obj
 0001:0000d880       ?eof@ios_base@_STL@@QBE_NXZ 0040e880 f i uotool.obj
 0001:0000d890       ?pubseekoff@?$basic_streambuf@DV?$char_traits@D@_STL@@@_STL@@QAE?AV?$fpos@H@2@JHH@Z 0040e890 f i uotool.obj
 0001:0000d8b0       ?unshift@?$codecvt@DDH@_STL@@QBE?AW4result@codecvt_base@2@AAHPAD1AAPAD@Z 0040e8b0 f i uotool.obj
 0001:0000d8c0       ?encoding@?$codecvt@DDH@_STL@@QBEHXZ 0040e8c0 f i uotool.obj
 0001:0000d8d0       ?always_noconv@?$codecvt@DDH@_STL@@QBE_NXZ 0040e8d0 f i uotool.obj
 0001:0000d8e0       ?max_length@?$codecvt@DDH@_STL@@QBEHXZ 0040e8e0 f i uotool.obj
 0001:0000d8f0       ?__is_open@_Filebuf_base@_STL@@QBE_NXZ 0040e8f0 f i uotool.obj
 0001:0000d900       ?BoatShapeExists@@YA_NG@Z  0040e900 f   uotool.obj
 0001:0000d910       ?print_ctable@@YAHXZ       0040e910 f   uotool.obj
 0001:0000d9a0       ?Usage@@YAHH@Z             0040e9a0 f   uotool.obj
 0001:0000daf0       ?display_tileinfo@@YAXGABUUSTRUCT_TILE@@@Z 0040eaf0 f   uotool.obj
 0001:0000dc20       ?tiledump@@YAHHPAPAD@Z     0040ec20 f   uotool.obj
 0001:0000dcd0       ?vertile@@YAHHPAPAD@Z      0040ecd0 f   uotool.obj
 0001:0000dd10       ?flagsearch@@YAHHPAPAD@Z   0040ed10 f   uotool.obj
 0001:0000ddb0       ?loschange@@YAHHPAPAD@Z    0040edb0 f   uotool.obj
 0001:0000de50       ?rawdump@@YAHHPAPAD@Z      0040ee50 f   uotool.obj
 0001:0000df40       ?print_water_data@@YAHXZ   0040ef40 f   uotool.obj
 0001:0000df50       ?is_water@@YA_NG@Z         0040ef50 f i uotool.obj
 0001:0000df70       ?_M_write@?$basic_filebuf@DV?$char_traits@D@_STL@@@_STL@@QAE_NPADH@Z 0040ef70 f i uotool.obj
 0001:0000df80       ??0?$_Ios_Manip_1@H@_STL@@QAE@P8ios_base@1@AEHH@ZABH@Z 0040ef80 f i uotool.obj
 0001:0000dfa0       ?empty@?$vector@PBUMULTI_ELEM@@V?$allocator@PBUMULTI_ELEM@@@_STL@@@_STL@@QBE_NXZ 0040efa0 f i uotool.obj
 0001:0000dfb0       ??D?$_Rb_tree_iterator@U?$pair@$$CBV?$basic_string@DV?$char_traits@D@_STL@@V?$allocator@D@2@@_STL@@I@_STL@@U?$_Nonconst_traits@U?$pair@$$CBV?$basic_string@DV?$char_traits@D@_STL@@V?$allocator@D@2@@_STL@@I@_STL@@@2@@_STL@@QBEAAU?$pair@$$CBV?$basic_string@DV?$char_traits@D@_STL@@V?$allocator@D@2@@_STL@@I@1@XZ 0040efb0 f i uotool.obj
 0001:0000dfc0       ??E?$_Rb_tree_iterator@U?$pair@$$CBV?$basic_string@DV?$char_traits@D@_STL@@V?$allocator@D@2@@_STL@@I@_STL@@U?$_Nonconst_traits@U?$pair@$$CBV?$basic_string@DV?$char_traits@D@_STL@@V?$allocator@D@2@@_STL@@I@_STL@@@2@@_STL@@QAEAAU01@XZ 0040efc0 f i uotool.obj
 0001:0000dfe0       ??A?$vector@UStaticRec@@V?$allocator@UStaticRec@@@_STL@@@_STL@@QAEAAUStaticRec@@I@Z 0040efe0 f i uotool.obj
 0001:0000dff0       ?back@?$vector@UStaticRec@@V?$allocator@UStaticRec@@@_STL@@@_STL@@QAEAAUStaticRec@@XZ 0040eff0 f i uotool.obj
 0001:0000e000       ??0?$allocator@UStaticRec@@@_STL@@QAE@XZ 0040f000 f i uotool.obj
 0001:0000e010       ??1?$allocator@UStaticRec@@@_STL@@QAE@XZ 0040f010 f i uotool.obj
 0001:0000e020       ??E?$_Rb_tree_iterator@U?$pair@$$CBGPBUMULTI_ELEM@@@_STL@@U?$_Nonconst_traits@U?$pair@$$CBGPBUMULTI_ELEM@@@_STL@@@2@@_STL@@QAEAAU01@XZ 0040f020 f i uotool.obj
 0001:0000e040       ?open@?$basic_filebuf@DV?$char_traits@D@_STL@@@_STL@@QAEPAV12@PBDH@Z 0040f040 f i uotool.obj
 0001:0000e060       ??0?$allocator@U?$pair@$$CBV?$basic_string@DV?$char_traits@D@_STL@@V?$allocator@D@2@@_STL@@I@_STL@@@_STL@@QAE@XZ 0040f060 f i uotool.obj
 0001:0000e070       ??1?$allocator@U?$pair@$$CBV?$basic_string@DV?$char_traits@D@_STL@@V?$allocator@D@2@@_STL@@I@_STL@@@_STL@@QAE@XZ 0040f070 f i uotool.obj
 0001:0000e080       ??0?$_Rb_tree_iterator@U?$pair@$$CBV?$basic_string@DV?$char_traits@D@_STL@@V?$allocator@D@2@@_STL@@I@_STL@@U?$_Nonconst_traits@U?$pair@$$CBV?$basic_string@DV?$char_traits@D@_STL@@V?$allocator@D@2@@_STL@@I@_STL@@@2@@_STL@@QAE@ABU01@@Z 0040f080 f i uotool.obj
 0001:0000e090       ??D?$_Rb_tree_iterator@U?$pair@$$CBGPBUMULTI_ELEM@@@_STL@@U?$_Nonconst_traits@U?$pair@$$CBGPBUMULTI_ELEM@@@_STL@@@2@@_STL@@QBEAAU?$pair@$$CBGPBUMULTI_ELEM@@@1@XZ 0040f090 f i uotool.obj
 0001:0000e0a0       ??1?$_STLP_alloc_proxy@PAUStaticRec@@U1@V?$allocator@UStaticRec@@@_STL@@@_STL@@QAE@XZ 0040f0a0 f i uotool.obj
 0001:0000e0b0       ?_M_root@?$_Rb_tree@V?$basic_string@DV?$char_traits@D@_STL@@V?$allocator@D@2@@_STL@@U?$pair@$$CBV?$basic_string@DV?$char_traits@D@_STL@@V?$allocator@D@2@@_STL@@I@2@U?$_Select1st@U?$pair@$$CBV?$basic_string@DV?$char_traits@D@_STL@@V?$allocator@D@2@@_STL@@I@_STL@@@2@U?$less@V?$basic_string@DV?$char_traits@D@_STL@@V?$allocator@D@2@@_STL@@@2@V?$allocator@U?$pair@$$CBV?$basic_string@DV?$char_traits@D@_STL@@V?$allocator@D@2@@_STL@@I@_STL@@@2@@_STL@@IBEAAPAU?$_Rb_tree_node@U?$pair@$$CBV?$basic_string@DV?$char_traits@D@_STL@@V?$allocator@D@2@@_STL@@I@_STL@@@2@XZ 0040f0b0 f i uotool.obj
 0001:0000e0c0       ?_M_leftmost@?$_Rb_tree@V?$basic_string@DV?$char_traits@D@_STL@@V?$allocator@D@2@@_STL@@U?$pair@$$CBV?$basic_string@DV?$char_traits@D@_STL@@V?$allocator@D@2@@_STL@@I@2@U?$_Select1st@U?$pair@$$CBV?$basic_string@DV?$char_traits@D@_STL@@V?$allocator@D@2@@_STL@@I@_STL@@@2@U?$less@V?$basic_string@DV?$char_traits@D@_STL@@V?$allocator@D@2@@_STL@@@2@V?$allocator@U?$pair@$$CBV?$basic_string@DV?$char_traits@D@_STL@@V?$allocator@D@2@@_STL@@I@_STL@@@2@@_STL@@IBEAAPAU?$_Rb_tree_node@U?$pair@$$CBV?$basic_string@DV?$char_traits@D@_STL@@V?$allocator@D@2@@_STL@@I@_STL@@@2@XZ 0040f0c0 f i uotool.obj
 0001:0000e0d0       ?_M_rightmost@?$_Rb_tree@V?$basic_string@DV?$char_traits@D@_STL@@V?$allocator@D@2@@_STL@@U?$pair@$$CBV?$basic_string@DV?$char_traits@D@_STL@@V?$allocator@D@2@@_STL@@I@2@U?$_Select1st@U?$pair@$$CBV?$basic_string@DV?$char_traits@D@_STL@@V?$allocator@D@2@@_STL@@I@_STL@@@2@U?$less@V?$basic_string@DV?$char_traits@D@_STL@@V?$allocator@D@2@@_STL@@@2@V?$allocator@U?$pair@$$CBV?$basic_string@DV?$char_traits@D@_STL@@V?$allocator@D@2@@_STL@@I@_STL@@@2@@_STL@@IBEAAPAU?$_Rb_tree_node@U?$pair@$$CBV?$basic_string@DV?$char_traits@D@_STL@@V?$allocator@D@2@@_STL@@I@_STL@@@2@XZ 0040f0d0 f i uotool.obj
 0001:0000e0e0       ?key_comp@?$_Rb_tree@V?$basic_string@DV?$char_traits@D@_STL@@V?$allocator@D@2@@_STL@@U?$pair@$$CBV?$basic_string@DV?$char_traits@D@_STL@@V?$allocator@D@2@@_STL@@I@2@U?$_Select1st@U?$pair@$$CBV?$basic_string@DV?$char_traits@D@_STL@@V?$allocator@D@2@@_STL@@I@_STL@@@2@U?$less@V?$basic_string@DV?$char_traits@D@_STL@@V?$allocator@D@2@@_STL@@@2@V?$allocator@U?$pair@$$CBV?$basic_string@DV?$char_traits@D@_STL@@V?$allocator@D@2@@_STL@@I@_STL@@@2@@_STL@@QBE?AU?$less@V?$basic_string@DV?$char_traits@D@_STL@@V?$allocator@D@2@@_STL@@@2@XZ 0040f0e0 f i uotool.obj
 0001:0000e0f0       ??1?$allocator@U?$_Rb_tree_node@U?$pair@$$CBV?$basic_string@DV?$char_traits@D@_STL@@V?$allocator@D@2@@_STL@@I@_STL@@@_STL@@@_STL@@QAE@XZ 0040f0f0 f i uotool.obj
 0001:0000e100       ??0?$_Rb_tree_iterator@U?$pair@$$CBV?$basic_string@DV?$char_traits@D@_STL@@V?$allocator@D@2@@_STL@@I@_STL@@U?$_Nonconst_traits@U?$pair@$$CBV?$basic_string@DV?$char_traits@D@_STL@@V?$allocator@D@2@@_STL@@I@_STL@@@2@@_STL@@QAE@PAU?$_Rb_tree_node@U?$pair@$$CBV?$basic_string@DV?$char_traits@D@_STL@@V?$allocator@D@2@@_STL@@I@_STL@@@1@@Z 0040f100 f i uotool.obj
 0001:0000e110       ?_S_color@?$_Rb_tree@V?$basic_string@DV?$char_traits@D@_STL@@V?$allocator@D@2@@_STL@@U?$pair@$$CBV?$basic_string@DV?$char_traits@D@_STL@@V?$allocator@D@2@@_STL@@I@2@U?$_Select1st@U?$pair@$$CBV?$basic_string@DV?$char_traits@D@_STL@@V?$allocator@D@2@@_STL@@I@_STL@@@2@U?$less@V?$basic_string@DV?$char_traits@D@_STL@@V?$allocator@D@2@@_STL@@@2@V?$allocator@U?$pair@$$CBV?$basic_string@DV?$char_traits@D@_STL@@V?$allocator@D@2@@_STL@@I@_STL@@@2@@_STL@@KAAA_NPAU?$_Rb_tree_node@U?$pair@$$CBV?$basic_string@DV?$char_traits@D@_STL@@V?$allocator@D@2@@_STL@@I@_STL@@@2@@Z 0040f110 f i uotool.obj
 0001:0000e120       ??0?$allocator@UStaticRec@@@_STL@@QAE@ABV01@@Z 0040f120 f i uotool.obj
 0001:0000e130       ?_S_left@?$_Rb_tree@V?$basic_string@DV?$char_traits@D@_STL@@V?$allocator@D@2@@_STL@@U?$pair@$$CBV?$basic_string@DV?$char_traits@D@_STL@@V?$allocator@D@2@@_STL@@I@2@U?$_Select1st@U?$pair@$$CBV?$basic_string@DV?$char_traits@D@_STL@@V?$allocator@D@2@@_STL@@I@_STL@@@2@U?$less@V?$basic_string@DV?$char_traits@D@_STL@@V?$allocator@D@2@@_STL@@@2@V?$allocator@U?$pair@$$CBV?$basic_string@DV?$char_traits@D@_STL@@V?$allocator@D@2@@_STL@@I@_STL@@@2@@_STL@@KAAAPAU?$_Rb_tree_node@U?$pair@$$CBV?$basic_string@DV?$char_traits@D@_STL@@V?$allocator@D@2@@_STL@@I@_STL@@@2@PAU32@@Z 0040f130 f i uotool.obj
 0001:0000e140       ?_S_right@?$_Rb_tree@V?$basic_string@DV?$char_traits@D@_STL@@V?$allocator@D@2@@_STL@@U?$pair@$$CBV?$basic_string@DV?$char_traits@D@_STL@@V?$allocator@D@2@@_STL@@I@2@U?$_Select1st@U?$pair@$$CBV?$basic_string@DV?$char_traits@D@_STL@@V?$allocator@D@2@@_STL@@I@_STL@@@2@U?$less@V?$basic_string@DV?$char_traits@D@_STL@@V?$allocator@D@2@@_STL@@@2@V?$allocator@U?$pair@$$CBV?$basic_string@DV?$char_traits@D@_STL@@V?$allocator@D@2@@_STL@@I@_STL@@@2@@_STL@@KAAAPAU?$_Rb_tree_node@U?$pair@$$CBV?$basic_string@DV?$char_traits@D@_STL@@V?$allocator@D@2@@_STL@@I@_STL@@@2@PAU32@@Z 0040f140 f i uotool.obj
 0001:0000e150       ??0?$allocator@U?$_Rb_tree_node@U?$pair@$$CBV?$basic_string@DV?$char_traits@D@_STL@@V?$allocator@D@2@@_STL@@I@_STL@@@_STL@@@_STL@@QAE@ABV01@@Z 0040f150 f i uotool.obj
 0001:0000e160       ?_S_value@?$_Rb_tree@V?$basic_string@DV?$char_traits@D@_STL@@V?$allocator@D@2@@_STL@@U?$pair@$$CBV?$basic_string@DV?$char_traits@D@_STL@@V?$allocator@D@2@@_STL@@I@2@U?$_Select1st@U?$pair@$$CBV?$basic_string@DV?$char_traits@D@_STL@@V?$allocator@D@2@@_STL@@I@_STL@@@2@U?$less@V?$basic_string@DV?$char_traits@D@_STL@@V?$allocator@D@2@@_STL@@@2@V?$allocator@U?$pair@$$CBV?$basic_string@DV?$char_traits@D@_STL@@V?$allocator@D@2@@_STL@@I@_STL@@@2@@_STL@@KAAAU?$pair@$$CBV?$basic_string@DV?$char_traits@D@_STL@@V?$allocator@D@2@@_STL@@I@2@PAU?$_Rb_tree_node@U?$pair@$$CBV?$basic_string@DV?$char_traits@D@_STL@@V?$allocator@D@2@@_STL@@I@_STL@@@2@@Z 0040f160 f i uotool.obj
 0001:0000e170       ??R?$_Select1st@U?$pair@$$CBV?$basic_string@DV?$char_traits@D@_STL@@V?$allocator@D@2@@_STL@@I@_STL@@@_STL@@QBEABV?$basic_string@DV?$char_traits@D@_STL@@V?$allocator@D@2@@1@ABU?$pair@$$CBV?$basic_string@DV?$char_traits@D@_STL@@V?$allocator@D@2@@_STL@@I@1@@Z 0040f170 f i uotool.obj
 0001:0000e180       ??$min@H@_STL@@YAABHABH0@Z 0040f180 f i uotool.obj
 0001:0000e1a0       ??$?0U?$pair@$$CBV?$basic_string@DV?$char_traits@D@_STL@@V?$allocator@D@2@@_STL@@I@_STL@@@?$allocator@U?$_Rb_tree_node@U?$pair@$$CBV?$basic_string@DV?$char_traits@D@_STL@@V?$allocator@D@2@@_STL@@I@_STL@@@_STL@@@_STL@@QAE@ABV?$allocator@U?$pair@$$CBV?$basic_string@DV?$char_traits@D@_STL@@V?$allocator@D@2@@_STL@@I@_STL@@@1@@Z 0040f1a0 f i uotool.obj
 0001:0000e1b0       ?begin@?$basic_string@DV?$char_traits@D@_STL@@V?$allocator@D@2@@_STL@@QBEPBDXZ 0040f1b0 f i uotool.obj
 0001:0000e1c0       ?end@?$basic_string@DV?$char_traits@D@_STL@@V?$allocator@D@2@@_STL@@QBEPBDXZ 0040f1c0 f i uotool.obj
 0001:0000e1d0       ?_M_compare@?$basic_string@DV?$char_traits@D@_STL@@V?$allocator@D@2@@_STL@@SAHPBD000@Z 0040f1d0 f i uotool.obj
 0001:0000e230       ?is_open@?$basic_filebuf@DV?$char_traits@D@_STL@@@_STL@@QBE_NXZ 0040f230 f i uotool.obj
 0001:0000e240       ??R?$_Ios_Manip_1@H@_STL@@QBEXAAVios_base@1@@Z 0040f240 f i uotool.obj
 0001:0000e250       ?_S_right@?$_Rb_tree@V?$basic_string@DV?$char_traits@D@_STL@@V?$allocator@D@2@@_STL@@U?$pair@$$CBV?$basic_string@DV?$char_traits@D@_STL@@V?$allocator@D@2@@_STL@@I@2@U?$_Select1st@U?$pair@$$CBV?$basic_string@DV?$char_traits@D@_STL@@V?$allocator@D@2@@_STL@@I@_STL@@@2@U?$less@V?$basic_string@DV?$char_traits@D@_STL@@V?$allocator@D@2@@_STL@@@2@V?$allocator@U?$pair@$$CBV?$basic_string@DV?$char_traits@D@_STL@@V?$allocator@D@2@@_STL@@I@_STL@@@2@@_STL@@KAAAPAU?$_Rb_tree_node@U?$pair@$$CBV?$basic_string@DV?$char_traits@D@_STL@@V?$allocator@D@2@@_STL@@I@_STL@@@2@PAU_Rb_tree_node_base@2@@Z 0040f250 f i uotool.obj
 0001:0000e260       ?_S_key@?$_Rb_tree@V?$basic_string@DV?$char_traits@D@_STL@@V?$allocator@D@2@@_STL@@U?$pair@$$CBV?$basic_string@DV?$char_traits@D@_STL@@V?$allocator@D@2@@_STL@@I@2@U?$_Select1st@U?$pair@$$CBV?$basic_string@DV?$char_traits@D@_STL@@V?$allocator@D@2@@_STL@@I@_STL@@@2@U?$less@V?$basic_string@DV?$char_traits@D@_STL@@V?$allocator@D@2@@_STL@@@2@V?$allocator@U?$pair@$$CBV?$basic_string@DV?$char_traits@D@_STL@@V?$allocator@D@2@@_STL@@I@_STL@@@2@@_STL@@KAABV?$basic_string@DV?$char_traits@D@_STL@@V?$allocator@D@2@@2@PAU_Rb_tree_node_base@2@@Z 0040f260 f i uotool.obj
 0001:0000e270       ?size@?$_Rb_tree@V?$basic_string@DV?$char_traits@D@_STL@@V?$allocator@D@2@@_STL@@U?$pair@$$CBV?$basic_string@DV?$char_traits@D@_STL@@V?$allocator@D@2@@_STL@@I@2@U?$_Select1st@U?$pair@$$CBV?$basic_string@DV?$char_traits@D@_STL@@V?$allocator@D@2@@_STL@@I@_STL@@@2@U?$less@V?$basic_string@DV?$char_traits@D@_STL@@V?$allocator@D@2@@_STL@@@2@V?$allocator@U?$pair@$$CBV?$basic_string@DV?$char_traits@D@_STL@@V?$allocator@D@2@@_STL@@I@_STL@@@2@@_STL@@QBEIXZ 0040f270 f i uotool.obj
 0001:0000e280       ??F?$_Rb_tree_iterator@U?$pair@$$CBV?$basic_string@DV?$char_traits@D@_STL@@V?$allocator@D@2@@_STL@@I@_STL@@U?$_Nonconst_traits@U?$pair@$$CBV?$basic_string@DV?$char_traits@D@_STL@@V?$allocator@D@2@@_STL@@I@_STL@@@2@@_STL@@QAEAAU01@XZ 0040f280 f i uotool.obj
 0001:0000e2a0       ??0?$_Constant_unary_fun@_NH@_STL@@QAE@AB_N@Z 0040f2a0 f i uotool.obj
 0001:0000e2b0       ?put@?$num_put@DV?$ostreambuf_iterator@DV?$char_traits@D@_STL@@@_STL@@@_STL@@QBE?AV?$ostreambuf_iterator@DV?$char_traits@D@_STL@@@2@V32@AAVios_base@2@D_N@Z 0040f2b0 f i uotool.obj
 0001:0000e2e0       ?_M_exit_input_mode@?$basic_filebuf@DV?$char_traits@D@_STL@@@_STL@@AAEXXZ 0040f2e0 f i uotool.obj
 0001:0000e310       ?_M_deallocate_buffers@?$basic_filebuf@DV?$char_traits@D@_STL@@@_STL@@AAEXXZ 0040f310 f i uotool.obj
 0001:0000e350       ??$__copy@PAUStaticRec@@PAU1@H@_STL@@YAPAUStaticRec@@PAU1@00ABUrandom_access_iterator_tag@0@PAH@Z 0040f350 f i uotool.obj
 0001:0000e3a0       ?_S_parent@?$_Rb_tree@V?$basic_string@DV?$char_traits@D@_STL@@V?$allocator@D@2@@_STL@@U?$pair@$$CBV?$basic_string@DV?$char_traits@D@_STL@@V?$allocator@D@2@@_STL@@I@2@U?$_Select1st@U?$pair@$$CBV?$basic_string@DV?$char_traits@D@_STL@@V?$allocator@D@2@@_STL@@I@_STL@@@2@U?$less@V?$basic_string@DV?$char_traits@D@_STL@@V?$allocator@D@2@@_STL@@@2@V?$allocator@U?$pair@$$CBV?$basic_string@DV?$char_traits@D@_STL@@V?$allocator@D@2@@_STL@@I@_STL@@@2@@_STL@@KAAAPAU?$_Rb_tree_node@U?$pair@$$CBV?$basic_string@DV?$char_traits@D@_STL@@V?$allocator@D@2@@_STL@@I@_STL@@@2@PAU32@@Z 0040f3a0 f i uotool.obj
 0001:0000e3b0       ??R?$_Constant_unary_fun@_NH@_STL@@QBEAB_NABH@Z 0040f3b0 f i uotool.obj
 0001:0000e3c0       ??R?$_Project2nd@PBDPBD@_STL@@QBEPBDABQBD0@Z 0040f3c0 f i uotool.obj
 0001:0000e3d0       ??0?$pair@U?$_Rb_tree_iterator@U?$pair@$$CBV?$basic_string@DV?$char_traits@D@_STL@@V?$allocator@D@2@@_STL@@I@_STL@@U?$_Nonconst_traits@U?$pair@$$CBV?$basic_string@DV?$char_traits@D@_STL@@V?$allocator@D@2@@_STL@@I@_STL@@@2@@_STL@@_N@_STL@@QAE@ABU?$_Rb_tree_iterator@U?$pair@$$CBV?$basic_string@DV?$char_traits@D@_STL@@V?$allocator@D@2@@_STL@@I@_STL@@U?$_Nonconst_traits@U?$pair@$$CBV?$basic_string@DV?$char_traits@D@_STL@@V?$allocator@D@2@@_STL@@I@_STL@@@2@@1@AB_N@Z 0040f3d0 f i uotool.obj
 0001:0000e3f0       ?_M_unshift@?$basic_filebuf@DV?$char_traits@D@_STL@@@_STL@@AAE_NXZ 0040f3f0 f i uotool.obj
 0001:0000e470       ??$max@H@_STL@@YAABHABH0@Z 0040f470 f i uotool.obj
 0001:0000e490       ??$use_facet@V?$codecvt@DDH@_STL@@@_STL@@YAABV?$codecvt@DDH@0@ABVlocale@0@@Z 0040f490 f i uotool.obj
 0001:0000e4a0       ?setw@_STL@@YA?AU?$_Ios_Manip_1@H@1@H@Z 0040f4a0 f i uotool.obj
 0001:0000e4c0       ?pop_back@?$vector@UStaticRec@@V?$allocator@UStaticRec@@@_STL@@@_STL@@QAEXXZ 0040f4c0 f i uotool.obj
 0001:0000e4d0       ??C?$_Rb_tree_iterator@U?$pair@$$CBGPBUMULTI_ELEM@@@_STL@@U?$_Nonconst_traits@U?$pair@$$CBGPBUMULTI_ELEM@@@_STL@@@2@@_STL@@QBEPAU?$pair@$$CBGPBUMULTI_ELEM@@@1@XZ 0040f4d0 f i uotool.obj
 0001:0000e4e0       ?begin@?$_Rb_tree@GU?$pair@$$CBGPBUMULTI_ELEM@@@_STL@@U?$_Select1st@U?$pair@$$CBGPBUMULTI_ELEM@@@_STL@@@2@U?$less@G@2@V?$allocator@U?$pair@$$CBGPBUMULTI_ELEM@@@_STL@@@2@@_STL@@QAE?AU?$_Rb_tree_iterator@U?$pair@$$CBGPBUMULTI_ELEM@@@_STL@@U?$_Nonconst_traits@U?$pair@$$CBGPBUMULTI_ELEM@@@_STL@@@2@@2@XZ 0040f4e0 f i uotool.obj
 0001:0000e4f0       ?end@?$_Rb_tree@GU?$pair@$$CBGPBUMULTI_ELEM@@@_STL@@U?$_Select1st@U?$pair@$$CBGPBUMULTI_ELEM@@@_STL@@@2@U?$less@G@2@V?$allocator@U?$pair@$$CBGPBUMULTI_ELEM@@@_STL@@@2@@_STL@@QAE?AU?$_Rb_tree_iterator@U?$pair@$$CBGPBUMULTI_ELEM@@@_STL@@U?$_Nonconst_traits@U?$pair@$$CBGPBUMULTI_ELEM@@@_STL@@@2@@2@XZ 0040f4f0 f i uotool.obj
 0001:0000e500       ?key_comp@?$map@V?$basic_string@DV?$char_traits@D@_STL@@V?$allocator@D@2@@_STL@@IU?$less@V?$basic_string@DV?$char_traits@D@_STL@@V?$allocator@D@2@@_STL@@@2@V?$allocator@U?$pair@$$CBV?$basic_string@DV?$char_traits@D@_STL@@V?$allocator@D@2@@_STL@@I@_STL@@@2@@_STL@@QBE?AU?$less@V?$basic_string@DV?$char_traits@D@_STL@@V?$allocator@D@2@@_STL@@@2@XZ 0040f500 f i uotool.obj
 0001:0000e510       ?begin@?$_Rb_tree@V?$basic_string@DV?$char_traits@D@_STL@@V?$allocator@D@2@@_STL@@U?$pair@$$CBV?$basic_string@DV?$char_traits@D@_STL@@V?$allocator@D@2@@_STL@@I@2@U?$_Select1st@U?$pair@$$CBV?$basic_string@DV?$char_traits@D@_STL@@V?$allocator@D@2@@_STL@@I@_STL@@@2@U?$less@V?$basic_string@DV?$char_traits@D@_STL@@V?$allocator@D@2@@_STL@@@2@V?$allocator@U?$pair@$$CBV?$basic_string@DV?$char_traits@D@_STL@@V?$allocator@D@2@@_STL@@I@_STL@@@2@@_STL@@QAE?AU?$_Rb_tree_iterator@U?$pair@$$CBV?$basic_string@DV?$char_traits@D@_STL@@V?$allocator@D@2@@_STL@@I@_STL@@U?$_Nonconst_traits@U?$pair@$$CBV?$basic_string@DV?$char_traits@D@_STL@@V?$allocator@D@2@@_STL@@I@_STL@@@2@@2@XZ 0040f510 f i uotool.obj
 0001:0000e520       ?end@?$_Rb_tree@V?$basic_string@DV?$char_traits@D@_STL@@V?$allocator@D@2@@_STL@@U?$pair@$$CBV?$basic_string@DV?$char_traits@D@_STL@@V?$allocator@D@2@@_STL@@I@2@U?$_Select1st@U?$pair@$$CBV?$basic_string@DV?$char_traits@D@_STL@@V?$allocator@D@2@@_STL@@I@_STL@@@2@U?$less@V?$basic_string@DV?$char_traits@D@_STL@@V?$allocator@D@2@@_STL@@@2@V?$allocator@U?$pair@$$CBV?$basic_string@DV?$char_traits@D@_STL@@V?$allocator@D@2@@_STL@@I@_STL@@@2@@_STL@@QAE?AU?$_Rb_tree_iterator@U?$pair@$$CBV?$basic_string@DV?$char_traits@D@_STL@@V?$allocator@D@2@@_STL@@I@_STL@@U?$_Nonconst_traits@U?$pair@$$CBV?$basic_string@DV?$char_traits@D@_STL@@V?$allocator@D@2@@_STL@@I@_STL@@@2@@2@XZ 0040f520 f i uotool.obj
 0001:0000e530       ??1?$_STLP_alloc_proxy@PAU?$_Rb_tree_node@U?$pair@$$CBV?$basic_string@DV?$char_traits@D@_STL@@V?$allocator@D@2@@_STL@@I@_STL@@@_STL@@U12@V?$allocator@U?$_Rb_tree_node@U?$pair@$$CBV?$basic_string@DV?$char_traits@D@_STL@@V?$allocator@D@2@@_STL@@I@_STL@@@_STL@@@2@@_STL@@QAE@XZ 0040f530 f i uotool.obj
 0001:0000e540       ?_M_empty_initialize@?$_Rb_tree@V?$basic_string@DV?$char_traits@D@_STL@@V?$allocator@D@2@@_STL@@U?$pair@$$CBV?$basic_string@DV?$char_traits@D@_STL@@V?$allocator@D@2@@_STL@@I@2@U?$_Select1st@U?$pair@$$CBV?$basic_string@DV?$char_traits@D@_STL@@V?$allocator@D@2@@_STL@@I@_STL@@@2@U?$less@V?$basic_string@DV?$char_traits@D@_STL@@V?$allocator@D@2@@_STL@@@2@V?$allocator@U?$pair@$$CBV?$basic_string@DV?$char_traits@D@_STL@@V?$allocator@D@2@@_STL@@I@_STL@@@2@@_STL@@AAEXXZ 0040f540 f i uotool.obj
 0001:0000e560       ?deallocate@?$allocator@U?$_Rb_tree_node@U?$pair@$$CBV?$basic_string@DV?$char_traits@D@_STL@@V?$allocator@D@2@@_STL@@I@_STL@@@_STL@@@_STL@@QAEXPAU?$_Rb_tree_node@U?$pair@$$CBV?$basic_string@DV?$char_traits@D@_STL@@V?$allocator@D@2@@_STL@@I@_STL@@@2@I@Z 0040f560 f i uotool.obj
 0001:0000e590       ??0?$_STLP_alloc_proxy@PAUStaticRec@@U1@V?$allocator@UStaticRec@@@_STL@@@_STL@@QAE@ABV?$allocator@UStaticRec@@@1@PAUStaticRec@@@Z 0040f590 f i uotool.obj
 0001:0000e5a0       ??0?$_STLP_alloc_proxy@PAU?$_Rb_tree_node@U?$pair@$$CBV?$basic_string@DV?$char_traits@D@_STL@@V?$allocator@D@2@@_STL@@I@_STL@@@_STL@@U12@V?$allocator@U?$_Rb_tree_node@U?$pair@$$CBV?$basic_string@DV?$char_traits@D@_STL@@V?$allocator@D@2@@_STL@@I@_STL@@@_STL@@@2@@_STL@@QAE@ABV?$allocator@U?$_Rb_tree_node@U?$pair@$$CBV?$basic_string@DV?$char_traits@D@_STL@@V?$allocator@D@2@@_STL@@I@_STL@@@_STL@@@1@PAU?$_Rb_tree_node@U?$pair@$$CBV?$basic_string@DV?$char_traits@D@_STL@@V?$allocator@D@2@@_STL@@I@_STL@@@1@@Z 0040f5a0 f i uotool.obj
 0001:0000e5b0       ?allocate@?$allocator@U?$_Rb_tree_node@U?$pair@$$CBV?$basic_string@DV?$char_traits@D@_STL@@V?$allocator@D@2@@_STL@@I@_STL@@@_STL@@@_STL@@QAEPAU?$_Rb_tree_node@U?$pair@$$CBV?$basic_string@DV?$char_traits@D@_STL@@V?$allocator@D@2@@_STL@@I@_STL@@@2@IPBX@Z 0040f5b0 f i uotool.obj
 0001:0000e5e0       ?_S_key@?$_Rb_tree@V?$basic_string@DV?$char_traits@D@_STL@@V?$allocator@D@2@@_STL@@U?$pair@$$CBV?$basic_string@DV?$char_traits@D@_STL@@V?$allocator@D@2@@_STL@@I@2@U?$_Select1st@U?$pair@$$CBV?$basic_string@DV?$char_traits@D@_STL@@V?$allocator@D@2@@_STL@@I@_STL@@@2@U?$less@V?$basic_string@DV?$char_traits@D@_STL@@V?$allocator@D@2@@_STL@@@2@V?$allocator@U?$pair@$$CBV?$basic_string@DV?$char_traits@D@_STL@@V?$allocator@D@2@@_STL@@I@_STL@@@2@@_STL@@KAABV?$basic_string@DV?$char_traits@D@_STL@@V?$allocator@D@2@@2@PAU?$_Rb_tree_node@U?$pair@$$CBV?$basic_string@DV?$char_traits@D@_STL@@V?$allocator@D@2@@_STL@@I@_STL@@@2@@Z 0040f5e0 f i uotool.obj
 0001:0000e5f0       ??$?6DV?$char_traits@D@_STL@@H@_STL@@YAAAV?$basic_ostream@DV?$char_traits@D@_STL@@@0@AAV10@ABU?$_Ios_Manip_1@H@0@@Z 0040f5f0 f i uotool.obj
 0001:0000e620       ??$?MDV?$char_traits@D@_STL@@V?$allocator@D@1@@_STL@@YA_NABV?$basic_string@DV?$char_traits@D@_STL@@V?$allocator@D@2@@0@0@Z 0040f620 f i uotool.obj
 0001:0000e690       ??$__copy_ptrs@PAUStaticRec@@PAU1@@_STL@@YAPAUStaticRec@@PAU1@00ABU__false_type@0@@Z 0040f690 f i uotool.obj
 0001:0000e6b0       ?close@?$basic_filebuf@DV?$char_traits@D@_STL@@@_STL@@QAEPAV12@XZ 0040f6b0 f i uotool.obj
 0001:0000e790       ?_M_setup_codecvt@?$basic_filebuf@DV?$char_traits@D@_STL@@@_STL@@AAEXABVlocale@2@@Z 0040f790 f i uotool.obj
 0001:0000e800       ?elimdupes@@YAXAAV?$vector@UStaticRec@@V?$allocator@UStaticRec@@@_STL@@@_STL@@@Z 0040f800 f   uotool.obj
 0001:0000e960       ?begin@?$multimap@GPBUMULTI_ELEM@@U?$less@G@_STL@@V?$allocator@U?$pair@$$CBGPBUMULTI_ELEM@@@_STL@@@3@@_STL@@QAE?AU?$_Rb_tree_iterator@U?$pair@$$CBGPBUMULTI_ELEM@@@_STL@@U?$_Nonconst_traits@U?$pair@$$CBGPBUMULTI_ELEM@@@_STL@@@2@@2@XZ 0040f960 f i uotool.obj
 0001:0000e970       ?end@?$multimap@GPBUMULTI_ELEM@@U?$less@G@_STL@@V?$allocator@U?$pair@$$CBGPBUMULTI_ELEM@@@_STL@@@3@@_STL@@QAE?AU?$_Rb_tree_iterator@U?$pair@$$CBGPBUMULTI_ELEM@@@_STL@@U?$_Nonconst_traits@U?$pair@$$CBGPBUMULTI_ELEM@@@_STL@@@2@@2@XZ 0040f970 f i uotool.obj
 0001:0000e980       ?begin@?$map@V?$basic_string@DV?$char_traits@D@_STL@@V?$allocator@D@2@@_STL@@IU?$less@V?$basic_string@DV?$char_traits@D@_STL@@V?$allocator@D@2@@_STL@@@2@V?$allocator@U?$pair@$$CBV?$basic_string@DV?$char_traits@D@_STL@@V?$allocator@D@2@@_STL@@I@_STL@@@2@@_STL@@QAE?AU?$_Rb_tree_iterator@U?$pair@$$CBV?$basic_string@DV?$char_traits@D@_STL@@V?$allocator@D@2@@_STL@@I@_STL@@U?$_Nonconst_traits@U?$pair@$$CBV?$basic_string@DV?$char_traits@D@_STL@@V?$allocator@D@2@@_STL@@I@_STL@@@2@@2@XZ 0040f980 f i uotool.obj
 0001:0000e990       ?end@?$map@V?$basic_string@DV?$char_traits@D@_STL@@V?$allocator@D@2@@_STL@@IU?$less@V?$basic_string@DV?$char_traits@D@_STL@@V?$allocator@D@2@@_STL@@@2@V?$allocator@U?$pair@$$CBV?$basic_string@DV?$char_traits@D@_STL@@V?$allocator@D@2@@_STL@@I@_STL@@@2@@_STL@@QAE?AU?$_Rb_tree_iterator@U?$pair@$$CBV?$basic_string@DV?$char_traits@D@_STL@@V?$allocator@D@2@@_STL@@I@_STL@@U?$_Nonconst_traits@U?$pair@$$CBV?$basic_string@DV?$char_traits@D@_STL@@V?$allocator@D@2@@_STL@@I@_STL@@@2@@2@XZ 0040f990 f i uotool.obj
 0001:0000e9a0       ??1?$_Rb_tree_base@U?$pair@$$CBV?$basic_string@DV?$char_traits@D@_STL@@V?$allocator@D@2@@_STL@@I@_STL@@V?$allocator@U?$pair@$$CBV?$basic_string@DV?$char_traits@D@_STL@@V?$allocator@D@2@@_STL@@I@_STL@@@2@@_STL@@QAE@XZ 0040f9a0 f i uotool.obj
 0001:0000e9c0       ??R?$less@V?$basic_string@DV?$char_traits@D@_STL@@V?$allocator@D@2@@_STL@@@_STL@@QBE_NABV?$basic_string@DV?$char_traits@D@_STL@@V?$allocator@D@2@@1@0@Z 0040f9c0 f i uotool.obj
 0001:0000e9e0       ??0?$_Vector_base@UStaticRec@@V?$allocator@UStaticRec@@@_STL@@@_STL@@QAE@ABV?$allocator@UStaticRec@@@1@@Z 0040f9e0 f i uotool.obj
 0001:0000ea10       ??1?$_Vector_base@UStaticRec@@V?$allocator@UStaticRec@@@_STL@@@_STL@@QAE@XZ 0040fa10 f i uotool.obj
 0001:0000ea50       ??0?$_Rb_tree_base@U?$pair@$$CBV?$basic_string@DV?$char_traits@D@_STL@@V?$allocator@D@2@@_STL@@I@_STL@@V?$allocator@U?$pair@$$CBV?$basic_string@DV?$char_traits@D@_STL@@V?$allocator@D@2@@_STL@@I@_STL@@@2@@_STL@@QAE@ABV?$allocator@U?$pair@$$CBV?$basic_string@DV?$char_traits@D@_STL@@V?$allocator@D@2@@_STL@@I@_STL@@@1@@Z 0040fa50 f i uotool.obj
 0001:0000ea80       ?_M_lower_bound@?$_Rb_tree@V?$basic_string@DV?$char_traits@D@_STL@@V?$allocator@D@2@@_STL@@U?$pair@$$CBV?$basic_string@DV?$char_traits@D@_STL@@V?$allocator@D@2@@_STL@@I@2@U?$_Select1st@U?$pair@$$CBV?$basic_string@DV?$char_traits@D@_STL@@V?$allocator@D@2@@_STL@@I@_STL@@@2@U?$less@V?$basic_string@DV?$char_traits@D@_STL@@V?$allocator@D@2@@_STL@@@2@V?$allocator@U?$pair@$$CBV?$basic_string@DV?$char_traits@D@_STL@@V?$allocator@D@2@@_STL@@I@_STL@@@2@@_STL@@ABEPAU?$_Rb_tree_node@U?$pair@$$CBV?$basic_string@DV?$char_traits@D@_STL@@V?$allocator@D@2@@_STL@@I@_STL@@@2@ABV?$basic_string@DV?$char_traits@D@_STL@@V?$allocator@D@2@@2@@Z 0040fa80 f i uotool.obj
 0001:0000eb10       ??0?$basic_filebuf@DV?$char_traits@D@_STL@@@_STL@@QAE@XZ 0040fb10 f i uotool.obj
 0001:0000ec20       ?underflow@?$basic_filebuf@DV?$char_traits@D@_STL@@@_STL@@MAEHXZ 0040fc20 f i uotool.obj
 0001:0000ec30       ?showmanyc@?$basic_filebuf@DV?$char_traits@D@_STL@@@_STL@@MAEHXZ 0040fc30 f i uotool.obj
 0001:0000eca0       ?pbackfail@?$basic_filebuf@DV?$char_traits@D@_STL@@@_STL@@MAEHH@Z 0040fca0 f i uotool.obj
 0001:0000ed90       ?sync@?$basic_filebuf@DV?$char_traits@D@_STL@@@_STL@@MAEHXZ 0040fd90 f i uotool.obj
 0001:0000edb0       ??1?$basic_filebuf@DV?$char_traits@D@_STL@@@_STL@@UAE@XZ 0040fdb0 f i uotool.obj
 0001:0000ee30       ?setbuf@?$basic_filebuf@DV?$char_traits@D@_STL@@@_STL@@MAEPAV?$basic_streambuf@DV?$char_traits@D@_STL@@@2@PADH@Z 0040fe30 f i uotool.obj
 0001:0000ee90       ?_M_allocate_buffers@?$basic_filebuf@DV?$char_traits@D@_STL@@@_STL@@AAE_NPADH@Z 0040fe90 f i uotool.obj
 0001:0000ef70       ?seekoff@?$basic_filebuf@DV?$char_traits@D@_STL@@@_STL@@MAE?AV?$fpos@H@2@JHH@Z 0040ff70 f i uotool.obj
 0001:0000f300       ??$count@PADD@_STL@@YAHPAD0ABD@Z 00410300 f i uotool.obj
 0001:0000f330       ??1?$_Filebuf_Tmp_Buf@D@_STL@@QAE@XZ 00410330 f i uotool.obj
 0001:0000f340       ?_M_seek_return@?$basic_filebuf@DV?$char_traits@D@_STL@@@_STL@@AAE?AV?$fpos@H@2@JH@Z 00410340 f i uotool.obj
 0001:0000f3b0       ?_M_seek_init@?$basic_filebuf@DV?$char_traits@D@_STL@@@_STL@@AAE_N_N@Z 004103b0 f i uotool.obj
 0001:0000f420       ?_M_exit_putback_mode@?$basic_filebuf@DV?$char_traits@D@_STL@@@_STL@@AAEXXZ 00410420 f i uotool.obj
 0001:0000f450       ?seekpos@?$basic_filebuf@DV?$char_traits@D@_STL@@@_STL@@MAE?AV?$fpos@H@2@V32@H@Z 00410450 f i uotool.obj
 0001:0000f520       ?imbue@?$basic_filebuf@DV?$char_traits@D@_STL@@@_STL@@MAEXABVlocale@2@@Z 00410520 f i uotool.obj
 0001:0000f540       ??_G?$basic_filebuf@DV?$char_traits@D@_STL@@@_STL@@UAEPAXI@Z 00410540 f i uotool.obj
 0001:0000f540       ??_E?$basic_filebuf@DV?$char_traits@D@_STL@@@_STL@@UAEPAXI@Z 00410540 f i uotool.obj
 0001:0000f560       ??$_M_read_unbuffered@DV?$char_traits@D@_STL@@U?$_Constant_unary_fun@_NH@2@@_STL@@YAHPAV?$basic_istream@DV?$char_traits@D@_STL@@@0@PAV?$basic_streambuf@DV?$char_traits@D@_STL@@@0@HPADU?$_Constant_unary_fun@_NH@0@_N44@Z 00410560 f i uotool.obj
 0001:0000f680       ??0?$vector@UStaticRec@@V?$allocator@UStaticRec@@@_STL@@@_STL@@QAE@ABV?$allocator@UStaticRec@@@1@@Z 00410680 f i uotool.obj
 0001:0000f690       ??1?$vector@UStaticRec@@V?$allocator@UStaticRec@@@_STL@@@_STL@@QAE@XZ 00410690 f i uotool.obj
 0001:0000f6d0       ??1?$basic_ifstream@DV?$char_traits@D@_STL@@@_STL@@UAE@XZ 004106d0 f i uotool.obj
 0001:0000f740       ??1?$basic_ofstream@DV?$char_traits@D@_STL@@@_STL@@UAE@XZ 00410740 f i uotool.obj
 0001:0000f7b0       ??0?$_Rb_tree@V?$basic_string@DV?$char_traits@D@_STL@@V?$allocator@D@2@@_STL@@U?$pair@$$CBV?$basic_string@DV?$char_traits@D@_STL@@V?$allocator@D@2@@_STL@@I@2@U?$_Select1st@U?$pair@$$CBV?$basic_string@DV?$char_traits@D@_STL@@V?$allocator@D@2@@_STL@@I@_STL@@@2@U?$less@V?$basic_string@DV?$char_traits@D@_STL@@V?$allocator@D@2@@_STL@@@2@V?$allocator@U?$pair@$$CBV?$basic_string@DV?$char_traits@D@_STL@@V?$allocator@D@2@@_STL@@I@_STL@@@2@@_STL@@QAE@ABU?$less@V?$basic_string@DV?$char_traits@D@_STL@@V?$allocator@D@2@@_STL@@@1@ABV?$allocator@U?$pair@$$CBV?$basic_string@DV?$char_traits@D@_STL@@V?$allocator@D@2@@_STL@@I@_STL@@@1@@Z 004107b0 f i uotool.obj
 0001:0000f7f0       ?erase@?$vector@UStaticRec@@V?$allocator@UStaticRec@@@_STL@@@_STL@@QAEPAUStaticRec@@PAU3@0@Z 004107f0 f i uotool.obj
 0001:0000f820       ?lower_bound@?$_Rb_tree@V?$basic_string@DV?$char_traits@D@_STL@@V?$allocator@D@2@@_STL@@U?$pair@$$CBV?$basic_string@DV?$char_traits@D@_STL@@V?$allocator@D@2@@_STL@@I@2@U?$_Select1st@U?$pair@$$CBV?$basic_string@DV?$char_traits@D@_STL@@V?$allocator@D@2@@_STL@@I@_STL@@@2@U?$less@V?$basic_string@DV?$char_traits@D@_STL@@V?$allocator@D@2@@_STL@@@2@V?$allocator@U?$pair@$$CBV?$basic_string@DV?$char_traits@D@_STL@@V?$allocator@D@2@@_STL@@I@_STL@@@2@@_STL@@QAE?AU?$_Rb_tree_iterator@U?$pair@$$CBV?$basic_string@DV?$char_traits@D@_STL@@V?$allocator@D@2@@_STL@@I@_STL@@U?$_Nonconst_traits@U?$pair@$$CBV?$basic_string@DV?$char_traits@D@_STL@@V?$allocator@D@2@@_STL@@I@_STL@@@2@@2@ABV?$basic_string@DV?$char_traits@D@_STL@@V?$allocator@D@2@@2@@Z 00410820 f i uotool.obj
 0001:0000f840       ?overflow@?$basic_filebuf@DV?$char_traits@D@_STL@@@_STL@@MAEHH@Z 00410840 f i uotool.obj
 0001:0000f970       ?_M_output_error@?$basic_filebuf@DV?$char_traits@D@_STL@@@_STL@@AAEHXZ 00410970 f i uotool.obj
 0001:0000f990       ?_M_switch_to_output_mode@?$basic_filebuf@DV?$char_traits@D@_STL@@@_STL@@AAE_NXZ 00410990 f i uotool.obj
 0001:0000fa10       ??0sentry@?$basic_istream@DV?$char_traits@D@_STL@@@_STL@@QAE@AAV12@U_No_Skip_WS@2@@Z 00410a10 f i uotool.obj
 0001:0000fa30       ??$_M_read_buffered@DV?$char_traits@D@_STL@@U?$_Constant_unary_fun@_NH@2@U?$_Project2nd@PBDPBD@2@@_STL@@YAHPAV?$basic_istream@DV?$char_traits@D@_STL@@@0@PAV?$basic_streambuf@DV?$char_traits@D@_STL@@@0@HPADU?$_Constant_unary_fun@_NH@0@U?$_Project2nd@PBDPBD@0@_N55@Z 00410a30 f i uotool.obj
 0001:0000fc10       ?_M_put_char@?$basic_ostream@DV?$char_traits@D@_STL@@@_STL@@QAEXD@Z 00410c10 f i uotool.obj
 0001:0000fdf0       ??_D?$basic_ifstream@DV?$char_traits@D@_STL@@@_STL@@QAEXXZ 00410df0 f i uotool.obj
 0001:0000fe10       ??_D?$basic_ofstream@DV?$char_traits@D@_STL@@@_STL@@QAEXXZ 00410e10 f i uotool.obj
 0001:0000fe30       ?clear@?$vector@UStaticRec@@V?$allocator@UStaticRec@@@_STL@@@_STL@@QAEXXZ 00410e30 f i uotool.obj
 0001:0000fe60       ??1?$pair@$$CBV?$basic_string@DV?$char_traits@D@_STL@@V?$allocator@D@2@@_STL@@I@_STL@@QAE@XZ 00410e60 f i uotool.obj
 0001:0000fe90       ??_E?$basic_ifstream@DV?$char_traits@D@_STL@@@_STL@@UAEPAXI@Z 00410e90 f i uotool.obj
 0001:0000fe90       ??_G?$basic_ifstream@DV?$char_traits@D@_STL@@@_STL@@UAEPAXI@Z 00410e90 f i uotool.obj
 0001:0000fed0       ??_E?$basic_ofstream@DV?$char_traits@D@_STL@@@_STL@@UAEPAXI@Z 00410ed0 f i uotool.obj
 0001:0000fed0       ??_G?$basic_ofstream@DV?$char_traits@D@_STL@@@_STL@@UAEPAXI@Z 00410ed0 f i uotool.obj
 0001:0000ff10       ?lower_bound@?$map@V?$basic_string@DV?$char_traits@D@_STL@@V?$allocator@D@2@@_STL@@IU?$less@V?$basic_string@DV?$char_traits@D@_STL@@V?$allocator@D@2@@_STL@@@2@V?$allocator@U?$pair@$$CBV?$basic_string@DV?$char_traits@D@_STL@@V?$allocator@D@2@@_STL@@I@_STL@@@2@@_STL@@QAE?AU?$_Rb_tree_iterator@U?$pair@$$CBV?$basic_string@DV?$char_traits@D@_STL@@V?$allocator@D@2@@_STL@@I@_STL@@U?$_Nonconst_traits@U?$pair@$$CBV?$basic_string@DV?$char_traits@D@_STL@@V?$allocator@D@2@@_STL@@I@_STL@@@2@@2@ABV?$basic_string@DV?$char_traits@D@_STL@@V?$allocator@D@2@@2@@Z 00410f10 f i uotool.obj
 0001:0000ff30       ?read@?$basic_istream@DV?$char_traits@D@_STL@@@_STL@@QAEAAV12@PADH@Z 00410f30 f i uotool.obj
 0001:00010020       ?seekg@?$basic_istream@DV?$char_traits@D@_STL@@@_STL@@QAEAAV12@JH@Z 00411020 f i uotool.obj
 0001:00010070       ?write@?$basic_ostream@DV?$char_traits@D@_STL@@@_STL@@QAEAAV12@PBDH@Z 00411070 f i uotool.obj
 0001:00010160       ??$?6V?$char_traits@D@_STL@@@_STL@@YAAAV?$basic_ostream@DV?$char_traits@D@_STL@@@0@AAV10@D@Z 00411160 f i uotool.obj
 0001:00010180       ??$?6V?$char_traits@D@_STL@@@_STL@@YAAAV?$basic_ostream@DV?$char_traits@D@_STL@@@0@AAV10@C@Z 00411180 f i uotool.obj
 0001:000101a0       ??$_M_put_num@DV?$char_traits@D@_STL@@_N@_STL@@YAAAV?$basic_ostream@DV?$char_traits@D@_STL@@@0@AAV10@_N@Z 004111a0 f i uotool.obj
 0001:000102e0       ??_G?$pair@$$CBV?$basic_string@DV?$char_traits@D@_STL@@V?$allocator@D@2@@_STL@@I@_STL@@QAEPAXI@Z 004112e0 f i uotool.obj
 0001:00010300       ??0PolConfig@@QAE@XZ       00411300 f i uotool.obj
 0001:000103a0       ??1PolConfig@@QAE@XZ       004113a0 f i uotool.obj
 0001:00010560       ?read_ulong@@YAKAAV?$basic_istream@DV?$char_traits@D@_STL@@@_STL@@@Z 00411560 f   uotool.obj
 0001:000105a0       ?has_water@@YA_NHH@Z       004115a0 f   uotool.obj
 0001:00010700       ?water_search@@YAHHQAPAD@Z 00411700 f   uotool.obj
 0001:00010850       ??6?$basic_ostream@DV?$char_traits@D@_STL@@@_STL@@QAEAAV01@F@Z 00411850 f i uotool.obj
 0001:00010870       ??6?$basic_ostream@DV?$char_traits@D@_STL@@@_STL@@QAEAAV01@_N@Z 00411870 f i uotool.obj
 0001:00010890       ??$_Destroy@U?$pair@$$CBV?$basic_string@DV?$char_traits@D@_STL@@V?$allocator@D@2@@_STL@@I@_STL@@@_STL@@YAXPAU?$pair@$$CBV?$basic_string@DV?$char_traits@D@_STL@@V?$allocator@D@2@@_STL@@I@0@@Z 00411890 f i uotool.obj
 0001:000108a0       ?verlandtile@@YAHHPAPAD@Z  004118a0 f   uotool.obj
 0001:00010b80       ?landtileflagsearch@@YAHHPAPAD@Z 00411b80 f   uotool.obj
 0001:00010d60       ?print_verdata_info@@YAHXZ 00411d60 f   uotool.obj
 0001:00010f90       ?print_statics@@YAHXZ      00411f90 f   uotool.obj
 0001:00011450       ?print_multihull@@YAXHPAVMultiDef@@@Z 00412450 f   uotool.obj
 0001:000116d0       ?print_widedata@@YAXHPAVMultiDef@@@Z 004126d0 f   uotool.obj
 0001:00011950       ?print_multidata@@YAXHPAVMultiDef@@@Z 00412950 f   uotool.obj
 0001:00011b50       ?z_histogram@@YAHXZ        00412b50 f   uotool.obj
 0001:00011cf0       ?statics_histogram@@YAHXZ  00412cf0 f   uotool.obj
 0001:00011f20       ?write_polmap@@YAHPBDGG@Z  00412f20 f   uotool.obj
 0001:00012100       ?write_polmap@@YAHXZ       00413100 f   uotool.obj
 0001:00012150       ?findlandtile@@YAHHPAPAD@Z 00413150 f   uotool.obj
 0001:000122b0       ?findgraphic@@YAHHPAPAD@Z  004132b0 f   uotool.obj
 0001:00012520       ?findlandtileflags@@YAHHPAPAD@Z 00413520 f   uotool.obj
 0001:00012740       ?_M_erase@?$_Rb_tree@V?$basic_string@DV?$char_traits@D@_STL@@V?$allocator@D@2@@_STL@@U?$pair@$$CBV?$basic_string@DV?$char_traits@D@_STL@@V?$allocator@D@2@@_STL@@I@2@U?$_Select1st@U?$pair@$$CBV?$basic_string@DV?$char_traits@D@_STL@@V?$allocator@D@2@@_STL@@I@_STL@@@2@U?$less@V?$basic_string@DV?$char_traits@D@_STL@@V?$allocator@D@2@@_STL@@@2@V?$allocator@U?$pair@$$CBV?$basic_string@DV?$char_traits@D@_STL@@V?$allocator@D@2@@_STL@@I@_STL@@@2@@_STL@@AAEXPAU?$_Rb_tree_node@U?$pair@$$CBV?$basic_string@DV?$char_traits@D@_STL@@V?$allocator@D@2@@_STL@@I@_STL@@@2@@Z 00413740 f i uotool.obj
 0001:00012780       ??0?$pair@$$CBV?$basic_string@DV?$char_traits@D@_STL@@V?$allocator@D@2@@_STL@@I@_STL@@QAE@ABU01@@Z 00413780 f i uotool.obj
 0001:000127a0       ?print_multis@@YAHXZ       004137a0 f   uotool.obj
 0001:00012840       ?clear@?$_Rb_tree@V?$basic_string@DV?$char_traits@D@_STL@@V?$allocator@D@2@@_STL@@U?$pair@$$CBV?$basic_string@DV?$char_traits@D@_STL@@V?$allocator@D@2@@_STL@@I@2@U?$_Select1st@U?$pair@$$CBV?$basic_string@DV?$char_traits@D@_STL@@V?$allocator@D@2@@_STL@@I@_STL@@@2@U?$less@V?$basic_string@DV?$char_traits@D@_STL@@V?$allocator@D@2@@_STL@@@2@V?$allocator@U?$pair@$$CBV?$basic_string@DV?$char_traits@D@_STL@@V?$allocator@D@2@@_STL@@I@_STL@@@2@@_STL@@QAEXXZ 00413840 f i uotool.obj
 0001:00012880       ??0?$pair@$$CBV?$basic_string@DV?$char_traits@D@_STL@@V?$allocator@D@2@@_STL@@I@_STL@@QAE@ABV?$basic_string@DV?$char_traits@D@_STL@@V?$allocator@D@2@@1@ABI@Z 00413880 f i uotool.obj
 0001:000128a0       ??$_Construct@U?$pair@$$CBV?$basic_string@DV?$char_traits@D@_STL@@V?$allocator@D@2@@_STL@@I@_STL@@U12@@_STL@@YAXPAU?$pair@$$CBV?$basic_string@DV?$char_traits@D@_STL@@V?$allocator@D@2@@_STL@@I@0@ABU10@@Z 004138a0 f i uotool.obj
 0001:000128f0       ??1?$_Rb_tree@V?$basic_string@DV?$char_traits@D@_STL@@V?$allocator@D@2@@_STL@@U?$pair@$$CBV?$basic_string@DV?$char_traits@D@_STL@@V?$allocator@D@2@@_STL@@I@2@U?$_Select1st@U?$pair@$$CBV?$basic_string@DV?$char_traits@D@_STL@@V?$allocator@D@2@@_STL@@I@_STL@@@2@U?$less@V?$basic_string@DV?$char_traits@D@_STL@@V?$allocator@D@2@@_STL@@@2@V?$allocator@U?$pair@$$CBV?$basic_string@DV?$char_traits@D@_STL@@V?$allocator@D@2@@_STL@@I@_STL@@@2@@_STL@@QAE@XZ 004138f0 f i uotool.obj
 0001:00012970       ?_M_create_node@?$_Rb_tree@V?$basic_string@DV?$char_traits@D@_STL@@V?$allocator@D@2@@_STL@@U?$pair@$$CBV?$basic_string@DV?$char_traits@D@_STL@@V?$allocator@D@2@@_STL@@I@2@U?$_Select1st@U?$pair@$$CBV?$basic_string@DV?$char_traits@D@_STL@@V?$allocator@D@2@@_STL@@I@_STL@@@2@U?$less@V?$basic_string@DV?$char_traits@D@_STL@@V?$allocator@D@2@@_STL@@@2@V?$allocator@U?$pair@$$CBV?$basic_string@DV?$char_traits@D@_STL@@V?$allocator@D@2@@_STL@@I@_STL@@@2@@_STL@@IAEPAU?$_Rb_tree_node@U?$pair@$$CBV?$basic_string@DV?$char_traits@D@_STL@@V?$allocator@D@2@@_STL@@I@_STL@@@2@ABU?$pair@$$CBV?$basic_string@DV?$char_traits@D@_STL@@V?$allocator@D@2@@_STL@@I@2@@Z 00413970 f i uotool.obj
 0001:000129f0       ??1?$map@V?$basic_string@DV?$char_traits@D@_STL@@V?$allocator@D@2@@_STL@@IU?$less@V?$basic_string@DV?$char_traits@D@_STL@@V?$allocator@D@2@@_STL@@@2@V?$allocator@U?$pair@$$CBV?$basic_string@DV?$char_traits@D@_STL@@V?$allocator@D@2@@_STL@@I@_STL@@@2@@_STL@@QAE@XZ 004139f0 f i uotool.obj
 0001:00012a00       ??0?$map@V?$basic_string@DV?$char_traits@D@_STL@@V?$allocator@D@2@@_STL@@IU?$less@V?$basic_string@DV?$char_traits@D@_STL@@V?$allocator@D@2@@_STL@@@2@V?$allocator@U?$pair@$$CBV?$basic_string@DV?$char_traits@D@_STL@@V?$allocator@D@2@@_STL@@I@_STL@@@2@@_STL@@QAE@XZ 00413a00 f i uotool.obj
 0001:00012a40       ?_M_insert@?$_Rb_tree@V?$basic_string@DV?$char_traits@D@_STL@@V?$allocator@D@2@@_STL@@U?$pair@$$CBV?$basic_string@DV?$char_traits@D@_STL@@V?$allocator@D@2@@_STL@@I@2@U?$_Select1st@U?$pair@$$CBV?$basic_string@DV?$char_traits@D@_STL@@V?$allocator@D@2@@_STL@@I@_STL@@@2@U?$less@V?$basic_string@DV?$char_traits@D@_STL@@V?$allocator@D@2@@_STL@@@2@V?$allocator@U?$pair@$$CBV?$basic_string@DV?$char_traits@D@_STL@@V?$allocator@D@2@@_STL@@I@_STL@@@2@@_STL@@AAE?AU?$_Rb_tree_iterator@U?$pair@$$CBV?$basic_string@DV?$char_traits@D@_STL@@V?$allocator@D@2@@_STL@@I@_STL@@U?$_Nonconst_traits@U?$pair@$$CBV?$basic_string@DV?$char_traits@D@_STL@@V?$allocator@D@2@@_STL@@I@_STL@@@2@@2@PAU_Rb_tree_node_base@2@0ABU?$pair@$$CBV?$basic_string@DV?$char_traits@D@_STL@@V?$allocator@D@2@@_STL@@I@2@0@Z 00413a40 f i uotool.obj
 0001:00012af0       ?insert_unique@?$_Rb_tree@V?$basic_string@DV?$char_traits@D@_STL@@V?$allocator@D@2@@_STL@@U?$pair@$$CBV?$basic_string@DV?$char_traits@D@_STL@@V?$allocator@D@2@@_STL@@I@2@U?$_Select1st@U?$pair@$$CBV?$basic_string@DV?$char_traits@D@_STL@@V?$allocator@D@2@@_STL@@I@_STL@@@2@U?$less@V?$basic_string@DV?$char_traits@D@_STL@@V?$allocator@D@2@@_STL@@@2@V?$allocator@U?$pair@$$CBV?$basic_string@DV?$char_traits@D@_STL@@V?$allocator@D@2@@_STL@@I@_STL@@@2@@_STL@@QAE?AU?$pair@U?$_Rb_tree_iterator@U?$pair@$$CBV?$basic_string@DV?$char_traits@D@_STL@@V?$allocator@D@2@@_STL@@I@_STL@@U?$_Nonconst_traits@U?$pair@$$CBV?$basic_string@DV?$char_traits@D@_STL@@V?$allocator@D@2@@_STL@@I@_STL@@@2@@_STL@@_N@2@ABU?$pair@$$CBV?$basic_string@DV?$char_traits@D@_STL@@V?$allocator@D@2@@_STL@@I@2@@Z 00413af0 f i uotool.obj
 0001:00012c20       ??0?$basic_ofstream@DV?$char_traits@D@_STL@@@_STL@@QAE@PBDH@Z 00413c20 f i uotool.obj
 0001:00012d20       ?insert_unique@?$_Rb_tree@V?$basic_string@DV?$char_traits@D@_STL@@V?$allocator@D@2@@_STL@@U?$pair@$$CBV?$basic_string@DV?$char_traits@D@_STL@@V?$allocator@D@2@@_STL@@I@2@U?$_Select1st@U?$pair@$$CBV?$basic_string@DV?$char_traits@D@_STL@@V?$allocator@D@2@@_STL@@I@_STL@@@2@U?$less@V?$basic_string@DV?$char_traits@D@_STL@@V?$allocator@D@2@@_STL@@@2@V?$allocator@U?$pair@$$CBV?$basic_string@DV?$char_traits@D@_STL@@V?$allocator@D@2@@_STL@@I@_STL@@@2@@_STL@@QAE?AU?$_Rb_tree_iterator@U?$pair@$$CBV?$basic_string@DV?$char_traits@D@_STL@@V?$allocator@D@2@@_STL@@I@_STL@@U?$_Nonconst_traits@U?$pair@$$CBV?$basic_string@DV?$char_traits@D@_STL@@V?$allocator@D@2@@_STL@@I@_STL@@@2@@2@U32@ABU?$pair@$$CBV?$basic_string@DV?$char_traits@D@_STL@@V?$allocator@D@2@@_STL@@I@2@@Z 00413d20 f i uotool.obj
 0001:00012fa0       ?mapdump@@YAHHQAPAD@Z      00413fa0 f   uotool.obj
 0001:000139b0       ?contour@@YAHHPAPAD@Z      004149b0 f   uotool.obj
 0001:00013b50       ??0?$basic_ifstream@DV?$char_traits@D@_STL@@@_STL@@QAE@PBDH@Z 00414b50 f i uotool.obj
 0001:00013c60       ?insert@?$map@V?$basic_string@DV?$char_traits@D@_STL@@V?$allocator@D@2@@_STL@@IU?$less@V?$basic_string@DV?$char_traits@D@_STL@@V?$allocator@D@2@@_STL@@@2@V?$allocator@U?$pair@$$CBV?$basic_string@DV?$char_traits@D@_STL@@V?$allocator@D@2@@_STL@@I@_STL@@@2@@_STL@@QAE?AU?$_Rb_tree_iterator@U?$pair@$$CBV?$basic_string@DV?$char_traits@D@_STL@@V?$allocator@D@2@@_STL@@I@_STL@@U?$_Nonconst_traits@U?$pair@$$CBV?$basic_string@DV?$char_traits@D@_STL@@V?$allocator@D@2@@_STL@@I@_STL@@@2@@2@U32@ABU?$pair@$$CBV?$basic_string@DV?$char_traits@D@_STL@@V?$allocator@D@2@@_STL@@I@2@@Z 00414c60 f i uotool.obj
 0001:00013c80       ?print_sndlist@@YAHHPAPAD@Z 00414c80 f   uotool.obj
 0001:000140a0       ??A?$map@V?$basic_string@DV?$char_traits@D@_STL@@V?$allocator@D@2@@_STL@@IU?$less@V?$basic_string@DV?$char_traits@D@_STL@@V?$allocator@D@2@@_STL@@@2@V?$allocator@U?$pair@$$CBV?$basic_string@DV?$char_traits@D@_STL@@V?$allocator@D@2@@_STL@@I@_STL@@@2@@_STL@@QAEAAIABV?$basic_string@DV?$char_traits@D@_STL@@V?$allocator@D@2@@1@@Z 004150a0 f i uotool.obj
 0001:00014190       ?landtilehist@@YAHHPAPAD@Z 00415190 f   uotool.obj
 0001:000143a0       ?landtilecfg@@YAHHPAPAD@Z  004153a0 f   uotool.obj
 0001:000145b0       _main                      004155b0 f   uotool.obj
 0001:00014b30       ??$?8DV?$char_traits@D@_STL@@V?$allocator@D@1@@_STL@@YA_NABV?$basic_string@DV?$char_traits@D@_STL@@V?$allocator@D@2@@0@PBD@Z 00415b30 f i plib:realmdescriptor.obj
 0001:00014b70       ??0RealmDescriptor@@AAE@ABV?$basic_string@DV?$char_traits@D@_STL@@V?$allocator@D@2@@_STL@@0AAVConfigElem@@@Z 00415b70 f   plib:realmdescriptor.obj
 0001:00014cb0       ?path@RealmDescriptor@@QBE?AV?$basic_string@DV?$char_traits@D@_STL@@V?$allocator@D@2@@_STL@@ABV23@@Z 00415cb0 f   plib:realmdescriptor.obj
 0001:00014e10       ?Load@RealmDescriptor@@SA?AV1@ABV?$basic_string@DV?$char_traits@D@_STL@@V?$allocator@D@2@@_STL@@0@Z 00415e10 f   plib:realmdescriptor.obj
 0001:000150a0       ?force_backtrace@@YAXXZ    004160a0 f   clib:passert.obj
 0001:00015100       ??$tostring@I@@YA?AV?$basic_string@DV?$char_traits@D@_STL@@V?$allocator@D@2@@_STL@@ABI@Z 00416100 f i clib:passert.obj
 0001:000151b0       ?passert_failed@@YAXPBD0I@Z 004161b0 f   clib:passert.obj
 0001:000153f0       ?passert_failed@@YAXPBDABV?$basic_string@DV?$char_traits@D@_STL@@V?$allocator@D@2@@_STL@@0I@Z 004163f0 f   clib:passert.obj
 0001:000156a0       ??1ConfigSource@@UAE@XZ    004166a0 f i clib:cfgfile.obj
 0001:000156b0       ??_GConfigSource@@UAEPAXI@Z 004166b0 f i clib:cfgfile.obj
 0001:000156b0       ??_EConfigSource@@UAEPAXI@Z 004166b0 f i clib:cfgfile.obj
 0001:000156d0       ?set_source@ConfigElem@@QAEXABV1@@Z 004166d0 f   clib:cfgfile.obj
 0001:000156e0       ?set_source@ConfigElem@@QAEXPBVConfigSource@@@Z 004166e0 f   clib:cfgfile.obj
 0001:000156f0       ?warn@ConfigElem@@QBEXABV?$basic_string@DV?$char_traits@D@_STL@@V?$allocator@D@2@@_STL@@@Z 004166f0 f   clib:cfgfile.obj
 0001:00015710       ?warn_with_line@ConfigElem@@QBEXABV?$basic_string@DV?$char_traits@D@_STL@@V?$allocator@D@2@@_STL@@@Z 00416710 f   clib:cfgfile.obj
 0001:00015730       ??0ConfigSource@@QAE@XZ    00416730 f i clib:cfgfile.obj
 0001:00015740       ?filename@ConfigFile@@QBEABV?$basic_string@DV?$char_traits@D@_STL@@V?$allocator@D@2@@_STL@@XZ 00416740 f   clib:cfgfile.obj
 0001:00015750       ?modified@ConfigFile@@QBE?BJXZ 00416750 f   clib:cfgfile.obj
 0001:00015760       ?element_line_start@ConfigFile@@QBEIXZ 00416760 f   clib:cfgfile.obj
 0001:00015770       ?empty@?$basic_string@DV?$char_traits@D@_STL@@V?$allocator@D@2@@_STL@@QBE_NXZ 00416770 f i clib:cfgfile.obj
 0001:00015780       ??A?$basic_string@DV?$char_traits@D@_STL@@V?$allocator@D@2@@_STL@@QBEABDI@Z 00416780 f i clib:cfgfile.obj
 0001:00015790       ??A?$basic_string@DV?$char_traits@D@_STL@@V?$allocator@D@2@@_STL@@QAEAADI@Z 00416790 f i clib:cfgfile.obj
 0001:000157a0       ?begin@?$vector@PAVConfigProperty@@V?$allocator@PAVConfigProperty@@@_STL@@@_STL@@QAEPAPAVConfigProperty@@XZ 004167a0 f i clib:cfgfile.obj
 0001:000157b0       ?begin@?$vector@PAVConfigProperty@@V?$allocator@PAVConfigProperty@@@_STL@@@_STL@@QBEPBQAVConfigProperty@@XZ 004167b0 f i clib:cfgfile.obj
 0001:000157c0       ?end@?$vector@PAVConfigProperty@@V?$allocator@PAVConfigProperty@@@_STL@@@_STL@@QAEPAPAVConfigProperty@@XZ 004167c0 f i clib:cfgfile.obj
 0001:000157d0       ?end@?$vector@PAVConfigProperty@@V?$allocator@PAVConfigProperty@@@_STL@@@_STL@@QBEPBQAVConfigProperty@@XZ 004167d0 f i clib:cfgfile.obj
 0001:000157e0       ?empty@?$vector@PAVConfigProperty@@V?$allocator@PAVConfigProperty@@@_STL@@@_STL@@QBE_NXZ 004167e0 f i clib:cfgfile.obj
 0001:000157f0       ?front@?$vector@PAVConfigProperty@@V?$allocator@PAVConfigProperty@@@_STL@@@_STL@@QAEAAPAVConfigProperty@@XZ 004167f0 f i clib:cfgfile.obj
 0001:00015800       ?back@?$vector@PAVConfigProperty@@V?$allocator@PAVConfigProperty@@@_STL@@@_STL@@QAEAAPAVConfigProperty@@XZ 00416800 f i clib:cfgfile.obj
 0001:00015810       ??0?$_Rb_tree_iterator@U?$pair@$$CBV?$basic_string@DV?$char_traits@D@_STL@@V?$allocator@D@2@@_STL@@V12@@_STL@@U?$_Nonconst_traits@U?$pair@$$CBV?$basic_string@DV?$char_traits@D@_STL@@V?$allocator@D@2@@_STL@@V12@@_STL@@@2@@_STL@@QAE@ABU01@@Z 00416810 f i clib:cfgfile.obj
 0001:00015820       ??D?$_Rb_tree_iterator@U?$pair@$$CBV?$basic_string@DV?$char_traits@D@_STL@@V?$allocator@D@2@@_STL@@V12@@_STL@@U?$_Nonconst_traits@U?$pair@$$CBV?$basic_string@DV?$char_traits@D@_STL@@V?$allocator@D@2@@_STL@@V12@@_STL@@@2@@_STL@@QBEAAU?$pair@$$CBV?$basic_string@DV?$char_traits@D@_STL@@V?$allocator@D@2@@_STL@@V12@@1@XZ 00416820 f i clib:cfgfile.obj
 0001:00015830       ??D?$_Rb_tree_iterator@U?$pair@$$CBV?$basic_string@DV?$char_traits@D@_STL@@V?$allocator@D@2@@_STL@@V12@@_STL@@U?$_Const_traits@U?$pair@$$CBV?$basic_string@DV?$char_traits@D@_STL@@V?$allocator@D@2@@_STL@@V12@@_STL@@@2@@_STL@@QBEABU?$pair@$$CBV?$basic_string@DV?$char_traits@D@_STL@@V?$allocator@D@2@@_STL@@V12@@1@XZ 00416830 f i clib:cfgfile.obj
 0001:00015840       ??D?$_Rb_tree_iterator@V?$basic_string@DV?$char_traits@D@_STL@@V?$allocator@D@2@@_STL@@U?$_Const_traits@V?$basic_string@DV?$char_traits@D@_STL@@V?$allocator@D@2@@_STL@@@2@@_STL@@QBEABV?$basic_string@DV?$char_traits@D@_STL@@V?$allocator@D@2@@1@XZ 00416840 f i clib:cfgfile.obj
 0001:00015850       ??E?$_Rb_tree_iterator@V?$basic_string@DV?$char_traits@D@_STL@@V?$allocator@D@2@@_STL@@U?$_Const_traits@V?$basic_string@DV?$char_traits@D@_STL@@V?$allocator@D@2@@_STL@@@2@@_STL@@QAEAAU01@XZ 00416850 f i clib:cfgfile.obj
 0001:00015870       ?empty@?$_Rb_tree@V?$basic_string@DV?$char_traits@D@_STL@@V?$allocator@D@2@@_STL@@U?$pair@$$CBV?$basic_string@DV?$char_traits@D@_STL@@V?$allocator@D@2@@_STL@@V12@@2@U?$_Select1st@U?$pair@$$CBV?$basic_string@DV?$char_traits@D@_STL@@V?$allocator@D@2@@_STL@@V12@@_STL@@@2@Vci_cmp_pred@@V?$allocator@U?$pair@$$CBV?$basic_string@DV?$char_traits@D@_STL@@V?$allocator@D@2@@_STL@@V12@@_STL@@@2@@_STL@@QBE_NXZ 00416870 f i clib:cfgfile.obj
 0001:00015880       ??0?$allocator@U?$pair@$$CBV?$basic_string@DV?$char_traits@D@_STL@@V?$allocator@D@2@@_STL@@V12@@_STL@@@_STL@@QAE@XZ 00416880 f i clib:cfgfile.obj
 0001:00015890       ??1?$allocator@U?$pair@$$CBV?$basic_string@DV?$char_traits@D@_STL@@V?$allocator@D@2@@_STL@@V12@@_STL@@@_STL@@QAE@XZ 00416890 f i clib:cfgfile.obj
 0001:000158a0       ?empty@?$_Rb_tree@V?$basic_string@DV?$char_traits@D@_STL@@V?$allocator@D@2@@_STL@@V12@U?$_Identity@V?$basic_string@DV?$char_traits@D@_STL@@V?$allocator@D@2@@_STL@@@2@Vci_cmp_pred@@V?$allocator@V?$basic_string@DV?$char_traits@D@_STL@@V?$allocator@D@2@@_STL@@@2@@_STL@@QBE_NXZ 004168a0 f i clib:cfgfile.obj
 0001:000158b0       ??0?$allocator@V?$basic_string@DV?$char_traits@D@_STL@@V?$allocator@D@2@@_STL@@@_STL@@QAE@XZ 004168b0 f i clib:cfgfile.obj
 0001:000158c0       ??1?$allocator@V?$basic_string@DV?$char_traits@D@_STL@@V?$allocator@D@2@@_STL@@@_STL@@QAE@XZ 004168c0 f i clib:cfgfile.obj
 0001:000158d0       ??0?$pair@U?$_Rb_tree_iterator@V?$basic_string@DV?$char_traits@D@_STL@@V?$allocator@D@2@@_STL@@U?$_Const_traits@V?$basic_string@DV?$char_traits@D@_STL@@V?$allocator@D@2@@_STL@@@2@@_STL@@_N@_STL@@QAE@ABU?$_Rb_tree_iterator@V?$basic_string@DV?$char_traits@D@_STL@@V?$allocator@D@2@@_STL@@U?$_Const_traits@V?$basic_string@DV?$char_traits@D@_STL@@V?$allocator@D@2@@_STL@@@2@@1@AB_N@Z 004168d0 f i clib:cfgfile.obj
 0001:000158f0       ?_M_root@?$_Rb_tree@V?$basic_string@DV?$char_traits@D@_STL@@V?$allocator@D@2@@_STL@@U?$pair@$$CBV?$basic_string@DV?$char_traits@D@_STL@@V?$allocator@D@2@@_STL@@V12@@2@U?$_Select1st@U?$pair@$$CBV?$basic_string@DV?$char_traits@D@_STL@@V?$allocator@D@2@@_STL@@V12@@_STL@@@2@Vci_cmp_pred@@V?$allocator@U?$pair@$$CBV?$basic_string@DV?$char_traits@D@_STL@@V?$allocator@D@2@@_STL@@V12@@_STL@@@2@@_STL@@IBEAAPAU?$_Rb_tree_node@U?$pair@$$CBV?$basic_string@DV?$char_traits@D@_STL@@V?$allocator@D@2@@_STL@@V12@@_STL@@@2@XZ 004168f0 f i clib:cfgfile.obj
 0001:00015900       ?_M_leftmost@?$_Rb_tree@V?$basic_string@DV?$char_traits@D@_STL@@V?$allocator@D@2@@_STL@@U?$pair@$$CBV?$basic_string@DV?$char_traits@D@_STL@@V?$allocator@D@2@@_STL@@V12@@2@U?$_Select1st@U?$pair@$$CBV?$basic_string@DV?$char_traits@D@_STL@@V?$allocator@D@2@@_STL@@V12@@_STL@@@2@Vci_cmp_pred@@V?$allocator@U?$pair@$$CBV?$basic_string@DV?$char_traits@D@_STL@@V?$allocator@D@2@@_STL@@V12@@_STL@@@2@@_STL@@IBEAAPAU?$_Rb_tree_node@U?$pair@$$CBV?$basic_string@DV?$char_traits@D@_STL@@V?$allocator@D@2@@_STL@@V12@@_STL@@@2@XZ 00416900 f i clib:cfgfile.obj
 0001:00015910       ?_M_rightmost@?$_Rb_tree@V?$basic_string@DV?$char_traits@D@_STL@@V?$allocator@D@2@@_STL@@U?$pair@$$CBV?$basic_string@DV?$char_traits@D@_STL@@V?$allocator@D@2@@_STL@@V12@@2@U?$_Select1st@U?$pair@$$CBV?$basic_string@DV?$char_traits@D@_STL@@V?$allocator@D@2@@_STL@@V12@@_STL@@@2@Vci_cmp_pred@@V?$allocator@U?$pair@$$CBV?$basic_string@DV?$char_traits@D@_STL@@V?$allocator@D@2@@_STL@@V12@@_STL@@@2@@_STL@@IBEAAPAU?$_Rb_tree_node@U?$pair@$$CBV?$basic_string@DV?$char_traits@D@_STL@@V?$allocator@D@2@@_STL@@V12@@_STL@@@2@XZ 00416910 f i clib:cfgfile.obj
 0001:00015920       ??1?$allocator@U?$_Rb_tree_node@U?$pair@$$CBV?$basic_string@DV?$char_traits@D@_STL@@V?$allocator@D@2@@_STL@@V12@@_STL@@@_STL@@@_STL@@QAE@XZ 00416920 f i clib:cfgfile.obj
 0001:00015930       ?size@?$vector@PAVConfigProperty@@V?$allocator@PAVConfigProperty@@@_STL@@@_STL@@QBEIXZ 00416930 f i clib:cfgfile.obj
 0001:00015940       ?_M_set@?$vector@PAVConfigProperty@@V?$allocator@PAVConfigProperty@@@_STL@@@_STL@@IAEXPAPAVConfigProperty@@00@Z 00416940 f i clib:cfgfile.obj
 0001:00015960       ?_M_root@?$_Rb_tree@V?$basic_string@DV?$char_traits@D@_STL@@V?$allocator@D@2@@_STL@@V12@U?$_Identity@V?$basic_string@DV?$char_traits@D@_STL@@V?$allocator@D@2@@_STL@@@2@Vci_cmp_pred@@V?$allocator@V?$basic_string@DV?$char_traits@D@_STL@@V?$allocator@D@2@@_STL@@@2@@_STL@@IBEAAPAU?$_Rb_tree_node@V?$basic_string@DV?$char_traits@D@_STL@@V?$allocator@D@2@@_STL@@@2@XZ 00416960 f i clib:cfgfile.obj
 0001:00015970       ?_M_leftmost@?$_Rb_tree@V?$basic_string@DV?$char_traits@D@_STL@@V?$allocator@D@2@@_STL@@V12@U?$_Identity@V?$basic_string@DV?$char_traits@D@_STL@@V?$allocator@D@2@@_STL@@@2@Vci_cmp_pred@@V?$allocator@V?$basic_string@DV?$char_traits@D@_STL@@V?$allocator@D@2@@_STL@@@2@@_STL@@IBEAAPAU?$_Rb_tree_node@V?$basic_string@DV?$char_traits@D@_STL@@V?$allocator@D@2@@_STL@@@2@XZ 00416970 f i clib:cfgfile.obj
 0001:00015980       ?_M_rightmost@?$_Rb_tree@V?$basic_string@DV?$char_traits@D@_STL@@V?$allocator@D@2@@_STL@@V12@U?$_Identity@V?$basic_string@DV?$char_traits@D@_STL@@V?$allocator@D@2@@_STL@@@2@Vci_cmp_pred@@V?$allocator@V?$basic_string@DV?$char_traits@D@_STL@@V?$allocator@D@2@@_STL@@@2@@_STL@@IBEAAPAU?$_Rb_tree_node@V?$basic_string@DV?$char_traits@D@_STL@@V?$allocator@D@2@@_STL@@@2@XZ 00416980 f i clib:cfgfile.obj
 0001:00015990       ??1?$allocator@U?$_Rb_tree_node@V?$basic_string@DV?$char_traits@D@_STL@@V?$allocator@D@2@@_STL@@@_STL@@@_STL@@QAE@XZ 00416990 f i clib:cfgfile.obj
 0001:000159a0       ??0?$_Rb_tree_iterator@U?$pair@$$CBV?$basic_string@DV?$char_traits@D@_STL@@V?$allocator@D@2@@_STL@@V12@@_STL@@U?$_Nonconst_traits@U?$pair@$$CBV?$basic_string@DV?$char_traits@D@_STL@@V?$allocator@D@2@@_STL@@V12@@_STL@@@2@@_STL@@QAE@PAU?$_Rb_tree_node@U?$pair@$$CBV?$basic_string@DV?$char_traits@D@_STL@@V?$allocator@D@2@@_STL@@V12@@_STL@@@1@@Z 004169a0 f i clib:cfgfile.obj
 0001:000159b0       ??0?$_Rb_tree_iterator@U?$pair@$$CBV?$basic_string@DV?$char_traits@D@_STL@@V?$allocator@D@2@@_STL@@V12@@_STL@@U?$_Const_traits@U?$pair@$$CBV?$basic_string@DV?$char_traits@D@_STL@@V?$allocator@D@2@@_STL@@V12@@_STL@@@2@@_STL@@QAE@PAU?$_Rb_tree_node@U?$pair@$$CBV?$basic_string@DV?$char_traits@D@_STL@@V?$allocator@D@2@@_STL@@V12@@_STL@@@1@@Z 004169b0 f i clib:cfgfile.obj
 0001:000159c0       ??0?$_Rb_tree_iterator@V?$basic_string@DV?$char_traits@D@_STL@@V?$allocator@D@2@@_STL@@U?$_Const_traits@V?$basic_string@DV?$char_traits@D@_STL@@V?$allocator@D@2@@_STL@@@2@@_STL@@QAE@PAU?$_Rb_tree_node@V?$basic_string@DV?$char_traits@D@_STL@@V?$allocator@D@2@@_STL@@@1@@Z 004169c0 f i clib:cfgfile.obj
 0001:000159d0       ?_S_color@?$_Rb_tree@V?$basic_string@DV?$char_traits@D@_STL@@V?$allocator@D@2@@_STL@@U?$pair@$$CBV?$basic_string@DV?$char_traits@D@_STL@@V?$allocator@D@2@@_STL@@V12@@2@U?$_Select1st@U?$pair@$$CBV?$basic_string@DV?$char_traits@D@_STL@@V?$allocator@D@2@@_STL@@V12@@_STL@@@2@Vci_cmp_pred@@V?$allocator@U?$pair@$$CBV?$basic_string@DV?$char_traits@D@_STL@@V?$allocator@D@2@@_STL@@V12@@_STL@@@2@@_STL@@KAAA_NPAU?$_Rb_tree_node@U?$pair@$$CBV?$basic_string@DV?$char_traits@D@_STL@@V?$allocator@D@2@@_STL@@V12@@_STL@@@2@@Z 004169d0 f i clib:cfgfile.obj
 0001:000159e0       ?_S_color@?$_Rb_tree@V?$basic_string@DV?$char_traits@D@_STL@@V?$allocator@D@2@@_STL@@V12@U?$_Identity@V?$basic_string@DV?$char_traits@D@_STL@@V?$allocator@D@2@@_STL@@@2@Vci_cmp_pred@@V?$allocator@V?$basic_string@DV?$char_traits@D@_STL@@V?$allocator@D@2@@_STL@@@2@@_STL@@KAAA_NPAU?$_Rb_tree_node@V?$basic_string@DV?$char_traits@D@_STL@@V?$allocator@D@2@@_STL@@@2@@Z 004169e0 f i clib:cfgfile.obj
 0001:000159f0       ??0?$allocator@U?$_Rb_tree_node@U?$pair@$$CBV?$basic_string@DV?$char_traits@D@_STL@@V?$allocator@D@2@@_STL@@V12@@_STL@@@_STL@@@_STL@@QAE@ABV01@@Z 004169f0 f i clib:cfgfile.obj
 0001:00015a00       ??0?$allocator@U?$_Rb_tree_node@V?$basic_string@DV?$char_traits@D@_STL@@V?$allocator@D@2@@_STL@@@_STL@@@_STL@@QAE@ABV01@@Z 00416a00 f i clib:cfgfile.obj
 0001:00015a10       ??$min@I@_STL@@YAABIABI0@Z 00416a10 f i clib:cfgfile.obj
 0001:00015a30       ?_M_throw_out_of_range@?$_String_base@DV?$allocator@D@_STL@@@_STL@@QBEXXZ 00416a30 f i clib:cfgfile.obj
 0001:00015a40       ??$swap@PAD@_STL@@YAXAAPAD0@Z 00416a40 f i clib:cfgfile.obj
 0001:00015a60       ??$_Construct@PAVConfigProperty@@PAV1@@_STL@@YAXPAPAVConfigProperty@@ABQAV1@@Z 00416a60 f i clib:cfgfile.obj
 0001:00015a80       ??$_Destroy@PAVConfigProperty@@@_STL@@YAXPAPAVConfigProperty@@@Z 00416a80 f i clib:cfgfile.obj
 0001:00015a90       ??$__copy_ptrs@PAPAVConfigProperty@@PAPAV1@@_STL@@YAPAPAVConfigProperty@@PAPAV1@00ABU__true_type@0@@Z 00416a90 f i clib:cfgfile.obj
 0001:00015ac0       ??$fill_n@PAPAVConfigProperty@@IPAV1@@_STL@@YAPAPAVConfigProperty@@PAPAV1@IABQAV1@@Z 00416ac0 f i clib:cfgfile.obj
 0001:00015ae0       ??$?0U?$pair@$$CBV?$basic_string@DV?$char_traits@D@_STL@@V?$allocator@D@2@@_STL@@V12@@_STL@@@?$allocator@U?$_Rb_tree_node@U?$pair@$$CBV?$basic_string@DV?$char_traits@D@_STL@@V?$allocator@D@2@@_STL@@V12@@_STL@@@_STL@@@_STL@@QAE@ABV?$allocator@U?$pair@$$CBV?$basic_string@DV?$char_traits@D@_STL@@V?$allocator@D@2@@_STL@@V12@@_STL@@@1@@Z 00416ae0 f i clib:cfgfile.obj
 0001:00015af0       ??$?0V?$basic_string@DV?$char_traits@D@_STL@@V?$allocator@D@2@@_STL@@@?$allocator@U?$_Rb_tree_node@V?$basic_string@DV?$char_traits@D@_STL@@V?$allocator@D@2@@_STL@@@_STL@@@_STL@@QAE@ABV?$allocator@V?$basic_string@DV?$char_traits@D@_STL@@V?$allocator@D@2@@_STL@@@1@@Z 00416af0 f i clib:cfgfile.obj
 0001:00015b00       ?_S_left@?$_Rb_tree@V?$basic_string@DV?$char_traits@D@_STL@@V?$allocator@D@2@@_STL@@U?$pair@$$CBV?$basic_string@DV?$char_traits@D@_STL@@V?$allocator@D@2@@_STL@@V12@@2@U?$_Select1st@U?$pair@$$CBV?$basic_string@DV?$char_traits@D@_STL@@V?$allocator@D@2@@_STL@@V12@@_STL@@@2@Vci_cmp_pred@@V?$allocator@U?$pair@$$CBV?$basic_string@DV?$char_traits@D@_STL@@V?$allocator@D@2@@_STL@@V12@@_STL@@@2@@_STL@@KAAAPAU?$_Rb_tree_node@U?$pair@$$CBV?$basic_string@DV?$char_traits@D@_STL@@V?$allocator@D@2@@_STL@@V12@@_STL@@@2@PAU32@@Z 00416b00 f i clib:cfgfile.obj
 0001:00015b10       ?_S_right@?$_Rb_tree@V?$basic_string@DV?$char_traits@D@_STL@@V?$allocator@D@2@@_STL@@U?$pair@$$CBV?$basic_string@DV?$char_traits@D@_STL@@V?$allocator@D@2@@_STL@@V12@@2@U?$_Select1st@U?$pair@$$CBV?$basic_string@DV?$char_traits@D@_STL@@V?$allocator@D@2@@_STL@@V12@@_STL@@@2@Vci_cmp_pred@@V?$allocator@U?$pair@$$CBV?$basic_string@DV?$char_traits@D@_STL@@V?$allocator@D@2@@_STL@@V12@@_STL@@@2@@_STL@@KAAAPAU?$_Rb_tree_node@U?$pair@$$CBV?$basic_string@DV?$char_traits@D@_STL@@V?$allocator@D@2@@_STL@@V12@@_STL@@@2@PAU32@@Z 00416b10 f i clib:cfgfile.obj
 0001:00015b20       ?_S_left@?$_Rb_tree@V?$basic_string@DV?$char_traits@D@_STL@@V?$allocator@D@2@@_STL@@V12@U?$_Identity@V?$basic_string@DV?$char_traits@D@_STL@@V?$allocator@D@2@@_STL@@@2@Vci_cmp_pred@@V?$allocator@V?$basic_string@DV?$char_traits@D@_STL@@V?$allocator@D@2@@_STL@@@2@@_STL@@KAAAPAU?$_Rb_tree_node@V?$basic_string@DV?$char_traits@D@_STL@@V?$allocator@D@2@@_STL@@@2@PAU32@@Z 00416b20 f i clib:cfgfile.obj
 0001:00015b30       ?_S_right@?$_Rb_tree@V?$basic_string@DV?$char_traits@D@_STL@@V?$allocator@D@2@@_STL@@V12@U?$_Identity@V?$basic_string@DV?$char_traits@D@_STL@@V?$allocator@D@2@@_STL@@@2@Vci_cmp_pred@@V?$allocator@V?$basic_string@DV?$char_traits@D@_STL@@V?$allocator@D@2@@_STL@@@2@@_STL@@KAAAPAU?$_Rb_tree_node@V?$basic_string@DV?$char_traits@D@_STL@@V?$allocator@D@2@@_STL@@@2@PAU32@@Z 00416b30 f i clib:cfgfile.obj
 0001:00015b40       ??0?$_Rb_tree_iterator@V?$basic_string@DV?$char_traits@D@_STL@@V?$allocator@D@2@@_STL@@U?$_Nonconst_traits@V?$basic_string@DV?$char_traits@D@_STL@@V?$allocator@D@2@@_STL@@@2@@_STL@@QAE@PAU?$_Rb_tree_node@V?$basic_string@DV?$char_traits@D@_STL@@V?$allocator@D@2@@_STL@@@1@@Z 00416b40 f i clib:cfgfile.obj
 0001:00015b50       ??F?$_Rb_tree_iterator@V?$basic_string@DV?$char_traits@D@_STL@@V?$allocator@D@2@@_STL@@U?$_Nonconst_traits@V?$basic_string@DV?$char_traits@D@_STL@@V?$allocator@D@2@@_STL@@@2@@_STL@@QAEAAU01@XZ 00416b50 f i clib:cfgfile.obj
 0001:00015b70       ??R?$_Select1st@U?$pair@$$CBV?$basic_string@DV?$char_traits@D@_STL@@V?$allocator@D@2@@_STL@@V12@@_STL@@@_STL@@QBEABV?$basic_string@DV?$char_traits@D@_STL@@V?$allocator@D@2@@1@ABU?$pair@$$CBV?$basic_string@DV?$char_traits@D@_STL@@V?$allocator@D@2@@_STL@@V12@@1@@Z 00416b70 f i clib:cfgfile.obj
 0001:00015b80       ??R?$_Identity@V?$basic_string@DV?$char_traits@D@_STL@@V?$allocator@D@2@@_STL@@@_STL@@QBEABV?$basic_string@DV?$char_traits@D@_STL@@V?$allocator@D@2@@1@ABV21@@Z 00416b80 f i clib:cfgfile.obj
 0001:00015b90       ?_M_null@?$basic_string@DV?$char_traits@D@_STL@@V?$allocator@D@2@@_STL@@SADXZ 00416b90 f i clib:cfgfile.obj
 0001:00015ba0       ?_S_value@?$_Rb_tree@V?$basic_string@DV?$char_traits@D@_STL@@V?$allocator@D@2@@_STL@@U?$pair@$$CBV?$basic_string@DV?$char_traits@D@_STL@@V?$allocator@D@2@@_STL@@V12@@2@U?$_Select1st@U?$pair@$$CBV?$basic_string@DV?$char_traits@D@_STL@@V?$allocator@D@2@@_STL@@V12@@_STL@@@2@Vci_cmp_pred@@V?$allocator@U?$pair@$$CBV?$basic_string@DV?$char_traits@D@_STL@@V?$allocator@D@2@@_STL@@V12@@_STL@@@2@@_STL@@KAAAU?$pair@$$CBV?$basic_string@DV?$char_traits@D@_STL@@V?$allocator@D@2@@_STL@@V12@@2@PAU?$_Rb_tree_node@U?$pair@$$CBV?$basic_string@DV?$char_traits@D@_STL@@V?$allocator@D@2@@_STL@@V12@@_STL@@@2@@Z 00416ba0 f i clib:cfgfile.obj
 0001:00015bb0       ?_S_value@?$_Rb_tree@V?$basic_string@DV?$char_traits@D@_STL@@V?$allocator@D@2@@_STL@@V12@U?$_Identity@V?$basic_string@DV?$char_traits@D@_STL@@V?$allocator@D@2@@_STL@@@2@Vci_cmp_pred@@V?$allocator@V?$basic_string@DV?$char_traits@D@_STL@@V?$allocator@D@2@@_STL@@@2@@_STL@@KAAAV?$basic_string@DV?$char_traits@D@_STL@@V?$allocator@D@2@@2@PAU?$_Rb_tree_node@V?$basic_string@DV?$char_traits@D@_STL@@V?$allocator@D@2@@_STL@@@2@@Z 00416bb0 f i clib:cfgfile.obj
 0001:00015bc0       ??0?$_Rb_tree_iterator@V?$basic_string@DV?$char_traits@D@_STL@@V?$allocator@D@2@@_STL@@U?$_Nonconst_traits@V?$basic_string@DV?$char_traits@D@_STL@@V?$allocator@D@2@@_STL@@@2@@_STL@@QAE@ABU01@@Z 00416bc0 f i clib:cfgfile.obj
 0001:00015bd0       ??0?$pair@U?$_Rb_tree_iterator@U?$pair@$$CBV?$basic_string@DV?$char_traits@D@_STL@@V?$allocator@D@2@@_STL@@V12@@_STL@@U?$_Const_traits@U?$pair@$$CBV?$basic_string@DV?$char_traits@D@_STL@@V?$allocator@D@2@@_STL@@V12@@_STL@@@2@@_STL@@U12@@_STL@@QAE@ABU?$_Rb_tree_iterator@U?$pair@$$CBV?$basic_string@DV?$char_traits@D@_STL@@V?$allocator@D@2@@_STL@@V12@@_STL@@U?$_Const_traits@U?$pair@$$CBV?$basic_string@DV?$char_traits@D@_STL@@V?$allocator@D@2@@_STL@@V12@@_STL@@@2@@1@0@Z 00416bd0 f i clib:cfgfile.obj
 0001:00015bf0       ?_S_parent@?$_Rb_tree@V?$basic_string@DV?$char_traits@D@_STL@@V?$allocator@D@2@@_STL@@U?$pair@$$CBV?$basic_string@DV?$char_traits@D@_STL@@V?$allocator@D@2@@_STL@@V12@@2@U?$_Select1st@U?$pair@$$CBV?$basic_string@DV?$char_traits@D@_STL@@V?$allocator@D@2@@_STL@@V12@@_STL@@@2@Vci_cmp_pred@@V?$allocator@U?$pair@$$CBV?$basic_string@DV?$char_traits@D@_STL@@V?$allocator@D@2@@_STL@@V12@@_STL@@@2@@_STL@@KAAAPAU?$_Rb_tree_node@U?$pair@$$CBV?$basic_string@DV?$char_traits@D@_STL@@V?$allocator@D@2@@_STL@@V12@@_STL@@@2@PAU32@@Z 00416bf0 f i clib:cfgfile.obj
 0001:00015c00       ?_S_parent@?$_Rb_tree@V?$basic_string@DV?$char_traits@D@_STL@@V?$allocator@D@2@@_STL@@V12@U?$_Identity@V?$basic_string@DV?$char_traits@D@_STL@@V?$allocator@D@2@@_STL@@@2@Vci_cmp_pred@@V?$allocator@V?$basic_string@DV?$char_traits@D@_STL@@V?$allocator@D@2@@_STL@@@2@@_STL@@KAAAPAU?$_Rb_tree_node@V?$basic_string@DV?$char_traits@D@_STL@@V?$allocator@D@2@@_STL@@@2@PAU32@@Z 00416c00 f i clib:cfgfile.obj
 0001:00015c10       ??$__destroy_aux@PAPAVConfigProperty@@@_STL@@YAXPAPAVConfigProperty@@0ABU__true_type@0@@Z 00416c10 f i clib:cfgfile.obj
 0001:00015c20       ??E?$_Rb_tree_iterator@U?$pair@$$CBV?$basic_string@DV?$char_traits@D@_STL@@V?$allocator@D@2@@_STL@@V12@@_STL@@U?$_Const_traits@U?$pair@$$CBV?$basic_string@DV?$char_traits@D@_STL@@V?$allocator@D@2@@_STL@@V12@@_STL@@@2@@_STL@@QAEAAU01@XZ 00416c20 f i clib:cfgfile.obj
 0001:00015c40       ??Rci_cmp_pred@@QBE_NABV?$basic_string@DV?$char_traits@D@_STL@@V?$allocator@D@2@@_STL@@0@Z 00416c40 f i clib:cfgfile.obj
 0001:00015c70       ?type@ConfigElemBase@@QBEPBDXZ 00416c70 f   clib:cfgfile.obj
 0001:00015c80       ?rest@ConfigElemBase@@QBEPBDXZ 00416c80 f   clib:cfgfile.obj
 0001:00015c90       ?type_is@ConfigElemBase@@QBE_NPBD@Z 00416c90 f   clib:cfgfile.obj
 0001:00015cb0       ?has_prop@VectorConfigElem@@QBE_NPBD@Z 00416cb0 f   clib:cfgfile.obj
 0001:00015cf0       ?empty@?$multimap@V?$basic_string@DV?$char_traits@D@_STL@@V?$allocator@D@2@@_STL@@V12@Vci_cmp_pred@@V?$allocator@U?$pair@$$CBV?$basic_string@DV?$char_traits@D@_STL@@V?$allocator@D@2@@_STL@@V12@@_STL@@@2@@_STL@@QBE_NXZ 00416cf0 f i clib:cfgfile.obj
 0001:00015d00       ?pop_back@?$vector@PAVConfigProperty@@V?$allocator@PAVConfigProperty@@@_STL@@@_STL@@QAEXXZ 00416d00 f i clib:cfgfile.obj
 0001:00015d10       ?erase@?$vector@PAVConfigProperty@@V?$allocator@PAVConfigProperty@@@_STL@@@_STL@@QAEPAPAVConfigProperty@@PAPAV3@@Z 00416d10 f i clib:cfgfile.obj
 0001:00015d40       ?empty@?$set@V?$basic_string@DV?$char_traits@D@_STL@@V?$allocator@D@2@@_STL@@Vci_cmp_pred@@V?$allocator@V?$basic_string@DV?$char_traits@D@_STL@@V?$allocator@D@2@@_STL@@@2@@_STL@@QBE_NXZ 00416d40 f i clib:cfgfile.obj
 0001:00015d50       ?begin@?$_Rb_tree@V?$basic_string@DV?$char_traits@D@_STL@@V?$allocator@D@2@@_STL@@U?$pair@$$CBV?$basic_string@DV?$char_traits@D@_STL@@V?$allocator@D@2@@_STL@@V12@@2@U?$_Select1st@U?$pair@$$CBV?$basic_string@DV?$char_traits@D@_STL@@V?$allocator@D@2@@_STL@@V12@@_STL@@@2@Vci_cmp_pred@@V?$allocator@U?$pair@$$CBV?$basic_string@DV?$char_traits@D@_STL@@V?$allocator@D@2@@_STL@@V12@@_STL@@@2@@_STL@@QAE?AU?$_Rb_tree_iterator@U?$pair@$$CBV?$basic_string@DV?$char_traits@D@_STL@@V?$allocator@D@2@@_STL@@V12@@_STL@@U?$_Nonconst_traits@U?$pair@$$CBV?$basic_string@DV?$char_traits@D@_STL@@V?$allocator@D@2@@_STL@@V12@@_STL@@@2@@2@XZ 00416d50 f i clib:cfgfile.obj
 0001:00015d60       ?end@?$_Rb_tree@V?$basic_string@DV?$char_traits@D@_STL@@V?$allocator@D@2@@_STL@@U?$pair@$$CBV?$basic_string@DV?$char_traits@D@_STL@@V?$allocator@D@2@@_STL@@V12@@2@U?$_Select1st@U?$pair@$$CBV?$basic_string@DV?$char_traits@D@_STL@@V?$allocator@D@2@@_STL@@V12@@_STL@@@2@Vci_cmp_pred@@V?$allocator@U?$pair@$$CBV?$basic_string@DV?$char_traits@D@_STL@@V?$allocator@D@2@@_STL@@V12@@_STL@@@2@@_STL@@QAE?AU?$_Rb_tree_iterator@U?$pair@$$CBV?$basic_string@DV?$char_traits@D@_STL@@V?$allocator@D@2@@_STL@@V12@@_STL@@U?$_Nonconst_traits@U?$pair@$$CBV?$basic_string@DV?$char_traits@D@_STL@@V?$allocator@D@2@@_STL@@V12@@_STL@@@2@@2@XZ 00416d60 f i clib:cfgfile.obj
 0001:00015d70       ?end@?$_Rb_tree@V?$basic_string@DV?$char_traits@D@_STL@@V?$allocator@D@2@@_STL@@U?$pair@$$CBV?$basic_string@DV?$char_traits@D@_STL@@V?$allocator@D@2@@_STL@@V12@@2@U?$_Select1st@U?$pair@$$CBV?$basic_string@DV?$char_traits@D@_STL@@V?$allocator@D@2@@_STL@@V12@@_STL@@@2@Vci_cmp_pred@@V?$allocator@U?$pair@$$CBV?$basic_string@DV?$char_traits@D@_STL@@V?$allocator@D@2@@_STL@@V12@@_STL@@@2@@_STL@@QBE?AU?$_Rb_tree_iterator@U?$pair@$$CBV?$basic_string@DV?$char_traits@D@_STL@@V?$allocator@D@2@@_STL@@V12@@_STL@@U?$_Const_traits@U?$pair@$$CBV?$basic_string@DV?$char_traits@D@_STL@@V?$allocator@D@2@@_STL@@V12@@_STL@@@2@@2@XZ 00416d70 f i clib:cfgfile.obj
 0001:00015d80       ?begin@?$_Rb_tree@V?$basic_string@DV?$char_traits@D@_STL@@V?$allocator@D@2@@_STL@@V12@U?$_Identity@V?$basic_string@DV?$char_traits@D@_STL@@V?$allocator@D@2@@_STL@@@2@Vci_cmp_pred@@V?$allocator@V?$basic_string@DV?$char_traits@D@_STL@@V?$allocator@D@2@@_STL@@@2@@_STL@@QBE?AU?$_Rb_tree_iterator@V?$basic_string@DV?$char_traits@D@_STL@@V?$allocator@D@2@@_STL@@U?$_Const_traits@V?$basic_string@DV?$char_traits@D@_STL@@V?$allocator@D@2@@_STL@@@2@@2@XZ 00416d80 f i clib:cfgfile.obj
 0001:00015d90       ?end@?$_Rb_tree@V?$basic_string@DV?$char_traits@D@_STL@@V?$allocator@D@2@@_STL@@V12@U?$_Identity@V?$basic_string@DV?$char_traits@D@_STL@@V?$allocator@D@2@@_STL@@@2@Vci_cmp_pred@@V?$allocator@V?$basic_string@DV?$char_traits@D@_STL@@V?$allocator@D@2@@_STL@@@2@@_STL@@QBE?AU?$_Rb_tree_iterator@V?$basic_string@DV?$char_traits@D@_STL@@V?$allocator@D@2@@_STL@@U?$_Const_traits@V?$basic_string@DV?$char_traits@D@_STL@@V?$allocator@D@2@@_STL@@@2@@2@XZ 00416d90 f i clib:cfgfile.obj
 0001:00015da0       ??1?$_STLP_alloc_proxy@PAU?$_Rb_tree_node@U?$pair@$$CBV?$basic_string@DV?$char_traits@D@_STL@@V?$allocator@D@2@@_STL@@V12@@_STL@@@_STL@@U12@V?$allocator@U?$_Rb_tree_node@U?$pair@$$CBV?$basic_string@DV?$char_traits@D@_STL@@V?$allocator@D@2@@_STL@@V12@@_STL@@@_STL@@@2@@_STL@@QAE@XZ 00416da0 f i clib:cfgfile.obj
 0001:00015db0       ??1?$_STLP_alloc_proxy@PAU?$_Rb_tree_node@V?$basic_string@DV?$char_traits@D@_STL@@V?$allocator@D@2@@_STL@@@_STL@@U12@V?$allocator@U?$_Rb_tree_node@V?$basic_string@DV?$char_traits@D@_STL@@V?$allocator@D@2@@_STL@@@_STL@@@2@@_STL@@QAE@XZ 00416db0 f i clib:cfgfile.obj
 0001:00015dc0       ?_M_empty_initialize@?$_Rb_tree@V?$basic_string@DV?$char_traits@D@_STL@@V?$allocator@D@2@@_STL@@U?$pair@$$CBV?$basic_string@DV?$char_traits@D@_STL@@V?$allocator@D@2@@_STL@@V12@@2@U?$_Select1st@U?$pair@$$CBV?$basic_string@DV?$char_traits@D@_STL@@V?$allocator@D@2@@_STL@@V12@@_STL@@@2@Vci_cmp_pred@@V?$allocator@U?$pair@$$CBV?$basic_string@DV?$char_traits@D@_STL@@V?$allocator@D@2@@_STL@@V12@@_STL@@@2@@_STL@@AAEXXZ 00416dc0 f i clib:cfgfile.obj
 0001:00015de0       ?deallocate@?$allocator@U?$_Rb_tree_node@U?$pair@$$CBV?$basic_string@DV?$char_traits@D@_STL@@V?$allocator@D@2@@_STL@@V12@@_STL@@@_STL@@@_STL@@QAEXPAU?$_Rb_tree_node@U?$pair@$$CBV?$basic_string@DV?$char_traits@D@_STL@@V?$allocator@D@2@@_STL@@V12@@_STL@@@2@I@Z 00416de0 f i clib:cfgfile.obj
 0001:00015e20       ?allocate@?$allocator@PAVConfigProperty@@@_STL@@QAEPAPAVConfigProperty@@IPBX@Z 00416e20 f i clib:cfgfile.obj
 0001:00015e50       ?_M_empty_initialize@?$_Rb_tree@V?$basic_string@DV?$char_traits@D@_STL@@V?$allocator@D@2@@_STL@@V12@U?$_Identity@V?$basic_string@DV?$char_traits@D@_STL@@V?$allocator@D@2@@_STL@@@2@Vci_cmp_pred@@V?$allocator@V?$basic_string@DV?$char_traits@D@_STL@@V?$allocator@D@2@@_STL@@@2@@_STL@@AAEXXZ 00416e50 f i clib:cfgfile.obj
 0001:00015e70       ?deallocate@?$allocator@U?$_Rb_tree_node@V?$basic_string@DV?$char_traits@D@_STL@@V?$allocator@D@2@@_STL@@@_STL@@@_STL@@QAEXPAU?$_Rb_tree_node@V?$basic_string@DV?$char_traits@D@_STL@@V?$allocator@D@2@@_STL@@@2@I@Z 00416e70 f i clib:cfgfile.obj
 0001:00015ea0       ??0?$_STLP_alloc_proxy@PAU?$_Rb_tree_node@U?$pair@$$CBV?$basic_string@DV?$char_traits@D@_STL@@V?$allocator@D@2@@_STL@@V12@@_STL@@@_STL@@U12@V?$allocator@U?$_Rb_tree_node@U?$pair@$$CBV?$basic_string@DV?$char_traits@D@_STL@@V?$allocator@D@2@@_STL@@V12@@_STL@@@_STL@@@2@@_STL@@QAE@ABV?$allocator@U?$_Rb_tree_node@U?$pair@$$CBV?$basic_string@DV?$char_traits@D@_STL@@V?$allocator@D@2@@_STL@@V12@@_STL@@@_STL@@@1@PAU?$_Rb_tree_node@U?$pair@$$CBV?$basic_string@DV?$char_traits@D@_STL@@V?$allocator@D@2@@_STL@@V12@@_STL@@@1@@Z 00416ea0 f i clib:cfgfile.obj
 0001:00015eb0       ?allocate@?$allocator@U?$_Rb_tree_node@U?$pair@$$CBV?$basic_string@DV?$char_traits@D@_STL@@V?$allocator@D@2@@_STL@@V12@@_STL@@@_STL@@@_STL@@QAEPAU?$_Rb_tree_node@U?$pair@$$CBV?$basic_string@DV?$char_traits@D@_STL@@V?$allocator@D@2@@_STL@@V12@@_STL@@@2@IPBX@Z 00416eb0 f i clib:cfgfile.obj
 0001:00015ef0       ?deallocate@?$allocator@PAVConfigProperty@@@_STL@@QAEXPAPAVConfigProperty@@I@Z 00416ef0 f i clib:cfgfile.obj
 0001:00015f20       ??0?$_STLP_alloc_proxy@PAU?$_Rb_tree_node@V?$basic_string@DV?$char_traits@D@_STL@@V?$allocator@D@2@@_STL@@@_STL@@U12@V?$allocator@U?$_Rb_tree_node@V?$basic_string@DV?$char_traits@D@_STL@@V?$allocator@D@2@@_STL@@@_STL@@@2@@_STL@@QAE@ABV?$allocator@U?$_Rb_tree_node@V?$basic_string@DV?$char_traits@D@_STL@@V?$allocator@D@2@@_STL@@@_STL@@@1@PAU?$_Rb_tree_node@V?$basic_string@DV?$char_traits@D@_STL@@V?$allocator@D@2@@_STL@@@1@@Z 00416f20 f i clib:cfgfile.obj
 0001:00015f30       ?allocate@?$allocator@U?$_Rb_tree_node@V?$basic_string@DV?$char_traits@D@_STL@@V?$allocator@D@2@@_STL@@@_STL@@@_STL@@QAEPAU?$_Rb_tree_node@V?$basic_string@DV?$char_traits@D@_STL@@V?$allocator@D@2@@_STL@@@2@IPBX@Z 00416f30 f i clib:cfgfile.obj
 0001:00015f60       ??0?$_STLP_alloc_proxy@PADDV?$allocator@D@_STL@@@_STL@@QAE@ABV01@@Z 00416f60 f i clib:cfgfile.obj
 0001:00015f70       ?clear@?$basic_string@DV?$char_traits@D@_STL@@V?$allocator@D@2@@_STL@@QAEXXZ 00416f70 f i clib:cfgfile.obj
 0001:00015f80       ?_S_key@?$_Rb_tree@V?$basic_string@DV?$char_traits@D@_STL@@V?$allocator@D@2@@_STL@@U?$pair@$$CBV?$basic_string@DV?$char_traits@D@_STL@@V?$allocator@D@2@@_STL@@V12@@2@U?$_Select1st@U?$pair@$$CBV?$basic_string@DV?$char_traits@D@_STL@@V?$allocator@D@2@@_STL@@V12@@_STL@@@2@Vci_cmp_pred@@V?$allocator@U?$pair@$$CBV?$basic_string@DV?$char_traits@D@_STL@@V?$allocator@D@2@@_STL@@V12@@_STL@@@2@@_STL@@KAABV?$basic_string@DV?$char_traits@D@_STL@@V?$allocator@D@2@@2@PAU?$_Rb_tree_node@U?$pair@$$CBV?$basic_string@DV?$char_traits@D@_STL@@V?$allocator@D@2@@_STL@@V12@@_STL@@@2@@Z 00416f80 f i clib:cfgfile.obj
 0001:00015f90       ?_S_key@?$_Rb_tree@V?$basic_string@DV?$char_traits@D@_STL@@V?$allocator@D@2@@_STL@@V12@U?$_Identity@V?$basic_string@DV?$char_traits@D@_STL@@V?$allocator@D@2@@_STL@@@2@Vci_cmp_pred@@V?$allocator@V?$basic_string@DV?$char_traits@D@_STL@@V?$allocator@D@2@@_STL@@@2@@_STL@@KAABV?$basic_string@DV?$char_traits@D@_STL@@V?$allocator@D@2@@2@PAU?$_Rb_tree_node@V?$basic_string@DV?$char_traits@D@_STL@@V?$allocator@D@2@@_STL@@@2@@Z 00416f90 f i clib:cfgfile.obj
 0001:00015fa0       ?_S_key@?$_Rb_tree@V?$basic_string@DV?$char_traits@D@_STL@@V?$allocator@D@2@@_STL@@V12@U?$_Identity@V?$basic_string@DV?$char_traits@D@_STL@@V?$allocator@D@2@@_STL@@@2@Vci_cmp_pred@@V?$allocator@V?$basic_string@DV?$char_traits@D@_STL@@V?$allocator@D@2@@_STL@@@2@@_STL@@KAABV?$basic_string@DV?$char_traits@D@_STL@@V?$allocator@D@2@@2@PAU_Rb_tree_node_base@2@@Z 00416fa0 f i clib:cfgfile.obj
 0001:00015fb0       ?begin@?$_Rb_tree@V?$basic_string@DV?$char_traits@D@_STL@@V?$allocator@D@2@@_STL@@V12@U?$_Identity@V?$basic_string@DV?$char_traits@D@_STL@@V?$allocator@D@2@@_STL@@@2@Vci_cmp_pred@@V?$allocator@V?$basic_string@DV?$char_traits@D@_STL@@V?$allocator@D@2@@_STL@@@2@@_STL@@QAE?AU?$_Rb_tree_iterator@V?$basic_string@DV?$char_traits@D@_STL@@V?$allocator@D@2@@_STL@@U?$_Nonconst_traits@V?$basic_string@DV?$char_traits@D@_STL@@V?$allocator@D@2@@_STL@@@2@@2@XZ 00416fb0 f i clib:cfgfile.obj
 0001:00015fc0       ??0?$pair@U?$_Rb_tree_iterator@V?$basic_string@DV?$char_traits@D@_STL@@V?$allocator@D@2@@_STL@@U?$_Nonconst_traits@V?$basic_string@DV?$char_traits@D@_STL@@V?$allocator@D@2@@_STL@@@2@@_STL@@_N@_STL@@QAE@ABU?$_Rb_tree_iterator@V?$basic_string@DV?$char_traits@D@_STL@@V?$allocator@D@2@@_STL@@U?$_Nonconst_traits@V?$basic_string@DV?$char_traits@D@_STL@@V?$allocator@D@2@@_STL@@@2@@1@AB_N@Z 00416fc0 f i clib:cfgfile.obj
 0001:00015fe0       ?_M_lower_bound@?$_Rb_tree@V?$basic_string@DV?$char_traits@D@_STL@@V?$allocator@D@2@@_STL@@U?$pair@$$CBV?$basic_string@DV?$char_traits@D@_STL@@V?$allocator@D@2@@_STL@@V12@@2@U?$_Select1st@U?$pair@$$CBV?$basic_string@DV?$char_traits@D@_STL@@V?$allocator@D@2@@_STL@@V12@@_STL@@@2@Vci_cmp_pred@@V?$allocator@U?$pair@$$CBV?$basic_string@DV?$char_traits@D@_STL@@V?$allocator@D@2@@_STL@@V12@@_STL@@@2@@_STL@@ABEPAU?$_Rb_tree_node@U?$pair@$$CBV?$basic_string@DV?$char_traits@D@_STL@@V?$allocator@D@2@@_STL@@V12@@_STL@@@2@ABV?$basic_string@DV?$char_traits@D@_STL@@V?$allocator@D@2@@2@@Z 00416fe0 f i clib:cfgfile.obj
 0001:00016020       ?_M_upper_bound@?$_Rb_tree@V?$basic_string@DV?$char_traits@D@_STL@@V?$allocator@D@2@@_STL@@U?$pair@$$CBV?$basic_string@DV?$char_traits@D@_STL@@V?$allocator@D@2@@_STL@@V12@@2@U?$_Select1st@U?$pair@$$CBV?$basic_string@DV?$char_traits@D@_STL@@V?$allocator@D@2@@_STL@@V12@@_STL@@@2@Vci_cmp_pred@@V?$allocator@U?$pair@$$CBV?$basic_string@DV?$char_traits@D@_STL@@V?$allocator@D@2@@_STL@@V12@@_STL@@@2@@_STL@@ABEPAU?$_Rb_tree_node@U?$pair@$$CBV?$basic_string@DV?$char_traits@D@_STL@@V?$allocator@D@2@@_STL@@V12@@_STL@@@2@ABV?$basic_string@DV?$char_traits@D@_STL@@V?$allocator@D@2@@2@@Z 00417020 f i clib:cfgfile.obj
 0001:00016060       ??$_M_find@V?$basic_string@DV?$char_traits@D@_STL@@V?$allocator@D@2@@_STL@@@?$_Rb_tree@V?$basic_string@DV?$char_traits@D@_STL@@V?$allocator@D@2@@_STL@@U?$pair@$$CBV?$basic_string@DV?$char_traits@D@_STL@@V?$allocator@D@2@@_STL@@V12@@2@U?$_Select1st@U?$pair@$$CBV?$basic_string@DV?$char_traits@D@_STL@@V?$allocator@D@2@@_STL@@V12@@_STL@@@2@Vci_cmp_pred@@V?$allocator@U?$pair@$$CBV?$basic_string@DV?$char_traits@D@_STL@@V?$allocator@D@2@@_STL@@V12@@_STL@@@2@@_STL@@ABEPAU?$_Rb_tree_node@U?$pair@$$CBV?$basic_string@DV?$char_traits@D@_STL@@V?$allocator@D@2@@_STL@@V12@@_STL@@@1@ABV?$basic_string@DV?$char_traits@D@_STL@@V?$allocator@D@2@@1@@Z 00417060 f i clib:cfgfile.obj
 0001:000160c0       ??$__destroy@PAPAVConfigProperty@@PAV1@@_STL@@YAXPAPAVConfigProperty@@00@Z 004170c0 f i clib:cfgfile.obj
 0001:000160d0       ??$__distance@U?$_Rb_tree_iterator@U?$pair@$$CBV?$basic_string@DV?$char_traits@D@_STL@@V?$allocator@D@2@@_STL@@V12@@_STL@@U?$_Const_traits@U?$pair@$$CBV?$basic_string@DV?$char_traits@D@_STL@@V?$allocator@D@2@@_STL@@V12@@_STL@@@2@@_STL@@@_STL@@YAHABU?$_Rb_tree_iterator@U?$pair@$$CBV?$basic_string@DV?$char_traits@D@_STL@@V?$allocator@D@2@@_STL@@V12@@_STL@@U?$_Const_traits@U?$pair@$$CBV?$basic_string@DV?$char_traits@D@_STL@@V?$allocator@D@2@@_STL@@V12@@_STL@@@2@@0@0ABUinput_iterator_tag@0@@Z 004170d0 f i clib:cfgfile.obj
 0001:00016100       ?compare@?$basic_string@DV?$char_traits@D@_STL@@V?$allocator@D@2@@_STL@@QBEHIIPBD@Z 00417100 f i clib:cfgfile.obj
 0001:000161a0       ?begin@?$multimap@V?$basic_string@DV?$char_traits@D@_STL@@V?$allocator@D@2@@_STL@@V12@Vci_cmp_pred@@V?$allocator@U?$pair@$$CBV?$basic_string@DV?$char_traits@D@_STL@@V?$allocator@D@2@@_STL@@V12@@_STL@@@2@@_STL@@QAE?AU?$_Rb_tree_iterator@U?$pair@$$CBV?$basic_string@DV?$char_traits@D@_STL@@V?$allocator@D@2@@_STL@@V12@@_STL@@U?$_Nonconst_traits@U?$pair@$$CBV?$basic_string@DV?$char_traits@D@_STL@@V?$allocator@D@2@@_STL@@V12@@_STL@@@2@@2@XZ 004171a0 f i clib:cfgfile.obj
 0001:000161b0       ?end@?$multimap@V?$basic_string@DV?$char_traits@D@_STL@@V?$allocator@D@2@@_STL@@V12@Vci_cmp_pred@@V?$allocator@U?$pair@$$CBV?$basic_string@DV?$char_traits@D@_STL@@V?$allocator@D@2@@_STL@@V12@@_STL@@@2@@_STL@@QAE?AU?$_Rb_tree_iterator@U?$pair@$$CBV?$basic_string@DV?$char_traits@D@_STL@@V?$allocator@D@2@@_STL@@V12@@_STL@@U?$_Nonconst_traits@U?$pair@$$CBV?$basic_string@DV?$char_traits@D@_STL@@V?$allocator@D@2@@_STL@@V12@@_STL@@@2@@2@XZ 004171b0 f i clib:cfgfile.obj
 0001:000161c0       ?end@?$multimap@V?$basic_string@DV?$char_traits@D@_STL@@V?$allocator@D@2@@_STL@@V12@Vci_cmp_pred@@V?$allocator@U?$pair@$$CBV?$basic_string@DV?$char_traits@D@_STL@@V?$allocator@D@2@@_STL@@V12@@_STL@@@2@@_STL@@QBE?AU?$_Rb_tree_iterator@U?$pair@$$CBV?$basic_string@DV?$char_traits@D@_STL@@V?$allocator@D@2@@_STL@@V12@@_STL@@U?$_Const_traits@U?$pair@$$CBV?$basic_string@DV?$char_traits@D@_STL@@V?$allocator@D@2@@_STL@@V12@@_STL@@@2@@2@XZ 004171c0 f i clib:cfgfile.obj
 0001:000161d0       ?begin@?$set@V?$basic_string@DV?$char_traits@D@_STL@@V?$allocator@D@2@@_STL@@Vci_cmp_pred@@V?$allocator@V?$basic_string@DV?$char_traits@D@_STL@@V?$allocator@D@2@@_STL@@@2@@_STL@@QBE?AU?$_Rb_tree_iterator@V?$basic_string@DV?$char_traits@D@_STL@@V?$allocator@D@2@@_STL@@U?$_Const_traits@V?$basic_string@DV?$char_traits@D@_STL@@V?$allocator@D@2@@_STL@@@2@@2@XZ 004171d0 f i clib:cfgfile.obj
 0001:000161e0       ?end@?$set@V?$basic_string@DV?$char_traits@D@_STL@@V?$allocator@D@2@@_STL@@Vci_cmp_pred@@V?$allocator@V?$basic_string@DV?$char_traits@D@_STL@@V?$allocator@D@2@@_STL@@@2@@_STL@@QBE?AU?$_Rb_tree_iterator@V?$basic_string@DV?$char_traits@D@_STL@@V?$allocator@D@2@@_STL@@U?$_Const_traits@V?$basic_string@DV?$char_traits@D@_STL@@V?$allocator@D@2@@_STL@@@2@@2@XZ 004171e0 f i clib:cfgfile.obj
 0001:000161f0       ??1?$_Rb_tree_base@U?$pair@$$CBV?$basic_string@DV?$char_traits@D@_STL@@V?$allocator@D@2@@_STL@@V12@@_STL@@V?$allocator@U?$pair@$$CBV?$basic_string@DV?$char_traits@D@_STL@@V?$allocator@D@2@@_STL@@V12@@_STL@@@2@@_STL@@QAE@XZ 004171f0 f i clib:cfgfile.obj
 0001:00016210       ??1?$_Rb_tree_base@V?$basic_string@DV?$char_traits@D@_STL@@V?$allocator@D@2@@_STL@@V?$allocator@V?$basic_string@DV?$char_traits@D@_STL@@V?$allocator@D@2@@_STL@@@2@@_STL@@QAE@XZ 00417210 f i clib:cfgfile.obj
 0001:00016230       ??0?$_Rb_tree_base@U?$pair@$$CBV?$basic_string@DV?$char_traits@D@_STL@@V?$allocator@D@2@@_STL@@V12@@_STL@@V?$allocator@U?$pair@$$CBV?$basic_string@DV?$char_traits@D@_STL@@V?$allocator@D@2@@_STL@@V12@@_STL@@@2@@_STL@@QAE@ABV?$allocator@U?$pair@$$CBV?$basic_string@DV?$char_traits@D@_STL@@V?$allocator@D@2@@_STL@@V12@@_STL@@@1@@Z 00417230 f i clib:cfgfile.obj
 0001:00016260       ??0?$_Rb_tree_base@V?$basic_string@DV?$char_traits@D@_STL@@V?$allocator@D@2@@_STL@@V?$allocator@V?$basic_string@DV?$char_traits@D@_STL@@V?$allocator@D@2@@_STL@@@2@@_STL@@QAE@ABV?$allocator@V?$basic_string@DV?$char_traits@D@_STL@@V?$allocator@D@2@@_STL@@@1@@Z 00417260 f i clib:cfgfile.obj
 0001:00016290       ??$swap@V?$_STLP_alloc_proxy@PADDV?$allocator@D@_STL@@@_STL@@@_STL@@YAXAAV?$_STLP_alloc_proxy@PADDV?$allocator@D@_STL@@@0@0@Z 00417290 f i clib:cfgfile.obj
 0001:000162b0       ??$find@V?$basic_string@DV?$char_traits@D@_STL@@V?$allocator@D@2@@_STL@@@?$_Rb_tree@V?$basic_string@DV?$char_traits@D@_STL@@V?$allocator@D@2@@_STL@@U?$pair@$$CBV?$basic_string@DV?$char_traits@D@_STL@@V?$allocator@D@2@@_STL@@V12@@2@U?$_Select1st@U?$pair@$$CBV?$basic_string@DV?$char_traits@D@_STL@@V?$allocator@D@2@@_STL@@V12@@_STL@@@2@Vci_cmp_pred@@V?$allocator@U?$pair@$$CBV?$basic_string@DV?$char_traits@D@_STL@@V?$allocator@D@2@@_STL@@V12@@_STL@@@2@@_STL@@QAE?AU?$_Rb_tree_iterator@U?$pair@$$CBV?$basic_string@DV?$char_traits@D@_STL@@V?$allocator@D@2@@_STL@@V12@@_STL@@U?$_Nonconst_traits@U?$pair@$$CBV?$basic_string@DV?$char_traits@D@_STL@@V?$allocator@D@2@@_STL@@V12@@_STL@@@2@@1@ABV?$basic_string@DV?$char_traits@D@_STL@@V?$allocator@D@2@@1@@Z 004172b0 f i clib:cfgfile.obj
 0001:000162d0       ??$find@V?$basic_string@DV?$char_traits@D@_STL@@V?$allocator@D@2@@_STL@@@?$_Rb_tree@V?$basic_string@DV?$char_traits@D@_STL@@V?$allocator@D@2@@_STL@@U?$pair@$$CBV?$basic_string@DV?$char_traits@D@_STL@@V?$allocator@D@2@@_STL@@V12@@2@U?$_Select1st@U?$pair@$$CBV?$basic_string@DV?$char_traits@D@_STL@@V?$allocator@D@2@@_STL@@V12@@_STL@@@2@Vci_cmp_pred@@V?$allocator@U?$pair@$$CBV?$basic_string@DV?$char_traits@D@_STL@@V?$allocator@D@2@@_STL@@V12@@_STL@@@2@@_STL@@QBE?AU?$_Rb_tree_iterator@U?$pair@$$CBV?$basic_string@DV?$char_traits@D@_STL@@V?$allocator@D@2@@_STL@@V12@@_STL@@U?$_Const_traits@U?$pair@$$CBV?$basic_string@DV?$char_traits@D@_STL@@V?$allocator@D@2@@_STL@@V12@@_STL@@@2@@1@ABV?$basic_string@DV?$char_traits@D@_STL@@V?$allocator@D@2@@1@@Z 004172d0 f i clib:cfgfile.obj
 0001:000162f0       ??$_Destroy@PAPAVConfigProperty@@@_STL@@YAXPAPAVConfigProperty@@0@Z 004172f0 f i clib:cfgfile.obj
 0001:00016300       ?lower_bound@?$_Rb_tree@V?$basic_string@DV?$char_traits@D@_STL@@V?$allocator@D@2@@_STL@@U?$pair@$$CBV?$basic_string@DV?$char_traits@D@_STL@@V?$allocator@D@2@@_STL@@V12@@2@U?$_Select1st@U?$pair@$$CBV?$basic_string@DV?$char_traits@D@_STL@@V?$allocator@D@2@@_STL@@V12@@_STL@@@2@Vci_cmp_pred@@V?$allocator@U?$pair@$$CBV?$basic_string@DV?$char_traits@D@_STL@@V?$allocator@D@2@@_STL@@V12@@_STL@@@2@@_STL@@QBE?AU?$_Rb_tree_iterator@U?$pair@$$CBV?$basic_string@DV?$char_traits@D@_STL@@V?$allocator@D@2@@_STL@@V12@@_STL@@U?$_Const_traits@U?$pair@$$CBV?$basic_string@DV?$char_traits@D@_STL@@V?$allocator@D@2@@_STL@@V12@@_STL@@@2@@2@ABV?$basic_string@DV?$char_traits@D@_STL@@V?$allocator@D@2@@2@@Z 00417300 f i clib:cfgfile.obj
 0001:00016320       ?upper_bound@?$_Rb_tree@V?$basic_string@DV?$char_traits@D@_STL@@V?$allocator@D@2@@_STL@@U?$pair@$$CBV?$basic_string@DV?$char_traits@D@_STL@@V?$allocator@D@2@@_STL@@V12@@2@U?$_Select1st@U?$pair@$$CBV?$basic_string@DV?$char_traits@D@_STL@@V?$allocator@D@2@@_STL@@V12@@_STL@@@2@Vci_cmp_pred@@V?$allocator@U?$pair@$$CBV?$basic_string@DV?$char_traits@D@_STL@@V?$allocator@D@2@@_STL@@V12@@_STL@@@2@@_STL@@QBE?AU?$_Rb_tree_iterator@U?$pair@$$CBV?$basic_string@DV?$char_traits@D@_STL@@V?$allocator@D@2@@_STL@@V12@@_STL@@U?$_Const_traits@U?$pair@$$CBV?$basic_string@DV?$char_traits@D@_STL@@V?$allocator@D@2@@_STL@@V12@@_STL@@@2@@2@ABV?$basic_string@DV?$char_traits@D@_STL@@V?$allocator@D@2@@2@@Z 00417320 f i clib:cfgfile.obj
 0001:00016340       ??$distance@U?$_Rb_tree_iterator@U?$pair@$$CBV?$basic_string@DV?$char_traits@D@_STL@@V?$allocator@D@2@@_STL@@V12@@_STL@@U?$_Const_traits@U?$pair@$$CBV?$basic_string@DV?$char_traits@D@_STL@@V?$allocator@D@2@@_STL@@V12@@_STL@@@2@@_STL@@@_STL@@YAHABU?$_Rb_tree_iterator@U?$pair@$$CBV?$basic_string@DV?$char_traits@D@_STL@@V?$allocator@D@2@@_STL@@V12@@_STL@@U?$_Const_traits@U?$pair@$$CBV?$basic_string@DV?$char_traits@D@_STL@@V?$allocator@D@2@@_STL@@V12@@_STL@@@2@@0@0@Z 00417340 f i clib:cfgfile.obj
 0001:00016370       ?commentline@@YA_NABV?$basic_string@DV?$char_traits@D@_STL@@V?$allocator@D@2@@_STL@@@Z 00417370 f   clib:cfgfile.obj
 0001:000163a0       ?swap@?$basic_string@DV?$char_traits@D@_STL@@V?$allocator@D@2@@_STL@@QAEXAAV12@@Z 004173a0 f i clib:cfgfile.obj
 0001:000163d0       ?find@?$multimap@V?$basic_string@DV?$char_traits@D@_STL@@V?$allocator@D@2@@_STL@@V12@Vci_cmp_pred@@V?$allocator@U?$pair@$$CBV?$basic_string@DV?$char_traits@D@_STL@@V?$allocator@D@2@@_STL@@V12@@_STL@@@2@@_STL@@QAE?AU?$_Rb_tree_iterator@U?$pair@$$CBV?$basic_string@DV?$char_traits@D@_STL@@V?$allocator@D@2@@_STL@@V12@@_STL@@U?$_Nonconst_traits@U?$pair@$$CBV?$basic_string@DV?$char_traits@D@_STL@@V?$allocator@D@2@@_STL@@V12@@_STL@@@2@@2@ABV?$basic_string@DV?$char_traits@D@_STL@@V?$allocator@D@2@@2@@Z 004173d0 f i clib:cfgfile.obj
 0001:000163f0       ?find@?$multimap@V?$basic_string@DV?$char_traits@D@_STL@@V?$allocator@D@2@@_STL@@V12@Vci_cmp_pred@@V?$allocator@U?$pair@$$CBV?$basic_string@DV?$char_traits@D@_STL@@V?$allocator@D@2@@_STL@@V12@@_STL@@@2@@_STL@@QBE?AU?$_Rb_tree_iterator@U?$pair@$$CBV?$basic_string@DV?$char_traits@D@_STL@@V?$allocator@D@2@@_STL@@V12@@_STL@@U?$_Const_traits@U?$pair@$$CBV?$basic_string@DV?$char_traits@D@_STL@@V?$allocator@D@2@@_STL@@V12@@_STL@@@2@@2@ABV?$basic_string@DV?$char_traits@D@_STL@@V?$allocator@D@2@@2@@Z 004173f0 f i clib:cfgfile.obj
 0001:00016410       ??0?$_Rb_tree@V?$basic_string@DV?$char_traits@D@_STL@@V?$allocator@D@2@@_STL@@U?$pair@$$CBV?$basic_string@DV?$char_traits@D@_STL@@V?$allocator@D@2@@_STL@@V12@@2@U?$_Select1st@U?$pair@$$CBV?$basic_string@DV?$char_traits@D@_STL@@V?$allocator@D@2@@_STL@@V12@@_STL@@@2@Vci_cmp_pred@@V?$allocator@U?$pair@$$CBV?$basic_string@DV?$char_traits@D@_STL@@V?$allocator@D@2@@_STL@@V12@@_STL@@@2@@_STL@@QAE@ABVci_cmp_pred@@ABV?$allocator@U?$pair@$$CBV?$basic_string@DV?$char_traits@D@_STL@@V?$allocator@D@2@@_STL@@V12@@_STL@@@1@@Z 00417410 f i clib:cfgfile.obj
 0001:00016450       ??0?$_Rb_tree@V?$basic_string@DV?$char_traits@D@_STL@@V?$allocator@D@2@@_STL@@V12@U?$_Identity@V?$basic_string@DV?$char_traits@D@_STL@@V?$allocator@D@2@@_STL@@@2@Vci_cmp_pred@@V?$allocator@V?$basic_string@DV?$char_traits@D@_STL@@V?$allocator@D@2@@_STL@@@2@@_STL@@QAE@ABVci_cmp_pred@@ABV?$allocator@V?$basic_string@DV?$char_traits@D@_STL@@V?$allocator@D@2@@_STL@@@1@@Z 00417450 f i clib:cfgfile.obj
 0001:00016490       ?_M_clear@?$vector@PAVConfigProperty@@V?$allocator@PAVConfigProperty@@@_STL@@@_STL@@IAEXXZ 00417490 f i clib:cfgfile.obj
 0001:000164c0       ?equal_range@?$_Rb_tree@V?$basic_string@DV?$char_traits@D@_STL@@V?$allocator@D@2@@_STL@@U?$pair@$$CBV?$basic_string@DV?$char_traits@D@_STL@@V?$allocator@D@2@@_STL@@V12@@2@U?$_Select1st@U?$pair@$$CBV?$basic_string@DV?$char_traits@D@_STL@@V?$allocator@D@2@@_STL@@V12@@_STL@@@2@Vci_cmp_pred@@V?$allocator@U?$pair@$$CBV?$basic_string@DV?$char_traits@D@_STL@@V?$allocator@D@2@@_STL@@V12@@_STL@@@2@@_STL@@QBE?AU?$pair@U?$_Rb_tree_iterator@U?$pair@$$CBV?$basic_string@DV?$char_traits@D@_STL@@V?$allocator@D@2@@_STL@@V12@@_STL@@U?$_Const_traits@U?$pair@$$CBV?$basic_string@DV?$char_traits@D@_STL@@V?$allocator@D@2@@_STL@@V12@@_STL@@@2@@_STL@@U12@@2@ABV?$basic_string@DV?$char_traits@D@_STL@@V?$allocator@D@2@@2@@Z 004174c0 f i clib:cfgfile.obj
 0001:000164f0       ?display_error@StubConfigSource@@UBEXABV?$basic_string@DV?$char_traits@D@_STL@@V?$allocator@D@2@@_STL@@_NPBVConfigElemBase@@1@Z 004174f0 f   clib:cfgfile.obj
 0001:00016550       ?_M_insert_overflow@?$vector@PAVConfigProperty@@V?$allocator@PAVConfigProperty@@@_STL@@@_STL@@IAEXPAPAVConfigProperty@@ABQAV3@ABU__true_type@2@I_N@Z 00417550 f i clib:cfgfile.obj
 0001:00016660       ?count@?$_Rb_tree@V?$basic_string@DV?$char_traits@D@_STL@@V?$allocator@D@2@@_STL@@U?$pair@$$CBV?$basic_string@DV?$char_traits@D@_STL@@V?$allocator@D@2@@_STL@@V12@@2@U?$_Select1st@U?$pair@$$CBV?$basic_string@DV?$char_traits@D@_STL@@V?$allocator@D@2@@_STL@@V12@@_STL@@@2@Vci_cmp_pred@@V?$allocator@U?$pair@$$CBV?$basic_string@DV?$char_traits@D@_STL@@V?$allocator@D@2@@_STL@@V12@@_STL@@@2@@_STL@@QBEIABV?$basic_string@DV?$char_traits@D@_STL@@V?$allocator@D@2@@2@@Z 00417660 f i clib:cfgfile.obj
 0001:000166a0       ??_G?$basic_string@DV?$char_traits@D@_STL@@V?$allocator@D@2@@_STL@@QAEPAXI@Z 004176a0 f i clib:cfgfile.obj
 0001:000166c0       ??$_M_find@PBD@?$_Rb_tree@V?$basic_string@DV?$char_traits@D@_STL@@V?$allocator@D@2@@_STL@@V12@U?$_Identity@V?$basic_string@DV?$char_traits@D@_STL@@V?$allocator@D@2@@_STL@@@2@Vci_cmp_pred@@V?$allocator@V?$basic_string@DV?$char_traits@D@_STL@@V?$allocator@D@2@@_STL@@@2@@_STL@@ABEPAU?$_Rb_tree_node@V?$basic_string@DV?$char_traits@D@_STL@@V?$allocator@D@2@@_STL@@@1@ABQBD@Z 004176c0 f i clib:cfgfile.obj
 0001:000167e0       ??0ConfigProperty@@QAE@PBD0@Z 004177e0 f   clib:cfgfile.obj
 0001:00016840       ??0ConfigProperty@@QAE@PAV?$basic_string@DV?$char_traits@D@_STL@@V?$allocator@D@2@@_STL@@0@Z 00417840 f   clib:cfgfile.obj
 0001:000168e0       ??1ConfigProperty@@QAE@XZ  004178e0 f   clib:cfgfile.obj
 0001:00016980       ??0ConfigElemBase@@IAE@XZ  00417980 f   clib:cfgfile.obj
 0001:000169f0       ??1ConfigElemBase@@QAE@XZ  004179f0 f i clib:cfgfile.obj
 0001:00016a90       ??_GConfigProperty@@QAEPAXI@Z 00417a90 f i clib:cfgfile.obj
 0001:00016ab0       ?remove_prop@VectorConfigElem@@QAE_NPBDPAK@Z 00417ab0 f   clib:cfgfile.obj
 0001:00016b40       ?throw_error@ConfigElem@@QBEXABV?$basic_string@DV?$char_traits@D@_STL@@V?$allocator@D@2@@_STL@@@Z 00417b40 f   clib:cfgfile.obj
 0001:00016bc0       ?throw_error@VectorConfigElem@@QBEXABV?$basic_string@DV?$char_traits@D@_STL@@V?$allocator@D@2@@_STL@@@Z 00417bc0 f   clib:cfgfile.obj
 0001:00016c40       ??1?$pair@V?$basic_string@DV?$char_traits@D@_STL@@V?$allocator@D@2@@_STL@@V12@@_STL@@QAE@XZ 00417c40 f i clib:cfgfile.obj
 0001:00016ce0       ??1?$pair@$$CBV?$basic_string@DV?$char_traits@D@_STL@@V?$allocator@D@2@@_STL@@V12@@_STL@@QAE@XZ 00417ce0 f i clib:cfgfile.obj
 0001:00016d80       ?display_error@ConfigFile@@MBEXABV?$basic_string@DV?$char_traits@D@_STL@@V?$allocator@D@2@@_STL@@_NPBVConfigElemBase@@1@Z 00417d80 f   clib:cfgfile.obj
 0001:00016ef0       ?display_and_rethrow_exception@ConfigFile@@IAEXXZ 00417ef0 f   clib:cfgfile.obj
 0001:00017030       ?count@?$multimap@V?$basic_string@DV?$char_traits@D@_STL@@V?$allocator@D@2@@_STL@@V12@Vci_cmp_pred@@V?$allocator@U?$pair@$$CBV?$basic_string@DV?$char_traits@D@_STL@@V?$allocator@D@2@@_STL@@V12@@_STL@@@2@@_STL@@QBEIABV?$basic_string@DV?$char_traits@D@_STL@@V?$allocator@D@2@@2@@Z 00418030 f i clib:cfgfile.obj
 0001:00017070       ?push_back@?$vector@PAVConfigProperty@@V?$allocator@PAVConfigProperty@@@_STL@@@_STL@@QAEXABQAVConfigProperty@@@Z 00418070 f i clib:cfgfile.obj
 0001:000170b0       ??$?0V?$basic_string@DV?$char_traits@D@_STL@@V?$allocator@D@2@@_STL@@V01@@?$pair@$$CBV?$basic_string@DV?$char_traits@D@_STL@@V?$allocator@D@2@@_STL@@V12@@_STL@@QAE@ABU?$pair@V?$basic_string@DV?$char_traits@D@_STL@@V?$allocator@D@2@@_STL@@V12@@1@@Z 004180b0 f i clib:cfgfile.obj
 0001:00017110       ??_G?$pair@$$CBV?$basic_string@DV?$char_traits@D@_STL@@V?$allocator@D@2@@_STL@@V12@@_STL@@QAEPAXI@Z 00418110 f i clib:cfgfile.obj
 0001:00017130       ??0?$pair@V?$basic_string@DV?$char_traits@D@_STL@@V?$allocator@D@2@@_STL@@V12@@_STL@@QAE@ABV?$basic_string@DV?$char_traits@D@_STL@@V?$allocator@D@2@@1@0@Z 00418130 f i clib:cfgfile.obj
 0001:00017180       ??$_Destroy@V?$basic_string@DV?$char_traits@D@_STL@@V?$allocator@D@2@@_STL@@@_STL@@YAXPAV?$basic_string@DV?$char_traits@D@_STL@@V?$allocator@D@2@@0@@Z 00418180 f i clib:cfgfile.obj
 0001:00017190       ??$find@PBD@?$_Rb_tree@V?$basic_string@DV?$char_traits@D@_STL@@V?$allocator@D@2@@_STL@@V12@U?$_Identity@V?$basic_string@DV?$char_traits@D@_STL@@V?$allocator@D@2@@_STL@@@2@Vci_cmp_pred@@V?$allocator@V?$basic_string@DV?$char_traits@D@_STL@@V?$allocator@D@2@@_STL@@@2@@_STL@@QBE?AU?$_Rb_tree_iterator@V?$basic_string@DV?$char_traits@D@_STL@@V?$allocator@D@2@@_STL@@U?$_Const_traits@V?$basic_string@DV?$char_traits@D@_STL@@V?$allocator@D@2@@_STL@@@2@@1@ABQBD@Z 00418190 f i clib:cfgfile.obj
 0001:000171b0       ??$_Construct@V?$basic_string@DV?$char_traits@D@_STL@@V?$allocator@D@2@@_STL@@V12@@_STL@@YAXPAV?$basic_string@DV?$char_traits@D@_STL@@V?$allocator@D@2@@0@ABV10@@Z 004181b0 f i clib:cfgfile.obj
 0001:00017200       ??0?$pair@$$CBV?$basic_string@DV?$char_traits@D@_STL@@V?$allocator@D@2@@_STL@@V12@@_STL@@QAE@ABU01@@Z 00418200 f i clib:cfgfile.obj
 0001:00017260       ??0ConfigProperty@@QAE@ABV?$basic_string@DV?$char_traits@D@_STL@@V?$allocator@D@2@@_STL@@0@Z 00418260 f   clib:cfgfile.obj
 0001:000172b0       ?has_prop@ConfigElem@@QBE_NPBD@Z 004182b0 f   clib:cfgfile.obj
 0001:00017370       ?get_prop@ConfigElem@@QBEXPBDPAK@Z 00418370 f   clib:cfgfile.obj
 0001:00017440       ?add_prop@VectorConfigElem@@QAEXPBD0@Z 00418440 f   clib:cfgfile.obj
 0001:000174e0       ?append@?$basic_string@DV?$char_traits@D@_STL@@V?$allocator@D@2@@_STL@@QAEAAV12@PBD@Z 004184e0 f i clib:cfgfile.obj
 0001:00017510       ?_M_erase@?$_Rb_tree@V?$basic_string@DV?$char_traits@D@_STL@@V?$allocator@D@2@@_STL@@V12@U?$_Identity@V?$basic_string@DV?$char_traits@D@_STL@@V?$allocator@D@2@@_STL@@@2@Vci_cmp_pred@@V?$allocator@V?$basic_string@DV?$char_traits@D@_STL@@V?$allocator@D@2@@_STL@@@2@@_STL@@AAEXPAU?$_Rb_tree_node@V?$basic_string@DV?$char_traits@D@_STL@@V?$allocator@D@2@@_STL@@@2@@Z 00418510 f i clib:cfgfile.obj
 0001:00017550       ??$make_pair@V?$basic_string@DV?$char_traits@D@_STL@@V?$allocator@D@2@@_STL@@V12@@_STL@@YA?AU?$pair@V?$basic_string@DV?$char_traits@D@_STL@@V?$allocator@D@2@@_STL@@V12@@0@ABV?$basic_string@DV?$char_traits@D@_STL@@V?$allocator@D@2@@0@0@Z 00418550 f i clib:cfgfile.obj
 0001:000175b0       ??$?5DV?$char_traits@D@_STL@@V?$allocator@D@1@@_STL@@YAAAV?$basic_istream@DV?$char_traits@D@_STL@@@0@AAV10@AAV?$basic_string@DV?$char_traits@D@_STL@@V?$allocator@D@2@@0@@Z 004185b0 f i clib:cfgfile.obj
 0001:00017760       ??$find@PBD@?$set@V?$basic_string@DV?$char_traits@D@_STL@@V?$allocator@D@2@@_STL@@Vci_cmp_pred@@V?$allocator@V?$basic_string@DV?$char_traits@D@_STL@@V?$allocator@D@2@@_STL@@@2@@_STL@@QBE?AU?$_Rb_tree_iterator@V?$basic_string@DV?$char_traits@D@_STL@@V?$allocator@D@2@@_STL@@U?$_Const_traits@V?$basic_string@DV?$char_traits@D@_STL@@V?$allocator@D@2@@_STL@@@2@@1@ABQBD@Z 00418760 f i clib:cfgfile.obj
 0001:00017780       ??$_Destroy@U?$pair@$$CBV?$basic_string@DV?$char_traits@D@_STL@@V?$allocator@D@2@@_STL@@V12@@_STL@@@_STL@@YAXPAU?$pair@$$CBV?$basic_string@DV?$char_traits@D@_STL@@V?$allocator@D@2@@_STL@@V12@@0@@Z 00418780 f i clib:cfgfile.obj
 0001:00017790       ?_M_create_node@?$_Rb_tree@V?$basic_string@DV?$char_traits@D@_STL@@V?$allocator@D@2@@_STL@@V12@U?$_Identity@V?$basic_string@DV?$char_traits@D@_STL@@V?$allocator@D@2@@_STL@@@2@Vci_cmp_pred@@V?$allocator@V?$basic_string@DV?$char_traits@D@_STL@@V?$allocator@D@2@@_STL@@@2@@_STL@@IAEPAU?$_Rb_tree_node@V?$basic_string@DV?$char_traits@D@_STL@@V?$allocator@D@2@@_STL@@@2@ABV?$basic_string@DV?$char_traits@D@_STL@@V?$allocator@D@2@@2@@Z 00418790 f i clib:cfgfile.obj
 0001:00017820       ??$_Construct@U?$pair@$$CBV?$basic_string@DV?$char_traits@D@_STL@@V?$allocator@D@2@@_STL@@V12@@_STL@@U12@@_STL@@YAXPAU?$pair@$$CBV?$basic_string@DV?$char_traits@D@_STL@@V?$allocator@D@2@@_STL@@V12@@0@ABU10@@Z 00418820 f i clib:cfgfile.obj
 0001:00017870       ??Y?$basic_string@DV?$char_traits@D@_STL@@V?$allocator@D@2@@_STL@@QAEAAV01@ABV01@@Z 00418870 f i clib:cfgfile.obj
 0001:00017890       ??Y?$basic_string@DV?$char_traits@D@_STL@@V?$allocator@D@2@@_STL@@QAEAAV01@PBD@Z 00418890 f i clib:cfgfile.obj
 0001:000178c0       ?erase@?$_Rb_tree@V?$basic_string@DV?$char_traits@D@_STL@@V?$allocator@D@2@@_STL@@U?$pair@$$CBV?$basic_string@DV?$char_traits@D@_STL@@V?$allocator@D@2@@_STL@@V12@@2@U?$_Select1st@U?$pair@$$CBV?$basic_string@DV?$char_traits@D@_STL@@V?$allocator@D@2@@_STL@@V12@@_STL@@@2@Vci_cmp_pred@@V?$allocator@U?$pair@$$CBV?$basic_string@DV?$char_traits@D@_STL@@V?$allocator@D@2@@_STL@@V12@@_STL@@@2@@_STL@@QAEXU?$_Rb_tree_iterator@U?$pair@$$CBV?$basic_string@DV?$char_traits@D@_STL@@V?$allocator@D@2@@_STL@@V12@@_STL@@U?$_Nonconst_traits@U?$pair@$$CBV?$basic_string@DV?$char_traits@D@_STL@@V?$allocator@D@2@@_STL@@V12@@_STL@@@2@@2@@Z 004188c0 f i clib:cfgfile.obj
 0001:00017910       ?clear@?$_Rb_tree@V?$basic_string@DV?$char_traits@D@_STL@@V?$allocator@D@2@@_STL@@V12@U?$_Identity@V?$basic_string@DV?$char_traits@D@_STL@@V?$allocator@D@2@@_STL@@@2@Vci_cmp_pred@@V?$allocator@V?$basic_string@DV?$char_traits@D@_STL@@V?$allocator@D@2@@_STL@@@2@@_STL@@QAEXXZ 00418910 f i clib:cfgfile.obj
 0001:00017950       ?_M_erase@?$_Rb_tree@V?$basic_string@DV?$char_traits@D@_STL@@V?$allocator@D@2@@_STL@@U?$pair@$$CBV?$basic_string@DV?$char_traits@D@_STL@@V?$allocator@D@2@@_STL@@V12@@2@U?$_Select1st@U?$pair@$$CBV?$basic_string@DV?$char_traits@D@_STL@@V?$allocator@D@2@@_STL@@V12@@_STL@@@2@Vci_cmp_pred@@V?$allocator@U?$pair@$$CBV?$basic_string@DV?$char_traits@D@_STL@@V?$allocator@D@2@@_STL@@V12@@_STL@@@2@@_STL@@AAEXPAU?$_Rb_tree_node@U?$pair@$$CBV?$basic_string@DV?$char_traits@D@_STL@@V?$allocator@D@2@@_STL@@V12@@_STL@@@2@@Z 00418950 f i clib:cfgfile.obj
 0001:00017990       ?_M_insert@?$_Rb_tree@V?$basic_string@DV?$char_traits@D@_STL@@V?$allocator@D@2@@_STL@@V12@U?$_Identity@V?$basic_string@DV?$char_traits@D@_STL@@V?$allocator@D@2@@_STL@@@2@Vci_cmp_pred@@V?$allocator@V?$basic_string@DV?$char_traits@D@_STL@@V?$allocator@D@2@@_STL@@@2@@_STL@@AAE?AU?$_Rb_tree_iterator@V?$basic_string@DV?$char_traits@D@_STL@@V?$allocator@D@2@@_STL@@U?$_Nonconst_traits@V?$basic_string@DV?$char_traits@D@_STL@@V?$allocator@D@2@@_STL@@@2@@2@PAU_Rb_tree_node_base@2@0ABV?$basic_string@DV?$char_traits@D@_STL@@V?$allocator@D@2@@2@0@Z 00418990 f i clib:cfgfile.obj
 0001:00017a40       ?_M_create_node@?$_Rb_tree@V?$basic_string@DV?$char_traits@D@_STL@@V?$allocator@D@2@@_STL@@U?$pair@$$CBV?$basic_string@DV?$char_traits@D@_STL@@V?$allocator@D@2@@_STL@@V12@@2@U?$_Select1st@U?$pair@$$CBV?$basic_string@DV?$char_traits@D@_STL@@V?$allocator@D@2@@_STL@@V12@@_STL@@@2@Vci_cmp_pred@@V?$allocator@U?$pair@$$CBV?$basic_string@DV?$char_traits@D@_STL@@V?$allocator@D@2@@_STL@@V12@@_STL@@@2@@_STL@@IAEPAU?$_Rb_tree_node@U?$pair@$$CBV?$basic_string@DV?$char_traits@D@_STL@@V?$allocator@D@2@@_STL@@V12@@_STL@@@2@ABU?$pair@$$CBV?$basic_string@DV?$char_traits@D@_STL@@V?$allocator@D@2@@_STL@@V12@@2@@Z 00418a40 f i clib:cfgfile.obj
 0001:00017ad0       ?set_rest@ConfigElem@@QAEXPBD@Z 00418ad0 f   clib:cfgfile.obj
 0001:00017b00       ?set_type@ConfigElem@@QAEXPBD@Z 00418b00 f   clib:cfgfile.obj
 0001:00017b30       ?remove_prop@VectorConfigElem@@QAE_NPBDPAV?$basic_string@DV?$char_traits@D@_STL@@V?$allocator@D@2@@_STL@@@Z 00418b30 f   clib:cfgfile.obj
 0001:00017bc0       ?read_prop@ConfigElem@@QBE_NPBDPAV?$basic_string@DV?$char_traits@D@_STL@@V?$allocator@D@2@@_STL@@@Z 00418bc0 f   clib:cfgfile.obj
 0001:00017c50       ?read_prop@VectorConfigElem@@QBE_NPBDPAV?$basic_string@DV?$char_traits@D@_STL@@V?$allocator@D@2@@_STL@@@Z 00418c50 f   clib:cfgfile.obj
 0001:00017cb0       ?remove_prop@VectorConfigElem@@QAE_NPBDPAG@Z 00418cb0 f   clib:cfgfile.obj
 0001:00017e60       ?prop_not_found@ConfigElem@@IBEXPBD@Z 00418e60 f   clib:cfgfile.obj
 0001:00017ef0       ?read_string@ConfigElem@@QBE?AV?$basic_string@DV?$char_traits@D@_STL@@V?$allocator@D@2@@_STL@@PBD@Z 00418ef0 f   clib:cfgfile.obj
 0001:00017fc0       ?read_string@ConfigElem@@QBE?AV?$basic_string@DV?$char_traits@D@_STL@@V?$allocator@D@2@@_STL@@PBD0@Z 00418fc0 f   clib:cfgfile.obj
 0001:00018090       ?remove_first_prop@VectorConfigElem@@QAE_NPAV?$basic_string@DV?$char_traits@D@_STL@@V?$allocator@D@2@@_STL@@0@Z 00419090 f   clib:cfgfile.obj
 0001:00018120       ?open@ConfigFile@@QAEXPBD@Z 00419120 f   clib:cfgfile.obj
 0001:00018230       ?readline@ConfigFile@@IAE_NAAV?$basic_string@DV?$char_traits@D@_STL@@V?$allocator@D@2@@_STL@@@Z 00419230 f   clib:cfgfile.obj
 0001:00018320       ?erase@?$multimap@V?$basic_string@DV?$char_traits@D@_STL@@V?$allocator@D@2@@_STL@@V12@Vci_cmp_pred@@V?$allocator@U?$pair@$$CBV?$basic_string@DV?$char_traits@D@_STL@@V?$allocator@D@2@@_STL@@V12@@_STL@@@2@@_STL@@QAEXU?$_Rb_tree_iterator@U?$pair@$$CBV?$basic_string@DV?$char_traits@D@_STL@@V?$allocator@D@2@@_STL@@V12@@_STL@@U?$_Nonconst_traits@U?$pair@$$CBV?$basic_string@DV?$char_traits@D@_STL@@V?$allocator@D@2@@_STL@@V12@@_STL@@@2@@2@@Z 00419320 f i clib:cfgfile.obj
 0001:00018370       ??1?$_Rb_tree@V?$basic_string@DV?$char_traits@D@_STL@@V?$allocator@D@2@@_STL@@V12@U?$_Identity@V?$basic_string@DV?$char_traits@D@_STL@@V?$allocator@D@2@@_STL@@@2@Vci_cmp_pred@@V?$allocator@V?$basic_string@DV?$char_traits@D@_STL@@V?$allocator@D@2@@_STL@@@2@@_STL@@QAE@XZ 00419370 f i clib:cfgfile.obj
 0001:000183f0       ?clear@?$_Rb_tree@V?$basic_string@DV?$char_traits@D@_STL@@V?$allocator@D@2@@_STL@@U?$pair@$$CBV?$basic_string@DV?$char_traits@D@_STL@@V?$allocator@D@2@@_STL@@V12@@2@U?$_Select1st@U?$pair@$$CBV?$basic_string@DV?$char_traits@D@_STL@@V?$allocator@D@2@@_STL@@V12@@_STL@@@2@Vci_cmp_pred@@V?$allocator@U?$pair@$$CBV?$basic_string@DV?$char_traits@D@_STL@@V?$allocator@D@2@@_STL@@V12@@_STL@@@2@@_STL@@QAEXXZ 004193f0 f i clib:cfgfile.obj
 0001:00018430       ?insert_unique@?$_Rb_tree@V?$basic_string@DV?$char_traits@D@_STL@@V?$allocator@D@2@@_STL@@V12@U?$_Identity@V?$basic_string@DV?$char_traits@D@_STL@@V?$allocator@D@2@@_STL@@@2@Vci_cmp_pred@@V?$allocator@V?$basic_string@DV?$char_traits@D@_STL@@V?$allocator@D@2@@_STL@@@2@@_STL@@QAE?AU?$pair@U?$_Rb_tree_iterator@V?$basic_string@DV?$char_traits@D@_STL@@V?$allocator@D@2@@_STL@@U?$_Nonconst_traits@V?$basic_string@DV?$char_traits@D@_STL@@V?$allocator@D@2@@_STL@@@2@@_STL@@_N@2@ABV?$basic_string@DV?$char_traits@D@_STL@@V?$allocator@D@2@@2@@Z 00419430 f i clib:cfgfile.obj
 0001:00018500       ?_M_insert@?$_Rb_tree@V?$basic_string@DV?$char_traits@D@_STL@@V?$allocator@D@2@@_STL@@U?$pair@$$CBV?$basic_string@DV?$char_traits@D@_STL@@V?$allocator@D@2@@_STL@@V12@@2@U?$_Select1st@U?$pair@$$CBV?$basic_string@DV?$char_traits@D@_STL@@V?$allocator@D@2@@_STL@@V12@@_STL@@@2@Vci_cmp_pred@@V?$allocator@U?$pair@$$CBV?$basic_string@DV?$char_traits@D@_STL@@V?$allocator@D@2@@_STL@@V12@@_STL@@@2@@_STL@@AAE?AU?$_Rb_tree_iterator@U?$pair@$$CBV?$basic_string@DV?$char_traits@D@_STL@@V?$allocator@D@2@@_STL@@V12@@_STL@@U?$_Nonconst_traits@U?$pair@$$CBV?$basic_string@DV?$char_traits@D@_STL@@V?$allocator@D@2@@_STL@@V12@@_STL@@@2@@2@PAU_Rb_tree_node_base@2@0ABU?$pair@$$CBV?$basic_string@DV?$char_traits@D@_STL@@V?$allocator@D@2@@_STL@@V12@@2@0@Z 00419500 f i clib:cfgfile.obj
 0001:000185b0       ?remove_first_prop@ConfigElem@@QAE_NPAV?$basic_string@DV?$char_traits@D@_STL@@V?$allocator@D@2@@_STL@@0@Z 004195b0 f   clib:cfgfile.obj
 0001:00018640       ?remove_prop@ConfigElem@@QAE_NPBDPAV?$basic_string@DV?$char_traits@D@_STL@@V?$allocator@D@2@@_STL@@@Z 00419640 f   clib:cfgfile.obj
 0001:00018700       ?remove_prop@ConfigElem@@QAE_NPBDPAK@Z 00419700 f   clib:cfgfile.obj
 0001:000187c0       ?remove_prop@ConfigElem@@QAE_NPBDPAG@Z 004197c0 f   clib:cfgfile.obj
 0001:00018980       ?remove_ushort@ConfigElem@@QAEGPBD@Z 00419980 f   clib:cfgfile.obj
 0001:000189b0       ?remove_ushort@ConfigElem@@QAEGPBDG@Z 004199b0 f   clib:cfgfile.obj
 0001:000189d0       ?remove_int@ConfigElem@@QAEHPBDH@Z 004199d0 f   clib:cfgfile.obj
 0001:00018ae0       ?remove_unsigned@ConfigElem@@QAEIPBDH@Z 00419ae0 f   clib:cfgfile.obj
 0001:00018bf0       ?remove_string@ConfigElem@@QAE?AV?$basic_string@DV?$char_traits@D@_STL@@V?$allocator@D@2@@_STL@@PBD@Z 00419bf0 f   clib:cfgfile.obj
 0001:00018cc0       ?remove_string@ConfigElem@@QAE?AV?$basic_string@DV?$char_traits@D@_STL@@V?$allocator@D@2@@_STL@@PBD0@Z 00419cc0 f   clib:cfgfile.obj
 0001:00018d90       ?remove_bool@ConfigElem@@QAE_NPBD@Z 00419d90 f   clib:cfgfile.obj
 0001:00018dc0       ?remove_bool@ConfigElem@@QAE_NPBD_N@Z 00419dc0 f   clib:cfgfile.obj
 0001:00018df0       ?remove_float@ConfigElem@@QAEMPBDM@Z 00419df0 f   clib:cfgfile.obj
 0001:00018f00       ?remove_double@ConfigElem@@QAENPBDN@Z 00419f00 f   clib:cfgfile.obj
 0001:00018fb0       ?remove_ulong@ConfigElem@@QAEKPBD@Z 00419fb0 f   clib:cfgfile.obj
 0001:00018fe0       ?remove_ulong@ConfigElem@@QAEKPBDK@Z 00419fe0 f   clib:cfgfile.obj
 0001:00019000       ?clear_prop@ConfigElem@@QAEXPBD@Z 0041a000 f   clib:cfgfile.obj
 0001:00019020       ??1?$set@V?$basic_string@DV?$char_traits@D@_STL@@V?$allocator@D@2@@_STL@@Vci_cmp_pred@@V?$allocator@V?$basic_string@DV?$char_traits@D@_STL@@V?$allocator@D@2@@_STL@@@2@@_STL@@QAE@XZ 0041a020 f i clib:cfgfile.obj
 0001:00019030       ??1ConfigFile@@UAE@XZ      0041a030 f   clib:cfgfile.obj
 0001:000190c0       ?clear@?$multimap@V?$basic_string@DV?$char_traits@D@_STL@@V?$allocator@D@2@@_STL@@V12@Vci_cmp_pred@@V?$allocator@U?$pair@$$CBV?$basic_string@DV?$char_traits@D@_STL@@V?$allocator@D@2@@_STL@@V12@@_STL@@@2@@_STL@@QAEXXZ 0041a0c0 f i clib:cfgfile.obj
 0001:00019100       ??1?$_Rb_tree@V?$basic_string@DV?$char_traits@D@_STL@@V?$allocator@D@2@@_STL@@U?$pair@$$CBV?$basic_string@DV?$char_traits@D@_STL@@V?$allocator@D@2@@_STL@@V12@@2@U?$_Select1st@U?$pair@$$CBV?$basic_string@DV?$char_traits@D@_STL@@V?$allocator@D@2@@_STL@@V12@@_STL@@@2@Vci_cmp_pred@@V?$allocator@U?$pair@$$CBV?$basic_string@DV?$char_traits@D@_STL@@V?$allocator@D@2@@_STL@@V12@@_STL@@@2@@_STL@@QAE@XZ 0041a100 f i clib:cfgfile.obj
 0001:00019180       ??0?$set@V?$basic_string@DV?$char_traits@D@_STL@@V?$allocator@D@2@@_STL@@Vci_cmp_pred@@V?$allocator@V?$basic_string@DV?$char_traits@D@_STL@@V?$allocator@D@2@@_STL@@@2@@_STL@@QAE@XZ 0041a180 f i clib:cfgfile.obj
 0001:000191c0       ?insert@?$set@V?$basic_string@DV?$char_traits@D@_STL@@V?$allocator@D@2@@_STL@@Vci_cmp_pred@@V?$allocator@V?$basic_string@DV?$char_traits@D@_STL@@V?$allocator@D@2@@_STL@@@2@@_STL@@QAE?AU?$pair@U?$_Rb_tree_iterator@V?$basic_string@DV?$char_traits@D@_STL@@V?$allocator@D@2@@_STL@@U?$_Const_traits@V?$basic_string@DV?$char_traits@D@_STL@@V?$allocator@D@2@@_STL@@@2@@_STL@@_N@2@ABV?$basic_string@DV?$char_traits@D@_STL@@V?$allocator@D@2@@2@@Z 0041a1c0 f i clib:cfgfile.obj
 0001:000191f0       ?insert_equal@?$_Rb_tree@V?$basic_string@DV?$char_traits@D@_STL@@V?$allocator@D@2@@_STL@@U?$pair@$$CBV?$basic_string@DV?$char_traits@D@_STL@@V?$allocator@D@2@@_STL@@V12@@2@U?$_Select1st@U?$pair@$$CBV?$basic_string@DV?$char_traits@D@_STL@@V?$allocator@D@2@@_STL@@V12@@_STL@@@2@Vci_cmp_pred@@V?$allocator@U?$pair@$$CBV?$basic_string@DV?$char_traits@D@_STL@@V?$allocator@D@2@@_STL@@V12@@_STL@@@2@@_STL@@QAE?AU?$_Rb_tree_iterator@U?$pair@$$CBV?$basic_string@DV?$char_traits@D@_STL@@V?$allocator@D@2@@_STL@@V12@@_STL@@U?$_Nonconst_traits@U?$pair@$$CBV?$basic_string@DV?$char_traits@D@_STL@@V?$allocator@D@2@@_STL@@V12@@_STL@@@2@@2@ABU?$pair@$$CBV?$basic_string@DV?$char_traits@D@_STL@@V?$allocator@D@2@@_STL@@V12@@2@@Z 0041a1f0 f i clib:cfgfile.obj
 0001:00019240       ??1?$multimap@V?$basic_string@DV?$char_traits@D@_STL@@V?$allocator@D@2@@_STL@@V12@Vci_cmp_pred@@V?$allocator@U?$pair@$$CBV?$basic_string@DV?$char_traits@D@_STL@@V?$allocator@D@2@@_STL@@V12@@_STL@@@2@@_STL@@QAE@XZ 0041a240 f i clib:cfgfile.obj
 0001:00019250       ??1ConfigElem@@QAE@XZ      0041a250 f   clib:cfgfile.obj
 0001:000192a0       ?remove_int@ConfigElem@@QAEHPBD@Z 0041a2a0 f   clib:cfgfile.obj
 0001:00019300       ?remove_unsigned@ConfigElem@@QAEIPBD@Z 0041a300 f   clib:cfgfile.obj
 0001:00019360       ??_GConfigFile@@UAEPAXI@Z  0041a360 f i clib:cfgfile.obj
 0001:00019360       ??_EConfigFile@@UAEPAXI@Z  0041a360 f i clib:cfgfile.obj
 0001:00019380       ??0?$multimap@V?$basic_string@DV?$char_traits@D@_STL@@V?$allocator@D@2@@_STL@@V12@Vci_cmp_pred@@V?$allocator@U?$pair@$$CBV?$basic_string@DV?$char_traits@D@_STL@@V?$allocator@D@2@@_STL@@V12@@_STL@@@2@@_STL@@QAE@XZ 0041a380 f i clib:cfgfile.obj
 0001:000193c0       ?insert@?$multimap@V?$basic_string@DV?$char_traits@D@_STL@@V?$allocator@D@2@@_STL@@V12@Vci_cmp_pred@@V?$allocator@U?$pair@$$CBV?$basic_string@DV?$char_traits@D@_STL@@V?$allocator@D@2@@_STL@@V12@@_STL@@@2@@_STL@@QAE?AU?$_Rb_tree_iterator@U?$pair@$$CBV?$basic_string@DV?$char_traits@D@_STL@@V?$allocator@D@2@@_STL@@V12@@_STL@@U?$_Nonconst_traits@U?$pair@$$CBV?$basic_string@DV?$char_traits@D@_STL@@V?$allocator@D@2@@_STL@@V12@@_STL@@@2@@2@ABU?$pair@$$CBV?$basic_string@DV?$char_traits@D@_STL@@V?$allocator@D@2@@_STL@@V12@@2@@Z 0041a3c0 f i clib:cfgfile.obj
 0001:000193e0       ??0ConfigElem@@QAE@XZ      0041a3e0 f   clib:cfgfile.obj
 0001:00019450       ?add_prop@ConfigElem@@QAEXPBD0@Z 0041a450 f   clib:cfgfile.obj
 0001:00019590       ?add_prop@ConfigElem@@QAEXPBDG@Z 0041a590 f   clib:cfgfile.obj
 0001:00019740       ?add_prop@VectorConfigElem@@QAEXPBDG@Z 0041a740 f   clib:cfgfile.obj
 0001:00019900       ?add_prop@ConfigElem@@QAEXPBDK@Z 0041a900 f   clib:cfgfile.obj
 0001:00019ab0       ?add_prop@VectorConfigElem@@QAEXPBDK@Z 0041aab0 f   clib:cfgfile.obj
 0001:00019c70       ?init@ConfigFile@@IAEXPBD0@Z 0041ac70 f   clib:cfgfile.obj
 0001:00019e30       ?read_properties@ConfigFile@@IAE_NAAVConfigElem@@@Z 0041ae30 f   clib:cfgfile.obj
 0001:0001a170       ?read_properties@ConfigFile@@IAE_NAAVVectorConfigElem@@@Z 0041b170 f   clib:cfgfile.obj
 0001:0001a470       ?_read@ConfigFile@@IAE_NAAVConfigElem@@@Z 0041b470 f   clib:cfgfile.obj
 0001:0001a970       ?_read@ConfigFile@@IAE_NAAVVectorConfigElem@@@Z 0041b970 f   clib:cfgfile.obj
 0001:0001ae70       ?read@ConfigFile@@QAE_NAAVConfigElem@@@Z 0041be70 f   clib:cfgfile.obj
 0001:0001aed0       ?readraw@ConfigFile@@QAEXAAVConfigElem@@@Z 0041bed0 f   clib:cfgfile.obj
 0001:0001af70       ??0ConfigFile@@QAE@PBD0@Z  0041bf70 f   clib:cfgfile.obj
 0001:0001b010       ??0ConfigFile@@QAE@ABV?$basic_string@DV?$char_traits@D@_STL@@V?$allocator@D@2@@_STL@@PBD@Z 0041c010 f   clib:cfgfile.obj
 0001:0001b0c0       ??0UnitTest@@QAE@P6AXXZ@Z  0041c0c0 f i clib:strutil.obj
 0001:0001b0d0       ?eq@?$__char_traits_base@DH@_STL@@SA_NABD0@Z 0041c0d0 f i clib:strutil.obj
 0001:0001b0f0       ??0?$_Not_within_traits@V?$char_traits@D@_STL@@@_STL@@QAE@PBD0@Z 0041c0f0 f i clib:strutil.obj
 0001:0001b110       ??0?$reverse_iterator@PBD@_STL@@QAE@PBD@Z 0041c110 f i clib:strutil.obj
 0001:0001b120       ??0?$reverse_iterator@PBD@_STL@@QAE@ABV01@@Z 0041c120 f i clib:strutil.obj
 0001:0001b130       ?base@?$reverse_iterator@PBD@_STL@@QBEPBDXZ 0041c130 f i clib:strutil.obj
 0001:0001b140       ??$?8DV?$char_traits@D@_STL@@V?$allocator@D@1@@_STL@@YA_NABV?$basic_string@DV?$char_traits@D@_STL@@V?$allocator@D@2@@0@0@Z 0041c140 f i clib:strutil.obj
 0001:0001b170       ??R?$_Eq_traits@V?$char_traits@D@_STL@@@_STL@@QBE_NABD0@Z 0041c170 f i clib:strutil.obj
 0001:0001b190       ??$?8PBD@_STL@@YA_NABV?$reverse_iterator@PBD@0@0@Z 0041c190 f i clib:strutil.obj
 0001:0001b1b0       ??D?$reverse_iterator@PBD@_STL@@QBEABDXZ 0041c1b0 f i clib:strutil.obj
 0001:0001b1c0       ??E?$reverse_iterator@PBD@_STL@@QAEAAV01@XZ 0041c1c0 f i clib:strutil.obj
 0001:0001b1d0       ??0?$_Eq_char_bound@V?$char_traits@D@_STL@@@_STL@@QAE@D@Z 0041c1d0 f i clib:strutil.obj
 0001:0001b1e0       ??$?GPBD@_STL@@YAHABV?$reverse_iterator@PBD@0@0@Z 0041c1e0 f i clib:strutil.obj
 0001:0001b1f0       ??R?$_Eq_char_bound@V?$char_traits@D@_STL@@@_STL@@QBE_NABD@Z 0041c1f0 f i clib:strutil.obj
 0001:0001b200       ?mklower@@YAXAAV?$basic_string@DV?$char_traits@D@_STL@@V?$allocator@D@2@@_STL@@@Z 0041c200 f   clib:strutil.obj
 0001:0001b230       ?mkupper@@YAXAAV?$basic_string@DV?$char_traits@D@_STL@@V?$allocator@D@2@@_STL@@@Z 0041c230 f   clib:strutil.obj
 0001:0001b260       ??$?9DV?$char_traits@D@_STL@@V?$allocator@D@1@@_STL@@YA_NABV?$basic_string@DV?$char_traits@D@_STL@@V?$allocator@D@2@@0@0@Z 0041c260 f i clib:strutil.obj
 0001:0001b2b0       ?rend@?$basic_string@DV?$char_traits@D@_STL@@V?$allocator@D@2@@_STL@@QBE?AV?$reverse_iterator@PBD@2@XZ 0041c2b0 f i clib:strutil.obj
 0001:0001b2c0       ??$__find_first_of@PBDPBDU?$_Eq_traits@V?$char_traits@D@_STL@@@_STL@@@_STL@@YAPBDPBD000U?$_Eq_traits@V?$char_traits@D@_STL@@@0@@Z 0041c2c0 f i clib:strutil.obj
 0001:0001b300       ??$?9PBD@_STL@@YA_NABV?$reverse_iterator@PBD@0@0@Z 0041c300 f i clib:strutil.obj
 0001:0001b320       ??$__find_if@PBDU?$_Eq_char_bound@V?$char_traits@D@_STL@@@_STL@@@_STL@@YAPBDPBD0U?$_Eq_char_bound@V?$char_traits@D@_STL@@@0@ABUrandom_access_iterator_tag@0@@Z 0041c320 f i clib:strutil.obj
 0001:0001b390       ?find_first_of@?$basic_string@DV?$char_traits@D@_STL@@V?$allocator@D@2@@_STL@@QBEIPBDII@Z 0041c390 f i clib:strutil.obj
 0001:0001b3e0       ??$find_if@PBDU?$_Eq_char_bound@V?$char_traits@D@_STL@@@_STL@@@_STL@@YAPBDPBD0U?$_Eq_char_bound@V?$char_traits@D@_STL@@@0@@Z 0041c3e0 f i clib:strutil.obj
 0001:0001b400       ?find_first_of@?$basic_string@DV?$char_traits@D@_STL@@V?$allocator@D@2@@_STL@@QBEIPBDI@Z 0041c400 f i clib:strutil.obj
 0001:0001b460       ??R?$_Not_within_traits@V?$char_traits@D@_STL@@@_STL@@QBE_NABD@Z 0041c460 f i clib:strutil.obj
 0001:0001b490       ??$_M_initialize_dispatch@PAD@?$basic_string@DV?$char_traits@D@_STL@@V?$allocator@D@2@@_STL@@AAEXPAD0ABU__false_type@1@@Z 0041c490 f i clib:strutil.obj
 0001:0001b4d0       ??$__find_if@PBDU?$_Not_within_traits@V?$char_traits@D@_STL@@@_STL@@@_STL@@YAPBDPBD0U?$_Not_within_traits@V?$char_traits@D@_STL@@@0@ABUrandom_access_iterator_tag@0@@Z 0041c4d0 f i clib:strutil.obj
 0001:0001b610       ??$__find_if@V?$reverse_iterator@PBD@_STL@@U?$_Not_within_traits@V?$char_traits@D@_STL@@@2@@_STL@@YA?AV?$reverse_iterator@PBD@0@V10@0U?$_Not_within_traits@V?$char_traits@D@_STL@@@0@ABUrandom_access_iterator_tag@0@@Z 0041c610 f i clib:strutil.obj
 0001:0001b7a0       ??$?0PAD@?$basic_string@DV?$char_traits@D@_STL@@V?$allocator@D@2@@_STL@@QAE@PAD0ABV?$allocator@D@1@@Z 0041c7a0 f i clib:strutil.obj
 0001:0001b820       ??$find_if@PBDU?$_Not_within_traits@V?$char_traits@D@_STL@@@_STL@@@_STL@@YAPBDPBD0U?$_Not_within_traits@V?$char_traits@D@_STL@@@0@@Z 0041c820 f i clib:strutil.obj
 0001:0001b850       ??$find_if@V?$reverse_iterator@PBD@_STL@@U?$_Not_within_traits@V?$char_traits@D@_STL@@@2@@_STL@@YA?AV?$reverse_iterator@PBD@0@V10@0U?$_Not_within_traits@V?$char_traits@D@_STL@@@0@@Z 0041c850 f i clib:strutil.obj
 0001:0001b890       ?strlower@@YA?AV?$basic_string@DV?$char_traits@D@_STL@@V?$allocator@D@2@@_STL@@ABV12@@Z 0041c890 f   clib:strutil.obj
 0001:0001b960       ?strupper@@YA?AV?$basic_string@DV?$char_traits@D@_STL@@V?$allocator@D@2@@_STL@@ABV12@@Z 0041c960 f   clib:strutil.obj
 0001:0001ba30       ??Y?$basic_string@DV?$char_traits@D@_STL@@V?$allocator@D@2@@_STL@@QAEAAV01@D@Z 0041ca30 f i clib:strutil.obj
 0001:0001ba50       ?substr@?$basic_string@DV?$char_traits@D@_STL@@V?$allocator@D@2@@_STL@@QBE?AV12@II@Z 0041ca50 f i clib:strutil.obj
 0001:0001bac0       ?find_first_not_of@?$basic_string@DV?$char_traits@D@_STL@@V?$allocator@D@2@@_STL@@QBEIPBDII@Z 0041cac0 f i clib:strutil.obj
 0001:0001bb10       ?find_last_not_of@?$basic_string@DV?$char_traits@D@_STL@@V?$allocator@D@2@@_STL@@QBEIPBDII@Z 0041cb10 f i clib:strutil.obj
 0001:0001bb90       ?find_first_not_of@?$basic_string@DV?$char_traits@D@_STL@@V?$allocator@D@2@@_STL@@QBEIPBDI@Z 0041cb90 f i clib:strutil.obj
 0001:0001bbf0       ?find_last_not_of@?$basic_string@DV?$char_traits@D@_STL@@V?$allocator@D@2@@_STL@@QBEIPBDI@Z 0041cbf0 f i clib:strutil.obj
 0001:0001bc20       ?decodequotedstring@@YAXAAV?$basic_string@DV?$char_traits@D@_STL@@V?$allocator@D@2@@_STL@@@Z 0041cc20 f   clib:strutil.obj
 0001:0001bdb0       ?encodequotedstring@@YAXAAV?$basic_string@DV?$char_traits@D@_STL@@V?$allocator@D@2@@_STL@@@Z 0041cdb0 f   clib:strutil.obj
 0001:0001bf00       ?getencodedquotedstring@@YA?AV?$basic_string@DV?$char_traits@D@_STL@@V?$allocator@D@2@@_STL@@ABV12@@Z 0041cf00 f   clib:strutil.obj
 0001:0001bfb0       ?test_dqs@@YAXABV?$basic_string@DV?$char_traits@D@_STL@@V?$allocator@D@2@@_STL@@0@Z 0041cfb0 f   clib:strutil.obj
 0001:0001c100       ?test_convertquotedstring@@YAXXZ 0041d100 f   clib:strutil.obj
 0001:0001c3d0       ?splitnamevalue@@YAXABV?$basic_string@DV?$char_traits@D@_STL@@V?$allocator@D@2@@_STL@@AAV12@1@Z 0041d3d0 f   clib:strutil.obj
 0001:0001c5e0       ?test_splitnamevalue@@YAXABV?$basic_string@DV?$char_traits@D@_STL@@V?$allocator@D@2@@_STL@@00@Z 0041d5e0 f   clib:strutil.obj
 0001:0001c730       ?test_splitnamevalue@@YAXXZ 0041d730 f   clib:strutil.obj
 0001:0001d1b0       ?hexint@@YA?AV?$basic_string@DV?$char_traits@D@_STL@@V?$allocator@D@2@@_STL@@G@Z 0041e1b0 f   clib:strutil.obj
 0001:0001d280       ?hexint@@YA?AV?$basic_string@DV?$char_traits@D@_STL@@V?$allocator@D@2@@_STL@@H@Z 0041e280 f   clib:strutil.obj
 0001:0001d350       ?hexint@@YA?AV?$basic_string@DV?$char_traits@D@_STL@@V?$allocator@D@2@@_STL@@I@Z 0041e350 f   clib:strutil.obj
 0001:0001d420       ?hexint@@YA?AV?$basic_string@DV?$char_traits@D@_STL@@V?$allocator@D@2@@_STL@@J@Z 0041e420 f   clib:strutil.obj
 0001:0001d4f0       ?hexint@@YA?AV?$basic_string@DV?$char_traits@D@_STL@@V?$allocator@D@2@@_STL@@K@Z 0041e4f0 f   clib:strutil.obj
 0001:0001d5c0       ?decint@@YA?AV?$basic_string@DV?$char_traits@D@_STL@@V?$allocator@D@2@@_STL@@G@Z 0041e5c0 f   clib:strutil.obj
 0001:0001d670       ?decint@@YA?AV?$basic_string@DV?$char_traits@D@_STL@@V?$allocator@D@2@@_STL@@I@Z 0041e670 f   clib:strutil.obj
 0001:0001d720       ?decint@@YA?AV?$basic_string@DV?$char_traits@D@_STL@@V?$allocator@D@2@@_STL@@H@Z 0041e720 f   clib:strutil.obj
 0001:0001d7d0       ?decint@@YA?AV?$basic_string@DV?$char_traits@D@_STL@@V?$allocator@D@2@@_STL@@J@Z 0041e7d0 f   clib:strutil.obj
 0001:0001d880       ?decint@@YA?AV?$basic_string@DV?$char_traits@D@_STL@@V?$allocator@D@2@@_STL@@K@Z 0041e880 f   clib:strutil.obj
 0001:0001d930       ?fill@_STL@@YAXPAD0ABD@Z   0041e930 f i clib:fileutil.obj
 0001:0001d960       ?assign@?$char_traits@D@_STL@@SAPADPADID@Z 0041e960 f i clib:fileutil.obj
 0001:0001d9a0       ?MakeDirectory@@YAXPBD@Z   0041e9a0 f   clib:fileutil.obj
 0001:0001d9b0       ?FileExists@@YA_NPBD@Z     0041e9b0 f   clib:fileutil.obj
 0001:0001d9d0       ?filesize@@YAJPBD@Z        0041e9d0 f   clib:fileutil.obj
 0001:0001da00       ?GetFileTimestamp@@YAKPBD@Z 0041ea00 f   clib:fileutil.obj
 0001:0001da30       ?length@?$basic_string@DV?$char_traits@D@_STL@@V?$allocator@D@2@@_STL@@QBEIXZ 0041ea30 f i clib:fileutil.obj
 0001:0001da40       ??$fill_n@I@_STL@@YAPADPADIABD@Z 0041ea40 f i clib:fileutil.obj
 0001:0001da80       ?FileExists@@YA_NABV?$basic_string@DV?$char_traits@D@_STL@@V?$allocator@D@2@@_STL@@@Z 0041ea80 f   clib:fileutil.obj
 0001:0001daa0       ?RemoveFile@@YAXABV?$basic_string@DV?$char_traits@D@_STL@@V?$allocator@D@2@@_STL@@@Z 0041eaa0 f   clib:fileutil.obj
 0001:0001dab0       ??$__uninitialized_fill_n@PADID@_STL@@YAPADPADIABDABU__true_type@0@@Z 0041eab0 f i clib:fileutil.obj
 0001:0001daf0       ?erase@?$basic_string@DV?$char_traits@D@_STL@@V?$allocator@D@2@@_STL@@QAEAAV12@II@Z 0041eaf0 f i clib:fileutil.obj
 0001:0001db70       ??$__find_first_of@V?$reverse_iterator@PBD@_STL@@PBDU?$_Eq_traits@V?$char_traits@D@_STL@@@2@@_STL@@YA?AV?$reverse_iterator@PBD@0@V10@0PBD1U?$_Eq_traits@V?$char_traits@D@_STL@@@0@@Z 0041eb70 f i clib:fileutil.obj
 0001:0001dbc0       ??$uninitialized_fill_n@PADID@_STL@@YAPADPADIABD@Z 0041ebc0 f i clib:fileutil.obj
 0001:0001dc00       ?find@?$basic_string@DV?$char_traits@D@_STL@@V?$allocator@D@2@@_STL@@QBEIDI@Z 0041ec00 f i clib:fileutil.obj
 0001:0001dc50       ?find_last_of@?$basic_string@DV?$char_traits@D@_STL@@V?$allocator@D@2@@_STL@@QBEIPBDII@Z 0041ec50 f i clib:fileutil.obj
 0001:0001dcd0       ?find@?$basic_string@DV?$char_traits@D@_STL@@V?$allocator@D@2@@_STL@@QBEID@Z 0041ecd0 f i clib:fileutil.obj
 0001:0001dd10       ?find_last_of@?$basic_string@DV?$char_traits@D@_STL@@V?$allocator@D@2@@_STL@@QBEIPBDI@Z 0041ed10 f i clib:fileutil.obj
 0001:0001dd40       ?insert@?$basic_string@DV?$char_traits@D@_STL@@V?$allocator@D@2@@_STL@@QAEXPADID@Z 0041ed40 f i clib:fileutil.obj
 0001:0001df10       ?FullPath@@YA?AV?$basic_string@DV?$char_traits@D@_STL@@V?$allocator@D@2@@_STL@@PBD@Z 0041ef10 f   clib:fileutil.obj
 0001:0001df60       ?GetTrueName@@YA?AV?$basic_string@DV?$char_traits@D@_STL@@V?$allocator@D@2@@_STL@@PBD@Z 0041ef60 f   clib:fileutil.obj
 0001:0001e010       ?replace@?$basic_string@DV?$char_traits@D@_STL@@V?$allocator@D@2@@_STL@@QAEAAV12@PAD0ID@Z 0041f010 f i clib:fileutil.obj
 0001:0001e0d0       ?replace@?$basic_string@DV?$char_traits@D@_STL@@V?$allocator@D@2@@_STL@@QAEAAV12@IIID@Z 0041f0d0 f i clib:fileutil.obj
 0001:0001e160       ?GetFilePart@@YA?AV?$basic_string@DV?$char_traits@D@_STL@@V?$allocator@D@2@@_STL@@PBD@Z 0041f160 f   clib:fileutil.obj
 0001:0001e240       ?normalized_dir_form@@YA?AV?$basic_string@DV?$char_traits@D@_STL@@V?$allocator@D@2@@_STL@@ABV12@@Z 0041f240 f   clib:fileutil.obj
 0001:0001e3e0       ?IsDirectory@@YA_NPBD@Z    0041f3e0 f   clib:fileutil.obj
 0001:0001e510       ?strip_one@@YAHAAV?$basic_string@DV?$char_traits@D@_STL@@V?$allocator@D@2@@_STL@@@Z 0041f510 f   clib:fileutil.obj
 0001:0001e5f0       ?make_dir@@YAHPBD@Z        0041f5f0 f   clib:fileutil.obj
 0001:0001e8a0       ?fdump@@YAXPAU_iobuf@@PBXH@Z 0041f8a0 f   clib:fdump.obj
 0001:0001e8f0       ?TopLevelFilter@HiddenMiniDumper@@SGJPAU_EXCEPTION_POINTERS@@@Z 0041f8f0 f   clib:mdump.obj
 0001:0001ebf0       ?Initialize@HiddenMiniDumper@@SAHXZ 0041fbf0 f   clib:mdump.obj
 0001:0001ecf0       ?Initialize@MiniDumper@@SAXXZ 0041fcf0 f   clib:mdump.obj
 0001:0001ed00       ?SetMiniDumpType@MiniDumper@@SAXABV?$basic_string@DV?$char_traits@D@_STL@@V?$allocator@D@2@@_STL@@@Z 0041fd00 f   clib:mdump.obj
 0001:0001ed30       ?control_handler@@YGHK@Z   0041fd30 f   clib:esignal.obj
 0001:0001ed70       ?enable_exit_signaller@@YAXXZ 0041fd70 f   clib:esignal.obj
 0001:0001ed80       ?Log@@YAXPADZZ             0041fd80 f   clib:logfile.obj
 0001:0001ef50       ?Log2@@YAXPADZZ            0041ff50 f   clib:logfile.obj
 0001:0001f140       ?OpenLogFileName@@YAHPBD_N@Z 00420140 f   clib:logfile.obj
 0001:0001f270       ?OpenLogFile@@YAHXZ        00420270 f   clib:logfile.obj
 0001:0001f280       ?CloseLogFile@@YAXXZ       00420280 f   clib:logfile.obj
 0001:0001f2b0       ??0DirList@@QAE@XZ         004202b0 f   clib:dirlist.obj
 0001:0001f2c0       ??1DirList@@QAE@XZ         004202c0 f   clib:dirlist.obj
 0001:0001f2f0       ?open@DirList@@QAEXPBD@Z   004202f0 f   clib:dirlist.obj
 0001:0001f320       ?at_end@DirList@@QBE_NXZ   00420320 f   clib:dirlist.obj
 0001:0001f330       ?next@DirList@@QAEXXZ      00420330 f   clib:dirlist.obj
 0001:0001f370       ??0PushDir@@QAE@PBD@Z      00420370 f   clib:dirlist.obj
 0001:0001f3a0       ??1PushDir@@QAE@XZ         004203a0 f   clib:dirlist.obj
 0001:0001f3b0       ?ok@PushDir@@QBE_NXZ       004203b0 f   clib:dirlist.obj
 0001:0001f3c0       ?name@DirList@@QBE?AV?$basic_string@DV?$char_traits@D@_STL@@V?$allocator@D@2@@_STL@@XZ 004203c0 f   clib:dirlist.obj
 0001:0001f3f0       ?curdir@@YA?AV?$basic_string@DV?$char_traits@D@_STL@@V?$allocator@D@2@@_STL@@XZ 004203f0 f   clib:dirlist.obj
 0001:0001f4d0       ??0DirList@@QAE@PBD@Z      004204d0 f   clib:dirlist.obj
 0001:0001f590       ??1structured_exception@@UAE@XZ 00420590 f i clib:strexcpt.obj
 0001:0001f5a0       ?InstallStructuredExceptionHandler@@YAXXZ 004205a0 f   clib:strexcpt.obj
 0001:0001f5c0       ??0structured_exception@@QAE@IPBD@Z 004205c0 f i clib:strexcpt.obj
 0001:0001f660       ??_Gstructured_exception@@UAEPAXI@Z 00420660 f i clib:strexcpt.obj
 0001:0001f660       ??_Estructured_exception@@UAEPAXI@Z 00420660 f i clib:strexcpt.obj
 0001:0001f680       ??0access_violation@@QAE@XZ 00420680 f i clib:strexcpt.obj
 0001:0001f6a0       ??_Gaccess_violation@@UAEPAXI@Z 004206a0 f i clib:strexcpt.obj
 0001:0001f6a0       ??_Eaccess_violation@@UAEPAXI@Z 004206a0 f i clib:strexcpt.obj
 0001:0001f6c0       ??1access_violation@@UAE@XZ 004206c0 f i clib:strexcpt.obj
 0001:0001f6d0       ?se_trans_func@@YAXIPAU_EXCEPTION_POINTERS@@@Z 004206d0 f   clib:strexcpt.obj
 0001:0001fdd0       ??0structured_exception@@QAE@ABV0@@Z 00420dd0 f i clib:strexcpt.obj
 0001:0001fe10       ??0access_violation@@QAE@ABV0@@Z 00420e10 f i clib:strexcpt.obj
 0001:0001fe60       ?alt_se_trans_func@@YAXIPAU_EXCEPTION_POINTERS@@@Z 00420e60 f   clib:strexcpt.obj
 0001:0001ff00       ?InstallOldStructuredExceptionHandler@@YAXXZ 00420f00 f   clib:strexcpt.obj
 0001:0001ff20       __tcsrchr                  00420f20 f i clib:msjexhnd.obj
 0001:0001ff30       ??0MSJExceptionHandler@@QAE@XZ 00420f30 f   clib:msjexhnd.obj
 0001:0001ff80       ??1MSJExceptionHandler@@QAE@XZ 00420f80 f   clib:msjexhnd.obj
 0001:0001ff90       ?SetLogFileName@MSJExceptionHandler@@QAEXPAD@Z 00420f90 f   clib:msjexhnd.obj
 0001:0001ffb0       ?GetExceptionString@MSJExceptionHandler@@CAPADK@Z 00420fb0 f   clib:msjexhnd.obj
 0001:00020220       ?printf@MSJExceptionHandler@@CAHPBDZZ 00421220 f   clib:msjexhnd.obj
 0001:00020290       ?InitImagehlpFunctions@MSJExceptionHandler@@CAHXZ 00421290 f   clib:msjexhnd.obj
 0001:00020330       ??$max@K@_STL@@YAABKABK0@Z 00421330 f i clib:msjexhnd.obj
 0001:00020350       ?GetLogicalAddress@MSJExceptionHandler@@CAHPAXPADKAAK2@Z 00421350 f   clib:msjexhnd.obj
 0001:00020400       ?IntelStackWalk@MSJExceptionHandler@@CAXPAU_CONTEXT@@@Z 00421400 f   clib:msjexhnd.obj
 0001:00020510       ?ImagehlpStackWalk@MSJExceptionHandler@@CAXPAU_CONTEXT@@@Z 00421510 f   clib:msjexhnd.obj
 0001:000206d0       ?GenerateExceptionReport@MSJExceptionHandler@@SAXPAU_EXCEPTION_POINTERS@@@Z 004216d0 f   clib:msjexhnd.obj
 0001:00020850       ?MSJUnhandledExceptionFilter@MSJExceptionHandler@@SGJPAU_EXCEPTION_POINTERS@@@Z 00421850 f   clib:msjexhnd.obj
 0001:000208c0       ?_M_release_lock@_STLP_mutex_base@_STL@@QAEXXZ 004218c0 f i stlport_vc71_static:locale_impl.obj
 0001:000208d0       ??0_Refcount_Base@_STL@@QAE@J@Z 004218d0 f i stlport_vc71_static:locale_impl.obj
 0001:000208e0       ?_Atomic_swap@_STL@@YAJPCJJ@Z 004218e0 f i stlport_vc71_static:locale_impl.obj
 0001:00020900       ??1_STLP_auto_lock@_STL@@QAE@XZ 00421900 f i stlport_vc71_static:locale_impl.obj
 0001:00020910       ?__stlp_chunk_malloc@@YAPAXI@Z 00421910 f i stlport_vc71_static:locale_impl.obj
 0001:00020920       ??0facet@locale@_STL@@IAE@I@Z 00421920 f i stlport_vc71_static:locale_impl.obj
 0001:00020940       ?size@_Locale_impl@_STL@@QBEIXZ 00421940 f i stlport_vc71_static:locale_impl.obj
 0001:00020950       ?_S_copy_impl@_STL@@YAPAV_Locale_impl@1@PAV21@@Z 00421950 f i stlport_vc71_static:locale_impl.obj
 0001:00020960       ?incr@_Locale_impl@_STL@@UAEXXZ 00421960 f   stlport_vc71_static:locale_impl.obj
 0001:00020970       ?decr@_Locale_impl@_STL@@UAEXXZ 00421970 f   stlport_vc71_static:locale_impl.obj
 0001:00020980       ?_M_throw_bad_cast@_Locale_impl@_STL@@SAXXZ 00421980 f   stlport_vc71_static:locale_impl.obj
 0001:00020ab0       ??1facet@locale@_STL@@MAE@XZ 00421ab0 f   stlport_vc71_static:locale_impl.obj
 0001:00020ac0       ?_S_uninitialize@locale@_STL@@SAXXZ 00421ac0 f   stlport_vc71_static:locale_impl.obj
 0001:00020ae0       ??0locale@_STL@@QAE@XZ     00421ae0 f   stlport_vc71_static:locale_impl.obj
 0001:00020b00       ??0locale@_STL@@QAE@PAV_Locale_impl@1@@Z 00421b00 f   stlport_vc71_static:locale_impl.obj
 0001:00020b10       ??0locale@_STL@@QAE@ABV01@@Z 00421b10 f   stlport_vc71_static:locale_impl.obj
 0001:00020b30       ??1locale@_STL@@QAE@XZ     00421b30 f   stlport_vc71_static:locale_impl.obj
 0001:00020b50       ??4locale@_STL@@QAEABV01@ABV01@@Z 00421b50 f   stlport_vc71_static:locale_impl.obj
 0001:00020b80       ?_M_get_facet@locale@_STL@@QBEPAVfacet@12@ABVid@12@@Z 00421b80 f   stlport_vc71_static:locale_impl.obj
 0001:00020ba0       ?_M_use_facet@locale@_STL@@QBEPAVfacet@12@ABVid@12@@Z 00421ba0 f   stlport_vc71_static:locale_impl.obj
 0001:00020bc0       ?classic@locale@_STL@@SAABV12@XZ 00421bc0 f   stlport_vc71_static:locale_impl.obj
 0001:00020bd0       ??0?$money_get@DV?$istreambuf_iterator@DV?$char_traits@D@_STL@@@_STL@@@_STL@@QAE@I@Z 00421bd0 f i stlport_vc71_static:locale_impl.obj
 0001:00020bf0       ??0?$money_put@DV?$ostreambuf_iterator@DV?$char_traits@D@_STL@@@_STL@@@_STL@@QAE@I@Z 00421bf0 f i stlport_vc71_static:locale_impl.obj
 0001:00020c10       ??0?$num_get@DV?$istreambuf_iterator@DV?$char_traits@D@_STL@@@_STL@@@_STL@@QAE@I@Z 00421c10 f i stlport_vc71_static:locale_impl.obj
 0001:00020c30       ??0?$num_put@DV?$ostreambuf_iterator@DV?$char_traits@D@_STL@@@_STL@@@_STL@@QAE@I@Z 00421c30 f i stlport_vc71_static:locale_impl.obj
 0001:00020c50       ??0?$money_get@GV?$istreambuf_iterator@GV?$char_traits@G@_STL@@@_STL@@@_STL@@QAE@I@Z 00421c50 f i stlport_vc71_static:locale_impl.obj
 0001:00020c70       ??0?$money_put@GV?$ostreambuf_iterator@GV?$char_traits@G@_STL@@@_STL@@@_STL@@QAE@I@Z 00421c70 f i stlport_vc71_static:locale_impl.obj
 0001:00020c90       ??0?$num_get@GV?$istreambuf_iterator@GV?$char_traits@G@_STL@@@_STL@@@_STL@@QAE@I@Z 00421c90 f i stlport_vc71_static:locale_impl.obj
 0001:00020cb0       ??0?$num_put@GV?$ostreambuf_iterator@GV?$char_traits@G@_STL@@@_STL@@@_STL@@QAE@I@Z 00421cb0 f i stlport_vc71_static:locale_impl.obj
 0001:00020cd0       ??_G?$money_get@DV?$istreambuf_iterator@DV?$char_traits@D@_STL@@@_STL@@@_STL@@MAEPAXI@Z 00421cd0 f i stlport_vc71_static:locale_impl.obj
 0001:00020cd0       ??_E?$money_get@DV?$istreambuf_iterator@DV?$char_traits@D@_STL@@@_STL@@@_STL@@MAEPAXI@Z 00421cd0 f i stlport_vc71_static:locale_impl.obj
 0001:00020cf0       ??1?$money_get@DV?$istreambuf_iterator@DV?$char_traits@D@_STL@@@_STL@@@_STL@@MAE@XZ 00421cf0 f i stlport_vc71_static:locale_impl.obj
 0001:00020d00       ??_E?$money_put@DV?$ostreambuf_iterator@DV?$char_traits@D@_STL@@@_STL@@@_STL@@MAEPAXI@Z 00421d00 f i stlport_vc71_static:locale_impl.obj
 0001:00020d00       ??_G?$money_put@DV?$ostreambuf_iterator@DV?$char_traits@D@_STL@@@_STL@@@_STL@@MAEPAXI@Z 00421d00 f i stlport_vc71_static:locale_impl.obj
 0001:00020d20       ??1?$money_put@DV?$ostreambuf_iterator@DV?$char_traits@D@_STL@@@_STL@@@_STL@@MAE@XZ 00421d20 f i stlport_vc71_static:locale_impl.obj
 0001:00020d30       ??_G?$num_get@DV?$istreambuf_iterator@DV?$char_traits@D@_STL@@@_STL@@@_STL@@MAEPAXI@Z 00421d30 f i stlport_vc71_static:locale_impl.obj
 0001:00020d30       ??_E?$num_get@DV?$istreambuf_iterator@DV?$char_traits@D@_STL@@@_STL@@@_STL@@MAEPAXI@Z 00421d30 f i stlport_vc71_static:locale_impl.obj
 0001:00020d50       ??1?$num_get@DV?$istreambuf_iterator@DV?$char_traits@D@_STL@@@_STL@@@_STL@@MAE@XZ 00421d50 f i stlport_vc71_static:locale_impl.obj
 0001:00020d60       ??_G?$num_put@DV?$ostreambuf_iterator@DV?$char_traits@D@_STL@@@_STL@@@_STL@@MAEPAXI@Z 00421d60 f i stlport_vc71_static:locale_impl.obj
 0001:00020d60       ??_E?$num_put@DV?$ostreambuf_iterator@DV?$char_traits@D@_STL@@@_STL@@@_STL@@MAEPAXI@Z 00421d60 f i stlport_vc71_static:locale_impl.obj
 0001:00020d80       ??1?$num_put@DV?$ostreambuf_iterator@DV?$char_traits@D@_STL@@@_STL@@@_STL@@MAE@XZ 00421d80 f i stlport_vc71_static:locale_impl.obj
 0001:00020d90       ??_E?$money_get@GV?$istreambuf_iterator@GV?$char_traits@G@_STL@@@_STL@@@_STL@@MAEPAXI@Z 00421d90 f i stlport_vc71_static:locale_impl.obj
 0001:00020d90       ??_G?$money_get@GV?$istreambuf_iterator@GV?$char_traits@G@_STL@@@_STL@@@_STL@@MAEPAXI@Z 00421d90 f i stlport_vc71_static:locale_impl.obj
 0001:00020db0       ??1?$money_get@GV?$istreambuf_iterator@GV?$char_traits@G@_STL@@@_STL@@@_STL@@MAE@XZ 00421db0 f i stlport_vc71_static:locale_impl.obj
 0001:00020dc0       ??_G?$money_put@GV?$ostreambuf_iterator@GV?$char_traits@G@_STL@@@_STL@@@_STL@@MAEPAXI@Z 00421dc0 f i stlport_vc71_static:locale_impl.obj
 0001:00020dc0       ??_E?$money_put@GV?$ostreambuf_iterator@GV?$char_traits@G@_STL@@@_STL@@@_STL@@MAEPAXI@Z 00421dc0 f i stlport_vc71_static:locale_impl.obj
 0001:00020de0       ??1?$money_put@GV?$ostreambuf_iterator@GV?$char_traits@G@_STL@@@_STL@@@_STL@@MAE@XZ 00421de0 f i stlport_vc71_static:locale_impl.obj
 0001:00020df0       ??_G?$num_get@GV?$istreambuf_iterator@GV?$char_traits@G@_STL@@@_STL@@@_STL@@MAEPAXI@Z 00421df0 f i stlport_vc71_static:locale_impl.obj
 0001:00020df0       ??_E?$num_get@GV?$istreambuf_iterator@GV?$char_traits@G@_STL@@@_STL@@@_STL@@MAEPAXI@Z 00421df0 f i stlport_vc71_static:locale_impl.obj
 0001:00020e10       ??1?$num_get@GV?$istreambuf_iterator@GV?$char_traits@G@_STL@@@_STL@@@_STL@@MAE@XZ 00421e10 f i stlport_vc71_static:locale_impl.obj
 0001:00020e20       ??_G?$num_put@GV?$ostreambuf_iterator@GV?$char_traits@G@_STL@@@_STL@@@_STL@@MAEPAXI@Z 00421e20 f i stlport_vc71_static:locale_impl.obj
 0001:00020e20       ??_E?$num_put@GV?$ostreambuf_iterator@GV?$char_traits@G@_STL@@@_STL@@@_STL@@MAEPAXI@Z 00421e20 f i stlport_vc71_static:locale_impl.obj
 0001:00020e40       ??1?$num_put@GV?$ostreambuf_iterator@GV?$char_traits@G@_STL@@@_STL@@@_STL@@MAE@XZ 00421e40 f i stlport_vc71_static:locale_impl.obj
 0001:00020e50       ?do_put@?$num_put@DV?$ostreambuf_iterator@DV?$char_traits@D@_STL@@@_STL@@@_STL@@MBE?AV?$ostreambuf_iterator@DV?$char_traits@D@_STL@@@2@V32@AAVios_base@2@DPBX@Z 00421e50 f i stlport_vc71_static:locale_impl.obj
 0001:00020ec0       ?do_put@?$num_put@GV?$ostreambuf_iterator@GV?$char_traits@G@_STL@@@_STL@@@_STL@@MBE?AV?$ostreambuf_iterator@GV?$char_traits@G@_STL@@@2@V32@AAVios_base@2@GPBX@Z 00421ec0 f i stlport_vc71_static:locale_impl.obj
 0001:00020f30       ??1?$_Node_Alloc_Lock@$00$0A@@_STL@@QAE@XZ 00421f30 f i stlport_vc71_static:locale_impl.obj
 0001:00020f40       ?_S_nsec_sleep@?$_STLP_mutex_spin@$0A@@_STL@@SAXH@Z 00421f40 f i stlport_vc71_static:locale_impl.obj
 0001:00020f70       ?_S_round_up@?$__node_alloc@$00$0A@@_STL@@SAII@Z 00421f70 f i stlport_vc71_static:locale_impl.obj
 0001:00020f80       ?_S_chunk_alloc@?$__node_alloc@$00$0A@@_STL@@CAPADIAAH@Z 00421f80 f i stlport_vc71_static:locale_impl.obj
 0001:000210b0       ??_Gfacet@locale@_STL@@MAEPAXI@Z 004220b0 f i stlport_vc71_static:locale_impl.obj
 0001:000210b0       ??_Efacet@locale@_STL@@MAEPAXI@Z 004220b0 f i stlport_vc71_static:locale_impl.obj
 0001:000210d0       ??0?$ctype@G@_STL@@QAE@I@Z 004220d0 f i stlport_vc71_static:locale_impl.obj
 0001:000210f0       ??_E?$ctype@G@_STL@@MAEPAXI@Z 004220f0 f i stlport_vc71_static:locale_impl.obj
 0001:000210f0       ??_G?$ctype@G@_STL@@MAEPAXI@Z 004220f0 f i stlport_vc71_static:locale_impl.obj
 0001:00021110       ??0?$codecvt@DDH@_STL@@QAE@I@Z 00422110 f i stlport_vc71_static:locale_impl.obj
 0001:00021130       ??_G?$codecvt@DDH@_STL@@MAEPAXI@Z 00422130 f i stlport_vc71_static:locale_impl.obj
 0001:00021130       ??_E?$codecvt@DDH@_STL@@MAEPAXI@Z 00422130 f i stlport_vc71_static:locale_impl.obj
 0001:00021150       ??0?$codecvt@GDH@_STL@@QAE@I@Z 00422150 f i stlport_vc71_static:locale_impl.obj
 0001:00021170       ??_E?$codecvt@GDH@_STL@@MAEPAXI@Z 00422170 f i stlport_vc71_static:locale_impl.obj
 0001:00021170       ??_G?$codecvt@GDH@_STL@@MAEPAXI@Z 00422170 f i stlport_vc71_static:locale_impl.obj
 0001:00021190       ??0?$collate@D@_STL@@QAE@I@Z 00422190 f i stlport_vc71_static:locale_impl.obj
 0001:000211b0       ??_E?$collate@D@_STL@@MAEPAXI@Z 004221b0 f i stlport_vc71_static:locale_impl.obj
 0001:000211b0       ??_G?$collate@D@_STL@@MAEPAXI@Z 004221b0 f i stlport_vc71_static:locale_impl.obj
 0001:000211d0       ??0?$collate@G@_STL@@QAE@I@Z 004221d0 f i stlport_vc71_static:locale_impl.obj
 0001:000211f0       ??_E?$collate@G@_STL@@MAEPAXI@Z 004221f0 f i stlport_vc71_static:locale_impl.obj
 0001:000211f0       ??_G?$collate@G@_STL@@MAEPAXI@Z 004221f0 f i stlport_vc71_static:locale_impl.obj
 0001:00021210       ??0?$numpunct@D@_STL@@QAE@I@Z 00422210 f i stlport_vc71_static:locale_impl.obj
 0001:00021230       ??_G?$numpunct@D@_STL@@MAEPAXI@Z 00422230 f i stlport_vc71_static:locale_impl.obj
 0001:00021230       ??_E?$numpunct@D@_STL@@MAEPAXI@Z 00422230 f i stlport_vc71_static:locale_impl.obj
 0001:00021250       ??0?$numpunct@G@_STL@@QAE@I@Z 00422250 f i stlport_vc71_static:locale_impl.obj
 0001:00021270       ??_G?$numpunct@G@_STL@@MAEPAXI@Z 00422270 f i stlport_vc71_static:locale_impl.obj
 0001:00021270       ??_E?$numpunct@G@_STL@@MAEPAXI@Z 00422270 f i stlport_vc71_static:locale_impl.obj
 0001:00021290       ??1_Loc_init@ios_base@_STL@@QAE@XZ 00422290 f   stlport_vc71_static:locale_impl.obj
 0001:000212b0       ?_M_do_lock@?$_STLP_mutex_spin@$0A@@_STL@@SAXPCJ@Z 004222b0 f i stlport_vc71_static:locale_impl.obj
 0001:000213a0       ?_S_refill@?$__node_alloc@$00$0A@@_STL@@CAPAXI@Z 004223a0 f i stlport_vc71_static:locale_impl.obj
 0001:00021410       ?_M_acquire_lock@_STLP_mutex_base@_STL@@QAEXXZ 00422410 f i stlport_vc71_static:locale_impl.obj
 0001:00021420       ??0_STLP_auto_lock@_STL@@QAE@AAU_STLP_mutex_base@1@@Z 00422420 f i stlport_vc71_static:locale_impl.obj
 0001:00021440       ??0?$_Node_Alloc_Lock@$00$0A@@_STL@@QAE@XZ 00422440 f i stlport_vc71_static:locale_impl.obj
 0001:00021460       ?_M_allocate@?$__node_alloc@$00$0A@@_STL@@CAPAXI@Z 00422460 f i stlport_vc71_static:locale_impl.obj
 0001:000214d0       ?do_get@?$num_get@DV?$istreambuf_iterator@DV?$char_traits@D@_STL@@@_STL@@@_STL@@MBE?AV?$istreambuf_iterator@DV?$char_traits@D@_STL@@@2@V32@0AAVios_base@2@AAHAA_K@Z 004224d0 f i stlport_vc71_static:locale_impl.obj
 0001:00021500       ??$_M_do_get_integer@V?$istreambuf_iterator@DV?$char_traits@D@_STL@@@_STL@@_KD@_STL@@YA?AV?$istreambuf_iterator@DV?$char_traits@D@_STL@@@0@AAV10@0AAVios_base@0@AAHAA_KPAD@Z 00422500 f i stlport_vc71_static:locale_impl.obj
 0001:00021610       ?_M_getc@?$istreambuf_iterator@DV?$char_traits@D@_STL@@@_STL@@ABEXXZ 00422610 f i stlport_vc71_static:locale_impl.obj
 0001:00021640       ??$_M_get_base_or_zero@V?$istreambuf_iterator@DV?$char_traits@D@_STL@@@_STL@@D@_STL@@YAHAAV?$istreambuf_iterator@DV?$char_traits@D@_STL@@@0@0AAVios_base@0@PAD@Z 00422640 f i stlport_vc71_static:locale_impl.obj
 0001:00021870       ??$__get_integer@V?$istreambuf_iterator@DV?$char_traits@D@_STL@@@_STL@@_K@_STL@@YA_NAAV?$istreambuf_iterator@DV?$char_traits@D@_STL@@@0@0HAA_KH_NDABV?$basic_string@DV?$char_traits@D@_STL@@V?$allocator@D@2@@0@ABU__false_type@0@@Z 00422870 f i stlport_vc71_static:locale_impl.obj
 0001:00021a80       ?do_get@?$num_get@DV?$istreambuf_iterator@DV?$char_traits@D@_STL@@@_STL@@@_STL@@MBE?AV?$istreambuf_iterator@DV?$char_traits@D@_STL@@@2@V32@0AAVios_base@2@AAHAA_J@Z 00422a80 f i stlport_vc71_static:locale_impl.obj
 0001:00021ab0       ??$_M_do_get_integer@V?$istreambuf_iterator@DV?$char_traits@D@_STL@@@_STL@@_JD@_STL@@YA?AV?$istreambuf_iterator@DV?$char_traits@D@_STL@@@0@AAV10@0AAVios_base@0@AAHAA_JPAD@Z 00422ab0 f i stlport_vc71_static:locale_impl.obj
 0001:00021bc0       ??$__get_integer@V?$istreambuf_iterator@DV?$char_traits@D@_STL@@@_STL@@_J@_STL@@YA_NAAV?$istreambuf_iterator@DV?$char_traits@D@_STL@@@0@0HAA_JH_NDABV?$basic_string@DV?$char_traits@D@_STL@@V?$allocator@D@2@@0@ABU__true_type@0@@Z 00422bc0 f i stlport_vc71_static:locale_impl.obj
 0001:00021de0       ?do_get@?$num_get@DV?$istreambuf_iterator@DV?$char_traits@D@_STL@@@_STL@@@_STL@@MBE?AV?$istreambuf_iterator@DV?$char_traits@D@_STL@@@2@V32@0AAVios_base@2@AAHAAPAX@Z 00422de0 f i stlport_vc71_static:locale_impl.obj
 0001:00021e40       ?do_get@?$num_get@DV?$istreambuf_iterator@DV?$char_traits@D@_STL@@@_STL@@@_STL@@MBE?AV?$istreambuf_iterator@DV?$char_traits@D@_STL@@@2@V32@0AAVios_base@2@AAHAAK@Z 00422e40 f i stlport_vc71_static:locale_impl.obj
 0001:00021e70       ??$_M_do_get_integer@V?$istreambuf_iterator@DV?$char_traits@D@_STL@@@_STL@@KD@_STL@@YA?AV?$istreambuf_iterator@DV?$char_traits@D@_STL@@@0@AAV10@0AAVios_base@0@AAHAAKPAD@Z 00422e70 f i stlport_vc71_static:locale_impl.obj
 0001:00021f70       ??$__get_integer@V?$istreambuf_iterator@DV?$char_traits@D@_STL@@@_STL@@K@_STL@@YA_NAAV?$istreambuf_iterator@DV?$char_traits@D@_STL@@@0@0HAAKH_NDABV?$basic_string@DV?$char_traits@D@_STL@@V?$allocator@D@2@@0@ABU__false_type@0@@Z 00422f70 f i stlport_vc71_static:locale_impl.obj
 0001:00022100       ?do_get@?$num_get@DV?$istreambuf_iterator@DV?$char_traits@D@_STL@@@_STL@@@_STL@@MBE?AV?$istreambuf_iterator@DV?$char_traits@D@_STL@@@2@V32@0AAVios_base@2@AAHAAI@Z 00423100 f i stlport_vc71_static:locale_impl.obj
 0001:00022130       ??$_M_do_get_integer@V?$istreambuf_iterator@DV?$char_traits@D@_STL@@@_STL@@ID@_STL@@YA?AV?$istreambuf_iterator@DV?$char_traits@D@_STL@@@0@AAV10@0AAVios_base@0@AAHAAIPAD@Z 00423130 f i stlport_vc71_static:locale_impl.obj
 0001:00022230       ??$__get_integer@V?$istreambuf_iterator@DV?$char_traits@D@_STL@@@_STL@@I@_STL@@YA_NAAV?$istreambuf_iterator@DV?$char_traits@D@_STL@@@0@0HAAIH_NDABV?$basic_string@DV?$char_traits@D@_STL@@V?$allocator@D@2@@0@ABU__false_type@0@@Z 00423230 f i stlport_vc71_static:locale_impl.obj
 0001:000223c0       ?do_get@?$num_get@DV?$istreambuf_iterator@DV?$char_traits@D@_STL@@@_STL@@@_STL@@MBE?AV?$istreambuf_iterator@DV?$char_traits@D@_STL@@@2@V32@0AAVios_base@2@AAHAAG@Z 004233c0 f i stlport_vc71_static:locale_impl.obj
 0001:000223f0       ??$_M_do_get_integer@V?$istreambuf_iterator@DV?$char_traits@D@_STL@@@_STL@@GD@_STL@@YA?AV?$istreambuf_iterator@DV?$char_traits@D@_STL@@@0@AAV10@0AAVios_base@0@AAHAAGPAD@Z 004233f0 f i stlport_vc71_static:locale_impl.obj
 0001:000224f0       ??$__get_integer@V?$istreambuf_iterator@DV?$char_traits@D@_STL@@@_STL@@G@_STL@@YA_NAAV?$istreambuf_iterator@DV?$char_traits@D@_STL@@@0@0HAAGH_NDABV?$basic_string@DV?$char_traits@D@_STL@@V?$allocator@D@2@@0@ABU__false_type@0@@Z 004234f0 f i stlport_vc71_static:locale_impl.obj
 0001:00022680       ?do_get@?$num_get@DV?$istreambuf_iterator@DV?$char_traits@D@_STL@@@_STL@@@_STL@@MBE?AV?$istreambuf_iterator@DV?$char_traits@D@_STL@@@2@V32@0AAVios_base@2@AAHAAJ@Z 00423680 f i stlport_vc71_static:locale_impl.obj
 0001:000226b0       ??$_M_do_get_integer@V?$istreambuf_iterator@DV?$char_traits@D@_STL@@@_STL@@JD@_STL@@YA?AV?$istreambuf_iterator@DV?$char_traits@D@_STL@@@0@AAV10@0AAVios_base@0@AAHAAJPAD@Z 004236b0 f i stlport_vc71_static:locale_impl.obj
 0001:000227b0       ??$__get_integer@V?$istreambuf_iterator@DV?$char_traits@D@_STL@@@_STL@@J@_STL@@YA_NAAV?$istreambuf_iterator@DV?$char_traits@D@_STL@@@0@0HAAJH_NDABV?$basic_string@DV?$char_traits@D@_STL@@V?$allocator@D@2@@0@ABU__true_type@0@@Z 004237b0 f i stlport_vc71_static:locale_impl.obj
 0001:00022950       ?_M_deallocate@?$__node_alloc@$00$0A@@_STL@@CAXPAXI@Z 00423950 f i stlport_vc71_static:locale_impl.obj
 0001:00022990       ?do_get@?$num_get@GV?$istreambuf_iterator@GV?$char_traits@G@_STL@@@_STL@@@_STL@@MBE?AV?$istreambuf_iterator@GV?$char_traits@G@_STL@@@2@V32@0AAVios_base@2@AAHAA_K@Z 00423990 f i stlport_vc71_static:locale_impl.obj
 0001:000229c0       ??$_M_do_get_integer@V?$istreambuf_iterator@GV?$char_traits@G@_STL@@@_STL@@_KG@_STL@@YA?AV?$istreambuf_iterator@GV?$char_traits@G@_STL@@@0@AAV10@0AAVios_base@0@AAHAA_KPAG@Z 004239c0 f i stlport_vc71_static:locale_impl.obj
 0001:00022ad0       ?_M_getc@?$istreambuf_iterator@GV?$char_traits@G@_STL@@@_STL@@ABEXXZ 00423ad0 f i stlport_vc71_static:locale_impl.obj
 0001:00022b20       ??$_M_get_base_or_zero@V?$istreambuf_iterator@GV?$char_traits@G@_STL@@@_STL@@G@_STL@@YAHAAV?$istreambuf_iterator@GV?$char_traits@G@_STL@@@0@0AAVios_base@0@PAG@Z 00423b20 f i stlport_vc71_static:locale_impl.obj
 0001:00022d60       ?sbumpc@?$basic_streambuf@GV?$char_traits@G@_STL@@@_STL@@QAEGXZ 00423d60 f i stlport_vc71_static:locale_impl.obj
 0001:00022d80       ??$__get_integer@V?$istreambuf_iterator@GV?$char_traits@G@_STL@@@_STL@@_K@_STL@@YA_NAAV?$istreambuf_iterator@GV?$char_traits@G@_STL@@@0@0HAA_KH_NDABV?$basic_string@DV?$char_traits@D@_STL@@V?$allocator@D@2@@0@ABU__false_type@0@@Z 00423d80 f i stlport_vc71_static:locale_impl.obj
 0001:00022f90       ?do_get@?$num_get@GV?$istreambuf_iterator@GV?$char_traits@G@_STL@@@_STL@@@_STL@@MBE?AV?$istreambuf_iterator@GV?$char_traits@G@_STL@@@2@V32@0AAVios_base@2@AAHAA_J@Z 00423f90 f i stlport_vc71_static:locale_impl.obj
 0001:00022fc0       ??$_M_do_get_integer@V?$istreambuf_iterator@GV?$char_traits@G@_STL@@@_STL@@_JG@_STL@@YA?AV?$istreambuf_iterator@GV?$char_traits@G@_STL@@@0@AAV10@0AAVios_base@0@AAHAA_JPAG@Z 00423fc0 f i stlport_vc71_static:locale_impl.obj
 0001:000230d0       ??$__get_integer@V?$istreambuf_iterator@GV?$char_traits@G@_STL@@@_STL@@_J@_STL@@YA_NAAV?$istreambuf_iterator@GV?$char_traits@G@_STL@@@0@0HAA_JH_NDABV?$basic_string@DV?$char_traits@D@_STL@@V?$allocator@D@2@@0@ABU__true_type@0@@Z 004240d0 f i stlport_vc71_static:locale_impl.obj
 0001:000232f0       ?do_get@?$num_get@GV?$istreambuf_iterator@GV?$char_traits@G@_STL@@@_STL@@@_STL@@MBE?AV?$istreambuf_iterator@GV?$char_traits@G@_STL@@@2@V32@0AAVios_base@2@AAHAAPAX@Z 004242f0 f i stlport_vc71_static:locale_impl.obj
 0001:00023350       ?do_get@?$num_get@GV?$istreambuf_iterator@GV?$char_traits@G@_STL@@@_STL@@@_STL@@MBE?AV?$istreambuf_iterator@GV?$char_traits@G@_STL@@@2@V32@0AAVios_base@2@AAHAAK@Z 00424350 f i stlport_vc71_static:locale_impl.obj
 0001:00023380       ??$_M_do_get_integer@V?$istreambuf_iterator@GV?$char_traits@G@_STL@@@_STL@@KG@_STL@@YA?AV?$istreambuf_iterator@GV?$char_traits@G@_STL@@@0@AAV10@0AAVios_base@0@AAHAAKPAG@Z 00424380 f i stlport_vc71_static:locale_impl.obj
 0001:00023480       ??$__get_integer@V?$istreambuf_iterator@GV?$char_traits@G@_STL@@@_STL@@K@_STL@@YA_NAAV?$istreambuf_iterator@GV?$char_traits@G@_STL@@@0@0HAAKH_NDABV?$basic_string@DV?$char_traits@D@_STL@@V?$allocator@D@2@@0@ABU__false_type@0@@Z 00424480 f i stlport_vc71_static:locale_impl.obj
 0001:00023610       ?do_get@?$num_get@GV?$istreambuf_iterator@GV?$char_traits@G@_STL@@@_STL@@@_STL@@MBE?AV?$istreambuf_iterator@GV?$char_traits@G@_STL@@@2@V32@0AAVios_base@2@AAHAAI@Z 00424610 f i stlport_vc71_static:locale_impl.obj
 0001:00023640       ??$_M_do_get_integer@V?$istreambuf_iterator@GV?$char_traits@G@_STL@@@_STL@@IG@_STL@@YA?AV?$istreambuf_iterator@GV?$char_traits@G@_STL@@@0@AAV10@0AAVios_base@0@AAHAAIPAG@Z 00424640 f i stlport_vc71_static:locale_impl.obj
 0001:00023740       ??$__get_integer@V?$istreambuf_iterator@GV?$char_traits@G@_STL@@@_STL@@I@_STL@@YA_NAAV?$istreambuf_iterator@GV?$char_traits@G@_STL@@@0@0HAAIH_NDABV?$basic_string@DV?$char_traits@D@_STL@@V?$allocator@D@2@@0@ABU__false_type@0@@Z 00424740 f i stlport_vc71_static:locale_impl.obj
 0001:000238d0       ?do_get@?$num_get@GV?$istreambuf_iterator@GV?$char_traits@G@_STL@@@_STL@@@_STL@@MBE?AV?$istreambuf_iterator@GV?$char_traits@G@_STL@@@2@V32@0AAVios_base@2@AAHAAG@Z 004248d0 f i stlport_vc71_static:locale_impl.obj
 0001:00023900       ??$_M_do_get_integer@V?$istreambuf_iterator@GV?$char_traits@G@_STL@@@_STL@@GG@_STL@@YA?AV?$istreambuf_iterator@GV?$char_traits@G@_STL@@@0@AAV10@0AAVios_base@0@AAHAAGPAG@Z 00424900 f i stlport_vc71_static:locale_impl.obj
 0001:00023a00       ??$__get_integer@V?$istreambuf_iterator@GV?$char_traits@G@_STL@@@_STL@@G@_STL@@YA_NAAV?$istreambuf_iterator@GV?$char_traits@G@_STL@@@0@0HAAGH_NDABV?$basic_string@DV?$char_traits@D@_STL@@V?$allocator@D@2@@0@ABU__false_type@0@@Z 00424a00 f i stlport_vc71_static:locale_impl.obj
 0001:00023b90       ?do_get@?$num_get@GV?$istreambuf_iterator@GV?$char_traits@G@_STL@@@_STL@@@_STL@@MBE?AV?$istreambuf_iterator@GV?$char_traits@G@_STL@@@2@V32@0AAVios_base@2@AAHAAJ@Z 00424b90 f i stlport_vc71_static:locale_impl.obj
 0001:00023bc0       ??$_M_do_get_integer@V?$istreambuf_iterator@GV?$char_traits@G@_STL@@@_STL@@JG@_STL@@YA?AV?$istreambuf_iterator@GV?$char_traits@G@_STL@@@0@AAV10@0AAVios_base@0@AAHAAJPAG@Z 00424bc0 f i stlport_vc71_static:locale_impl.obj
 0001:00023cc0       ??$__get_integer@V?$istreambuf_iterator@GV?$char_traits@G@_STL@@@_STL@@J@_STL@@YA_NAAV?$istreambuf_iterator@GV?$char_traits@G@_STL@@@0@0HAAJH_NDABV?$basic_string@DV?$char_traits@D@_STL@@V?$allocator@D@2@@0@ABU__true_type@0@@Z 00424cc0 f i stlport_vc71_static:locale_impl.obj
 0001:00023e60       ?do_put@?$num_put@DV?$ostreambuf_iterator@DV?$char_traits@D@_STL@@@_STL@@@_STL@@MBE?AV?$ostreambuf_iterator@DV?$char_traits@D@_STL@@@2@V32@AAVios_base@2@D_K@Z 00424e60 f i stlport_vc71_static:locale_impl.obj
 0001:00023eb0       ??$__write_integer_backward@_K@_STL@@YAPADPADH_K@Z 00424eb0 f i stlport_vc71_static:locale_impl.obj
 0001:00023fa0       ??$__put_integer@V?$ostreambuf_iterator@DV?$char_traits@D@_STL@@@_STL@@@_STL@@YA?AV?$ostreambuf_iterator@DV?$char_traits@D@_STL@@@0@PAD0V10@AAVios_base@0@HD@Z 00424fa0 f i stlport_vc71_static:locale_impl.obj
 0001:00024080       ??$__copy_integer_and_fill@DV?$ostreambuf_iterator@DV?$char_traits@D@_STL@@@_STL@@@_STL@@YA?AV?$ostreambuf_iterator@DV?$char_traits@D@_STL@@@0@PBDHV10@HHDDD@Z 00425080 f i stlport_vc71_static:locale_impl.obj
 0001:000242c0       ??4?$ostreambuf_iterator@DV?$char_traits@D@_STL@@@_STL@@QAEAAV01@D@Z 004252c0 f i stlport_vc71_static:locale_impl.obj
 0001:00024300       ??$__copy@PBDV?$ostreambuf_iterator@DV?$char_traits@D@_STL@@@_STL@@H@_STL@@YA?AV?$ostreambuf_iterator@DV?$char_traits@D@_STL@@@0@PBD0V10@ABUrandom_access_iterator_tag@0@PAH@Z 00425300 f i stlport_vc71_static:locale_impl.obj
 0001:00024380       ?do_put@?$num_put@DV?$ostreambuf_iterator@DV?$char_traits@D@_STL@@@_STL@@@_STL@@MBE?AV?$ostreambuf_iterator@DV?$char_traits@D@_STL@@@2@V32@AAVios_base@2@D_J@Z 00425380 f i stlport_vc71_static:locale_impl.obj
 0001:000243d0       ??$__write_integer_backward@_J@_STL@@YAPADPADH_J@Z 004253d0 f i stlport_vc71_static:locale_impl.obj
 0001:000244a0       ??$__write_decimal_backward@_J@_STL@@YAPADPAD_JHABU__true_type@0@@Z 004254a0 f i stlport_vc71_static:locale_impl.obj
 0001:00024520       ?do_put@?$num_put@DV?$ostreambuf_iterator@DV?$char_traits@D@_STL@@@_STL@@@_STL@@MBE?AV?$ostreambuf_iterator@DV?$char_traits@D@_STL@@@2@V32@AAVios_base@2@DK@Z 00425520 f i stlport_vc71_static:locale_impl.obj
 0001:00024570       ??$__write_integer_backward@K@_STL@@YAPADPADHK@Z 00425570 f i stlport_vc71_static:locale_impl.obj
 0001:00024660       ?do_put@?$num_put@DV?$ostreambuf_iterator@DV?$char_traits@D@_STL@@@_STL@@@_STL@@MBE?AV?$ostreambuf_iterator@DV?$char_traits@D@_STL@@@2@V32@AAVios_base@2@DJ@Z 00425660 f i stlport_vc71_static:locale_impl.obj
 0001:000246b0       ??$__write_integer_backward@J@_STL@@YAPADPADHJ@Z 004256b0 f i stlport_vc71_static:locale_impl.obj
 0001:00024790       ??$__write_decimal_backward@J@_STL@@YAPADPADJHABU__true_type@0@@Z 00425790 f i stlport_vc71_static:locale_impl.obj
 0001:00024810       ?do_put@?$num_put@GV?$ostreambuf_iterator@GV?$char_traits@G@_STL@@@_STL@@@_STL@@MBE?AV?$ostreambuf_iterator@GV?$char_traits@G@_STL@@@2@V32@AAVios_base@2@G_K@Z 00425810 f i stlport_vc71_static:locale_impl.obj
 0001:00024860       ??$__put_integer@V?$ostreambuf_iterator@GV?$char_traits@G@_STL@@@_STL@@@_STL@@YA?AV?$ostreambuf_iterator@GV?$char_traits@G@_STL@@@0@PAD0V10@AAVios_base@0@HG@Z 00425860 f i stlport_vc71_static:locale_impl.obj
 0001:000249b0       ??$__copy_integer_and_fill@GV?$ostreambuf_iterator@GV?$char_traits@G@_STL@@@_STL@@@_STL@@YA?AV?$ostreambuf_iterator@GV?$char_traits@G@_STL@@@0@PBGHV10@HHGGG@Z 004259b0 f i stlport_vc71_static:locale_impl.obj
 0001:00024c00       ??4?$ostreambuf_iterator@GV?$char_traits@G@_STL@@@_STL@@QAEAAV01@G@Z 00425c00 f i stlport_vc71_static:locale_impl.obj
 0001:00024c40       ?sputc@?$basic_streambuf@GV?$char_traits@G@_STL@@@_STL@@QAEGG@Z 00425c40 f i stlport_vc71_static:locale_impl.obj
 0001:00024c60       ??$__copy@PBGV?$ostreambuf_iterator@GV?$char_traits@G@_STL@@@_STL@@H@_STL@@YA?AV?$ostreambuf_iterator@GV?$char_traits@G@_STL@@@0@PBG0V10@ABUrandom_access_iterator_tag@0@PAH@Z 00425c60 f i stlport_vc71_static:locale_impl.obj
 0001:00024cd0       ?do_put@?$num_put@GV?$ostreambuf_iterator@GV?$char_traits@G@_STL@@@_STL@@@_STL@@MBE?AV?$ostreambuf_iterator@GV?$char_traits@G@_STL@@@2@V32@AAVios_base@2@G_J@Z 00425cd0 f i stlport_vc71_static:locale_impl.obj
 0001:00024d20       ?do_put@?$num_put@GV?$ostreambuf_iterator@GV?$char_traits@G@_STL@@@_STL@@@_STL@@MBE?AV?$ostreambuf_iterator@GV?$char_traits@G@_STL@@@2@V32@AAVios_base@2@GK@Z 00425d20 f i stlport_vc71_static:locale_impl.obj
 0001:00024d70       ?do_put@?$num_put@GV?$ostreambuf_iterator@GV?$char_traits@G@_STL@@@_STL@@@_STL@@MBE?AV?$ostreambuf_iterator@GV?$char_traits@G@_STL@@@2@V32@AAVios_base@2@GJ@Z 00425d70 f i stlport_vc71_static:locale_impl.obj
 0001:00024dc0       ?do_put@?$money_put@DV?$ostreambuf_iterator@DV?$char_traits@D@_STL@@@_STL@@@_STL@@MBE?AV?$ostreambuf_iterator@DV?$char_traits@D@_STL@@@2@V32@_NAAVios_base@2@DO@Z 00425dc0 f i stlport_vc71_static:locale_impl.obj
 0001:00024eb0       ?do_put@?$money_put@GV?$ostreambuf_iterator@GV?$char_traits@G@_STL@@@_STL@@@_STL@@MBE?AV?$ostreambuf_iterator@GV?$char_traits@G@_STL@@@2@V32@_NAAVios_base@2@GO@Z 00425eb0 f i stlport_vc71_static:locale_impl.obj
 0001:00024f90       ??0?$basic_string@GV?$char_traits@G@_STL@@V?$allocator@G@2@@_STL@@QAE@PBGABV?$allocator@G@1@@Z 00425f90 f i stlport_vc71_static:locale_impl.obj
 0001:00025000       ??$_M_range_initialize@PBG@?$basic_string@GV?$char_traits@G@_STL@@V?$allocator@G@2@@_STL@@AAEXPBG0ABUforward_iterator_tag@1@@Z 00426000 f i stlport_vc71_static:locale_impl.obj
 0001:00025040       ?_M_allocate_block@?$_String_base@GV?$allocator@G@_STL@@@_STL@@QAEXI@Z 00426040 f i stlport_vc71_static:locale_impl.obj
 0001:00025080       ??1?$_String_base@GV?$allocator@G@_STL@@@_STL@@QAE@XZ 00426080 f i stlport_vc71_static:locale_impl.obj
 0001:000250a0       ??1?$basic_string@GV?$char_traits@G@_STL@@V?$allocator@G@2@@_STL@@QAE@XZ 004260a0 f i stlport_vc71_static:locale_impl.obj
 0001:000250c0       ??0_Time_Info@_STL@@QAE@XZ 004260c0 f i stlport_vc71_static:locale_impl.obj
 0001:000251a0       ??1_Time_Info@_STL@@QAE@XZ 004261a0 f i stlport_vc71_static:locale_impl.obj
 0001:00025390       ??0_Locale_impl@_STL@@QAE@PBD@Z 00426390 f   stlport_vc71_static:locale_impl.obj
 0001:000253c0       ??1_Locale_impl@_STL@@UAE@XZ 004263c0 f   stlport_vc71_static:locale_impl.obj
 0001:00025420       ?_M_throw_runtime_error@locale@_STL@@SAXPBD@Z 00426420 f   stlport_vc71_static:locale_impl.obj
 0001:00025510       ?name@locale@_STL@@QBE?AV?$basic_string@DV?$char_traits@D@_STL@@V?$allocator@D@2@@2@XZ 00426510 f   stlport_vc71_static:locale_impl.obj
 0001:00025540       ??8locale@_STL@@QBE_NABV01@@Z 00426540 f   stlport_vc71_static:locale_impl.obj
 0001:00025650       ??9locale@_STL@@QBE_NABV01@@Z 00426650 f   stlport_vc71_static:locale_impl.obj
 0001:00025670       ?global@locale@_STL@@SA?AV12@ABV12@@Z 00426670 f   stlport_vc71_static:locale_impl.obj
 0001:000257e0       ??0?$time_get@DV?$istreambuf_iterator@DV?$char_traits@D@_STL@@@_STL@@@_STL@@QAE@I@Z 004267e0 f i stlport_vc71_static:locale_impl.obj
 0001:00025850       ?do_date_order@?$time_get@DV?$istreambuf_iterator@DV?$char_traits@D@_STL@@@_STL@@@_STL@@MBE?AW4dateorder@time_base@2@XZ 00426850 f i stlport_vc71_static:locale_impl.obj
 0001:00025860       ?do_get_weekday@?$time_get@DV?$istreambuf_iterator@DV?$char_traits@D@_STL@@@_STL@@@_STL@@MBE?AV?$istreambuf_iterator@DV?$char_traits@D@_STL@@@2@V32@0AAVios_base@2@AAHPAUtm@@@Z 00426860 f i stlport_vc71_static:locale_impl.obj
 0001:00025910       ??$__match@V?$istreambuf_iterator@DV?$char_traits@D@_STL@@@_STL@@PBV?$basic_string@DV?$char_traits@D@_STL@@V?$allocator@D@2@@2@J@_STL@@YAPBV?$basic_string@DV?$char_traits@D@_STL@@V?$allocator@D@2@@0@AAV?$istreambuf_iterator@DV?$char_traits@D@_STL@@@0@0PBV10@1PAJ@Z 00426910 f i stlport_vc71_static:locale_impl.obj
 0001:00025a90       ?do_get_monthname@?$time_get@DV?$istreambuf_iterator@DV?$char_traits@D@_STL@@@_STL@@@_STL@@MBE?AV?$istreambuf_iterator@DV?$char_traits@D@_STL@@@2@V32@0AAVios_base@2@AAHPAUtm@@@Z 00426a90 f i stlport_vc71_static:locale_impl.obj
 0001:00025b50       ??$__match@V?$istreambuf_iterator@DV?$char_traits@D@_STL@@@_STL@@PAV?$basic_string@DV?$char_traits@D@_STL@@V?$allocator@D@2@@2@J@_STL@@YAPAV?$basic_string@DV?$char_traits@D@_STL@@V?$allocator@D@2@@0@AAV?$istreambuf_iterator@DV?$char_traits@D@_STL@@@0@0PAV10@1PAJ@Z 00426b50 f i stlport_vc71_static:locale_impl.obj
 0001:00025cd0       ??0?$time_put@DV?$ostreambuf_iterator@DV?$char_traits@D@_STL@@@_STL@@@_STL@@QAE@I@Z 00426cd0 f i stlport_vc71_static:locale_impl.obj
 0001:00025d40       ?do_put@?$time_put@DV?$ostreambuf_iterator@DV?$char_traits@D@_STL@@@_STL@@@_STL@@MBE?AV?$ostreambuf_iterator@DV?$char_traits@D@_STL@@@2@V32@AAVios_base@2@DPBUtm@@DD@Z 00426d40 f i stlport_vc71_static:locale_impl.obj
 0001:00025db0       ??0?$time_get@GV?$istreambuf_iterator@GV?$char_traits@G@_STL@@@_STL@@@_STL@@QAE@I@Z 00426db0 f i stlport_vc71_static:locale_impl.obj
 0001:00025e20       ?do_date_order@?$time_get@GV?$istreambuf_iterator@GV?$char_traits@G@_STL@@@_STL@@@_STL@@MBE?AW4dateorder@time_base@2@XZ 00426e20 f i stlport_vc71_static:locale_impl.obj
 0001:00025e30       ?do_get_weekday@?$time_get@GV?$istreambuf_iterator@GV?$char_traits@G@_STL@@@_STL@@@_STL@@MBE?AV?$istreambuf_iterator@GV?$char_traits@G@_STL@@@2@V32@0AAVios_base@2@AAHPAUtm@@@Z 00426e30 f i stlport_vc71_static:locale_impl.obj
 0001:00025ee0       ??$__match@V?$istreambuf_iterator@GV?$char_traits@G@_STL@@@_STL@@PBV?$basic_string@DV?$char_traits@D@_STL@@V?$allocator@D@2@@2@J@_STL@@YAPBV?$basic_string@DV?$char_traits@D@_STL@@V?$allocator@D@2@@0@AAV?$istreambuf_iterator@GV?$char_traits@G@_STL@@@0@0PBV10@1PAJ@Z 00426ee0 f i stlport_vc71_static:locale_impl.obj
 0001:00026060       ?do_get_monthname@?$time_get@GV?$istreambuf_iterator@GV?$char_traits@G@_STL@@@_STL@@@_STL@@MBE?AV?$istreambuf_iterator@GV?$char_traits@G@_STL@@@2@V32@0AAVios_base@2@AAHPAUtm@@@Z 00427060 f i stlport_vc71_static:locale_impl.obj
 0001:00026120       ??$__match@V?$istreambuf_iterator@GV?$char_traits@G@_STL@@@_STL@@PAV?$basic_string@DV?$char_traits@D@_STL@@V?$allocator@D@2@@2@J@_STL@@YAPAV?$basic_string@DV?$char_traits@D@_STL@@V?$allocator@D@2@@0@AAV?$istreambuf_iterator@GV?$char_traits@G@_STL@@@0@0PAV10@1PAJ@Z 00427120 f i stlport_vc71_static:locale_impl.obj
 0001:000262a0       ??0?$time_put@GV?$ostreambuf_iterator@GV?$char_traits@G@_STL@@@_STL@@@_STL@@QAE@I@Z 004272a0 f i stlport_vc71_static:locale_impl.obj
 0001:00026310       ?do_put@?$time_put@GV?$ostreambuf_iterator@GV?$char_traits@G@_STL@@@_STL@@@_STL@@MBE?AV?$ostreambuf_iterator@GV?$char_traits@G@_STL@@@2@V32@AAVios_base@2@GPBUtm@@DD@Z 00427310 f i stlport_vc71_static:locale_impl.obj
 0001:00026360       ??$__put_time@V?$ostreambuf_iterator@GV?$char_traits@G@_STL@@@_STL@@@_STL@@YA?AV?$ostreambuf_iterator@GV?$char_traits@G@_STL@@@0@PAD0V10@ABVios_base@0@G@Z 00427360 f i stlport_vc71_static:locale_impl.obj
 0001:000263f0       ??_E?$time_get@DV?$istreambuf_iterator@DV?$char_traits@D@_STL@@@_STL@@@_STL@@MAEPAXI@Z 004273f0 f i stlport_vc71_static:locale_impl.obj
 0001:000263f0       ??_G?$time_get@DV?$istreambuf_iterator@DV?$char_traits@D@_STL@@@_STL@@@_STL@@MAEPAXI@Z 004273f0 f i stlport_vc71_static:locale_impl.obj
 0001:00026410       ??1?$time_get@DV?$istreambuf_iterator@DV?$char_traits@D@_STL@@@_STL@@@_STL@@MAE@XZ 00427410 f i stlport_vc71_static:locale_impl.obj
 0001:00026460       ??_E?$time_put@DV?$ostreambuf_iterator@DV?$char_traits@D@_STL@@@_STL@@@_STL@@MAEPAXI@Z 00427460 f i stlport_vc71_static:locale_impl.obj
 0001:00026460       ??_G?$time_put@DV?$ostreambuf_iterator@DV?$char_traits@D@_STL@@@_STL@@@_STL@@MAEPAXI@Z 00427460 f i stlport_vc71_static:locale_impl.obj
 0001:00026480       ??1?$time_put@DV?$ostreambuf_iterator@DV?$char_traits@D@_STL@@@_STL@@@_STL@@MAE@XZ 00427480 f i stlport_vc71_static:locale_impl.obj
 0001:000264d0       ??_E?$time_get@GV?$istreambuf_iterator@GV?$char_traits@G@_STL@@@_STL@@@_STL@@MAEPAXI@Z 004274d0 f i stlport_vc71_static:locale_impl.obj
 0001:000264d0       ??_G?$time_get@GV?$istreambuf_iterator@GV?$char_traits@G@_STL@@@_STL@@@_STL@@MAEPAXI@Z 004274d0 f i stlport_vc71_static:locale_impl.obj
 0001:000264f0       ??1?$time_get@GV?$istreambuf_iterator@GV?$char_traits@G@_STL@@@_STL@@@_STL@@MAE@XZ 004274f0 f i stlport_vc71_static:locale_impl.obj
 0001:00026540       ??_G?$time_put@GV?$ostreambuf_iterator@GV?$char_traits@G@_STL@@@_STL@@@_STL@@MAEPAXI@Z 00427540 f i stlport_vc71_static:locale_impl.obj
 0001:00026540       ??_E?$time_put@GV?$ostreambuf_iterator@GV?$char_traits@G@_STL@@@_STL@@@_STL@@MAEPAXI@Z 00427540 f i stlport_vc71_static:locale_impl.obj
 0001:00026560       ??1?$time_put@GV?$ostreambuf_iterator@GV?$char_traits@G@_STL@@@_STL@@@_STL@@MAE@XZ 00427560 f i stlport_vc71_static:locale_impl.obj
 0001:000265b0       ?do_get@?$money_get@DV?$istreambuf_iterator@DV?$char_traits@D@_STL@@@_STL@@@_STL@@MBE?AV?$istreambuf_iterator@DV?$char_traits@D@_STL@@@2@V32@0_NAAVios_base@2@AAHAAO@Z 004275b0 f i stlport_vc71_static:locale_impl.obj
 0001:00026700       ??$__get_decimal_integer@PADO@_STL@@YA_NAAPAD0AAO@Z 00427700 f i stlport_vc71_static:locale_impl.obj
 0001:000267d0       ??$__get_integer@PADO@_STL@@YA_NAAPAD0HAAOH_NDABV?$basic_string@DV?$char_traits@D@_STL@@V?$allocator@D@2@@0@ABU__false_type@0@@Z 004277d0 f i stlport_vc71_static:locale_impl.obj
 0001:00026950       ?do_put@?$money_put@DV?$ostreambuf_iterator@DV?$char_traits@D@_STL@@@_STL@@@_STL@@MBE?AV?$ostreambuf_iterator@DV?$char_traits@D@_STL@@@2@V32@_NAAVios_base@2@DABV?$basic_string@DV?$char_traits@D@_STL@@V?$allocator@D@2@@2@@Z 00427950 f i stlport_vc71_static:locale_impl.obj
 0001:000273f0       ?grouping@?$moneypunct@D$00@_STL@@QBE?AV?$basic_string@DV?$char_traits@D@_STL@@V?$allocator@D@2@@2@XZ 004283f0 f i stlport_vc71_static:locale_impl.obj
 0001:00027410       ?curr_symbol@?$moneypunct@D$00@_STL@@QBE?AV?$basic_string@DV?$char_traits@D@_STL@@V?$allocator@D@2@@2@XZ 00428410 f i stlport_vc71_static:locale_impl.obj
 0001:00027430       ?positive_sign@?$moneypunct@D$00@_STL@@QBE?AV?$basic_string@DV?$char_traits@D@_STL@@V?$allocator@D@2@@2@XZ 00428430 f i stlport_vc71_static:locale_impl.obj
 0001:00027450       ?negative_sign@?$moneypunct@D$00@_STL@@QBE?AV?$basic_string@DV?$char_traits@D@_STL@@V?$allocator@D@2@@2@XZ 00428450 f i stlport_vc71_static:locale_impl.obj
 0001:00027470       ?grouping@?$moneypunct@D$0A@@_STL@@QBE?AV?$basic_string@DV?$char_traits@D@_STL@@V?$allocator@D@2@@2@XZ 00428470 f i stlport_vc71_static:locale_impl.obj
 0001:00027490       ?curr_symbol@?$moneypunct@D$0A@@_STL@@QBE?AV?$basic_string@DV?$char_traits@D@_STL@@V?$allocator@D@2@@2@XZ 00428490 f i stlport_vc71_static:locale_impl.obj
 0001:000274b0       ?positive_sign@?$moneypunct@D$0A@@_STL@@QBE?AV?$basic_string@DV?$char_traits@D@_STL@@V?$allocator@D@2@@2@XZ 004284b0 f i stlport_vc71_static:locale_impl.obj
 0001:000274d0       ?negative_sign@?$moneypunct@D$0A@@_STL@@QBE?AV?$basic_string@DV?$char_traits@D@_STL@@V?$allocator@D@2@@2@XZ 004284d0 f i stlport_vc71_static:locale_impl.obj
 0001:000274f0       ?do_get@?$num_get@DV?$istreambuf_iterator@DV?$char_traits@D@_STL@@@_STL@@@_STL@@MBE?AV?$istreambuf_iterator@DV?$char_traits@D@_STL@@@2@V32@0AAVios_base@2@AAHAAO@Z 004284f0 f i stlport_vc71_static:locale_impl.obj
 0001:00027600       ??$_M_read_float@V?$istreambuf_iterator@DV?$char_traits@D@_STL@@@_STL@@D@_STL@@YA_NAAV?$basic_string@DV?$char_traits@D@_STL@@V?$allocator@D@2@@0@AAV?$istreambuf_iterator@DV?$char_traits@D@_STL@@@0@1AAVios_base@0@PAD@Z 00428600 f i stlport_vc71_static:locale_impl.obj
 0001:00027800       ?equal@?$istreambuf_iterator@DV?$char_traits@D@_STL@@@_STL@@QBE_NABV12@@Z 00428800 f i stlport_vc71_static:locale_impl.obj
 0001:00027880       ??$__copy_sign@V?$istreambuf_iterator@DV?$char_traits@D@_STL@@@_STL@@D@_STL@@YA?AV?$istreambuf_iterator@DV?$char_traits@D@_STL@@@0@V10@0AAV?$basic_string@DV?$char_traits@D@_STL@@V?$allocator@D@2@@0@DD@Z 00428880 f i stlport_vc71_static:locale_impl.obj
 0001:000278e0       ??$__copy_grouped_digits@V?$istreambuf_iterator@DV?$char_traits@D@_STL@@@_STL@@D@_STL@@YA_NAAV?$istreambuf_iterator@DV?$char_traits@D@_STL@@@0@0AAV?$basic_string@DV?$char_traits@D@_STL@@V?$allocator@D@2@@0@PBDDABV20@AA_N@Z 004288e0 f i stlport_vc71_static:locale_impl.obj
 0001:00027a00       ??$__copy_digits@V?$istreambuf_iterator@DV?$char_traits@D@_STL@@@_STL@@D@_STL@@YA_NAAV?$istreambuf_iterator@DV?$char_traits@D@_STL@@@0@0AAV?$basic_string@DV?$char_traits@D@_STL@@V?$allocator@D@2@@0@PBD@Z 00428a00 f i stlport_vc71_static:locale_impl.obj
 0001:00027ac0       ?do_get@?$num_get@DV?$istreambuf_iterator@DV?$char_traits@D@_STL@@@_STL@@@_STL@@MBE?AV?$istreambuf_iterator@DV?$char_traits@D@_STL@@@2@V32@0AAVios_base@2@AAHAAN@Z 00428ac0 f i stlport_vc71_static:locale_impl.obj
 0001:00027bc0       ?do_get@?$num_get@DV?$istreambuf_iterator@DV?$char_traits@D@_STL@@@_STL@@@_STL@@MBE?AV?$istreambuf_iterator@DV?$char_traits@D@_STL@@@2@V32@0AAVios_base@2@AAHAAM@Z 00428bc0 f i stlport_vc71_static:locale_impl.obj
 0001:00027cc0       ?do_get@?$num_get@DV?$istreambuf_iterator@DV?$char_traits@D@_STL@@@_STL@@@_STL@@MBE?AV?$istreambuf_iterator@DV?$char_traits@D@_STL@@@2@V32@0AAVios_base@2@AAHAA_N@Z 00428cc0 f i stlport_vc71_static:locale_impl.obj
 0001:00027f90       ?truename@?$numpunct@D@_STL@@QBE?AV?$basic_string@DV?$char_traits@D@_STL@@V?$allocator@D@2@@2@XZ 00428f90 f i stlport_vc71_static:locale_impl.obj
 0001:00027fb0       ?falsename@?$numpunct@D@_STL@@QBE?AV?$basic_string@DV?$char_traits@D@_STL@@V?$allocator@D@2@@2@XZ 00428fb0 f i stlport_vc71_static:locale_impl.obj
 0001:00027fd0       ?do_put@?$num_put@DV?$ostreambuf_iterator@DV?$char_traits@D@_STL@@@_STL@@@_STL@@MBE?AV?$ostreambuf_iterator@DV?$char_traits@D@_STL@@@2@V32@AAVios_base@2@D_N@Z 00428fd0 f i stlport_vc71_static:locale_impl.obj
 0001:00028130       ?do_get_year@?$time_get@DV?$istreambuf_iterator@DV?$char_traits@D@_STL@@@_STL@@@_STL@@MBE?AV?$istreambuf_iterator@DV?$char_traits@D@_STL@@@2@V32@0AAVios_base@2@AAHPAUtm@@@Z 00429130 f i stlport_vc71_static:locale_impl.obj
 0001:000281c0       ??$__get_decimal_integer@V?$istreambuf_iterator@DV?$char_traits@D@_STL@@@_STL@@H@_STL@@YA_NAAV?$istreambuf_iterator@DV?$char_traits@D@_STL@@@0@0AAH@Z 004291c0 f i stlport_vc71_static:locale_impl.obj
 0001:00028290       ??$__get_integer@V?$istreambuf_iterator@DV?$char_traits@D@_STL@@@_STL@@H@_STL@@YA_NAAV?$istreambuf_iterator@DV?$char_traits@D@_STL@@@0@0HAAHH_NDABV?$basic_string@DV?$char_traits@D@_STL@@V?$allocator@D@2@@0@ABU__false_type@0@@Z 00429290 f i stlport_vc71_static:locale_impl.obj
 0001:00028400       ?do_get@?$money_get@GV?$istreambuf_iterator@GV?$char_traits@G@_STL@@@_STL@@@_STL@@MBE?AV?$istreambuf_iterator@GV?$char_traits@G@_STL@@@2@V32@0_NAAVios_base@2@AAHAAO@Z 00429400 f i stlport_vc71_static:locale_impl.obj
 0001:00028520       ?push_back@?$basic_string@GV?$char_traits@G@_STL@@V?$allocator@G@2@@_STL@@QAEXG@Z 00429520 f i stlport_vc71_static:locale_impl.obj
 0001:00028580       ?reserve@?$basic_string@GV?$char_traits@G@_STL@@V?$allocator@G@2@@_STL@@QAEXI@Z 00429580 f i stlport_vc71_static:locale_impl.obj
 0001:00028660       ??$uninitialized_copy@PAGPAG@_STL@@YAPAGPAG00@Z 00429660 f i stlport_vc71_static:locale_impl.obj
 0001:00028670       ??0?$basic_string@GV?$char_traits@G@_STL@@V?$allocator@G@2@@_STL@@QAE@XZ 00429670 f i stlport_vc71_static:locale_impl.obj
 0001:000286e0       ??$__get_decimal_integer@PAGO@_STL@@YA_NAAPAG0AAO@Z 004296e0 f i stlport_vc71_static:locale_impl.obj
 0001:000287b0       ??$__get_integer@PAGO@_STL@@YA_NAAPAG0HAAOH_NDABV?$basic_string@DV?$char_traits@D@_STL@@V?$allocator@D@2@@0@ABU__false_type@0@@Z 004297b0 f i stlport_vc71_static:locale_impl.obj
 0001:00028930       ?do_put@?$money_put@GV?$ostreambuf_iterator@GV?$char_traits@G@_STL@@@_STL@@@_STL@@MBE?AV?$ostreambuf_iterator@GV?$char_traits@G@_STL@@@2@V32@_NAAVios_base@2@GABV?$basic_string@GV?$char_traits@G@_STL@@V?$allocator@G@2@@2@@Z 00429930 f i stlport_vc71_static:locale_impl.obj
 0001:000293c0       ??0?$_String_base@GV?$allocator@G@_STL@@@_STL@@QAE@ABV?$allocator@G@1@@Z 0042a3c0 f i stlport_vc71_static:locale_impl.obj
 0001:000293d0       ??$__copy@PAGV?$ostreambuf_iterator@GV?$char_traits@G@_STL@@@_STL@@H@_STL@@YA?AV?$ostreambuf_iterator@GV?$char_traits@G@_STL@@@0@PAG0V10@ABUrandom_access_iterator_tag@0@PAH@Z 0042a3d0 f i stlport_vc71_static:locale_impl.obj
 0001:00029440       ?_M_deallocate_block@?$_String_base@GV?$allocator@G@_STL@@@_STL@@QAEXXZ 0042a440 f i stlport_vc71_static:locale_impl.obj
 0001:00029460       ??0?$basic_string@GV?$char_traits@G@_STL@@V?$allocator@G@2@@_STL@@QAE@ABV01@@Z 0042a460 f i stlport_vc71_static:locale_impl.obj
 0001:000294d0       ?get_allocator@?$basic_string@GV?$char_traits@G@_STL@@V?$allocator@G@2@@_STL@@QBE?AV?$allocator@G@2@XZ 0042a4d0 f i stlport_vc71_static:locale_impl.obj
 0001:000294e0       ??$_M_range_initialize@PAG@?$basic_string@GV?$char_traits@G@_STL@@V?$allocator@G@2@@_STL@@AAEXPAG0ABUforward_iterator_tag@1@@Z 0042a4e0 f i stlport_vc71_static:locale_impl.obj
 0001:00029550       ?grouping@?$moneypunct@G$00@_STL@@QBE?AV?$basic_string@DV?$char_traits@D@_STL@@V?$allocator@D@2@@2@XZ 0042a550 f i stlport_vc71_static:locale_impl.obj
 0001:00029570       ?curr_symbol@?$moneypunct@G$00@_STL@@QBE?AV?$basic_string@GV?$char_traits@G@_STL@@V?$allocator@G@2@@2@XZ 0042a570 f i stlport_vc71_static:locale_impl.obj
 0001:00029590       ?positive_sign@?$moneypunct@G$00@_STL@@QBE?AV?$basic_string@GV?$char_traits@G@_STL@@V?$allocator@G@2@@2@XZ 0042a590 f i stlport_vc71_static:locale_impl.obj
 0001:000295b0       ?negative_sign@?$moneypunct@G$00@_STL@@QBE?AV?$basic_string@GV?$char_traits@G@_STL@@V?$allocator@G@2@@2@XZ 0042a5b0 f i stlport_vc71_static:locale_impl.obj
 0001:000295d0       ?grouping@?$moneypunct@G$0A@@_STL@@QBE?AV?$basic_string@DV?$char_traits@D@_STL@@V?$allocator@D@2@@2@XZ 0042a5d0 f i stlport_vc71_static:locale_impl.obj
 0001:000295f0       ?curr_symbol@?$moneypunct@G$0A@@_STL@@QBE?AV?$basic_string@GV?$char_traits@G@_STL@@V?$allocator@G@2@@2@XZ 0042a5f0 f i stlport_vc71_static:locale_impl.obj
 0001:00029610       ?positive_sign@?$moneypunct@G$0A@@_STL@@QBE?AV?$basic_string@GV?$char_traits@G@_STL@@V?$allocator@G@2@@2@XZ 0042a610 f i stlport_vc71_static:locale_impl.obj
 0001:00029630       ?negative_sign@?$moneypunct@G$0A@@_STL@@QBE?AV?$basic_string@GV?$char_traits@G@_STL@@V?$allocator@G@2@@2@XZ 0042a630 f i stlport_vc71_static:locale_impl.obj
 0001:00029650       ?do_get@?$num_get@GV?$istreambuf_iterator@GV?$char_traits@G@_STL@@@_STL@@@_STL@@MBE?AV?$istreambuf_iterator@GV?$char_traits@G@_STL@@@2@V32@0AAVios_base@2@AAHAAO@Z 0042a650 f i stlport_vc71_static:locale_impl.obj
 0001:00029770       ??$_M_read_float@V?$istreambuf_iterator@GV?$char_traits@G@_STL@@@_STL@@G@_STL@@YA_NAAV?$basic_string@DV?$char_traits@D@_STL@@V?$allocator@D@2@@0@AAV?$istreambuf_iterator@GV?$char_traits@G@_STL@@@0@1AAVios_base@0@PAG@Z 0042a770 f i stlport_vc71_static:locale_impl.obj
 0001:000299b0       ?equal@?$istreambuf_iterator@GV?$char_traits@G@_STL@@@_STL@@QBE_NABV12@@Z 0042a9b0 f i stlport_vc71_static:locale_impl.obj
 0001:000299e0       ??$__copy_sign@V?$istreambuf_iterator@GV?$char_traits@G@_STL@@@_STL@@G@_STL@@YA?AV?$istreambuf_iterator@GV?$char_traits@G@_STL@@@0@V10@0AAV?$basic_string@DV?$char_traits@D@_STL@@V?$allocator@D@2@@0@GG@Z 0042a9e0 f i stlport_vc71_static:locale_impl.obj
 0001:00029a40       ??$__copy_grouped_digits@V?$istreambuf_iterator@GV?$char_traits@G@_STL@@@_STL@@G@_STL@@YA_NAAV?$istreambuf_iterator@GV?$char_traits@G@_STL@@@0@0AAV?$basic_string@DV?$char_traits@D@_STL@@V?$allocator@D@2@@0@PBGGABV20@AA_N@Z 0042aa40 f i stlport_vc71_static:locale_impl.obj
 0001:00029b70       ??$__copy_digits@V?$istreambuf_iterator@GV?$char_traits@G@_STL@@@_STL@@G@_STL@@YA_NAAV?$istreambuf_iterator@GV?$char_traits@G@_STL@@@0@0AAV?$basic_string@DV?$char_traits@D@_STL@@V?$allocator@D@2@@0@PBG@Z 0042ab70 f i stlport_vc71_static:locale_impl.obj
 0001:00029c40       ?do_get@?$num_get@GV?$istreambuf_iterator@GV?$char_traits@G@_STL@@@_STL@@@_STL@@MBE?AV?$istreambuf_iterator@GV?$char_traits@G@_STL@@@2@V32@0AAVios_base@2@AAHAAN@Z 0042ac40 f i stlport_vc71_static:locale_impl.obj
 0001:00029d40       ?do_get@?$num_get@GV?$istreambuf_iterator@GV?$char_traits@G@_STL@@@_STL@@@_STL@@MBE?AV?$istreambuf_iterator@GV?$char_traits@G@_STL@@@2@V32@0AAVios_base@2@AAHAAM@Z 0042ad40 f i stlport_vc71_static:locale_impl.obj
 0001:00029e40       ?do_get@?$num_get@GV?$istreambuf_iterator@GV?$char_traits@G@_STL@@@_STL@@@_STL@@MBE?AV?$istreambuf_iterator@GV?$char_traits@G@_STL@@@2@V32@0AAVios_base@2@AAHAA_N@Z 0042ae40 f i stlport_vc71_static:locale_impl.obj
 0001:0002a0c0       ?truename@?$numpunct@G@_STL@@QBE?AV?$basic_string@GV?$char_traits@G@_STL@@V?$allocator@G@2@@2@XZ 0042b0c0 f i stlport_vc71_static:locale_impl.obj
 0001:0002a0e0       ?falsename@?$numpunct@G@_STL@@QBE?AV?$basic_string@GV?$char_traits@G@_STL@@V?$allocator@G@2@@2@XZ 0042b0e0 f i stlport_vc71_static:locale_impl.obj
 0001:0002a100       ?do_put@?$num_put@GV?$ostreambuf_iterator@GV?$char_traits@G@_STL@@@_STL@@@_STL@@MBE?AV?$ostreambuf_iterator@GV?$char_traits@G@_STL@@@2@V32@AAVios_base@2@G_N@Z 0042b100 f i stlport_vc71_static:locale_impl.obj
 0001:0002a2a0       ?do_get_year@?$time_get@GV?$istreambuf_iterator@GV?$char_traits@G@_STL@@@_STL@@@_STL@@MBE?AV?$istreambuf_iterator@GV?$char_traits@G@_STL@@@2@V32@0AAVios_base@2@AAHPAUtm@@@Z 0042b2a0 f i stlport_vc71_static:locale_impl.obj
 0001:0002a330       ??$__get_decimal_integer@V?$istreambuf_iterator@GV?$char_traits@G@_STL@@@_STL@@H@_STL@@YA_NAAV?$istreambuf_iterator@GV?$char_traits@G@_STL@@@0@0AAH@Z 0042b330 f i stlport_vc71_static:locale_impl.obj
 0001:0002a400       ??$__get_integer@V?$istreambuf_iterator@GV?$char_traits@G@_STL@@@_STL@@H@_STL@@YA_NAAV?$istreambuf_iterator@GV?$char_traits@G@_STL@@@0@0HAAHH_NDABV?$basic_string@DV?$char_traits@D@_STL@@V?$allocator@D@2@@0@ABU__false_type@0@@Z 0042b400 f i stlport_vc71_static:locale_impl.obj
 0001:0002a570       ??_E_Locale_impl@_STL@@UAEPAXI@Z 0042b570 f i stlport_vc71_static:locale_impl.obj
 0001:0002a570       ??_G_Locale_impl@_STL@@UAEPAXI@Z 0042b570 f i stlport_vc71_static:locale_impl.obj
 0001:0002a590       ?make_classic_locale@_Locale_impl@_STL@@SAPAV12@XZ 0042b590 f   stlport_vc71_static:locale_impl.obj
 0001:0002a920       ?_S_initialize@locale@_STL@@SAXXZ 0042b920 f   stlport_vc71_static:locale_impl.obj
 0001:0002a950       ?do_put@?$num_put@DV?$ostreambuf_iterator@DV?$char_traits@D@_STL@@@_STL@@@_STL@@MBE?AV?$ostreambuf_iterator@DV?$char_traits@D@_STL@@@2@V32@AAVios_base@2@DO@Z 0042b950 f i stlport_vc71_static:locale_impl.obj
 0001:0002a990       ??$_M_do_put_float@DV?$ostreambuf_iterator@DV?$char_traits@D@_STL@@@_STL@@O@_STL@@YA?AV?$ostreambuf_iterator@DV?$char_traits@D@_STL@@@0@V10@AAVios_base@0@DO@Z 0042b990 f i stlport_vc71_static:locale_impl.obj
 0001:0002aaa0       ??$__put_float@V?$ostreambuf_iterator@DV?$char_traits@D@_STL@@@_STL@@@_STL@@YA?AV?$ostreambuf_iterator@DV?$char_traits@D@_STL@@@0@PAD0V10@AAVios_base@0@DDDABV?$basic_string@DV?$char_traits@D@_STL@@V?$allocator@D@2@@0@@Z 0042baa0 f i stlport_vc71_static:locale_impl.obj
 0001:0002abb0       ??$__find@PADD@_STL@@YAPADPAD0ABDABUrandom_access_iterator_tag@0@@Z 0042bbb0 f i stlport_vc71_static:locale_impl.obj
 0001:0002ac20       ??$__copy_float_and_fill@DV?$ostreambuf_iterator@DV?$char_traits@D@_STL@@@_STL@@@_STL@@YA?AV?$ostreambuf_iterator@DV?$char_traits@D@_STL@@@0@PBD0V10@HHDDD@Z 0042bc20 f i stlport_vc71_static:locale_impl.obj
 0001:0002ad50       ?do_put@?$num_put@DV?$ostreambuf_iterator@DV?$char_traits@D@_STL@@@_STL@@@_STL@@MBE?AV?$ostreambuf_iterator@DV?$char_traits@D@_STL@@@2@V32@AAVios_base@2@DN@Z 0042bd50 f i stlport_vc71_static:locale_impl.obj
 0001:0002ad90       ??$_M_do_put_float@DV?$ostreambuf_iterator@DV?$char_traits@D@_STL@@@_STL@@N@_STL@@YA?AV?$ostreambuf_iterator@DV?$char_traits@D@_STL@@@0@V10@AAVios_base@0@DN@Z 0042bd90 f i stlport_vc71_static:locale_impl.obj
 0001:0002aea0       ?do_get_time@?$time_get@DV?$istreambuf_iterator@DV?$char_traits@D@_STL@@@_STL@@@_STL@@MBE?AV?$istreambuf_iterator@DV?$char_traits@D@_STL@@@2@V32@0AAVios_base@2@AAHPAUtm@@@Z 0042bea0 f i stlport_vc71_static:locale_impl.obj
 0001:0002af10       ??$__get_formatted_time@V?$istreambuf_iterator@DV?$char_traits@D@_STL@@@_STL@@PBD@_STL@@YAPBDV?$istreambuf_iterator@DV?$char_traits@D@_STL@@@0@0PBD1ABV_Time_Info@0@AAHPAUtm@@@Z 0042bf10 f i stlport_vc71_static:locale_impl.obj
 0001:0002b2a0       ?do_get_date@?$time_get@DV?$istreambuf_iterator@DV?$char_traits@D@_STL@@@_STL@@@_STL@@MBE?AV?$istreambuf_iterator@DV?$char_traits@D@_STL@@@2@V32@0AAVios_base@2@AAHPAUtm@@@Z 0042c2a0 f i stlport_vc71_static:locale_impl.obj
 0001:0002b330       ?do_put@?$num_put@GV?$ostreambuf_iterator@GV?$char_traits@G@_STL@@@_STL@@@_STL@@MBE?AV?$ostreambuf_iterator@GV?$char_traits@G@_STL@@@2@V32@AAVios_base@2@GO@Z 0042c330 f i stlport_vc71_static:locale_impl.obj
 0001:0002b370       ??$_M_do_put_float@GV?$ostreambuf_iterator@GV?$char_traits@G@_STL@@@_STL@@O@_STL@@YA?AV?$ostreambuf_iterator@GV?$char_traits@G@_STL@@@0@V10@AAVios_base@0@GO@Z 0042c370 f i stlport_vc71_static:locale_impl.obj
 0001:0002b480       ??$__put_float@V?$ostreambuf_iterator@GV?$char_traits@G@_STL@@@_STL@@@_STL@@YA?AV?$ostreambuf_iterator@GV?$char_traits@G@_STL@@@0@PAD0V10@AAVios_base@0@GGGABV?$basic_string@DV?$char_traits@D@_STL@@V?$allocator@D@2@@0@@Z 0042c480 f i stlport_vc71_static:locale_impl.obj
 0001:0002b610       ??$__find@PAGG@_STL@@YAPAGPAG0ABGABUrandom_access_iterator_tag@0@@Z 0042c610 f i stlport_vc71_static:locale_impl.obj
 0001:0002b690       ??$__copy_float_and_fill@GV?$ostreambuf_iterator@GV?$char_traits@G@_STL@@@_STL@@@_STL@@YA?AV?$ostreambuf_iterator@GV?$char_traits@G@_STL@@@0@PBG0V10@HHGGG@Z 0042c690 f i stlport_vc71_static:locale_impl.obj
 0001:0002b7c0       ?do_put@?$num_put@GV?$ostreambuf_iterator@GV?$char_traits@G@_STL@@@_STL@@@_STL@@MBE?AV?$ostreambuf_iterator@GV?$char_traits@G@_STL@@@2@V32@AAVios_base@2@GN@Z 0042c7c0 f i stlport_vc71_static:locale_impl.obj
 0001:0002b800       ??$_M_do_put_float@GV?$ostreambuf_iterator@GV?$char_traits@G@_STL@@@_STL@@N@_STL@@YA?AV?$ostreambuf_iterator@GV?$char_traits@G@_STL@@@0@V10@AAVios_base@0@GN@Z 0042c800 f i stlport_vc71_static:locale_impl.obj
 0001:0002b910       ?do_get_time@?$time_get@GV?$istreambuf_iterator@GV?$char_traits@G@_STL@@@_STL@@@_STL@@MBE?AV?$istreambuf_iterator@GV?$char_traits@G@_STL@@@2@V32@0AAVios_base@2@AAHPAUtm@@@Z 0042c910 f i stlport_vc71_static:locale_impl.obj
 0001:0002b980       ??$__get_formatted_time@V?$istreambuf_iterator@GV?$char_traits@G@_STL@@@_STL@@PBD@_STL@@YAPBDV?$istreambuf_iterator@GV?$char_traits@G@_STL@@@0@0PBD1ABV_Time_Info@0@AAHPAUtm@@@Z 0042c980 f i stlport_vc71_static:locale_impl.obj
 0001:0002bd10       ?do_get_date@?$time_get@GV?$istreambuf_iterator@GV?$char_traits@G@_STL@@@_STL@@@_STL@@MBE?AV?$istreambuf_iterator@GV?$char_traits@G@_STL@@@2@V32@0AAVios_base@2@AAHPAUtm@@@Z 0042cd10 f i stlport_vc71_static:locale_impl.obj
 0001:0002bda0       ??0_Loc_init@ios_base@_STL@@QAE@XZ 0042cda0 f   stlport_vc71_static:locale_impl.obj
 0001:0002bdb0       ?do_get@?$money_get@DV?$istreambuf_iterator@DV?$char_traits@D@_STL@@@_STL@@@_STL@@MBE?AV?$istreambuf_iterator@DV?$char_traits@D@_STL@@@2@V32@0_NAAVios_base@2@AAHAAV?$basic_string@DV?$char_traits@D@_STL@@V?$allocator@D@2@@2@@Z 0042cdb0 f i stlport_vc71_static:locale_impl.obj
 0001:0002c910       ??$mismatch@V?$istreambuf_iterator@DV?$char_traits@D@_STL@@@_STL@@PAD@_STL@@YA?AU?$pair@V?$istreambuf_iterator@DV?$char_traits@D@_STL@@@_STL@@PAD@0@V?$istreambuf_iterator@DV?$char_traits@D@_STL@@@0@0PAD@Z 0042d910 f i stlport_vc71_static:locale_impl.obj
 0001:0002c970       ?_M_insert_aux@?$basic_string@DV?$char_traits@D@_STL@@V?$allocator@D@2@@_STL@@AAEPADPADD@Z 0042d970 f i stlport_vc71_static:locale_impl.obj
 0001:0002cac0       ??$__get_monetary_value@V?$istreambuf_iterator@DV?$char_traits@D@_STL@@@_STL@@V?$back_insert_iterator@V?$basic_string@DV?$char_traits@D@_STL@@V?$allocator@D@2@@_STL@@@2@D@_STL@@YA_NAAV?$istreambuf_iterator@DV?$char_traits@D@_STL@@@0@V10@V?$back_insert_iterator@V?$basic_string@DV?$char_traits@D@_STL@@V?$allocator@D@2@@_STL@@@0@ABV?$ctype@D@0@DHDABV?$basic_string@DV?$char_traits@D@_STL@@V?$allocator@D@2@@0@AA_N@Z 0042dac0 f i stlport_vc71_static:locale_impl.obj
 0001:0002cd50       ?do_get@?$money_get@GV?$istreambuf_iterator@GV?$char_traits@G@_STL@@@_STL@@@_STL@@MBE?AV?$istreambuf_iterator@GV?$char_traits@G@_STL@@@2@V32@0_NAAVios_base@2@AAHAAV?$basic_string@GV?$char_traits@G@_STL@@V?$allocator@G@2@@2@@Z 0042dd50 f i stlport_vc71_static:locale_impl.obj
 0001:0002d8c0       ??$mismatch@V?$istreambuf_iterator@GV?$char_traits@G@_STL@@@_STL@@PAG@_STL@@YA?AU?$pair@V?$istreambuf_iterator@GV?$char_traits@G@_STL@@@_STL@@PAG@0@V?$istreambuf_iterator@GV?$char_traits@G@_STL@@@0@0PAG@Z 0042e8c0 f i stlport_vc71_static:locale_impl.obj
 0001:0002d930       ??$__get_string@V?$istreambuf_iterator@GV?$char_traits@G@_STL@@@_STL@@PAG@_STL@@YA?AU?$pair@V?$istreambuf_iterator@GV?$char_traits@G@_STL@@@_STL@@_N@0@V?$istreambuf_iterator@GV?$char_traits@G@_STL@@@0@0PAG1@Z 0042e930 f i stlport_vc71_static:locale_impl.obj
 0001:0002d980       ?insert@?$basic_string@GV?$char_traits@G@_STL@@V?$allocator@G@2@@_STL@@QAEPAGPAGG@Z 0042e980 f i stlport_vc71_static:locale_impl.obj
 0001:0002d9c0       ?_M_insert_aux@?$basic_string@GV?$char_traits@G@_STL@@V?$allocator@G@2@@_STL@@AAEPAGPAGG@Z 0042e9c0 f i stlport_vc71_static:locale_impl.obj
 0001:0002dab0       ??$__get_monetary_value@V?$istreambuf_iterator@GV?$char_traits@G@_STL@@@_STL@@V?$back_insert_iterator@V?$basic_string@GV?$char_traits@G@_STL@@V?$allocator@G@2@@_STL@@@2@G@_STL@@YA_NAAV?$istreambuf_iterator@GV?$char_traits@G@_STL@@@0@V10@V?$back_insert_iterator@V?$basic_string@GV?$char_traits@G@_STL@@V?$allocator@G@2@@_STL@@@0@ABV?$ctype@G@0@GHGABV?$basic_string@DV?$char_traits@D@_STL@@V?$allocator@D@2@@0@AA_N@Z 0042eab0 f i stlport_vc71_static:locale_impl.obj
 0001:0002dd50       ??4?$basic_string@GV?$char_traits@G@_STL@@V?$allocator@G@2@@_STL@@QAEAAV01@ABV01@@Z 0042ed50 f i stlport_vc71_static:locale_impl.obj
 0001:0002dd80       ??$_M_assign_dispatch@PAG@?$basic_string@GV?$char_traits@G@_STL@@V?$allocator@G@2@@_STL@@AAEAAV01@PAG0ABU__false_type@1@@Z 0042ed80 f i stlport_vc71_static:locale_impl.obj
 0001:0002ddf0       ?erase@?$basic_string@GV?$char_traits@G@_STL@@V?$allocator@G@2@@_STL@@QAEPAGPAG0@Z 0042edf0 f i stlport_vc71_static:locale_impl.obj
 0001:0002de30       ??$append@PAG@?$basic_string@GV?$char_traits@G@_STL@@V?$allocator@G@2@@_STL@@AAEAAV01@PAG0ABUforward_iterator_tag@1@@Z 0042ee30 f i stlport_vc71_static:locale_impl.obj
 0001:0002df60       ?narrow@?$ctype@D@_STL@@QBEDDD@Z 0042ef60 f i stlport_vc71_static:ios.obj
 0001:0002df70       ?widen@?$ctype@G@_STL@@QBEGD@Z 0042ef70 f i stlport_vc71_static:ios.obj
 0001:0002df80       ?narrow@?$ctype@G@_STL@@QBEDGD@Z 0042ef80 f i stlport_vc71_static:ios.obj
 0001:0002df90       ??0failure@ios_base@_STL@@QAE@ABV?$basic_string@DV?$char_traits@D@_STL@@V?$allocator@D@2@@2@@Z 0042ef90 f   stlport_vc71_static:ios.obj
 0001:0002dfb0       ??1failure@ios_base@_STL@@UAE@XZ 0042efb0 f   stlport_vc71_static:ios.obj
 0001:0002dfc0       ?_M_invoke_callbacks@ios_base@_STL@@IAEXW4event@12@@Z 0042efc0 f   stlport_vc71_static:ios.obj
 0001:0002dff0       ?exceptions@?$basic_ios@DV?$char_traits@D@_STL@@@_STL@@QBEHXZ 0042eff0 f i stlport_vc71_static:ios.obj
 0001:0002e000       ?tie@?$basic_ios@GV?$char_traits@G@_STL@@@_STL@@QBEPAV?$basic_ostream@GV?$char_traits@G@_STL@@@2@XZ 0042f000 f i stlport_vc71_static:ios.obj
 0001:0002e010       ?tie@?$basic_ios@GV?$char_traits@G@_STL@@@_STL@@QAEPAV?$basic_ostream@GV?$char_traits@G@_STL@@@2@PAV32@@Z 0042f010 f i stlport_vc71_static:ios.obj
 0001:0002e020       ?rdbuf@?$basic_ios@GV?$char_traits@G@_STL@@@_STL@@QBEPAV?$basic_streambuf@GV?$char_traits@G@_STL@@@2@XZ 0042f020 f i stlport_vc71_static:ios.obj
 0001:0002e030       ?fill@?$basic_ios@GV?$char_traits@G@_STL@@@_STL@@QBEGXZ 0042f030 f i stlport_vc71_static:ios.obj
 0001:0002e040       ?fill@?$basic_ios@GV?$char_traits@G@_STL@@@_STL@@QAEGG@Z 0042f040 f i stlport_vc71_static:ios.obj
 0001:0002e050       ?exceptions@?$basic_ios@GV?$char_traits@G@_STL@@@_STL@@QBEHXZ 0042f050 f i stlport_vc71_static:ios.obj
 0001:0002e060       ?eq_int_type@?$__char_traits_base@GG@_STL@@SA_NABG0@Z 0042f060 f i stlport_vc71_static:ios.obj
 0001:0002e080       ?eof@?$__char_traits_base@GG@_STL@@SAGXZ 0042f080 f i stlport_vc71_static:ios.obj
 0001:0002e090       ?narrow@?$basic_ios@DV?$char_traits@D@_STL@@@_STL@@QBEDDD@Z 0042f090 f i stlport_vc71_static:ios.obj
 0001:0002e0a0       ?narrow@?$basic_ios@GV?$char_traits@G@_STL@@@_STL@@QBEDGD@Z 0042f0a0 f i stlport_vc71_static:ios.obj
 0001:0002e0b0       ?widen@?$basic_ios@GV?$char_traits@G@_STL@@@_STL@@QBEGD@Z 0042f0b0 f i stlport_vc71_static:ios.obj
 0001:0002e0c0       ?_M_handle_exception@?$basic_ios@GV?$char_traits@G@_STL@@@_STL@@QAEXH@Z 0042f0c0 f i stlport_vc71_static:ios.obj
 0001:0002e0e0       ??0?$pair@PAJI@_STL@@QAE@ABQAJABI@Z 0042f0e0 f i stlport_vc71_static:ios.obj
 0001:0002e100       ??0?$pair@PAPAXI@_STL@@QAE@ABQAPAXABI@Z 0042f100 f i stlport_vc71_static:ios.obj
 0001:0002e120       ??0?$pair@PAU?$pair@P6AXW4event@ios_base@_STL@@AAV23@H@ZH@_STL@@I@_STL@@QAE@ABQAU?$pair@P6AXW4event@ios_base@_STL@@AAV23@H@ZH@1@ABI@Z 0042f120 f i stlport_vc71_static:ios.obj
 0001:0002e140       ??0?$pair@P6AXW4event@ios_base@_STL@@AAV23@H@ZH@_STL@@QAE@XZ 0042f140 f i stlport_vc71_static:ios.obj
 0001:0002e150       ??0?$pair@P6AXW4event@ios_base@_STL@@AAV23@H@ZH@_STL@@QAE@ABQ6AXW4event@ios_base@1@AAV31@H@ZABH@Z 0042f150 f i stlport_vc71_static:ios.obj
 0001:0002e170       ??$fill@PAJJ@_STL@@YAXPAJ0ABJ@Z 0042f170 f i stlport_vc71_static:ios.obj
 0001:0002e190       ??$fill@PAPAXPAX@_STL@@YAXPAPAX0ABQAX@Z 0042f190 f i stlport_vc71_static:ios.obj
 0001:0002e1b0       ??$fill@PAU?$pair@P6AXW4event@ios_base@_STL@@AAV23@H@ZH@_STL@@U12@@_STL@@YAXPAU?$pair@P6AXW4event@ios_base@_STL@@AAV23@H@ZH@0@0ABU10@@Z 0042f1b0 f i stlport_vc71_static:ios.obj
 0001:0002e1e0       ?pubimbue@?$basic_streambuf@GV?$char_traits@G@_STL@@@_STL@@QAE?AVlocale@2@ABV32@@Z 0042f1e0 f i stlport_vc71_static:ios.obj
 0001:0002e270       ?_Ret@?$_BothPtrType@PBU?$pair@P6AXW4event@ios_base@_STL@@AAV23@H@ZH@_STL@@PAU12@@_STL@@SA?AU__true_type@2@XZ 0042f270 f i stlport_vc71_static:ios.obj
 0001:0002e280       ?_Ret@?$_BothPtrType@PBJPAJ@_STL@@SA?AU__true_type@2@XZ 0042f280 f i stlport_vc71_static:ios.obj
 0001:0002e290       ?_Ret@?$_BothPtrType@PBQAXPAPAX@_STL@@SA?AU__true_type@2@XZ 0042f290 f i stlport_vc71_static:ios.obj
 0001:0002e2a0       ?_Ret@?$_OKToMemCpy@U?$pair@P6AXW4event@ios_base@_STL@@AAV23@H@ZH@_STL@@U12@@_STL@@SA?AU__false_type@2@XZ 0042f2a0 f i stlport_vc71_static:ios.obj
 0001:0002e2b0       ?_Ret@?$_OKToMemCpy@JJ@_STL@@SA?AU__true_type@2@XZ 0042f2b0 f i stlport_vc71_static:ios.obj
 0001:0002e2c0       ?_Ret@?$_OKToMemCpy@PAXPAX@_STL@@SA?AU__true_type@2@XZ 0042f2c0 f i stlport_vc71_static:ios.obj
 0001:0002e2d0       ??$_IsOKToMemCpy@U?$pair@P6AXW4event@ios_base@_STL@@AAV23@H@ZH@_STL@@U12@@_STL@@YA?AU?$_OKToMemCpy@U?$pair@P6AXW4event@ios_base@_STL@@AAV23@H@ZH@_STL@@U12@@0@PAU?$pair@P6AXW4event@ios_base@_STL@@AAV23@H@ZH@0@0@Z 0042f2d0 f i stlport_vc71_static:ios.obj
 0001:0002e2e0       ??$_IsOKToMemCpy@JJ@_STL@@YA?AU?$_OKToMemCpy@JJ@0@PAJ0@Z 0042f2e0 f i stlport_vc71_static:ios.obj
 0001:0002e2f0       ??$__copy_ptrs@PBJPAJ@_STL@@YAPAJPBJ0PAJABU__true_type@0@@Z 0042f2f0 f i stlport_vc71_static:ios.obj
 0001:0002e320       ??$_IsOKToMemCpy@PAXPAX@_STL@@YA?AU?$_OKToMemCpy@PAXPAX@0@PAPAX0@Z 0042f320 f i stlport_vc71_static:ios.obj
 0001:0002e330       ??$__copy_ptrs@PBQAXPAPAX@_STL@@YAPAPAXPBQAX0PAPAXABU__true_type@0@@Z 0042f330 f i stlport_vc71_static:ios.obj
 0001:0002e360       ??$__copy@PBU?$pair@P6AXW4event@ios_base@_STL@@AAV23@H@ZH@_STL@@PAU12@H@_STL@@YAPAU?$pair@P6AXW4event@ios_base@_STL@@AAV23@H@ZH@0@PBU10@0PAU10@ABUrandom_access_iterator_tag@0@PAH@Z 0042f360 f i stlport_vc71_static:ios.obj
 0001:0002e3a0       ??_Efailure@ios_base@_STL@@UAEPAXI@Z 0042f3a0 f i stlport_vc71_static:ios.obj
 0001:0002e3a0       ??_Gfailure@ios_base@_STL@@UAEPAXI@Z 0042f3a0 f i stlport_vc71_static:ios.obj
 0001:0002e3c0       ?imbue@ios_base@_STL@@QAE?AVlocale@2@ABV32@@Z 0042f3c0 f   stlport_vc71_static:ios.obj
 0001:0002e470       ?_S_eof@?$basic_ios@GV?$char_traits@G@_STL@@@_STL@@SA_NG@Z 0042f470 f i stlport_vc71_static:ios.obj
 0001:0002e480       ??$_Stl_expand_array@J@_STL@@YA?AU?$pair@PAJI@0@PAJIH@Z 0042f480 f i stlport_vc71_static:ios.obj
 0001:0002e510       ??$_Stl_expand_array@PAX@_STL@@YA?AU?$pair@PAPAXI@0@PAPAXIH@Z 0042f510 f i stlport_vc71_static:ios.obj
 0001:0002e5a0       ??$_Stl_expand_array@U?$pair@P6AXW4event@ios_base@_STL@@AAV23@H@ZH@_STL@@@_STL@@YA?AU?$pair@PAU?$pair@P6AXW4event@ios_base@_STL@@AAV23@H@ZH@_STL@@I@0@PAU?$pair@P6AXW4event@ios_base@_STL@@AAV23@H@ZH@0@IH@Z 0042f5a0 f i stlport_vc71_static:ios.obj
 0001:0002e640       ??$make_pair@P6AXW4event@ios_base@_STL@@AAV23@H@ZH@_STL@@YA?AU?$pair@P6AXW4event@ios_base@_STL@@AAV23@H@ZH@0@ABQ6AXW4event@ios_base@0@AAV30@H@ZABH@Z 0042f640 f i stlport_vc71_static:ios.obj
 0001:0002e660       ??$__copy_aux@PBJPAJ@_STL@@YAPAJPBJ0PAJABU__true_type@0@@Z 0042f660 f i stlport_vc71_static:ios.obj
 0001:0002e690       ??$__copy_aux@PBQAXPAPAX@_STL@@YAPAPAXPBQAX0PAPAXABU__true_type@0@@Z 0042f690 f i stlport_vc71_static:ios.obj
 0001:0002e6c0       ??$__copy_ptrs@PBU?$pair@P6AXW4event@ios_base@_STL@@AAV23@H@ZH@_STL@@PAU12@@_STL@@YAPAU?$pair@P6AXW4event@ios_base@_STL@@AAV23@H@ZH@0@PBU10@0PAU10@ABU__false_type@0@@Z 0042f6c0 f i stlport_vc71_static:ios.obj
 0001:0002e700       ?xalloc@ios_base@_STL@@SAHXZ 0042f700 f   stlport_vc71_static:ios.obj
 0001:0002e730       ??$copy@PBJPAJ@_STL@@YAPAJPBJ0PAJ@Z 0042f730 f i stlport_vc71_static:ios.obj
 0001:0002e760       ??$copy@PBQAXPAPAX@_STL@@YAPAPAXPBQAX0PAPAX@Z 0042f760 f i stlport_vc71_static:ios.obj
 0001:0002e790       ??$__copy_aux@PBU?$pair@P6AXW4event@ios_base@_STL@@AAV23@H@ZH@_STL@@PAU12@@_STL@@YAPAU?$pair@P6AXW4event@ios_base@_STL@@AAV23@H@ZH@0@PBU10@0PAU10@ABU__true_type@0@@Z 0042f790 f i stlport_vc71_static:ios.obj
 0001:0002e7d0       ??$_Stl_copy_array@J@_STL@@YAPAJPBJI@Z 0042f7d0 f i stlport_vc71_static:ios.obj
 0001:0002e810       ??$_Stl_copy_array@PAX@_STL@@YAPAPAXPBQAXI@Z 0042f810 f i stlport_vc71_static:ios.obj
 0001:0002e850       ??$copy@PBU?$pair@P6AXW4event@ios_base@_STL@@AAV23@H@ZH@_STL@@PAU12@@_STL@@YAPAU?$pair@P6AXW4event@ios_base@_STL@@AAV23@H@ZH@0@PBU10@0PAU10@@Z 0042f850 f i stlport_vc71_static:ios.obj
 0001:0002e890       ??$_Stl_copy_array@U?$pair@P6AXW4event@ios_base@_STL@@AAV23@H@ZH@_STL@@@_STL@@YAPAU?$pair@P6AXW4event@ios_base@_STL@@AAV23@H@ZH@0@PBU10@I@Z 0042f890 f i stlport_vc71_static:ios.obj
 0001:0002e8d0       ?grouping@?$numpunct@G@_STL@@QBE?AV?$basic_string@DV?$char_traits@D@_STL@@V?$allocator@D@2@@2@XZ 0042f8d0 f i stlport_vc71_static:ios.obj
 0001:0002e8f0       ?_M_throw_failure@ios_base@_STL@@IAEXXZ 0042f8f0 f   stlport_vc71_static:ios.obj
 0001:0002e950       ??0failure@ios_base@_STL@@QAE@ABV012@@Z 0042f950 f i stlport_vc71_static:ios.obj
 0001:0002e980       ??0ios_base@_STL@@IAE@XZ   0042f980 f   stlport_vc71_static:ios.obj
 0001:0002ea00       ??1ios_base@_STL@@UAE@XZ   0042fa00 f   stlport_vc71_static:ios.obj
 0001:0002eae0       ??1?$basic_ios@GV?$char_traits@G@_STL@@@_STL@@UAE@XZ 0042fae0 f i stlport_vc71_static:ios.obj
 0001:0002eaf0       ??_G?$basic_ios@GV?$char_traits@G@_STL@@@_STL@@UAEPAXI@Z 0042faf0 f i stlport_vc71_static:ios.obj
 0001:0002eaf0       ??_E?$basic_ios@GV?$char_traits@G@_STL@@@_STL@@UAEPAXI@Z 0042faf0 f i stlport_vc71_static:ios.obj
 0001:0002eb10       ??0?$basic_ios@GV?$char_traits@G@_STL@@@_STL@@IAE@XZ 0042fb10 f i stlport_vc71_static:ios.obj
 0001:0002eb30       ?iword@ios_base@_STL@@QAEAAJH@Z 0042fb30 f   stlport_vc71_static:ios.obj
 0001:0002eba0       ?pword@ios_base@_STL@@QAEAAPAXH@Z 0042fba0 f   stlport_vc71_static:ios.obj
 0001:0002ec10       ?register_callback@ios_base@_STL@@QAEXP6AXW4event@12@AAV12@H@ZH@Z 0042fc10 f   stlport_vc71_static:ios.obj
 0001:0002ec80       ?_M_copy_state@ios_base@_STL@@IAEXABV12@@Z 0042fc80 f   stlport_vc71_static:ios.obj
 0001:0002ee00       ??_Eios_base@_STL@@UAEPAXI@Z 0042fe00 f i stlport_vc71_static:ios.obj
 0001:0002ee00       ??_Gios_base@_STL@@UAEPAXI@Z 0042fe00 f i stlport_vc71_static:ios.obj
 0001:0002ee20       ?exceptions@?$basic_ios@DV?$char_traits@D@_STL@@@_STL@@QAEXH@Z 0042fe20 f i stlport_vc71_static:ios.obj
 0001:0002ee50       ?clear@?$basic_ios@GV?$char_traits@G@_STL@@@_STL@@QAEXH@Z 0042fe50 f i stlport_vc71_static:ios.obj
 0001:0002ee70       ?setstate@?$basic_ios@GV?$char_traits@G@_STL@@@_STL@@QAEXH@Z 0042fe70 f i stlport_vc71_static:ios.obj
 0001:0002eea0       ?exceptions@?$basic_ios@GV?$char_traits@G@_STL@@@_STL@@QAEXH@Z 0042fea0 f i stlport_vc71_static:ios.obj
 0001:0002eed0       ?copyfmt@?$basic_ios@DV?$char_traits@D@_STL@@@_STL@@QAEAAV12@ABV12@@Z 0042fed0 f i stlport_vc71_static:ios.obj
 0001:0002ef40       ?rdbuf@?$basic_ios@GV?$char_traits@G@_STL@@@_STL@@QAEPAV?$basic_streambuf@GV?$char_traits@G@_STL@@@2@PAV32@@Z 0042ff40 f i stlport_vc71_static:ios.obj
 0001:0002ef70       ?copyfmt@?$basic_ios@GV?$char_traits@G@_STL@@@_STL@@QAEAAV12@ABV12@@Z 0042ff70 f i stlport_vc71_static:ios.obj
 0001:0002eff0       ?imbue@?$basic_ios@GV?$char_traits@G@_STL@@@_STL@@QAE?AVlocale@2@ABV32@@Z 0042fff0 f i stlport_vc71_static:ios.obj
 0001:0002f120       ?init@?$basic_ios@GV?$char_traits@G@_STL@@@_STL@@IAEXPAV?$basic_streambuf@GV?$char_traits@G@_STL@@@2@@Z 00430120 f i stlport_vc71_static:ios.obj
 0001:0002f1e0       ??0?$basic_ios@DV?$char_traits@D@_STL@@@_STL@@QAE@PAV?$basic_streambuf@DV?$char_traits@D@_STL@@@1@@Z 004301e0 f i stlport_vc71_static:ios.obj
 0001:0002f240       ??0?$basic_ios@GV?$char_traits@G@_STL@@@_STL@@QAE@PAV?$basic_streambuf@GV?$char_traits@G@_STL@@@1@@Z 00430240 f i stlport_vc71_static:ios.obj
 0001:0002f2a0       ?_FILE_O_bump@_STL@@YAXPAU_iobuf@@H@Z 004302a0 f i stlport_vc71_static:streambuf.obj
 0001:0002f2b0       ??1?$basic_streambuf@DV?$char_traits@D@_STL@@@_STL@@UAE@XZ 004302b0 f   stlport_vc71_static:streambuf.obj
 0001:0002f2c0       ??0?$basic_streambuf@DV?$char_traits@D@_STL@@@_STL@@IAE@PAU_iobuf@@0@Z 004302c0 f   stlport_vc71_static:streambuf.obj
 0001:0002f330       ?imbue@?$basic_streambuf@DV?$char_traits@D@_STL@@@_STL@@MAEXABVlocale@2@@Z 00430330 f   stlport_vc71_static:streambuf.obj
 0001:0002f340       ?setbuf@?$basic_streambuf@DV?$char_traits@D@_STL@@@_STL@@MAEPAV12@PADH@Z 00430340 f   stlport_vc71_static:streambuf.obj
 0001:0002f350       ?sync@?$basic_streambuf@DV?$char_traits@D@_STL@@@_STL@@MAEHXZ 00430350 f   stlport_vc71_static:streambuf.obj
 0001:0002f360       ?showmanyc@?$basic_streambuf@DV?$char_traits@D@_STL@@@_STL@@MAEHXZ 00430360 f   stlport_vc71_static:streambuf.obj
 0001:0002f370       ?pubimbue@?$basic_streambuf@DV?$char_traits@D@_STL@@@_STL@@QAE?AVlocale@2@ABV32@@Z 00430370 f   stlport_vc71_static:streambuf.obj
 0001:0002f400       ??0?$fpos@H@_STL@@QAE@J@Z  00430400 f i stlport_vc71_static:streambuf.obj
 0001:0002f420       ?eback@?$basic_streambuf@GV?$char_traits@G@_STL@@@_STL@@IBEPAGXZ 00430420 f i stlport_vc71_static:streambuf.obj
 0001:0002f430       ?gptr@?$basic_streambuf@GV?$char_traits@G@_STL@@@_STL@@IBEPAGXZ 00430430 f i stlport_vc71_static:streambuf.obj
 0001:0002f440       ?egptr@?$basic_streambuf@GV?$char_traits@G@_STL@@@_STL@@IBEPAGXZ 00430440 f i stlport_vc71_static:streambuf.obj
 0001:0002f450       ?gbump@?$basic_streambuf@GV?$char_traits@G@_STL@@@_STL@@IAEXH@Z 00430450 f i stlport_vc71_static:streambuf.obj
 0001:0002f460       ?setg@?$basic_streambuf@GV?$char_traits@G@_STL@@@_STL@@IAEXPAG00@Z 00430460 f i stlport_vc71_static:streambuf.obj
 0001:0002f480       ?_M_eback@?$basic_streambuf@GV?$char_traits@G@_STL@@@_STL@@QBEPAGXZ 00430480 f i stlport_vc71_static:streambuf.obj
 0001:0002f490       ?_M_gptr@?$basic_streambuf@GV?$char_traits@G@_STL@@@_STL@@QBEPAGXZ 00430490 f i stlport_vc71_static:streambuf.obj
 0001:0002f4a0       ?_M_egptr@?$basic_streambuf@GV?$char_traits@G@_STL@@@_STL@@QBEPAGXZ 004304a0 f i stlport_vc71_static:streambuf.obj
 0001:0002f4b0       ?_M_gbump@?$basic_streambuf@GV?$char_traits@G@_STL@@@_STL@@QAEXH@Z 004304b0 f i stlport_vc71_static:streambuf.obj
 0001:0002f4c0       ?_M_setg@?$basic_streambuf@GV?$char_traits@G@_STL@@@_STL@@QAEXPAG00@Z 004304c0 f i stlport_vc71_static:streambuf.obj
 0001:0002f4e0       ?pbase@?$basic_streambuf@GV?$char_traits@G@_STL@@@_STL@@IBEPAGXZ 004304e0 f i stlport_vc71_static:streambuf.obj
 0001:0002f4f0       ?pptr@?$basic_streambuf@GV?$char_traits@G@_STL@@@_STL@@IBEPAGXZ 004304f0 f i stlport_vc71_static:streambuf.obj
 0001:0002f500       ?epptr@?$basic_streambuf@GV?$char_traits@G@_STL@@@_STL@@IBEPAGXZ 00430500 f i stlport_vc71_static:streambuf.obj
 0001:0002f510       ?pbump@?$basic_streambuf@GV?$char_traits@G@_STL@@@_STL@@IAEXH@Z 00430510 f i stlport_vc71_static:streambuf.obj
 0001:0002f520       ?setp@?$basic_streambuf@GV?$char_traits@G@_STL@@@_STL@@IAEXPAG0@Z 00430520 f i stlport_vc71_static:streambuf.obj
 0001:0002f540       ?pubsetbuf@?$basic_streambuf@GV?$char_traits@G@_STL@@@_STL@@QAEPAV12@PAGH@Z 00430540 f i stlport_vc71_static:streambuf.obj
 0001:0002f550       ?pubseekoff@?$basic_streambuf@GV?$char_traits@G@_STL@@@_STL@@QAE?AV?$fpos@H@2@JHH@Z 00430550 f i stlport_vc71_static:streambuf.obj
 0001:0002f570       ?pubseekpos@?$basic_streambuf@GV?$char_traits@G@_STL@@@_STL@@QAE?AV?$fpos@H@2@V32@H@Z 00430570 f i stlport_vc71_static:streambuf.obj
 0001:0002f590       ?pubsync@?$basic_streambuf@GV?$char_traits@G@_STL@@@_STL@@QAEHXZ 00430590 f i stlport_vc71_static:streambuf.obj
 0001:0002f5a0       ?sputn@?$basic_streambuf@GV?$char_traits@G@_STL@@@_STL@@QAEHPBGH@Z 004305a0 f i stlport_vc71_static:streambuf.obj
 0001:0002f5b0       ?_M_sputnc@?$basic_streambuf@GV?$char_traits@G@_STL@@@_STL@@QAEHGH@Z 004305b0 f i stlport_vc71_static:streambuf.obj
 0001:0002f5c0       ?in_avail@?$basic_streambuf@GV?$char_traits@G@_STL@@@_STL@@QAEHXZ 004305c0 f i stlport_vc71_static:streambuf.obj
 0001:0002f5e0       ?sgetn@?$basic_streambuf@GV?$char_traits@G@_STL@@@_STL@@QAEHPAGH@Z 004305e0 f i stlport_vc71_static:streambuf.obj
 0001:0002f5f0       ?getloc@?$basic_streambuf@GV?$char_traits@G@_STL@@@_STL@@QBE?AVlocale@2@XZ 004305f0 f i stlport_vc71_static:streambuf.obj
 0001:0002f610       ?eq@?$__char_traits_base@GG@_STL@@SA_NABG0@Z 00430610 f i stlport_vc71_static:streambuf.obj
 0001:0002f630       ?to_int_type@?$__char_traits_base@GG@_STL@@SAGABG@Z 00430630 f i stlport_vc71_static:streambuf.obj
 0001:0002f640       ??1?$basic_streambuf@GV?$char_traits@G@_STL@@@_STL@@UAE@XZ 00430640 f i stlport_vc71_static:streambuf.obj
 0001:0002f650       ??0?$basic_streambuf@GV?$char_traits@G@_STL@@@_STL@@IAE@XZ 00430650 f i stlport_vc71_static:streambuf.obj
 0001:0002f680       ?setbuf@?$basic_streambuf@GV?$char_traits@G@_STL@@@_STL@@MAEPAV12@PAGH@Z 00430680 f i stlport_vc71_static:streambuf.obj
 0001:0002f690       ?seekoff@?$basic_streambuf@GV?$char_traits@G@_STL@@@_STL@@MAE?AV?$fpos@H@2@JHH@Z 00430690 f i stlport_vc71_static:streambuf.obj
 0001:0002f6b0       ?seekpos@?$basic_streambuf@GV?$char_traits@G@_STL@@@_STL@@MAE?AV?$fpos@H@2@V32@H@Z 004306b0 f i stlport_vc71_static:streambuf.obj
 0001:0002f6d0       ?sync@?$basic_streambuf@GV?$char_traits@G@_STL@@@_STL@@MAEHXZ 004306d0 f i stlport_vc71_static:streambuf.obj
 0001:0002f6e0       ?showmanyc@?$basic_streambuf@GV?$char_traits@G@_STL@@@_STL@@MAEHXZ 004306e0 f i stlport_vc71_static:streambuf.obj
 0001:0002f6f0       ?underflow@?$basic_streambuf@GV?$char_traits@G@_STL@@@_STL@@MAEGXZ 004306f0 f i stlport_vc71_static:streambuf.obj
 0001:0002f700       ?pbackfail@?$basic_streambuf@GV?$char_traits@G@_STL@@@_STL@@MAEGG@Z 00430700 f i stlport_vc71_static:streambuf.obj
 0001:0002f710       ?overflow@?$basic_streambuf@GV?$char_traits@G@_STL@@@_STL@@MAEGG@Z 00430710 f i stlport_vc71_static:streambuf.obj
 0001:0002f720       ?imbue@?$basic_streambuf@GV?$char_traits@G@_STL@@@_STL@@MAEXABVlocale@2@@Z 00430720 f i stlport_vc71_static:streambuf.obj
 0001:0002f730       ??_E?$basic_streambuf@GV?$char_traits@G@_STL@@@_STL@@UAEPAXI@Z 00430730 f i stlport_vc71_static:streambuf.obj
 0001:0002f730       ??_G?$basic_streambuf@GV?$char_traits@G@_STL@@@_STL@@UAEPAXI@Z 00430730 f i stlport_vc71_static:streambuf.obj
 0001:0002f750       ?copy@?$__char_traits_base@GG@_STL@@SAPAGPAGPBGI@Z 00430750 f i stlport_vc71_static:streambuf.obj
 0001:0002f780       ?assign@?$__char_traits_base@GG@_STL@@SAPAGPAGIG@Z 00430780 f i stlport_vc71_static:streambuf.obj
 0001:0002f7c0       ?seekoff@?$basic_streambuf@DV?$char_traits@D@_STL@@@_STL@@MAE?AV?$fpos@H@2@JHH@Z 004307c0 f   stlport_vc71_static:streambuf.obj
 0001:0002f7e0       ?seekpos@?$basic_streambuf@DV?$char_traits@D@_STL@@@_STL@@MAE?AV?$fpos@H@2@V32@H@Z 004307e0 f   stlport_vc71_static:streambuf.obj
 0001:0002f800       ?xsgetn@?$basic_streambuf@DV?$char_traits@D@_STL@@@_STL@@MAEHPADH@Z 00430800 f   stlport_vc71_static:streambuf.obj
 0001:0002f8b0       ?underflow@?$basic_streambuf@DV?$char_traits@D@_STL@@@_STL@@MAEHXZ 004308b0 f   stlport_vc71_static:streambuf.obj
 0001:0002f8c0       ?uflow@?$basic_streambuf@DV?$char_traits@D@_STL@@@_STL@@MAEHXZ 004308c0 f   stlport_vc71_static:streambuf.obj
 0001:0002f8f0       ?pbackfail@?$basic_streambuf@DV?$char_traits@D@_STL@@@_STL@@MAEHH@Z 004308f0 f   stlport_vc71_static:streambuf.obj
 0001:0002f900       ?xsputn@?$basic_streambuf@DV?$char_traits@D@_STL@@@_STL@@MAEHPBDH@Z 00430900 f   stlport_vc71_static:streambuf.obj
 0001:0002f9b0       ?_M_xsputnc@?$basic_streambuf@DV?$char_traits@D@_STL@@@_STL@@MAEHDH@Z 004309b0 f   stlport_vc71_static:streambuf.obj
 0001:0002fa70       ?overflow@?$basic_streambuf@DV?$char_traits@D@_STL@@@_STL@@MAEHH@Z 00430a70 f   stlport_vc71_static:streambuf.obj
 0001:0002fa80       ?_M_snextc_aux@?$basic_streambuf@DV?$char_traits@D@_STL@@@_STL@@AAEHXZ 00430a80 f   stlport_vc71_static:streambuf.obj
 0001:0002fae0       ?sgetc@?$basic_streambuf@GV?$char_traits@G@_STL@@@_STL@@QAEGXZ 00430ae0 f i stlport_vc71_static:streambuf.obj
 0001:0002fb00       ?sputbackc@?$basic_streambuf@GV?$char_traits@G@_STL@@@_STL@@QAEGG@Z 00430b00 f i stlport_vc71_static:streambuf.obj
 0001:0002fb30       ?sungetc@?$basic_streambuf@GV?$char_traits@G@_STL@@@_STL@@QAEGXZ 00430b30 f i stlport_vc71_static:streambuf.obj
 0001:0002fb50       ?stossc@?$basic_streambuf@GV?$char_traits@G@_STL@@@_STL@@QAEXXZ 00430b50 f i stlport_vc71_static:streambuf.obj
 0001:0002fb70       ?xsgetn@?$basic_streambuf@GV?$char_traits@G@_STL@@@_STL@@MAEHPAGH@Z 00430b70 f i stlport_vc71_static:streambuf.obj
 0001:0002fc20       ?uflow@?$basic_streambuf@GV?$char_traits@G@_STL@@@_STL@@MAEGXZ 00430c20 f i stlport_vc71_static:streambuf.obj
 0001:0002fc50       ?xsputn@?$basic_streambuf@GV?$char_traits@G@_STL@@@_STL@@MAEHPBGH@Z 00430c50 f i stlport_vc71_static:streambuf.obj
 0001:0002fd10       ?_M_xsputnc@?$basic_streambuf@GV?$char_traits@G@_STL@@@_STL@@MAEHGH@Z 00430d10 f i stlport_vc71_static:streambuf.obj
 0001:0002fdb0       ?_M_snextc_aux@?$basic_streambuf@GV?$char_traits@G@_STL@@@_STL@@AAEGXZ 00430db0 f i stlport_vc71_static:streambuf.obj
 0001:0002fdf0       ?snextc@?$basic_streambuf@GV?$char_traits@G@_STL@@@_STL@@QAEGXZ 00430df0 f i stlport_vc71_static:streambuf.obj
 0001:0002fe50       ??0bad_alloc@std@@QAE@PBD@Z 00430e50 f i stlport_vc71_static:dll_main.obj
 0001:0002fe70       ??_Gbad_alloc@std@@UAEPAXI@Z 00430e70 f i stlport_vc71_static:dll_main.obj
 0001:0002fe70       ??_Ebad_alloc@std@@UAEPAXI@Z 00430e70 f i stlport_vc71_static:dll_main.obj
 0001:0002fe90       ??1bad_alloc@std@@UAE@XZ   00430e90 f i stlport_vc71_static:dll_main.obj
 0001:0002fea0       ?allocate@__new_alloc@_STL@@SAPAXI@Z 00430ea0 f i stlport_vc71_static:dll_main.obj
 0001:0002feb0       ?deallocate@__new_alloc@_STL@@SAXPAXI@Z 00430eb0 f i stlport_vc71_static:dll_main.obj
 0001:0002fec0       ?__copy_trivial_backward@_STL@@YAPAXPBX0PAX@Z 00430ec0 f i stlport_vc71_static:dll_main.obj
 0001:0002fef0       ?_S_minimum@_Rb_tree_node_base@_STL@@SAPAU12@PAU12@@Z 00430ef0 f i stlport_vc71_static:dll_main.obj
 0001:0002ff10       ?_S_maximum@_Rb_tree_node_base@_STL@@SAPAU12@PAU12@@Z 00430f10 f i stlport_vc71_static:dll_main.obj
 0001:0002ff30       ?what@__Named_exception@_STL@@UBEPBDXZ 00430f30 f   stlport_vc71_static:dll_main.obj
 0001:0002ff50       ??1__Named_exception@_STL@@UAE@XZ 00430f50 f   stlport_vc71_static:dll_main.obj
 0001:0002ff70       ??1logic_error@_STL@@UAE@XZ 00430f70 f   stlport_vc71_static:dll_main.obj
 0001:0002ff90       ??1runtime_error@_STL@@UAE@XZ 00430f90 f   stlport_vc71_static:dll_main.obj
 0001:0002ffb0       ??1domain_error@_STL@@UAE@XZ 00430fb0 f   stlport_vc71_static:dll_main.obj
 0001:0002ffd0       ??1invalid_argument@_STL@@UAE@XZ 00430fd0 f   stlport_vc71_static:dll_main.obj
 0001:0002fff0       ??1length_error@_STL@@UAE@XZ 00430ff0 f   stlport_vc71_static:dll_main.obj
 0001:00030010       ??1out_of_range@_STL@@UAE@XZ 00431010 f   stlport_vc71_static:dll_main.obj
 0001:00030030       ??1range_error@_STL@@UAE@XZ 00431030 f   stlport_vc71_static:dll_main.obj
 0001:00030050       ??1overflow_error@_STL@@UAE@XZ 00431050 f   stlport_vc71_static:dll_main.obj
 0001:00030070       ??1underflow_error@_STL@@UAE@XZ 00431070 f   stlport_vc71_static:dll_main.obj
 0001:00030090       ?_M_terminate_string_aux@?$basic_string@DV?$char_traits@D@_STL@@V?$allocator@D@2@@_STL@@AAEXABU__false_type@2@@Z 00431090 f i stlport_vc71_static:dll_main.obj
 0001:00030110       ?address@?$allocator@D@_STL@@QBEPADAAD@Z 00431110 f i stlport_vc71_static:dll_main.obj
 0001:00030120       ?address@?$allocator@D@_STL@@QBEPBDABD@Z 00431120 f i stlport_vc71_static:dll_main.obj
 0001:00030130       ?max_size@?$allocator@D@_STL@@QBEIXZ 00431130 f i stlport_vc71_static:dll_main.obj
 0001:00030140       ?_S_round_up@?$__node_alloc@$0A@$0A@@_STL@@SAII@Z 00431140 f i stlport_vc71_static:dll_main.obj
 0001:00030150       ?__extra_before_chunk@?$__debug_alloc@V?$__node_alloc@$00$0A@@_STL@@@_STL@@CAIXZ 00431150 f i stlport_vc71_static:dll_main.obj
 0001:00030160       ?__extra_after_chunk@?$__debug_alloc@V?$__node_alloc@$00$0A@@_STL@@@_STL@@CAIXZ 00431160 f i stlport_vc71_static:dll_main.obj
 0001:00030170       ??0?$__debug_alloc@V?$__node_alloc@$00$0A@@_STL@@@_STL@@QAE@XZ 00431170 f i stlport_vc71_static:dll_main.obj
 0001:00030180       ??1?$__debug_alloc@V?$__node_alloc@$00$0A@@_STL@@@_STL@@QAE@XZ 00431180 f i stlport_vc71_static:dll_main.obj
 0001:00030190       ?__extra_before_chunk@?$__debug_alloc@V?$__node_alloc@$0A@$0A@@_STL@@@_STL@@CAIXZ 00431190 f i stlport_vc71_static:dll_main.obj
 0001:000301a0       ?__extra_after_chunk@?$__debug_alloc@V?$__node_alloc@$0A@$0A@@_STL@@@_STL@@CAIXZ 004311a0 f i stlport_vc71_static:dll_main.obj
 0001:000301b0       ??0?$__debug_alloc@V?$__node_alloc@$0A@$0A@@_STL@@@_STL@@QAE@XZ 004311b0 f i stlport_vc71_static:dll_main.obj
 0001:000301c0       ??1?$__debug_alloc@V?$__node_alloc@$0A@$0A@@_STL@@@_STL@@QAE@XZ 004311c0 f i stlport_vc71_static:dll_main.obj
 0001:000301d0       ?__extra_before_chunk@?$__debug_alloc@V__new_alloc@_STL@@@_STL@@CAIXZ 004311d0 f i stlport_vc71_static:dll_main.obj
 0001:000301e0       ?__extra_after_chunk@?$__debug_alloc@V__new_alloc@_STL@@@_STL@@CAIXZ 004311e0 f i stlport_vc71_static:dll_main.obj
 0001:000301f0       ??0?$__debug_alloc@V__new_alloc@_STL@@@_STL@@QAE@XZ 004311f0 f i stlport_vc71_static:dll_main.obj
 0001:00030200       ??1?$__debug_alloc@V__new_alloc@_STL@@@_STL@@QAE@XZ 00431200 f i stlport_vc71_static:dll_main.obj
 0001:00030210       ?deallocate@?$__malloc_alloc@$0A@@_STL@@SAXPAXI@Z 00431210 f i stlport_vc71_static:dll_main.obj
 0001:00030230       ?set_malloc_handler@?$__malloc_alloc@$0A@@_STL@@SAP6AXXZP6AXXZ@Z 00431230 f i stlport_vc71_static:dll_main.obj
 0001:00030250       ??0?$allocator@PAX@_STL@@QAE@XZ 00431250 f i stlport_vc71_static:dll_main.obj
 0001:00030260       ??0?$allocator@PAX@_STL@@QAE@ABV01@@Z 00431260 f i stlport_vc71_static:dll_main.obj
 0001:00030270       ??1?$allocator@PAX@_STL@@QAE@XZ 00431270 f i stlport_vc71_static:dll_main.obj
 0001:00030280       ?address@?$allocator@PAX@_STL@@QBEPAPAXAAPAX@Z 00431280 f i stlport_vc71_static:dll_main.obj
 0001:00030290       ?address@?$allocator@PAX@_STL@@QBEPBQAXABQAX@Z 00431290 f i stlport_vc71_static:dll_main.obj
 0001:000302a0       ?max_size@?$allocator@PAX@_STL@@QBEIXZ 004312a0 f i stlport_vc71_static:dll_main.obj
 0001:000302b0       ??0?$_STLP_alloc_proxy@PAPAXPAXV?$allocator@PAX@_STL@@@_STL@@QAE@ABV?$allocator@PAX@1@PAPAX@Z 004312b0 f i stlport_vc71_static:dll_main.obj
 0001:000302d0       ?get_allocator@?$vector@PAXV?$allocator@PAX@_STL@@@_STL@@QBE?AV?$allocator@PAX@2@XZ 004312d0 f i stlport_vc71_static:dll_main.obj
 0001:00030300       ?begin@?$vector@PAXV?$allocator@PAX@_STL@@@_STL@@QAEPAPAXXZ 00431300 f i stlport_vc71_static:dll_main.obj
 0001:00030310       ?begin@?$vector@PAXV?$allocator@PAX@_STL@@@_STL@@QBEPBQAXXZ 00431310 f i stlport_vc71_static:dll_main.obj
 0001:00030320       ?end@?$vector@PAXV?$allocator@PAX@_STL@@@_STL@@QAEPAPAXXZ 00431320 f i stlport_vc71_static:dll_main.obj
 0001:00030340       ?end@?$vector@PAXV?$allocator@PAX@_STL@@@_STL@@QBEPBQAXXZ 00431340 f i stlport_vc71_static:dll_main.obj
 0001:00030360       ?size@?$vector@PAXV?$allocator@PAX@_STL@@@_STL@@QBEIXZ 00431360 f i stlport_vc71_static:dll_main.obj
 0001:00030380       ?max_size@?$vector@PAXV?$allocator@PAX@_STL@@@_STL@@QBEIXZ 00431380 f i stlport_vc71_static:dll_main.obj
 0001:00030390       ?capacity@?$vector@PAXV?$allocator@PAX@_STL@@@_STL@@QBEIXZ 00431390 f i stlport_vc71_static:dll_main.obj
 0001:000303b0       ?empty@?$vector@PAXV?$allocator@PAX@_STL@@@_STL@@QBE_NXZ 004313b0 f i stlport_vc71_static:dll_main.obj
 0001:000303d0       ??A?$vector@PAXV?$allocator@PAX@_STL@@@_STL@@QAEAAPAXI@Z 004313d0 f i stlport_vc71_static:dll_main.obj
 0001:000303f0       ??A?$vector@PAXV?$allocator@PAX@_STL@@@_STL@@QBEABQAXI@Z 004313f0 f i stlport_vc71_static:dll_main.obj
 0001:00030410       ?front@?$vector@PAXV?$allocator@PAX@_STL@@@_STL@@QAEAAPAXXZ 00431410 f i stlport_vc71_static:dll_main.obj
 0001:00030430       ?front@?$vector@PAXV?$allocator@PAX@_STL@@@_STL@@QBEABQAXXZ 00431430 f i stlport_vc71_static:dll_main.obj
 0001:00030450       ?back@?$vector@PAXV?$allocator@PAX@_STL@@@_STL@@QAEAAPAXXZ 00431450 f i stlport_vc71_static:dll_main.obj
 0001:00030470       ?back@?$vector@PAXV?$allocator@PAX@_STL@@@_STL@@QBEABQAXXZ 00431470 f i stlport_vc71_static:dll_main.obj
 0001:00030490       ?_M_set@?$vector@PAXV?$allocator@PAX@_STL@@@_STL@@IAEXPAPAX00@Z 00431490 f i stlport_vc71_static:dll_main.obj
 0001:000304c0       ??1?$_STLP_alloc_proxy@PAPAXPAXV?$allocator@PAX@_STL@@@_STL@@QAE@XZ 004314c0 f i stlport_vc71_static:dll_main.obj
 0001:000304d0       ??0?$reverse_iterator@PAD@_STL@@QAE@PAD@Z 004314d0 f i stlport_vc71_static:dll_main.obj
 0001:000304f0       ??0?$reverse_iterator@PAPAX@_STL@@QAE@PAPAX@Z 004314f0 f i stlport_vc71_static:dll_main.obj
 0001:00030510       ??0?$reverse_iterator@PBQAX@_STL@@QAE@PBQAX@Z 00431510 f i stlport_vc71_static:dll_main.obj
 0001:00030530       ?_Message@?$__stl_debug_engine@_N@_STL@@SAXPBDZZ 00431530 f i stlport_vc71_static:dll_main.obj
 0001:00030580       ?_IndexedError@?$__stl_debug_engine@_N@_STL@@SAXHPBDH@Z 00431580 f i stlport_vc71_static:dll_main.obj
 0001:000305b0       ?_Terminate@?$__stl_debug_engine@_N@_STL@@SAXXZ 004315b0 f i stlport_vc71_static:dll_main.obj
 0001:000305c0       ?_S_chunk_alloc@?$__node_alloc@$0A@$0A@@_STL@@CAPADIAAH@Z 004315c0 f i stlport_vc71_static:dll_main.obj
 0001:00030770       ?allocate@?$__debug_alloc@V__new_alloc@_STL@@@_STL@@SAPAXI@Z 00431770 f i stlport_vc71_static:dll_main.obj
 0001:000307f0       ?deallocate@?$__debug_alloc@V__new_alloc@_STL@@@_STL@@SAXPAXI@Z 004317f0 f i stlport_vc71_static:dll_main.obj
 0001:00030890       ?_S_oom_malloc@?$__malloc_alloc@$0A@@_STL@@CAPAXI@Z 00431890 f i stlport_vc71_static:dll_main.obj
 0001:000308f0       ?_M_increment@?$_Rb_global@_N@_STL@@SAPAU_Rb_tree_node_base@2@PAU32@@Z 004318f0 f i stlport_vc71_static:dll_main.obj
 0001:00030960       ?_M_decrement@?$_Rb_global@_N@_STL@@SAPAU_Rb_tree_node_base@2@PAU32@@Z 00431960 f i stlport_vc71_static:dll_main.obj
 0001:000309f0       ?_Rotate_left@?$_Rb_global@_N@_STL@@SAXPAU_Rb_tree_node_base@2@AAPAU32@@Z 004319f0 f i stlport_vc71_static:dll_main.obj
 0001:00030a80       ?_Rotate_right@?$_Rb_global@_N@_STL@@SAXPAU_Rb_tree_node_base@2@AAPAU32@@Z 00431a80 f i stlport_vc71_static:dll_main.obj
 0001:00030b10       ?_Transfer@?$_List_global@_N@_STL@@SAXPAU_List_node_base@2@00@Z 00431b10 f i stlport_vc71_static:dll_main.obj
 0001:00030b70       ?size@?$_Sl_global@_N@_STL@@SAIPAU_Slist_node_base@2@@Z 00431b70 f i stlport_vc71_static:dll_main.obj
 0001:00030ba0       ?__reverse@?$_Sl_global@_N@_STL@@SAPAU_Slist_node_base@2@PAU32@@Z 00431ba0 f i stlport_vc71_static:dll_main.obj
 0001:00030bf0       ?__splice_after@?$_Sl_global@_N@_STL@@SAXPAU_Slist_node_base@2@00@Z 00431bf0 f i stlport_vc71_static:dll_main.obj
 0001:00030c40       ?__previous@?$_Sl_global@_N@_STL@@SAPAU_Slist_node_base@2@PAU32@PBU32@@Z 00431c40 f i stlport_vc71_static:dll_main.obj
 0001:00030c70       ??$_Construct@D@_STL@@YAXPAD@Z 00431c70 f i stlport_vc71_static:dll_main.obj
 0001:00030cb0       ??$_Destroy@D@_STL@@YAXPAD@Z 00431cb0 f i stlport_vc71_static:dll_main.obj
 0001:00030cc0       ??$_Construct@DD@_STL@@YAXPADABD@Z 00431cc0 f i stlport_vc71_static:dll_main.obj
 0001:00030d00       ??$_Construct@PAXPAX@_STL@@YAXPAPAXABQAX@Z 00431d00 f i stlport_vc71_static:dll_main.obj
 0001:00030d40       ??$_Destroy@PAX@_STL@@YAXPAPAX@Z 00431d40 f i stlport_vc71_static:dll_main.obj
 0001:00030d50       ??$fill_n@PAPAXIPAX@_STL@@YAPAPAXPAPAXIABQAX@Z 00431d50 f i stlport_vc71_static:dll_main.obj
 0001:00030d80       ??$swap@PAPAX@_STL@@YAXAAPAPAX0@Z 00431d80 f i stlport_vc71_static:dll_main.obj
 0001:00030db0       ??$__copy_backward_ptrs@PAPAXPAPAX@_STL@@YAPAPAXPAPAX00ABU__true_type@0@@Z 00431db0 f i stlport_vc71_static:dll_main.obj
 0001:00030dd0       ??$__copy_ptrs@PAPAXPAPAX@_STL@@YAPAPAXPAPAX00ABU__true_type@0@@Z 00431dd0 f i stlport_vc71_static:dll_main.obj
 0001:00030df0       ??0bad_alloc@std@@QAE@ABV01@@Z 00431df0 f i stlport_vc71_static:dll_main.obj
 0001:00030e20       ??0?$_STLP_alloc_proxy@PAPAXPAXV?$allocator@PAX@_STL@@@_STL@@QAE@ABV01@@Z 00431e20 f i stlport_vc71_static:dll_main.obj
 0001:00030e40       ??0?$_Neq_char_bound@V?$char_traits@D@_STL@@@_STL@@QAE@D@Z 00431e40 f i stlport_vc71_static:dll_main.obj
 0001:00030e60       ??1?$_Node_Alloc_Lock@$0A@$0A@@_STL@@QAE@XZ 00431e60 f i stlport_vc71_static:dll_main.obj
 0001:00030e80       ??$swap@_N@_STL@@YAXAA_N0@Z 00431e80 f i stlport_vc71_static:dll_main.obj
 0001:00030eb0       ??$__uninitialized_fill_n@PAPAXIPAX@_STL@@YAPAPAXPAPAXIABQAXABU__true_type@0@@Z 00431eb0 f i stlport_vc71_static:dll_main.obj
 0001:00030ef0       ?_Ret@?$_BothPtrType@PAPAXPAPAX@_STL@@SA?AU__true_type@2@XZ 00431ef0 f i stlport_vc71_static:dll_main.obj
 0001:00030f00       ??$__destroy_aux@PAPAX@_STL@@YAXPAPAX0ABU__true_type@0@@Z 00431f00 f i stlport_vc71_static:dll_main.obj
 0001:00030f10       ??R?$_Neq_char_bound@V?$char_traits@D@_STL@@@_STL@@QBE_NABD@Z 00431f10 f i stlport_vc71_static:dll_main.obj
 0001:00030f40       ??$_M_move@PAD@?$basic_string@DV?$char_traits@D@_STL@@V?$allocator@D@2@@_STL@@AAEXPAD00@Z 00431f40 f i stlport_vc71_static:dll_main.obj
 0001:00030f80       ??$_M_inside@PAD@?$basic_string@DV?$char_traits@D@_STL@@V?$allocator@D@2@@_STL@@ABE_NPAD@Z 00431f80 f i stlport_vc71_static:dll_main.obj
 0001:00030fc0       ??$_M_copy@PAD@?$basic_string@DV?$char_traits@D@_STL@@V?$allocator@D@2@@_STL@@AAEXPAD00@Z 00431fc0 f i stlport_vc71_static:dll_main.obj
 0001:00031000       ??$_M_inside@PBD@?$basic_string@DV?$char_traits@D@_STL@@V?$allocator@D@2@@_STL@@ABE_NPBD@Z 00432000 f i stlport_vc71_static:dll_main.obj
 0001:00031040       ??0?$reverse_iterator@PBD@_STL@@QAE@XZ 00432040 f i stlport_vc71_static:dll_main.obj
 0001:00031050       ??4?$reverse_iterator@PBD@_STL@@QAEAAV01@ABV01@@Z 00432050 f i stlport_vc71_static:dll_main.obj
 0001:00031080       ??$__advance@PBDH@_STL@@YAXAAPBDHABUrandom_access_iterator_tag@0@@Z 00432080 f i stlport_vc71_static:dll_main.obj
 0001:000310a0       ??$__advance@PADH@_STL@@YAXAAPADHABUrandom_access_iterator_tag@0@@Z 004320a0 f i stlport_vc71_static:dll_main.obj
 0001:000310c0       ??_Elogic_error@_STL@@UAEPAXI@Z 004320c0 f i stlport_vc71_static:dll_main.obj
 0001:000310c0       ??_Glogic_error@_STL@@UAEPAXI@Z 004320c0 f i stlport_vc71_static:dll_main.obj
 0001:000310e0       ??_Edomain_error@_STL@@UAEPAXI@Z 004320e0 f i stlport_vc71_static:dll_main.obj
 0001:000310e0       ??_Gdomain_error@_STL@@UAEPAXI@Z 004320e0 f i stlport_vc71_static:dll_main.obj
 0001:00031100       ??_Ginvalid_argument@_STL@@UAEPAXI@Z 00432100 f i stlport_vc71_static:dll_main.obj
 0001:00031100       ??_Einvalid_argument@_STL@@UAEPAXI@Z 00432100 f i stlport_vc71_static:dll_main.obj
 0001:00031120       ??_Glength_error@_STL@@UAEPAXI@Z 00432120 f i stlport_vc71_static:dll_main.obj
 0001:00031120       ??_Elength_error@_STL@@UAEPAXI@Z 00432120 f i stlport_vc71_static:dll_main.obj
 0001:00031140       ??_Eout_of_range@_STL@@UAEPAXI@Z 00432140 f i stlport_vc71_static:dll_main.obj
 0001:00031140       ??_Gout_of_range@_STL@@UAEPAXI@Z 00432140 f i stlport_vc71_static:dll_main.obj
 0001:00031160       ??_Grange_error@_STL@@UAEPAXI@Z 00432160 f i stlport_vc71_static:dll_main.obj
 0001:00031160       ??_Erange_error@_STL@@UAEPAXI@Z 00432160 f i stlport_vc71_static:dll_main.obj
 0001:00031180       ??_Eoverflow_error@_STL@@UAEPAXI@Z 00432180 f i stlport_vc71_static:dll_main.obj
 0001:00031180       ??_Goverflow_error@_STL@@UAEPAXI@Z 00432180 f i stlport_vc71_static:dll_main.obj
 0001:000311a0       ??_Gunderflow_error@_STL@@UAEPAXI@Z 004321a0 f i stlport_vc71_static:dll_main.obj
 0001:000311a0       ??_Eunderflow_error@_STL@@UAEPAXI@Z 004321a0 f i stlport_vc71_static:dll_main.obj
 0001:000311c0       ?__get_c_string@_STL@@YAPBDABV?$basic_string@DV?$char_traits@D@_STL@@V?$allocator@D@2@@1@@Z 004321c0 f   stlport_vc71_static:dll_main.obj
 0001:000311e0       ??0__Named_exception@_STL@@QAE@ABV?$basic_string@DV?$char_traits@D@_STL@@V?$allocator@D@2@@1@@Z 004321e0 f   stlport_vc71_static:dll_main.obj
 0001:00031260       ?_M_construct_null_aux@?$basic_string@DV?$char_traits@D@_STL@@V?$allocator@D@2@@_STL@@AAEXPADABU__false_type@2@@Z 00432260 f i stlport_vc71_static:dll_main.obj
 0001:000312a0       ?rbegin@?$basic_string@DV?$char_traits@D@_STL@@V?$allocator@D@2@@_STL@@QAE?AV?$reverse_iterator@PAD@2@XZ 004322a0 f i stlport_vc71_static:dll_main.obj
 0001:000312d0       ?rend@?$basic_string@DV?$char_traits@D@_STL@@V?$allocator@D@2@@_STL@@QAE?AV?$reverse_iterator@PAD@2@XZ 004322d0 f i stlport_vc71_static:dll_main.obj
 0001:00031300       ?rbegin@?$basic_string@DV?$char_traits@D@_STL@@V?$allocator@D@2@@_STL@@QBE?AV?$reverse_iterator@PBD@2@XZ 00432300 f i stlport_vc71_static:dll_main.obj
 0001:00031330       ?pop_back@?$basic_string@DV?$char_traits@D@_STL@@V?$allocator@D@2@@_STL@@QAEXXZ 00432330 f i stlport_vc71_static:dll_main.obj
 0001:00031370       ?_M_copy@?$basic_string@DV?$char_traits@D@_STL@@V?$allocator@D@2@@_STL@@AAEXPBD0PAD@Z 00432370 f i stlport_vc71_static:dll_main.obj
 0001:000313c0       ?_M_move@?$basic_string@DV?$char_traits@D@_STL@@V?$allocator@D@2@@_STL@@AAEXPBD0PAD@Z 004323c0 f i stlport_vc71_static:dll_main.obj
 0001:00031400       ?erase@?$basic_string@DV?$char_traits@D@_STL@@V?$allocator@D@2@@_STL@@QAEPADPAD@Z 00432400 f i stlport_vc71_static:dll_main.obj
 0001:00031460       ?construct@?$allocator@D@_STL@@QAEXPADABD@Z 00432460 f i stlport_vc71_static:dll_main.obj
 0001:000314a0       ?destroy@?$allocator@D@_STL@@QAEXPAD@Z 004324a0 f i stlport_vc71_static:dll_main.obj
 0001:000314b0       ?allocate@?$__malloc_alloc@$0A@@_STL@@SAPAXI@Z 004324b0 f i stlport_vc71_static:dll_main.obj
 0001:000314e0       ?construct@?$allocator@PAX@_STL@@QAEXPAPAXABQAX@Z 004324e0 f i stlport_vc71_static:dll_main.obj
 0001:00031520       ?destroy@?$allocator@PAX@_STL@@QAEXPAPAX@Z 00432520 f i stlport_vc71_static:dll_main.obj
 0001:00031530       ??0?$_Vector_base@PAXV?$allocator@PAX@_STL@@@_STL@@QAE@ABV?$allocator@PAX@1@@Z 00432530 f i stlport_vc71_static:dll_main.obj
 0001:00031570       ?rbegin@?$vector@PAXV?$allocator@PAX@_STL@@@_STL@@QAE?AV?$reverse_iterator@PAPAX@2@XZ 00432570 f i stlport_vc71_static:dll_main.obj
 0001:000315a0       ?rbegin@?$vector@PAXV?$allocator@PAX@_STL@@@_STL@@QBE?AV?$reverse_iterator@PBQAX@2@XZ 004325a0 f i stlport_vc71_static:dll_main.obj
 0001:000315d0       ?rend@?$vector@PAXV?$allocator@PAX@_STL@@@_STL@@QAE?AV?$reverse_iterator@PAPAX@2@XZ 004325d0 f i stlport_vc71_static:dll_main.obj
 0001:00031600       ?rend@?$vector@PAXV?$allocator@PAX@_STL@@@_STL@@QBE?AV?$reverse_iterator@PBQAX@2@XZ 00432600 f i stlport_vc71_static:dll_main.obj
 0001:00031630       ?pop_back@?$vector@PAXV?$allocator@PAX@_STL@@@_STL@@QAEXXZ 00432630 f i stlport_vc71_static:dll_main.obj
 0001:00031650       ?erase@?$vector@PAXV?$allocator@PAX@_STL@@@_STL@@QAEPAPAXPAPAX@Z 00432650 f i stlport_vc71_static:dll_main.obj
 0001:000316b0       ?__previous@?$_Sl_global@_N@_STL@@SAPBU_Slist_node_base@2@PBU32@0@Z 004326b0 f i stlport_vc71_static:dll_main.obj
 0001:000316d0       ?_Assert@?$__stl_debug_engine@_N@_STL@@SAXPBD0H@Z 004326d0 f i stlport_vc71_static:dll_main.obj
 0001:00031700       ?_VerboseAssert@?$__stl_debug_engine@_N@_STL@@SAXPBDH0H@Z 00432700 f i stlport_vc71_static:dll_main.obj
 0001:00031740       ?_S_refill@?$__node_alloc@$0A@$0A@@_STL@@CAPAXI@Z 00432740 f i stlport_vc71_static:dll_main.obj
 0001:000317f0       ?_Rebalance@?$_Rb_global@_N@_STL@@SAXPAU_Rb_tree_node_base@2@AAPAU32@@Z 004327f0 f i stlport_vc71_static:dll_main.obj
 0001:00031980       ?_Rebalance_for_erase@?$_Rb_global@_N@_STL@@SAPAU_Rb_tree_node_base@2@PAU32@AAPAU32@11@Z 00432980 f i stlport_vc71_static:dll_main.obj
 0001:00031de0       ?__splice_after@?$_Sl_global@_N@_STL@@SAXPAU_Slist_node_base@2@0@Z 00432de0 f i stlport_vc71_static:dll_main.obj
 0001:00031e30       ??$uninitialized_fill_n@PAPAXIPAX@_STL@@YAPAPAXPAPAXIABQAX@Z 00432e30 f i stlport_vc71_static:dll_main.obj
 0001:00031e80       ??$swap@V?$_STLP_alloc_proxy@PAPAXPAXV?$allocator@PAX@_STL@@@_STL@@@_STL@@YAXAAV?$_STLP_alloc_proxy@PAPAXPAXV?$allocator@PAX@_STL@@@0@0@Z 00432e80 f i stlport_vc71_static:dll_main.obj
 0001:00031eb0       ??$__destroy@PAPAXPAX@_STL@@YAXPAPAX00@Z 00432eb0 f i stlport_vc71_static:dll_main.obj
 0001:00031ec0       ??$__find_if@V?$reverse_iterator@PBD@_STL@@U?$_Eq_char_bound@V?$char_traits@D@_STL@@@2@@_STL@@YA?AV?$reverse_iterator@PBD@0@V10@0U?$_Eq_char_bound@V?$char_traits@D@_STL@@@0@ABUrandom_access_iterator_tag@0@@Z 00432ec0 f i stlport_vc71_static:dll_main.obj
 0001:000320e0       ??$__find_if@PBDU?$_Neq_char_bound@V?$char_traits@D@_STL@@@_STL@@@_STL@@YAPBDPBD0U?$_Neq_char_bound@V?$char_traits@D@_STL@@@0@ABUrandom_access_iterator_tag@0@@Z 004330e0 f i stlport_vc71_static:dll_main.obj
 0001:00032280       ??$__find_if@V?$reverse_iterator@PBD@_STL@@U?$_Neq_char_bound@V?$char_traits@D@_STL@@@2@@_STL@@YA?AV?$reverse_iterator@PBD@0@V10@0U?$_Neq_char_bound@V?$char_traits@D@_STL@@@0@ABUrandom_access_iterator_tag@0@@Z 00433280 f i stlport_vc71_static:dll_main.obj
 0001:000324e0       ??$__copy_aux@PAPAXPAPAX@_STL@@YAPAPAXPAPAX00ABU__true_type@0@@Z 004334e0 f i stlport_vc71_static:dll_main.obj
 0001:00032520       ??$search@V?$reverse_iterator@PBD@_STL@@V12@U?$_Eq_traits@V?$char_traits@D@_STL@@@2@@_STL@@YA?AV?$reverse_iterator@PBD@0@V10@000U?$_Eq_traits@V?$char_traits@D@_STL@@@0@@Z 00433520 f i stlport_vc71_static:dll_main.obj
 0001:00032820       ??$advance@PBDH@_STL@@YAXAAPBDH@Z 00433820 f i stlport_vc71_static:dll_main.obj
 0001:00032840       ??$advance@PADH@_STL@@YAXAAPADH@Z 00433840 f i stlport_vc71_static:dll_main.obj
 0001:00032860       ??0logic_error@_STL@@QAE@ABV?$basic_string@DV?$char_traits@D@_STL@@V?$allocator@D@2@@1@@Z 00433860 f i stlport_vc71_static:dll_main.obj
 0001:00032880       ??0invalid_argument@_STL@@QAE@ABV?$basic_string@DV?$char_traits@D@_STL@@V?$allocator@D@2@@1@@Z 00433880 f i stlport_vc71_static:dll_main.obj
 0001:000328a0       ??0length_error@_STL@@QAE@ABV?$basic_string@DV?$char_traits@D@_STL@@V?$allocator@D@2@@1@@Z 004338a0 f i stlport_vc71_static:dll_main.obj
 0001:000328c0       ??0out_of_range@_STL@@QAE@ABV?$basic_string@DV?$char_traits@D@_STL@@V?$allocator@D@2@@1@@Z 004338c0 f i stlport_vc71_static:dll_main.obj
 0001:000328e0       ??0range_error@_STL@@QAE@ABV?$basic_string@DV?$char_traits@D@_STL@@V?$allocator@D@2@@1@@Z 004338e0 f i stlport_vc71_static:dll_main.obj
 0001:00032900       ??0overflow_error@_STL@@QAE@ABV?$basic_string@DV?$char_traits@D@_STL@@V?$allocator@D@2@@1@@Z 00433900 f i stlport_vc71_static:dll_main.obj
 0001:00032920       ?compare@?$basic_string@DV?$char_traits@D@_STL@@V?$allocator@D@2@@_STL@@QBEHABV12@@Z 00433920 f i stlport_vc71_static:dll_main.obj
 0001:00032960       ?compare@?$basic_string@DV?$char_traits@D@_STL@@V?$allocator@D@2@@_STL@@QBEHPBD@Z 00433960 f i stlport_vc71_static:dll_main.obj
 0001:000329a0       ?swap@?$vector@PAXV?$allocator@PAX@_STL@@@_STL@@QAEXAAV12@@Z 004339a0 f i stlport_vc71_static:dll_main.obj
 0001:00032a10       ??$_Destroy@PAPAX@_STL@@YAXPAPAX0@Z 00433a10 f i stlport_vc71_static:dll_main.obj
 0001:00032a20       ??$__uninitialized_copy@PBQAXPAPAX@_STL@@YAPAPAXPBQAX0PAPAXABU__true_type@0@@Z 00433a20 f i stlport_vc71_static:dll_main.obj
 0001:00032a60       ??0?$_Node_Alloc_Lock@$0A@$0A@@_STL@@QAE@XZ 00433a60 f i stlport_vc71_static:dll_main.obj
 0001:00032a80       ??$search@PBDPBDU?$_Eq_traits@V?$char_traits@D@_STL@@@_STL@@@_STL@@YAPBDPBD000U?$_Eq_traits@V?$char_traits@D@_STL@@@0@@Z 00433a80 f i stlport_vc71_static:dll_main.obj
 0001:00032bf0       ??$find_if@V?$reverse_iterator@PBD@_STL@@U?$_Eq_char_bound@V?$char_traits@D@_STL@@@2@@_STL@@YA?AV?$reverse_iterator@PBD@0@V10@0U?$_Eq_char_bound@V?$char_traits@D@_STL@@@0@@Z 00433bf0 f i stlport_vc71_static:dll_main.obj
 0001:00032c30       ??$find_if@PBDU?$_Neq_char_bound@V?$char_traits@D@_STL@@@_STL@@@_STL@@YAPBDPBD0U?$_Neq_char_bound@V?$char_traits@D@_STL@@@0@@Z 00433c30 f i stlport_vc71_static:dll_main.obj
 0001:00032c60       ??$find_if@V?$reverse_iterator@PBD@_STL@@U?$_Neq_char_bound@V?$char_traits@D@_STL@@@2@@_STL@@YA?AV?$reverse_iterator@PBD@0@V10@0U?$_Neq_char_bound@V?$char_traits@D@_STL@@@0@@Z 00433c60 f i stlport_vc71_static:dll_main.obj
 0001:00032ca0       ??$__uninitialized_copy@PAPAXPAPAX@_STL@@YAPAPAXPAPAX00ABU__true_type@0@@Z 00433ca0 f i stlport_vc71_static:dll_main.obj
 0001:00032ce0       ??$__find_end@PBDPBDU?$_Eq_traits@V?$char_traits@D@_STL@@@_STL@@@_STL@@YAPBDPBD000ABUbidirectional_iterator_tag@0@1U?$_Eq_traits@V?$char_traits@D@_STL@@@0@@Z 00433ce0 f i stlport_vc71_static:dll_main.obj
 0001:00032d70       ?erase@?$vector@PAXV?$allocator@PAX@_STL@@@_STL@@QAEPAPAXPAPAX0@Z 00433d70 f i stlport_vc71_static:dll_main.obj
 0001:00032dc0       ?clear@?$vector@PAXV?$allocator@PAX@_STL@@@_STL@@QAEXXZ 00433dc0 f i stlport_vc71_static:dll_main.obj
 0001:00032df0       ?find@?$basic_string@DV?$char_traits@D@_STL@@V?$allocator@D@2@@_STL@@QBEIPBDII@Z 00433df0 f i stlport_vc71_static:dll_main.obj
 0001:00032e70       ?rfind@?$basic_string@DV?$char_traits@D@_STL@@V?$allocator@D@2@@_STL@@QBEIDI@Z 00433e70 f i stlport_vc71_static:dll_main.obj
 0001:00032f60       ?find_first_not_of@?$basic_string@DV?$char_traits@D@_STL@@V?$allocator@D@2@@_STL@@QBEIDI@Z 00433f60 f i stlport_vc71_static:dll_main.obj
 0001:00032fd0       ?find_last_not_of@?$basic_string@DV?$char_traits@D@_STL@@V?$allocator@D@2@@_STL@@QBEIDI@Z 00433fd0 f i stlport_vc71_static:dll_main.obj
 0001:000330d0       ?_M_allocate@?$__node_alloc@$0A@$0A@@_STL@@CAPAXI@Z 004340d0 f i stlport_vc71_static:dll_main.obj
 0001:00033170       ?_M_deallocate@?$__node_alloc@$0A@$0A@@_STL@@CAXPAXI@Z 00434170 f i stlport_vc71_static:dll_main.obj
 0001:000331c0       ??$__uninitialized_copy@PAPAXPAPAX@_STL@@YAPAPAXPAPAX00ABU__false_type@0@@Z 004341c0 f i stlport_vc71_static:dll_main.obj
 0001:00033270       ??$__uninitialized_fill_n@PAPAXIPAX@_STL@@YAPAPAXPAPAXIABQAXABU__false_type@0@@Z 00434270 f i stlport_vc71_static:dll_main.obj
 0001:00033320       ??$find_end@PBDPBDU?$_Eq_traits@V?$char_traits@D@_STL@@@_STL@@@_STL@@YAPBDPBD000U?$_Eq_traits@V?$char_traits@D@_STL@@@0@@Z 00434320 f i stlport_vc71_static:dll_main.obj
 0001:00033350       ?find@?$basic_string@DV?$char_traits@D@_STL@@V?$allocator@D@2@@_STL@@QBEIABV12@I@Z 00434350 f i stlport_vc71_static:dll_main.obj
 0001:00033380       ?find@?$basic_string@DV?$char_traits@D@_STL@@V?$allocator@D@2@@_STL@@QBEIPBDI@Z 00434380 f i stlport_vc71_static:dll_main.obj
 0001:000333b0       ?find_first_of@?$basic_string@DV?$char_traits@D@_STL@@V?$allocator@D@2@@_STL@@QBEIABV12@I@Z 004343b0 f i stlport_vc71_static:dll_main.obj
 0001:000333e0       ?find_first_of@?$basic_string@DV?$char_traits@D@_STL@@V?$allocator@D@2@@_STL@@QBEIDI@Z 004343e0 f i stlport_vc71_static:dll_main.obj
 0001:00033400       ?find_last_of@?$basic_string@DV?$char_traits@D@_STL@@V?$allocator@D@2@@_STL@@QBEIABV12@I@Z 00434400 f i stlport_vc71_static:dll_main.obj
 0001:00033430       ?find_last_of@?$basic_string@DV?$char_traits@D@_STL@@V?$allocator@D@2@@_STL@@QBEIDI@Z 00434430 f i stlport_vc71_static:dll_main.obj
 0001:00033450       ?allocate@?$__node_alloc@$0A@$0A@@_STL@@SAPAXI@Z 00434450 f i stlport_vc71_static:dll_main.obj
 0001:00033490       ?deallocate@?$__node_alloc@$0A@$0A@@_STL@@SAXPAXI@Z 00434490 f i stlport_vc71_static:dll_main.obj
 0001:000334c0       ?allocate@?$allocator@PAX@_STL@@QAEPAPAXIPBX@Z 004344c0 f i stlport_vc71_static:dll_main.obj
 0001:00033520       ?deallocate@?$allocator@PAX@_STL@@QAEXPAPAXI@Z 00434520 f i stlport_vc71_static:dll_main.obj
 0001:00033570       ?deallocate@?$allocator@PAX@_STL@@QBEXPAPAX@Z 00434570 f i stlport_vc71_static:dll_main.obj
 0001:000335b0       ??0?$_Vector_base@PAXV?$allocator@PAX@_STL@@@_STL@@QAE@IABV?$allocator@PAX@1@@Z 004345b0 f i stlport_vc71_static:dll_main.obj
 0001:00033680       ??1?$_Vector_base@PAXV?$allocator@PAX@_STL@@@_STL@@QAE@XZ 00434680 f i stlport_vc71_static:dll_main.obj
 0001:00033720       ??0?$vector@PAXV?$allocator@PAX@_STL@@@_STL@@QAE@ABV?$allocator@PAX@1@@Z 00434720 f i stlport_vc71_static:dll_main.obj
 0001:00033760       ??0?$vector@PAXV?$allocator@PAX@_STL@@@_STL@@QAE@IABQAXABV?$allocator@PAX@1@@Z 00434760 f i stlport_vc71_static:dll_main.obj
 0001:000337d0       ??0?$vector@PAXV?$allocator@PAX@_STL@@@_STL@@QAE@I@Z 004347d0 f i stlport_vc71_static:dll_main.obj
 0001:00033880       ??0?$vector@PAXV?$allocator@PAX@_STL@@@_STL@@QAE@ABV01@@Z 00434880 f i stlport_vc71_static:dll_main.obj
 0001:00033950       ??1?$vector@PAXV?$allocator@PAX@_STL@@@_STL@@QAE@XZ 00434950 f i stlport_vc71_static:dll_main.obj
 0001:00033980       ?_M_clear@?$vector@PAXV?$allocator@PAX@_STL@@@_STL@@IAEXXZ 00434980 f i stlport_vc71_static:dll_main.obj
 0001:00033a00       ?rfind@?$basic_string@DV?$char_traits@D@_STL@@V?$allocator@D@2@@_STL@@QBEIPBDII@Z 00434a00 f i stlport_vc71_static:dll_main.obj
 0001:00033ad0       ?allocate@?$__debug_alloc@V?$__node_alloc@$00$0A@@_STL@@@_STL@@SAPAXI@Z 00434ad0 f i stlport_vc71_static:dll_main.obj
 0001:00033b70       ?deallocate@?$__debug_alloc@V?$__node_alloc@$00$0A@@_STL@@@_STL@@SAXPAXI@Z 00434b70 f i stlport_vc71_static:dll_main.obj
 0001:00033c30       ?allocate@?$__debug_alloc@V?$__node_alloc@$0A@$0A@@_STL@@@_STL@@SAPAXI@Z 00434c30 f i stlport_vc71_static:dll_main.obj
 0001:00033cd0       ?deallocate@?$__debug_alloc@V?$__node_alloc@$0A@$0A@@_STL@@@_STL@@SAXPAXI@Z 00434cd0 f i stlport_vc71_static:dll_main.obj
 0001:00033d90       ?_M_fill_assign@?$vector@PAXV?$allocator@PAX@_STL@@@_STL@@QAEXIABQAX@Z 00434d90 f i stlport_vc71_static:dll_main.obj
 0001:00033fa0       ??$_M_allocate_and_copy@PBQAX@?$vector@PAXV?$allocator@PAX@_STL@@@_STL@@IAEPAPAXIPBQAX0@Z 00434fa0 f i stlport_vc71_static:dll_main.obj
 0001:000340c0       ??$_M_allocate_and_copy@PAPAX@?$vector@PAXV?$allocator@PAX@_STL@@@_STL@@IAEPAPAXIPAPAX0@Z 004350c0 f i stlport_vc71_static:dll_main.obj
 0001:000341e0       ?rfind@?$basic_string@DV?$char_traits@D@_STL@@V?$allocator@D@2@@_STL@@QBEIABV12@I@Z 004351e0 f i stlport_vc71_static:dll_main.obj
 0001:00034210       ?rfind@?$basic_string@DV?$char_traits@D@_STL@@V?$allocator@D@2@@_STL@@QBEIPBDI@Z 00435210 f i stlport_vc71_static:dll_main.obj
 0001:00034240       ?deallocate@?$allocator@D@_STL@@QBEXPAD@Z 00435240 f i stlport_vc71_static:dll_main.obj
 0001:00034280       ?_M_insert_overflow@?$vector@PAXV?$allocator@PAX@_STL@@@_STL@@IAEXPAPAXABQAXABU__false_type@2@I_N@Z 00435280 f i stlport_vc71_static:dll_main.obj
 0001:00034480       ?_M_insert_overflow@?$vector@PAXV?$allocator@PAX@_STL@@@_STL@@IAEXPAPAXABQAXABU__true_type@2@I_N@Z 00435480 f i stlport_vc71_static:dll_main.obj
 0001:000345b0       ?assign@?$vector@PAXV?$allocator@PAX@_STL@@@_STL@@QAEXIABQAX@Z 004355b0 f i stlport_vc71_static:dll_main.obj
 0001:000345d0       ?push_back@?$vector@PAXV?$allocator@PAX@_STL@@@_STL@@QAEXABQAX@Z 004355d0 f i stlport_vc71_static:dll_main.obj
 0001:00034660       ?insert@?$vector@PAXV?$allocator@PAX@_STL@@@_STL@@QAEPAPAXPAPAXABQAX@Z 00435660 f i stlport_vc71_static:dll_main.obj
 0001:000347c0       ?push_back@?$vector@PAXV?$allocator@PAX@_STL@@@_STL@@QAEXXZ 004357c0 f i stlport_vc71_static:dll_main.obj
 0001:000347e0       ?insert@?$vector@PAXV?$allocator@PAX@_STL@@@_STL@@QAEPAPAXPAPAX@Z 004357e0 f i stlport_vc71_static:dll_main.obj
 0001:00034810       ??4?$vector@PAXV?$allocator@PAX@_STL@@@_STL@@QAEAAV01@ABV01@@Z 00435810 f i stlport_vc71_static:dll_main.obj
 0001:000349b0       ?reserve@?$vector@PAXV?$allocator@PAX@_STL@@@_STL@@QAEXI@Z 004359b0 f i stlport_vc71_static:dll_main.obj
 0001:00034a90       ?_M_fill_insert@?$vector@PAXV?$allocator@PAX@_STL@@@_STL@@QAEXPAPAXIABQAX@Z 00435a90 f i stlport_vc71_static:dll_main.obj
 0001:00034cd0       ?find_first_not_of@?$basic_string@DV?$char_traits@D@_STL@@V?$allocator@D@2@@_STL@@QBEIABV12@I@Z 00435cd0 f i stlport_vc71_static:dll_main.obj
 0001:00034d00       ?find_last_not_of@?$basic_string@DV?$char_traits@D@_STL@@V?$allocator@D@2@@_STL@@QBEIABV12@I@Z 00435d00 f i stlport_vc71_static:dll_main.obj
 0001:00034d30       ?insert@?$vector@PAXV?$allocator@PAX@_STL@@@_STL@@QAEXPAPAXIABQAX@Z 00435d30 f i stlport_vc71_static:dll_main.obj
 0001:00034d60       ?resize@?$vector@PAXV?$allocator@PAX@_STL@@@_STL@@QAEXIPAX@Z 00435d60 f i stlport_vc71_static:dll_main.obj
 0001:00034de0       ?resize@?$vector@PAXV?$allocator@PAX@_STL@@@_STL@@QAEXI@Z 00435de0 f i stlport_vc71_static:dll_main.obj
 0001:00034e00       ??$insert@PAD@?$basic_string@DV?$char_traits@D@_STL@@V?$allocator@D@2@@_STL@@AAEXPAD00ABUforward_iterator_tag@1@@Z 00435e00 f i stlport_vc71_static:dll_main.obj
 0001:00035240       ??$insert@PBD@?$basic_string@DV?$char_traits@D@_STL@@V?$allocator@D@2@@_STL@@AAEXPADPBD1ABUforward_iterator_tag@1@@Z 00436240 f i stlport_vc71_static:dll_main.obj
 0001:00035660       ??0?$basic_string@DV?$char_traits@D@_STL@@V?$allocator@D@2@@_STL@@QAE@ABV?$allocator@D@1@@Z 00436660 f i stlport_vc71_static:dll_main.obj
 0001:000356e0       ??0?$basic_string@DV?$char_traits@D@_STL@@V?$allocator@D@2@@_STL@@QAE@PBDIABV?$allocator@D@1@@Z 004366e0 f i stlport_vc71_static:dll_main.obj
 0001:00035760       ??0?$basic_string@DV?$char_traits@D@_STL@@V?$allocator@D@2@@_STL@@QAE@IDABV?$allocator@D@1@@Z 00436760 f i stlport_vc71_static:dll_main.obj
 0001:00035820       ??$_M_insert_dispatch@PAD@?$basic_string@DV?$char_traits@D@_STL@@V?$allocator@D@2@@_STL@@AAEXPAD00ABU__false_type@1@@Z 00436820 f i stlport_vc71_static:dll_main.obj
 0001:00035850       ??$_M_insert_dispatch@PBD@?$basic_string@DV?$char_traits@D@_STL@@V?$allocator@D@2@@_STL@@AAEXPADPBD1ABU__false_type@1@@Z 00436850 f i stlport_vc71_static:dll_main.obj
 0001:00035880       ?__stl_throw_range_error@_STL@@YAXPBD@Z 00436880 f   stlport_vc71_static:dll_main.obj
 0001:00035910       ??0range_error@_STL@@QAE@ABV01@@Z 00436910 f i stlport_vc71_static:dll_main.obj
 0001:00035960       ?__stl_throw_out_of_range@_STL@@YAXPBD@Z 00436960 f   stlport_vc71_static:dll_main.obj
 0001:000359f0       ??0logic_error@_STL@@QAE@ABV01@@Z 004369f0 f i stlport_vc71_static:dll_main.obj
 0001:00035a40       ??0out_of_range@_STL@@QAE@ABV01@@Z 00436a40 f i stlport_vc71_static:dll_main.obj
 0001:00035a90       ?__stl_throw_length_error@_STL@@YAXPBD@Z 00436a90 f   stlport_vc71_static:dll_main.obj
 0001:00035b20       ??0length_error@_STL@@QAE@ABV01@@Z 00436b20 f i stlport_vc71_static:dll_main.obj
 0001:00035b70       ?__stl_throw_invalid_argument@_STL@@YAXPBD@Z 00436b70 f   stlport_vc71_static:dll_main.obj
 0001:00035c00       ??0invalid_argument@_STL@@QAE@ABV01@@Z 00436c00 f i stlport_vc71_static:dll_main.obj
 0001:00035c50       ?__stl_throw_overflow_error@_STL@@YAXPBD@Z 00436c50 f   stlport_vc71_static:dll_main.obj
 0001:00035ce0       ??0overflow_error@_STL@@QAE@ABV01@@Z 00436ce0 f i stlport_vc71_static:dll_main.obj
 0001:00035d30       ?_M_range_check@?$vector@PAXV?$allocator@PAX@_STL@@@_STL@@IBEXI@Z 00436d30 f i stlport_vc71_static:dll_main.obj
 0001:00035d60       ?at@?$vector@PAXV?$allocator@PAX@_STL@@@_STL@@QAEAAPAXI@Z 00436d60 f i stlport_vc71_static:dll_main.obj
 0001:00035da0       ?at@?$vector@PAXV?$allocator@PAX@_STL@@@_STL@@QBEABQAXI@Z 00436da0 f i stlport_vc71_static:dll_main.obj
 0001:00035de0       ?assign@?$basic_string@DV?$char_traits@D@_STL@@V?$allocator@D@2@@_STL@@QAEAAV12@ID@Z 00436de0 f i stlport_vc71_static:dll_main.obj
 0001:00035e80       ??$insert@PAD@?$basic_string@DV?$char_traits@D@_STL@@V?$allocator@D@2@@_STL@@QAEXPAD00@Z 00436e80 f i stlport_vc71_static:dll_main.obj
 0001:00035eb0       ??$insert@PBD@?$basic_string@DV?$char_traits@D@_STL@@V?$allocator@D@2@@_STL@@QAEXPADPBD1@Z 00436eb0 f i stlport_vc71_static:dll_main.obj
 0001:00035ee0       ??$replace@PAD@?$basic_string@DV?$char_traits@D@_STL@@V?$allocator@D@2@@_STL@@AAEAAV01@PAD000ABUforward_iterator_tag@1@@Z 00436ee0 f i stlport_vc71_static:dll_main.obj
 0001:00035fe0       ??$replace@PBD@?$basic_string@DV?$char_traits@D@_STL@@V?$allocator@D@2@@_STL@@AAEAAV01@PAD0PBD1ABUforward_iterator_tag@1@@Z 00436fe0 f i stlport_vc71_static:dll_main.obj
 0001:000360e0       ??0?$basic_string@DV?$char_traits@D@_STL@@V?$allocator@D@2@@_STL@@QAE@ABV01@IIABV?$allocator@D@1@@Z 004370e0 f i stlport_vc71_static:dll_main.obj
 0001:000361c0       ??4?$basic_string@DV?$char_traits@D@_STL@@V?$allocator@D@2@@_STL@@QAEAAV01@D@Z 004371c0 f i stlport_vc71_static:dll_main.obj
 0001:000361e0       ?resize@?$basic_string@DV?$char_traits@D@_STL@@V?$allocator@D@2@@_STL@@QAEXID@Z 004371e0 f i stlport_vc71_static:dll_main.obj
 0001:00036250       ?resize@?$basic_string@DV?$char_traits@D@_STL@@V?$allocator@D@2@@_STL@@QAEXI@Z 00437250 f i stlport_vc71_static:dll_main.obj
 0001:00036270       ?at@?$basic_string@DV?$char_traits@D@_STL@@V?$allocator@D@2@@_STL@@QBEABDI@Z 00437270 f i stlport_vc71_static:dll_main.obj
 0001:000362a0       ?at@?$basic_string@DV?$char_traits@D@_STL@@V?$allocator@D@2@@_STL@@QAEAADI@Z 004372a0 f i stlport_vc71_static:dll_main.obj
 0001:000362d0       ?insert@?$basic_string@DV?$char_traits@D@_STL@@V?$allocator@D@2@@_STL@@QAEAAV12@IABV12@@Z 004372d0 f i stlport_vc71_static:dll_main.obj
 0001:00036360       ?insert@?$basic_string@DV?$char_traits@D@_STL@@V?$allocator@D@2@@_STL@@QAEAAV12@IABV12@II@Z 00437360 f i stlport_vc71_static:dll_main.obj
 0001:00036430       ?insert@?$basic_string@DV?$char_traits@D@_STL@@V?$allocator@D@2@@_STL@@QAEAAV12@IPBDI@Z 00437430 f i stlport_vc71_static:dll_main.obj
 0001:000364b0       ?insert@?$basic_string@DV?$char_traits@D@_STL@@V?$allocator@D@2@@_STL@@QAEAAV12@IPBD@Z 004374b0 f i stlport_vc71_static:dll_main.obj
 0001:00036540       ?insert@?$basic_string@DV?$char_traits@D@_STL@@V?$allocator@D@2@@_STL@@QAEAAV12@IID@Z 00437540 f i stlport_vc71_static:dll_main.obj
 0001:000365b0       ?insert@?$basic_string@DV?$char_traits@D@_STL@@V?$allocator@D@2@@_STL@@QAEPADPADD@Z 004375b0 f i stlport_vc71_static:dll_main.obj
 0001:00036600       ?copy@?$basic_string@DV?$char_traits@D@_STL@@V?$allocator@D@2@@_STL@@QBEIPADII@Z 00437600 f i stlport_vc71_static:dll_main.obj
 0001:000366a0       ?compare@?$basic_string@DV?$char_traits@D@_STL@@V?$allocator@D@2@@_STL@@QBEHIIABV12@@Z 004376a0 f i stlport_vc71_static:dll_main.obj
 0001:00036720       ?compare@?$basic_string@DV?$char_traits@D@_STL@@V?$allocator@D@2@@_STL@@QBEHIIABV12@II@Z 00437720 f i stlport_vc71_static:dll_main.obj
 0001:000367f0       ?compare@?$basic_string@DV?$char_traits@D@_STL@@V?$allocator@D@2@@_STL@@QBEHIIPBDI@Z 004377f0 f i stlport_vc71_static:dll_main.obj
 0001:00036870       ??$replace@PAD@?$basic_string@DV?$char_traits@D@_STL@@V?$allocator@D@2@@_STL@@AAEAAV01@PAD000ABUrandom_access_iterator_tag@1@@Z 00437870 f i stlport_vc71_static:dll_main.obj
 0001:00036a70       ??$replace@PBD@?$basic_string@DV?$char_traits@D@_STL@@V?$allocator@D@2@@_STL@@AAEAAV01@PAD0PBD1ABUrandom_access_iterator_tag@1@@Z 00437a70 f i stlport_vc71_static:dll_main.obj
 0001:00036c70       ??$_M_replace_dispatch@PAD@?$basic_string@DV?$char_traits@D@_STL@@V?$allocator@D@2@@_STL@@AAEAAV01@PAD000ABU__false_type@1@@Z 00437c70 f i stlport_vc71_static:dll_main.obj
 0001:00036cb0       ??$_M_replace_dispatch@PBD@?$basic_string@DV?$char_traits@D@_STL@@V?$allocator@D@2@@_STL@@AAEAAV01@PAD0PBD1ABU__false_type@1@@Z 00437cb0 f i stlport_vc71_static:dll_main.obj
 0001:00036cf0       ?append@?$basic_string@DV?$char_traits@D@_STL@@V?$allocator@D@2@@_STL@@QAEAAV12@ABV12@II@Z 00437cf0 f i stlport_vc71_static:dll_main.obj
 0001:00036d80       ?append@?$basic_string@DV?$char_traits@D@_STL@@V?$allocator@D@2@@_STL@@QAEAAV12@PBDI@Z 00437d80 f i stlport_vc71_static:dll_main.obj
 0001:00036db0       ??$replace@PAD@?$basic_string@DV?$char_traits@D@_STL@@V?$allocator@D@2@@_STL@@QAEAAV01@PAD000@Z 00437db0 f i stlport_vc71_static:dll_main.obj
 0001:00036df0       ??$replace@PBD@?$basic_string@DV?$char_traits@D@_STL@@V?$allocator@D@2@@_STL@@QAEAAV01@PAD0PBD1@Z 00437df0 f i stlport_vc71_static:dll_main.obj
 0001:00036e30       ?assign@?$basic_string@DV?$char_traits@D@_STL@@V?$allocator@D@2@@_STL@@QAEAAV12@ABV12@@Z 00437e30 f i stlport_vc71_static:dll_main.obj
 0001:00036e70       ?assign@?$basic_string@DV?$char_traits@D@_STL@@V?$allocator@D@2@@_STL@@QAEAAV12@ABV12@II@Z 00437e70 f i stlport_vc71_static:dll_main.obj
 0001:00036f00       ?assign@?$basic_string@DV?$char_traits@D@_STL@@V?$allocator@D@2@@_STL@@QAEAAV12@PBDI@Z 00437f00 f i stlport_vc71_static:dll_main.obj
 0001:00036f30       ?assign@?$basic_string@DV?$char_traits@D@_STL@@V?$allocator@D@2@@_STL@@QAEAAV12@PBD@Z 00437f30 f i stlport_vc71_static:dll_main.obj
 0001:00036f60       ?replace@?$basic_string@DV?$char_traits@D@_STL@@V?$allocator@D@2@@_STL@@QAEAAV12@IIABV12@@Z 00437f60 f i stlport_vc71_static:dll_main.obj
 0001:00037070       ?replace@?$basic_string@DV?$char_traits@D@_STL@@V?$allocator@D@2@@_STL@@QAEAAV12@IIABV12@II@Z 00438070 f i stlport_vc71_static:dll_main.obj
 0001:000371d0       ?replace@?$basic_string@DV?$char_traits@D@_STL@@V?$allocator@D@2@@_STL@@QAEAAV12@IIPBDI@Z 004381d0 f i stlport_vc71_static:dll_main.obj
 0001:000372d0       ?replace@?$basic_string@DV?$char_traits@D@_STL@@V?$allocator@D@2@@_STL@@QAEAAV12@IIPBD@Z 004382d0 f i stlport_vc71_static:dll_main.obj
 0001:000373f0       ?replace@?$basic_string@DV?$char_traits@D@_STL@@V?$allocator@D@2@@_STL@@QAEAAV12@PAD0ABV12@@Z 004383f0 f i stlport_vc71_static:dll_main.obj
 0001:00037450       ?replace@?$basic_string@DV?$char_traits@D@_STL@@V?$allocator@D@2@@_STL@@QAEAAV12@PAD0PBDI@Z 00438450 f i stlport_vc71_static:dll_main.obj
 0001:00037490       ?replace@?$basic_string@DV?$char_traits@D@_STL@@V?$allocator@D@2@@_STL@@QAEAAV12@PAD0PBD@Z 00438490 f i stlport_vc71_static:dll_main.obj
 0001:000374f0       ?classic_table@?$ctype@D@_STL@@KAPBW4mask@ctype_base@2@XZ 004384f0 f i stlport_vc71_static:ctype.obj
 0001:00037500       ??0_Ctype_is_mask@_STL@@QAE@W4mask@ctype_base@1@PBW4231@@Z 00438500 f i stlport_vc71_static:ctype.obj
 0001:00037520       ??R_Ctype_is_mask@_STL@@QBE_ND@Z 00438520 f i stlport_vc71_static:ctype.obj
 0001:00037540       ??0_Ctype_not_mask@_STL@@QAE@W4mask@ctype_base@1@PBW4231@@Z 00438540 f i stlport_vc71_static:ctype.obj
 0001:00037560       ??R_Ctype_not_mask@_STL@@QBE_ND@Z 00438560 f i stlport_vc71_static:ctype.obj
 0001:00037580       ??0?$ctype@D@_STL@@QAE@PBW4mask@ctype_base@1@_NI@Z 00438580 f   stlport_vc71_static:ctype.obj
 0001:000375d0       ??1?$ctype@D@_STL@@MAE@XZ  004385d0 f   stlport_vc71_static:ctype.obj
 0001:00037600       ?do_toupper@?$ctype@D@_STL@@MBEDD@Z 00438600 f   stlport_vc71_static:ctype.obj
 0001:00037610       ?do_tolower@?$ctype@D@_STL@@MBEDD@Z 00438610 f   stlport_vc71_static:ctype.obj
 0001:00037620       ?do_toupper@?$ctype@D@_STL@@MBEPBDPADPBD@Z 00438620 f   stlport_vc71_static:ctype.obj
 0001:00037650       ?do_tolower@?$ctype@D@_STL@@MBEPBDPADPBD@Z 00438650 f   stlport_vc71_static:ctype.obj
 0001:00037680       ?do_widen@?$ctype@D@_STL@@MBEDD@Z 00438680 f   stlport_vc71_static:ctype.obj
 0001:00037690       ?do_widen@?$ctype@D@_STL@@MBEPBDPBD0PAD@Z 00438690 f   stlport_vc71_static:ctype.obj
 0001:000376c0       ?do_narrow@?$ctype@D@_STL@@MBEDDD@Z 004386c0 f   stlport_vc71_static:ctype.obj
 0001:000376d0       ?do_narrow@?$ctype@D@_STL@@MBEPBDPBD0DPAD@Z 004386d0 f   stlport_vc71_static:ctype.obj
 0001:00037700       ??0_Ctype_w_is_mask@_STL@@QAE@W4mask@ctype_base@1@PBW4231@@Z 00438700 f i stlport_vc71_static:ctype.obj
 0001:00037720       ??R_Ctype_w_is_mask@_STL@@QBE_NG@Z 00438720 f i stlport_vc71_static:ctype.obj
 0001:00037750       ??1?$ctype@G@_STL@@MAE@XZ  00438750 f   stlport_vc71_static:ctype.obj
 0001:00037760       ?do_is@?$ctype@G@_STL@@MBE_NW4mask@ctype_base@2@G@Z 00438760 f   stlport_vc71_static:ctype.obj
 0001:00037790       ?do_is@?$ctype@G@_STL@@MBEPBGPBG0PAW4mask@ctype_base@2@@Z 00438790 f   stlport_vc71_static:ctype.obj
 0001:000377d0       ?do_toupper@?$ctype@G@_STL@@MBEGG@Z 004387d0 f   stlport_vc71_static:ctype.obj
 0001:000377f0       ?do_toupper@?$ctype@G@_STL@@MBEPBGPAGPBG@Z 004387f0 f   stlport_vc71_static:ctype.obj
 0001:00037830       ?do_tolower@?$ctype@G@_STL@@MBEGG@Z 00438830 f   stlport_vc71_static:ctype.obj
 0001:00037850       ?do_tolower@?$ctype@G@_STL@@MBEPBGPAGPBG@Z 00438850 f   stlport_vc71_static:ctype.obj
 0001:00037890       ?do_widen@?$ctype@G@_STL@@MBEGD@Z 00438890 f   stlport_vc71_static:ctype.obj
 0001:000378a0       ?do_widen@?$ctype@G@_STL@@MBEPBDPBD0PAG@Z 004388a0 f   stlport_vc71_static:ctype.obj
 0001:000378d0       ?do_narrow@?$ctype@G@_STL@@MBEDGD@Z 004388d0 f   stlport_vc71_static:ctype.obj
 0001:000378f0       ?do_narrow@?$ctype@G@_STL@@MBEPBGPBG0DPAD@Z 004388f0 f   stlport_vc71_static:ctype.obj
 0001:00037930       ??0?$unary_negate@U_Ctype_w_is_mask@_STL@@@_STL@@QAE@ABU_Ctype_w_is_mask@1@@Z 00438930 f i stlport_vc71_static:ctype.obj
 0001:00037950       ??$__find_if@PBDU_Ctype_is_mask@_STL@@@_STL@@YAPBDPBD0U_Ctype_is_mask@0@ABUrandom_access_iterator_tag@0@@Z 00438950 f i stlport_vc71_static:ctype.obj
 0001:000379d0       ??$__find_if@PBDU_Ctype_not_mask@_STL@@@_STL@@YAPBDPBD0U_Ctype_not_mask@0@ABUrandom_access_iterator_tag@0@@Z 004389d0 f i stlport_vc71_static:ctype.obj
 0001:00037a50       ??$__find_if@PBGU_Ctype_w_is_mask@_STL@@@_STL@@YAPBGPBG0U_Ctype_w_is_mask@0@ABUrandom_access_iterator_tag@0@@Z 00438a50 f i stlport_vc71_static:ctype.obj
 0001:00037b30       ??R?$unary_negate@U_Ctype_w_is_mask@_STL@@@_STL@@QBE_NABG@Z 00438b30 f i stlport_vc71_static:ctype.obj
 0001:00037b70       ??_G?$ctype@D@_STL@@MAEPAXI@Z 00438b70 f i stlport_vc71_static:ctype.obj
 0001:00037b70       ??_E?$ctype@D@_STL@@MAEPAXI@Z 00438b70 f i stlport_vc71_static:ctype.obj
 0001:00037b90       ??$find_if@PBDU_Ctype_is_mask@_STL@@@_STL@@YAPBDPBD0U_Ctype_is_mask@0@@Z 00438b90 f i stlport_vc71_static:ctype.obj
 0001:00037bc0       ??$find_if@PBDU_Ctype_not_mask@_STL@@@_STL@@YAPBDPBD0U_Ctype_not_mask@0@@Z 00438bc0 f i stlport_vc71_static:ctype.obj
 0001:00037bf0       ??$find_if@PBGU_Ctype_w_is_mask@_STL@@@_STL@@YAPBGPBG0U_Ctype_w_is_mask@0@@Z 00438bf0 f i stlport_vc71_static:ctype.obj
 0001:00037c20       ??$not1@U_Ctype_w_is_mask@_STL@@@_STL@@YA?AV?$unary_negate@U_Ctype_w_is_mask@_STL@@@0@ABU_Ctype_w_is_mask@0@@Z 00438c20 f i stlport_vc71_static:ctype.obj
 0001:00037c40       ??$__find_if@PBGV?$unary_negate@U_Ctype_w_is_mask@_STL@@@_STL@@@_STL@@YAPBGPBG0V?$unary_negate@U_Ctype_w_is_mask@_STL@@@0@ABUrandom_access_iterator_tag@0@@Z 00438c40 f i stlport_vc71_static:ctype.obj
 0001:00037d20       ?scan_is@?$ctype@D@_STL@@QBEPBDW4mask@ctype_base@2@PBD1@Z 00438d20 f   stlport_vc71_static:ctype.obj
 0001:00037d50       ?scan_not@?$ctype@D@_STL@@QBEPBDW4mask@ctype_base@2@PBD1@Z 00438d50 f   stlport_vc71_static:ctype.obj
 0001:00037d80       ?do_scan_is@?$ctype@G@_STL@@MBEPBGW4mask@ctype_base@2@PBG1@Z 00438d80 f   stlport_vc71_static:ctype.obj
 0001:00037db0       ??$find_if@PBGV?$unary_negate@U_Ctype_w_is_mask@_STL@@@_STL@@@_STL@@YAPBGPBG0V?$unary_negate@U_Ctype_w_is_mask@_STL@@@0@@Z 00438db0 f i stlport_vc71_static:ctype.obj
 0001:00037de0       ?do_scan_not@?$ctype@G@_STL@@MBEPBGW4mask@ctype_base@2@PBG1@Z 00438de0 f   stlport_vc71_static:ctype.obj
 0001:00037e10       ?setf@ios_base@_STL@@QAEHH@Z 00438e10 f i stlport_vc71_static:iostream.obj
 0001:00037e30       ?_FILE_fd@_STL@@YAHPBU_iobuf@@@Z 00438e30 f i stlport_vc71_static:iostream.obj
 0001:00037e40       ?encoding@?$codecvt@GDH@_STL@@QBEHXZ 00438e40 f i stlport_vc71_static:iostream.obj
 0001:00037e50       ?always_noconv@?$codecvt@GDH@_STL@@QBE_NXZ 00438e50 f i stlport_vc71_static:iostream.obj
 0001:00037e60       ?max_length@?$codecvt@GDH@_STL@@QBEHXZ 00438e60 f i stlport_vc71_static:iostream.obj
 0001:00037e70       ??0stdio_istreambuf@_SgI@@QAE@PAU_iobuf@@@Z 00438e70 f i stlport_vc71_static:iostream.obj
 0001:00037e90       ??_Gstdio_istreambuf@_SgI@@UAEPAXI@Z 00438e90 f i stlport_vc71_static:iostream.obj
 0001:00037e90       ??_Estdio_istreambuf@_SgI@@UAEPAXI@Z 00438e90 f i stlport_vc71_static:iostream.obj
 0001:00037eb0       ??0stdio_ostreambuf@_SgI@@QAE@PAU_iobuf@@@Z 00438eb0 f i stlport_vc71_static:iostream.obj
 0001:00037ed0       ??_Gstdio_ostreambuf@_SgI@@UAEPAXI@Z 00438ed0 f i stlport_vc71_static:iostream.obj
 0001:00037ed0       ??_Estdio_ostreambuf@_SgI@@UAEPAXI@Z 00438ed0 f i stlport_vc71_static:iostream.obj
 0001:00037ef0       ?_M_open@?$basic_filebuf@DV?$char_traits@D@_STL@@@_STL@@QAEPAV12@HH@Z 00438ef0 f i stlport_vc71_static:iostream.obj
 0001:00037f10       ??1?$basic_istream@GV?$char_traits@G@_STL@@@_STL@@UAE@XZ 00438f10 f i stlport_vc71_static:iostream.obj
 0001:00037f20       ?is_open@?$basic_filebuf@GV?$char_traits@G@_STL@@@_STL@@QBE_NXZ 00438f20 f i stlport_vc71_static:iostream.obj
 0001:00037f30       ?_M_open@?$basic_filebuf@GV?$char_traits@G@_STL@@@_STL@@QAEPAV12@HH@Z 00438f30 f i stlport_vc71_static:iostream.obj
 0001:00037f50       ??1?$basic_ostream@GV?$char_traits@G@_STL@@@_STL@@UAE@XZ 00438f50 f i stlport_vc71_static:iostream.obj
 0001:00037f60       ??$_Destroy@V?$basic_istream@DV?$char_traits@D@_STL@@@_STL@@@_STL@@YAXPAV?$basic_istream@DV?$char_traits@D@_STL@@@0@@Z 00438f60 f i stlport_vc71_static:iostream.obj
 0001:00037f80       ??$_Destroy@V?$basic_ostream@DV?$char_traits@D@_STL@@@_STL@@@_STL@@YAXPAV?$basic_ostream@DV?$char_traits@D@_STL@@@0@@Z 00438f80 f i stlport_vc71_static:iostream.obj
 0001:00037fa0       ??$_Destroy@V?$basic_istream@GV?$char_traits@G@_STL@@@_STL@@@_STL@@YAXPAV?$basic_istream@GV?$char_traits@G@_STL@@@0@@Z 00438fa0 f i stlport_vc71_static:iostream.obj
 0001:00037fc0       ??$_Destroy@V?$basic_ostream@GV?$char_traits@G@_STL@@@_STL@@@_STL@@YAXPAV?$basic_ostream@GV?$char_traits@G@_STL@@@0@@Z 00438fc0 f i stlport_vc71_static:iostream.obj
 0001:00037fe0       ??$use_facet@V?$codecvt@GDH@_STL@@@_STL@@YAABV?$codecvt@GDH@0@ABVlocale@0@@Z 00438fe0 f i stlport_vc71_static:iostream.obj
 0001:00037ff0       ??_D?$basic_istream@DV?$char_traits@D@_STL@@@_STL@@QAEXXZ 00438ff0 f i stlport_vc71_static:iostream.obj
 0001:00038010       ??_D?$basic_ostream@DV?$char_traits@D@_STL@@@_STL@@QAEXXZ 00439010 f i stlport_vc71_static:iostream.obj
 0001:00038030       ??_D?$basic_istream@GV?$char_traits@G@_STL@@@_STL@@QAEXXZ 00439030 f i stlport_vc71_static:iostream.obj
 0001:00038050       ??_D?$basic_ostream@GV?$char_traits@G@_STL@@@_STL@@QAEXXZ 00439050 f i stlport_vc71_static:iostream.obj
 0001:00038070       ??_G?$basic_istream@GV?$char_traits@G@_STL@@@_STL@@UAEPAXI@Z 00439070 f i stlport_vc71_static:iostream.obj
 0001:00038070       ??_E?$basic_istream@GV?$char_traits@G@_STL@@@_STL@@UAEPAXI@Z 00439070 f i stlport_vc71_static:iostream.obj
 0001:000380a0       ??_E?$basic_ostream@GV?$char_traits@G@_STL@@@_STL@@UAEPAXI@Z 004390a0 f i stlport_vc71_static:iostream.obj
 0001:000380a0       ??_G?$basic_ostream@GV?$char_traits@G@_STL@@@_STL@@UAEPAXI@Z 004390a0 f i stlport_vc71_static:iostream.obj
 0001:000380d0       ?_M_setup_codecvt@?$basic_filebuf@GV?$char_traits@G@_STL@@@_STL@@AAEXABVlocale@2@@Z 004390d0 f i stlport_vc71_static:iostream.obj
 0001:00038140       ??0?$basic_filebuf@GV?$char_traits@G@_STL@@@_STL@@QAE@XZ 00439140 f i stlport_vc71_static:iostream.obj
 0001:00038220       ?showmanyc@?$basic_filebuf@GV?$char_traits@G@_STL@@@_STL@@MAEHXZ 00439220 f i stlport_vc71_static:iostream.obj
 0001:00038280       ?pbackfail@?$basic_filebuf@GV?$char_traits@G@_STL@@@_STL@@MAEGG@Z 00439280 f i stlport_vc71_static:iostream.obj
 0001:00038330       ?sync@?$basic_filebuf@GV?$char_traits@G@_STL@@@_STL@@MAEHXZ 00439330 f i stlport_vc71_static:iostream.obj
 0001:00038360       ?setbuf@?$basic_filebuf@GV?$char_traits@G@_STL@@@_STL@@MAEPAV?$basic_streambuf@GV?$char_traits@G@_STL@@@2@PAGH@Z 00439360 f i stlport_vc71_static:iostream.obj
 0001:000383c0       ?_M_allocate_buffers@?$basic_filebuf@GV?$char_traits@G@_STL@@@_STL@@AAE_NPAGH@Z 004393c0 f i stlport_vc71_static:iostream.obj
 0001:00038480       ?_M_deallocate_buffers@?$basic_filebuf@GV?$char_traits@G@_STL@@@_STL@@AAEXXZ 00439480 f i stlport_vc71_static:iostream.obj
 0001:000384c0       ?seekoff@?$basic_filebuf@GV?$char_traits@G@_STL@@@_STL@@MAE?AV?$fpos@H@2@JHH@Z 004394c0 f i stlport_vc71_static:iostream.obj
 0001:00038860       ??1?$_Filebuf_Tmp_Buf@G@_STL@@QAE@XZ 00439860 f i stlport_vc71_static:iostream.obj
 0001:00038870       ?_M_seek_return@?$basic_filebuf@GV?$char_traits@G@_STL@@@_STL@@AAE?AV?$fpos@H@2@JH@Z 00439870 f i stlport_vc71_static:iostream.obj
 0001:000388c0       ?_M_exit_input_mode@?$basic_filebuf@GV?$char_traits@G@_STL@@@_STL@@AAEXXZ 004398c0 f i stlport_vc71_static:iostream.obj
 0001:000388f0       ?_M_seek_init@?$basic_filebuf@GV?$char_traits@G@_STL@@@_STL@@AAE_N_N@Z 004398f0 f i stlport_vc71_static:iostream.obj
 0001:00038960       ?_M_exit_putback_mode@?$basic_filebuf@GV?$char_traits@G@_STL@@@_STL@@AAEXXZ 00439960 f i stlport_vc71_static:iostream.obj
 0001:00038980       ?_M_unshift@?$basic_filebuf@GV?$char_traits@G@_STL@@@_STL@@AAE_NXZ 00439980 f i stlport_vc71_static:iostream.obj
 0001:00038a00       ?seekpos@?$basic_filebuf@GV?$char_traits@G@_STL@@@_STL@@MAE?AV?$fpos@H@2@V32@H@Z 00439a00 f i stlport_vc71_static:iostream.obj
 0001:00038ac0       ?imbue@?$basic_filebuf@GV?$char_traits@G@_STL@@@_STL@@MAEXABVlocale@2@@Z 00439ac0 f i stlport_vc71_static:iostream.obj
 0001:00038ae0       ??_E?$basic_filebuf@GV?$char_traits@G@_STL@@@_STL@@UAEPAXI@Z 00439ae0 f i stlport_vc71_static:iostream.obj
 0001:00038ae0       ??_G?$basic_filebuf@GV?$char_traits@G@_STL@@@_STL@@UAEPAXI@Z 00439ae0 f i stlport_vc71_static:iostream.obj
 0001:00038b00       ??1?$basic_filebuf@GV?$char_traits@G@_STL@@@_STL@@UAE@XZ 00439b00 f i stlport_vc71_static:iostream.obj
 0001:00038b80       ?close@?$basic_filebuf@GV?$char_traits@G@_STL@@@_STL@@QAEPAV12@XZ 00439b80 f i stlport_vc71_static:iostream.obj
 0001:00038c40       ?_Stl_create_filebuf@_STL@@YAPAV?$basic_filebuf@DV?$char_traits@D@_STL@@@1@PAU_iobuf@@H@Z 00439c40 f   stlport_vc71_static:iostream.obj
 0001:00038cf0       ?_Stl_create_wfilebuf@_STL@@YAPAV?$basic_filebuf@GV?$char_traits@G@_STL@@@1@PAU_iobuf@@H@Z 00439cf0 f   stlport_vc71_static:iostream.obj
 0001:00038da0       ?_S_uninitialize@ios_base@_STL@@KAXXZ 00439da0 f   stlport_vc71_static:iostream.obj
 0001:00039120       ?sync_with_stdio@ios_base@_STL@@SA_N_N@Z 0043a120 f   stlport_vc71_static:iostream.obj
 0001:00039400       ?overflow@?$basic_filebuf@GV?$char_traits@G@_STL@@@_STL@@MAEGG@Z 0043a400 f i stlport_vc71_static:iostream.obj
 0001:00039550       ?_M_switch_to_output_mode@?$basic_filebuf@GV?$char_traits@G@_STL@@@_STL@@AAE_NXZ 0043a550 f i stlport_vc71_static:iostream.obj
 0001:000395d0       ??1Init@ios_base@_STL@@QAE@XZ 0043a5d0 f   stlport_vc71_static:iostream.obj
 0001:000395e0       ?underflow@?$basic_filebuf@GV?$char_traits@G@_STL@@@_STL@@MAEGXZ 0043a5e0 f i stlport_vc71_static:iostream.obj
 0001:000395f0       ?_M_doit@?$_Underflow@GV?$char_traits@G@_STL@@@_STL@@SAGPAV?$basic_filebuf@GV?$char_traits@G@_STL@@@2@@Z 0043a5f0 f i stlport_vc71_static:iostream.obj
 0001:00039640       ?_M_switch_to_input_mode@?$basic_filebuf@GV?$char_traits@G@_STL@@@_STL@@AAE_NXZ 0043a640 f i stlport_vc71_static:iostream.obj
 0001:000396a0       ?_M_underflow_aux@?$basic_filebuf@GV?$char_traits@G@_STL@@@_STL@@AAEGXZ 0043a6a0 f i stlport_vc71_static:iostream.obj
 0001:000397e0       ?_M_input_error@?$basic_filebuf@GV?$char_traits@G@_STL@@@_STL@@AAEGXZ 0043a7e0 f i stlport_vc71_static:iostream.obj
 0001:00039820       ??0?$basic_ostream@GV?$char_traits@G@_STL@@@_STL@@QAE@PAV?$basic_streambuf@GV?$char_traits@G@_STL@@@1@@Z 0043a820 f i stlport_vc71_static:iostream.obj
 0001:000398b0       ??0?$basic_istream@GV?$char_traits@G@_STL@@@_STL@@QAE@PAV?$basic_streambuf@GV?$char_traits@G@_STL@@@1@@Z 0043a8b0 f i stlport_vc71_static:iostream.obj
 0001:00039950       ?_S_initialize@ios_base@_STL@@KAXXZ 0043a950 f   stlport_vc71_static:iostream.obj
 0001:00039cc0       ??0Init@ios_base@_STL@@QAE@XZ 0043acc0 f   stlport_vc71_static:iostream.obj
 0001:00039cd0       ?eback@?$basic_streambuf@DV?$char_traits@D@_STL@@@_STL@@IBEPADXZ 0043acd0 f i stlport_vc71_static:fstream.obj
 0001:00039ce0       ?gbump@?$basic_streambuf@DV?$char_traits@D@_STL@@@_STL@@IAEXH@Z 0043ace0 f i stlport_vc71_static:fstream.obj
 0001:00039cf0       ?out@?$codecvt@DDH@_STL@@QBE?AW4result@codecvt_base@2@AAHPBD1AAPBDPAD3AAPAD@Z 0043acf0 f i stlport_vc71_static:fstream.obj
 0001:00039d00       ?in@?$codecvt@DDH@_STL@@QBE?AW4result@codecvt_base@2@AAHPBD1AAPBDPAD3AAPAD@Z 0043ad00 f i stlport_vc71_static:fstream.obj
 0001:00039d10       ?length@?$codecvt@DDH@_STL@@QBEHABHPBD1I@Z 0043ad10 f i stlport_vc71_static:fstream.obj
 0001:00039d20       ?out@?$codecvt@GDH@_STL@@QBE?AW4result@codecvt_base@2@HPBG0AAPBGPAD2AAPAD@Z 0043ad20 f i stlport_vc71_static:fstream.obj
 0001:00039d50       ?unshift@?$codecvt@GDH@_STL@@QBE?AW4result@codecvt_base@2@AAHPAD1AAPAD@Z 0043ad50 f i stlport_vc71_static:fstream.obj
 0001:00039d60       ?in@?$codecvt@GDH@_STL@@QBE?AW4result@codecvt_base@2@HPBD0AAPBDPAG2AAPAG@Z 0043ad60 f i stlport_vc71_static:fstream.obj
 0001:00039d90       ?length@?$codecvt@GDH@_STL@@QBEHABHPBD1I@Z 0043ad90 f i stlport_vc71_static:fstream.obj
 0001:00039da0       ?_M_in_binary_mode@_Filebuf_base@_STL@@QBE_NXZ 0043ada0 f i stlport_vc71_static:fstream.obj
 0001:00039db0       ?__page_size@_Filebuf_base@_STL@@SAIXZ 0043adb0 f i stlport_vc71_static:fstream.obj
 0001:00039dc0       ?__o_mode@_Filebuf_base@_STL@@QBEHXZ 0043adc0 f i stlport_vc71_static:fstream.obj
 0001:00039dd0       ?__regular_file@_Filebuf_base@_STL@@QBE_NXZ 0043add0 f i stlport_vc71_static:fstream.obj
 0001:00039de0       ?__get_fd@_Filebuf_base@_STL@@QBEPAXXZ 0043ade0 f i stlport_vc71_static:fstream.obj
 0001:00039df0       ?flag_to_openmode@_SgI@@YAHH@Z 0043adf0 f   stlport_vc71_static:fstream.obj
 0001:00039e30       ?__is_regular_file@_SgI@@YA_NPAX@Z 0043ae30 f   stlport_vc71_static:fstream.obj
 0001:00039e50       ?__file_size@_SgI@@YAJPAX@Z 0043ae50 f   stlport_vc71_static:fstream.obj
 0001:00039e90       ?_get_osfflags@_SgI@@YAHHPAX@Z 0043ae90 f   stlport_vc71_static:fstream.obj
 0001:00039f10       ??0_Filebuf_base@_STL@@QAE@XZ 0043af10 f   stlport_vc71_static:fstream.obj
 0001:00039f70       ?_M_file_size@_Filebuf_base@_STL@@QAEJXZ 0043af70 f   stlport_vc71_static:fstream.obj
 0001:00039fa0       ?_M_open@_Filebuf_base@_STL@@QAE_NPBDHJ@Z 0043afa0 f   stlport_vc71_static:fstream.obj
 0001:0003a0f0       ?_M_open@_Filebuf_base@_STL@@QAE_NPBDH@Z 0043b0f0 f   stlport_vc71_static:fstream.obj
 0001:0003a110       ?_M_open@_Filebuf_base@_STL@@QAE_NHH@Z 0043b110 f   stlport_vc71_static:fstream.obj
 0001:0003a180       ?_M_close@_Filebuf_base@_STL@@QAE_NXZ 0043b180 f   stlport_vc71_static:fstream.obj
 0001:0003a1e0       ?_M_read@_Filebuf_base@_STL@@QAEHPADH@Z 0043b1e0 f   stlport_vc71_static:fstream.obj
 0001:0003a2e0       ?_M_seek@_Filebuf_base@_STL@@QAEJJH@Z 0043b2e0 f   stlport_vc71_static:fstream.obj
 0001:0003a390       ?_M_unmap@_Filebuf_base@_STL@@QAEXPAXJ@Z 0043b390 f   stlport_vc71_static:fstream.obj
 0001:0003a3c0       ?open@?$basic_filebuf@DV?$char_traits@D@_STL@@@_STL@@QAEPAV12@PBDHJ@Z 0043b3c0 f i stlport_vc71_static:fstream.obj
 0001:0003a3f0       ?fd@?$basic_filebuf@DV?$char_traits@D@_STL@@@_STL@@QBEPAXXZ 0043b3f0 f i stlport_vc71_static:fstream.obj
 0001:0003a400       ?_M_do_noconv_input@?$basic_filebuf@DV?$char_traits@D@_STL@@@_STL@@QAEHXZ 0043b400 f i stlport_vc71_static:fstream.obj
 0001:0003a430       ?rdbuf@?$basic_ifstream@DV?$char_traits@D@_STL@@@_STL@@QBEPAV?$basic_filebuf@DV?$char_traits@D@_STL@@@2@XZ 0043b430 f i stlport_vc71_static:fstream.obj
 0001:0003a440       ?is_open@?$basic_ifstream@DV?$char_traits@D@_STL@@@_STL@@QAE_NXZ 0043b440 f i stlport_vc71_static:fstream.obj
 0001:0003a450       ?rdbuf@?$basic_ofstream@DV?$char_traits@D@_STL@@@_STL@@QBEPAV?$basic_filebuf@DV?$char_traits@D@_STL@@@2@XZ 0043b450 f i stlport_vc71_static:fstream.obj
 0001:0003a460       ?is_open@?$basic_ofstream@DV?$char_traits@D@_STL@@@_STL@@QAE_NXZ 0043b460 f i stlport_vc71_static:fstream.obj
 0001:0003a470       ?rdbuf@?$basic_fstream@DV?$char_traits@D@_STL@@@_STL@@QBEPAV?$basic_filebuf@DV?$char_traits@D@_STL@@@2@XZ 0043b470 f i stlport_vc71_static:fstream.obj
 0001:0003a480       ?is_open@?$basic_fstream@DV?$char_traits@D@_STL@@@_STL@@QAE_NXZ 0043b480 f i stlport_vc71_static:fstream.obj
 0001:0003a490       ?open@?$basic_filebuf@GV?$char_traits@G@_STL@@@_STL@@QAEPAV12@PBDH@Z 0043b490 f i stlport_vc71_static:fstream.obj
 0001:0003a4c0       ?open@?$basic_filebuf@GV?$char_traits@G@_STL@@@_STL@@QAEPAV12@PBDHJ@Z 0043b4c0 f i stlport_vc71_static:fstream.obj
 0001:0003a4f0       ?fd@?$basic_filebuf@GV?$char_traits@G@_STL@@@_STL@@QBEPAXXZ 0043b4f0 f i stlport_vc71_static:fstream.obj
 0001:0003a500       ?rdbuf@?$basic_ifstream@GV?$char_traits@G@_STL@@@_STL@@QBEPAV?$basic_filebuf@GV?$char_traits@G@_STL@@@2@XZ 0043b500 f i stlport_vc71_static:fstream.obj
 0001:0003a510       ?is_open@?$basic_ifstream@GV?$char_traits@G@_STL@@@_STL@@QAE_NXZ 0043b510 f i stlport_vc71_static:fstream.obj
 0001:0003a520       ?rdbuf@?$basic_ofstream@GV?$char_traits@G@_STL@@@_STL@@QBEPAV?$basic_filebuf@GV?$char_traits@G@_STL@@@2@XZ 0043b520 f i stlport_vc71_static:fstream.obj
 0001:0003a530       ?is_open@?$basic_ofstream@GV?$char_traits@G@_STL@@@_STL@@QAE_NXZ 0043b530 f i stlport_vc71_static:fstream.obj
 0001:0003a540       ?rdbuf@?$basic_fstream@GV?$char_traits@G@_STL@@@_STL@@QBEPAV?$basic_filebuf@GV?$char_traits@G@_STL@@@2@XZ 0043b540 f i stlport_vc71_static:fstream.obj
 0001:0003a550       ?is_open@?$basic_fstream@GV?$char_traits@G@_STL@@@_STL@@QAE_NXZ 0043b550 f i stlport_vc71_static:fstream.obj
 0001:0003a560       ?state@?$fpos@H@_STL@@QAEXH@Z 0043b560 f i stlport_vc71_static:fstream.obj
 0001:0003a570       ?_M_input_error@?$basic_filebuf@DV?$char_traits@D@_STL@@@_STL@@AAEHXZ 0043b570 f i stlport_vc71_static:fstream.obj
 0001:0003a5c0       ??1?$basic_iostream@DV?$char_traits@D@_STL@@@_STL@@UAE@XZ 0043b5c0 f i stlport_vc71_static:fstream.obj
 0001:0003a600       ??1?$basic_iostream@GV?$char_traits@G@_STL@@@_STL@@UAE@XZ 0043b600 f i stlport_vc71_static:fstream.obj
 0001:0003a640       ?to_char_type@?$__char_traits_base@GG@_STL@@SAGABG@Z 0043b640 f i stlport_vc71_static:fstream.obj
 0001:0003a650       ??B?$fpos@H@_STL@@QBEJXZ   0043b650 f i stlport_vc71_static:fstream.obj
 0001:0003a660       ?state@?$fpos@H@_STL@@QBEHXZ 0043b660 f i stlport_vc71_static:fstream.obj
 0001:0003a670       ??0?$_Filebuf_Tmp_Buf@D@_STL@@QAE@H@Z 0043b670 f i stlport_vc71_static:fstream.obj
 0001:0003a690       ?_M_doit@?$_Noconv_output@V?$char_traits@G@_STL@@@_STL@@SA_NPAV?$basic_filebuf@GV?$char_traits@G@_STL@@@2@PAG1@Z 0043b690 f i stlport_vc71_static:fstream.obj
 0001:0003a6a0       ??0?$_Filebuf_Tmp_Buf@G@_STL@@QAE@H@Z 0043b6a0 f i stlport_vc71_static:fstream.obj
 0001:0003a6d0       ?_M_doit@?$_Noconv_input@V?$char_traits@G@_STL@@@_STL@@SAGPAV?$basic_filebuf@GV?$char_traits@G@_STL@@@2@@Z 0043b6d0 f i stlport_vc71_static:fstream.obj
 0001:0003a6e0       ??R?$_Eq_traits@V?$char_traits@G@_STL@@@_STL@@QBE_NABG0@Z 0043b6e0 f i stlport_vc71_static:fstream.obj
 0001:0003a700       ?_M_get_offset@_Filebuf_base@_STL@@QAEJPAD0@Z 0043b700 f i stlport_vc71_static:fstream.obj
 0001:0003a740       ?_M_doit@?$_Noconv_input@V?$char_traits@D@_STL@@@_STL@@SAHPAV?$basic_filebuf@DV?$char_traits@D@_STL@@@2@@Z 0043b740 f i stlport_vc71_static:fstream.obj
 0001:0003a770       ?_M_write@_Filebuf_base@_STL@@QAE_NPADH@Z 0043b770 f   stlport_vc71_static:fstream.obj
 0001:0003a980       ?_M_mmap@_Filebuf_base@_STL@@QAEPAXJJ@Z 0043b980 f   stlport_vc71_static:fstream.obj
 0001:0003aa40       ?open@?$basic_filebuf@DV?$char_traits@D@_STL@@@_STL@@QAEPAV12@HH@Z 0043ba40 f i stlport_vc71_static:fstream.obj
 0001:0003aa60       ?open@?$basic_filebuf@GV?$char_traits@G@_STL@@@_STL@@QAEPAV12@HH@Z 0043ba60 f i stlport_vc71_static:fstream.obj
 0001:0003aa80       ?_M_write@?$basic_filebuf@GV?$char_traits@G@_STL@@@_STL@@QAE_NPADH@Z 0043ba80 f i stlport_vc71_static:fstream.obj
 0001:0003aa90       ?_M_do_noconv_input@?$basic_filebuf@GV?$char_traits@G@_STL@@@_STL@@QAEGXZ 0043ba90 f i stlport_vc71_static:fstream.obj
 0001:0003aab0       ?_M_output_error@?$basic_filebuf@GV?$char_traits@G@_STL@@@_STL@@AAEGXZ 0043bab0 f i stlport_vc71_static:fstream.obj
 0001:0003aad0       ??_E?$basic_iostream@DV?$char_traits@D@_STL@@@_STL@@UAEPAXI@Z 0043bad0 f i stlport_vc71_static:fstream.obj
 0001:0003aad0       ??_G?$basic_iostream@DV?$char_traits@D@_STL@@@_STL@@UAEPAXI@Z 0043bad0 f i stlport_vc71_static:fstream.obj
 0001:0003ab00       ??_G?$basic_iostream@GV?$char_traits@G@_STL@@@_STL@@UAEPAXI@Z 0043bb00 f i stlport_vc71_static:fstream.obj
 0001:0003ab00       ??_E?$basic_iostream@GV?$char_traits@G@_STL@@@_STL@@UAEPAXI@Z 0043bb00 f i stlport_vc71_static:fstream.obj
 0001:0003ab30       ?not_eof@?$__char_traits_base@DH@_STL@@SAHABH@Z 0043bb30 f i stlport_vc71_static:fstream.obj
 0001:0003ab50       ?not_eof@?$__char_traits_base@GG@_STL@@SAGABG@Z 0043bb50 f i stlport_vc71_static:fstream.obj
 0001:0003ab70       ??$equal@PADPADU?$_Eq_traits@V?$char_traits@D@_STL@@@_STL@@@_STL@@YA_NPAD00U?$_Eq_traits@V?$char_traits@D@_STL@@@0@@Z 0043bb70 f i stlport_vc71_static:fstream.obj
 0001:0003aba0       ??$equal@PAGPAGU?$_Eq_traits@V?$char_traits@G@_STL@@@_STL@@@_STL@@YA_NPAG00U?$_Eq_traits@V?$char_traits@G@_STL@@@0@@Z 0043bba0 f i stlport_vc71_static:fstream.obj
 0001:0003abd0       ?_M_doit@?$_Noconv_output@V?$char_traits@D@_STL@@@_STL@@SA_NPAV?$basic_filebuf@DV?$char_traits@D@_STL@@@2@PAD1@Z 0043bbd0 f i stlport_vc71_static:fstream.obj
 0001:0003abf0       ?_M_allocate_buffers@?$basic_filebuf@DV?$char_traits@D@_STL@@@_STL@@AAE_NXZ 0043bbf0 f i stlport_vc71_static:fstream.obj
 0001:0003ac10       ?_M_allocate_buffers@?$basic_filebuf@GV?$char_traits@G@_STL@@@_STL@@AAE_NXZ 0043bc10 f i stlport_vc71_static:fstream.obj
 0001:0003ac30       ??$copy@PADPAD@_STL@@YAPADPAD00@Z 0043bc30 f i stlport_vc71_static:fstream.obj
 0001:0003ac60       ?open@?$basic_ifstream@DV?$char_traits@D@_STL@@@_STL@@QAEXPBDH@Z 0043bc60 f i stlport_vc71_static:fstream.obj
 0001:0003acc0       ?close@?$basic_ifstream@DV?$char_traits@D@_STL@@@_STL@@QAEXXZ 0043bcc0 f i stlport_vc71_static:fstream.obj
 0001:0003ad00       ?open@?$basic_ofstream@DV?$char_traits@D@_STL@@@_STL@@QAEXPBDH@Z 0043bd00 f i stlport_vc71_static:fstream.obj
 0001:0003ad60       ?close@?$basic_ofstream@DV?$char_traits@D@_STL@@@_STL@@QAEXXZ 0043bd60 f i stlport_vc71_static:fstream.obj
 0001:0003ada0       ?open@?$basic_fstream@DV?$char_traits@D@_STL@@@_STL@@QAEXPBDH@Z 0043bda0 f i stlport_vc71_static:fstream.obj
 0001:0003ae00       ?close@?$basic_fstream@DV?$char_traits@D@_STL@@@_STL@@QAEXXZ 0043be00 f i stlport_vc71_static:fstream.obj
 0001:0003ae40       ?open@?$basic_ifstream@GV?$char_traits@G@_STL@@@_STL@@QAEXPBDH@Z 0043be40 f i stlport_vc71_static:fstream.obj
 0001:0003aea0       ?close@?$basic_ifstream@GV?$char_traits@G@_STL@@@_STL@@QAEXXZ 0043bea0 f i stlport_vc71_static:fstream.obj
 0001:0003aee0       ?open@?$basic_ofstream@GV?$char_traits@G@_STL@@@_STL@@QAEXPBDH@Z 0043bee0 f i stlport_vc71_static:fstream.obj
 0001:0003af40       ?close@?$basic_ofstream@GV?$char_traits@G@_STL@@@_STL@@QAEXXZ 0043bf40 f i stlport_vc71_static:fstream.obj
 0001:0003af80       ?open@?$basic_fstream@GV?$char_traits@G@_STL@@@_STL@@QAEXPBDH@Z 0043bf80 f i stlport_vc71_static:fstream.obj
 0001:0003afe0       ?close@?$basic_fstream@GV?$char_traits@G@_STL@@@_STL@@QAEXXZ 0043bfe0 f i stlport_vc71_static:fstream.obj
 0001:0003b020       ?_M_switch_to_input_mode@?$basic_filebuf@DV?$char_traits@D@_STL@@@_STL@@AAE_NXZ 0043c020 f i stlport_vc71_static:fstream.obj
 0001:0003b080       ?_M_underflow_aux@?$basic_filebuf@DV?$char_traits@D@_STL@@@_STL@@AAEHXZ 0043c080 f i stlport_vc71_static:fstream.obj
 0001:0003b210       ?_M_doit@?$_Underflow@DV?$char_traits@D@_STL@@@_STL@@SAHPAV?$basic_filebuf@DV?$char_traits@D@_STL@@@2@@Z 0043c210 f   stlport_vc71_static:fstream.obj
 0001:0003b3a0       ??1?$basic_fstream@DV?$char_traits@D@_STL@@@_STL@@UAE@XZ 0043c3a0 f i stlport_vc71_static:fstream.obj
 0001:0003b430       ??1?$basic_ifstream@GV?$char_traits@G@_STL@@@_STL@@UAE@XZ 0043c430 f i stlport_vc71_static:fstream.obj
 0001:0003b4a0       ??1?$basic_ofstream@GV?$char_traits@G@_STL@@@_STL@@UAE@XZ 0043c4a0 f i stlport_vc71_static:fstream.obj
 0001:0003b510       ??1?$basic_fstream@GV?$char_traits@G@_STL@@@_STL@@UAE@XZ 0043c510 f i stlport_vc71_static:fstream.obj
 0001:0003b5a0       ??_D?$basic_fstream@DV?$char_traits@D@_STL@@@_STL@@QAEXXZ 0043c5a0 f i stlport_vc71_static:fstream.obj
 0001:0003b5c0       ??_D?$basic_ifstream@GV?$char_traits@G@_STL@@@_STL@@QAEXXZ 0043c5c0 f i stlport_vc71_static:fstream.obj
 0001:0003b5e0       ??_D?$basic_ofstream@GV?$char_traits@G@_STL@@@_STL@@QAEXXZ 0043c5e0 f i stlport_vc71_static:fstream.obj
 0001:0003b600       ??_D?$basic_fstream@GV?$char_traits@G@_STL@@@_STL@@QAEXXZ 0043c600 f i stlport_vc71_static:fstream.obj
 0001:0003b620       ??_G?$basic_fstream@DV?$char_traits@D@_STL@@@_STL@@UAEPAXI@Z 0043c620 f i stlport_vc71_static:fstream.obj
 0001:0003b620       ??_E?$basic_fstream@DV?$char_traits@D@_STL@@@_STL@@UAEPAXI@Z 0043c620 f i stlport_vc71_static:fstream.obj
 0001:0003b660       ??_G?$basic_ifstream@GV?$char_traits@G@_STL@@@_STL@@UAEPAXI@Z 0043c660 f i stlport_vc71_static:fstream.obj
 0001:0003b660       ??_E?$basic_ifstream@GV?$char_traits@G@_STL@@@_STL@@UAEPAXI@Z 0043c660 f i stlport_vc71_static:fstream.obj
 0001:0003b6a0       ??_G?$basic_ofstream@GV?$char_traits@G@_STL@@@_STL@@UAEPAXI@Z 0043c6a0 f i stlport_vc71_static:fstream.obj
 0001:0003b6a0       ??_E?$basic_ofstream@GV?$char_traits@G@_STL@@@_STL@@UAEPAXI@Z 0043c6a0 f i stlport_vc71_static:fstream.obj
 0001:0003b6e0       ??_G?$basic_fstream@GV?$char_traits@G@_STL@@@_STL@@UAEPAXI@Z 0043c6e0 f i stlport_vc71_static:fstream.obj
 0001:0003b6e0       ??_E?$basic_fstream@GV?$char_traits@G@_STL@@@_STL@@UAEPAXI@Z 0043c6e0 f i stlport_vc71_static:fstream.obj
 0001:0003b720       ??0?$basic_ofstream@DV?$char_traits@D@_STL@@@_STL@@QAE@XZ 0043c720 f i stlport_vc71_static:fstream.obj
 0001:0003b7e0       ??0?$basic_ofstream@DV?$char_traits@D@_STL@@@_STL@@QAE@HH@Z 0043c7e0 f i stlport_vc71_static:fstream.obj
 0001:0003b8e0       ??0?$basic_ofstream@DV?$char_traits@D@_STL@@@_STL@@QAE@PBDHJ@Z 0043c8e0 f i stlport_vc71_static:fstream.obj
 0001:0003b9f0       ??0?$basic_ofstream@GV?$char_traits@G@_STL@@@_STL@@QAE@XZ 0043c9f0 f i stlport_vc71_static:fstream.obj
 0001:0003bab0       ??0?$basic_ofstream@GV?$char_traits@G@_STL@@@_STL@@QAE@PBDH@Z 0043cab0 f i stlport_vc71_static:fstream.obj
 0001:0003bbc0       ??0?$basic_ofstream@GV?$char_traits@G@_STL@@@_STL@@QAE@HH@Z 0043cbc0 f i stlport_vc71_static:fstream.obj
 0001:0003bcc0       ??0?$basic_ofstream@GV?$char_traits@G@_STL@@@_STL@@QAE@PBDHJ@Z 0043ccc0 f i stlport_vc71_static:fstream.obj
 0001:0003bdd0       ??0?$basic_iostream@DV?$char_traits@D@_STL@@@_STL@@QAE@PAV?$basic_streambuf@DV?$char_traits@D@_STL@@@1@@Z 0043cdd0 f i stlport_vc71_static:fstream.obj
 0001:0003beb0       ??0?$basic_iostream@GV?$char_traits@G@_STL@@@_STL@@QAE@PAV?$basic_streambuf@GV?$char_traits@G@_STL@@@1@@Z 0043ceb0 f i stlport_vc71_static:fstream.obj
 0001:0003bf90       ??0?$basic_ifstream@DV?$char_traits@D@_STL@@@_STL@@QAE@XZ 0043cf90 f i stlport_vc71_static:fstream.obj
 0001:0003c050       ??0?$basic_ifstream@DV?$char_traits@D@_STL@@@_STL@@QAE@HH@Z 0043d050 f i stlport_vc71_static:fstream.obj
 0001:0003c160       ??0?$basic_ifstream@DV?$char_traits@D@_STL@@@_STL@@QAE@PBDHJ@Z 0043d160 f i stlport_vc71_static:fstream.obj
 0001:0003c270       ??0?$basic_fstream@DV?$char_traits@D@_STL@@@_STL@@QAE@XZ 0043d270 f i stlport_vc71_static:fstream.obj
 0001:0003c330       ??0?$basic_fstream@DV?$char_traits@D@_STL@@@_STL@@QAE@PBDH@Z 0043d330 f i stlport_vc71_static:fstream.obj
 0001:0003c430       ??0?$basic_fstream@DV?$char_traits@D@_STL@@@_STL@@QAE@HH@Z 0043d430 f i stlport_vc71_static:fstream.obj
 0001:0003c530       ??0?$basic_fstream@DV?$char_traits@D@_STL@@@_STL@@QAE@PBDHJ@Z 0043d530 f i stlport_vc71_static:fstream.obj
 0001:0003c630       ??0?$basic_ifstream@GV?$char_traits@G@_STL@@@_STL@@QAE@XZ 0043d630 f i stlport_vc71_static:fstream.obj
 0001:0003c6f0       ??0?$basic_ifstream@GV?$char_traits@G@_STL@@@_STL@@QAE@PBDH@Z 0043d6f0 f i stlport_vc71_static:fstream.obj
 0001:0003c800       ??0?$basic_ifstream@GV?$char_traits@G@_STL@@@_STL@@QAE@HH@Z 0043d800 f i stlport_vc71_static:fstream.obj
 0001:0003c910       ??0?$basic_ifstream@GV?$char_traits@G@_STL@@@_STL@@QAE@PBDHJ@Z 0043d910 f i stlport_vc71_static:fstream.obj
 0001:0003ca20       ??0?$basic_fstream@GV?$char_traits@G@_STL@@@_STL@@QAE@XZ 0043da20 f i stlport_vc71_static:fstream.obj
 0001:0003cae0       ??0?$basic_fstream@GV?$char_traits@G@_STL@@@_STL@@QAE@PBDH@Z 0043dae0 f i stlport_vc71_static:fstream.obj
 0001:0003cbe0       ??0?$basic_fstream@GV?$char_traits@G@_STL@@@_STL@@QAE@HH@Z 0043dbe0 f i stlport_vc71_static:fstream.obj
 0001:0003cce0       ??0?$basic_fstream@GV?$char_traits@G@_STL@@@_STL@@QAE@PBDHJ@Z 0043dce0 f i stlport_vc71_static:fstream.obj
 0001:0003cde0       ??1?$codecvt@DDH@_STL@@MAE@XZ 0043dde0 f   stlport_vc71_static:codecvt.obj
 0001:0003cdf0       ?do_max_length@?$codecvt@DDH@_STL@@MBEHXZ 0043ddf0 f   stlport_vc71_static:codecvt.obj
 0001:0003ce00       ?do_always_noconv@?$codecvt@DDH@_STL@@MBE_NXZ 0043de00 f   stlport_vc71_static:codecvt.obj
 0001:0003ce10       ?do_encoding@?$codecvt@DDH@_STL@@MBEHXZ 0043de10 f   stlport_vc71_static:codecvt.obj
 0001:0003ce20       ?do_unshift@?$codecvt@DDH@_STL@@MBE?AW4result@codecvt_base@2@AAHPAD1AAPAD@Z 0043de20 f   stlport_vc71_static:codecvt.obj
 0001:0003ce40       ?do_in@?$codecvt@DDH@_STL@@MBE?AW4result@codecvt_base@2@AAHPBD1AAPBDPAD3AAPAD@Z 0043de40 f   stlport_vc71_static:codecvt.obj
 0001:0003ce60       ?do_out@?$codecvt@DDH@_STL@@MBE?AW4result@codecvt_base@2@AAHPBD1AAPBDPAD3AAPAD@Z 0043de60 f   stlport_vc71_static:codecvt.obj
 0001:0003ce80       ??1?$codecvt@GDH@_STL@@MAE@XZ 0043de80 f   stlport_vc71_static:codecvt.obj
 0001:0003ce90       ?do_unshift@?$codecvt@GDH@_STL@@MBE?AW4result@codecvt_base@2@AAHPAD1AAPAD@Z 0043de90 f   stlport_vc71_static:codecvt.obj
 0001:0003ceb0       ?do_encoding@?$codecvt@GDH@_STL@@MBEHXZ 0043deb0 f   stlport_vc71_static:codecvt.obj
 0001:0003cec0       ?do_always_noconv@?$codecvt@GDH@_STL@@MBE_NXZ 0043dec0 f   stlport_vc71_static:codecvt.obj
 0001:0003ced0       ?do_max_length@?$codecvt@GDH@_STL@@MBEHXZ 0043ded0 f   stlport_vc71_static:codecvt.obj
 0001:0003cee0       ?_Ret@?$_BothPtrType@PBGPAD@_STL@@SA?AU__true_type@2@XZ 0043dee0 f i stlport_vc71_static:codecvt.obj
 0001:0003cef0       ?_Ret@?$_BothPtrType@PBDPAG@_STL@@SA?AU__true_type@2@XZ 0043def0 f i stlport_vc71_static:codecvt.obj
 0001:0003cf00       ?_Ret@?$_OKToMemCpy@GD@_STL@@SA?AU__false_type@2@XZ 0043df00 f i stlport_vc71_static:codecvt.obj
 0001:0003cf10       ?_Ret@?$_OKToMemCpy@DG@_STL@@SA?AU__false_type@2@XZ 0043df10 f i stlport_vc71_static:codecvt.obj
 0001:0003cf20       ??$_IsOKToMemCpy@GD@_STL@@YA?AU?$_OKToMemCpy@GD@0@PAGPAD@Z 0043df20 f i stlport_vc71_static:codecvt.obj
 0001:0003cf30       ??$_IsOKToMemCpy@DG@_STL@@YA?AU?$_OKToMemCpy@DG@0@PADPAG@Z 0043df30 f i stlport_vc71_static:codecvt.obj
 0001:0003cf40       ??$__copy@PBGPADH@_STL@@YAPADPBG0PADABUrandom_access_iterator_tag@0@PAH@Z 0043df40 f i stlport_vc71_static:codecvt.obj
 0001:0003cf70       ??$__copy@PBDPAGH@_STL@@YAPAGPBD0PAGABUrandom_access_iterator_tag@0@PAH@Z 0043df70 f i stlport_vc71_static:codecvt.obj
 0001:0003cfa0       ?do_length@?$codecvt@DDH@_STL@@MBEHABHPBD1I@Z 0043dfa0 f   stlport_vc71_static:codecvt.obj
 0001:0003cfd0       ?do_length@?$codecvt@GDH@_STL@@MBEHABHPBD1I@Z 0043dfd0 f   stlport_vc71_static:codecvt.obj
 0001:0003d000       ??$__copy_ptrs@PBGPAD@_STL@@YAPADPBG0PADABU__false_type@0@@Z 0043e000 f i stlport_vc71_static:codecvt.obj
 0001:0003d030       ??$__copy_ptrs@PBDPAG@_STL@@YAPAGPBD0PAGABU__false_type@0@@Z 0043e030 f i stlport_vc71_static:codecvt.obj
 0001:0003d060       ??$__copy_aux@PBGPAD@_STL@@YAPADPBG0PADABU__true_type@0@@Z 0043e060 f i stlport_vc71_static:codecvt.obj
 0001:0003d090       ??$__copy_aux@PBDPAG@_STL@@YAPAGPBD0PAGABU__true_type@0@@Z 0043e090 f i stlport_vc71_static:codecvt.obj
 0001:0003d0c0       ??$copy@PBGPAD@_STL@@YAPADPBG0PAD@Z 0043e0c0 f i stlport_vc71_static:codecvt.obj
 0001:0003d0f0       ??$copy@PBDPAG@_STL@@YAPAGPBD0PAG@Z 0043e0f0 f i stlport_vc71_static:codecvt.obj
 0001:0003d120       ?do_out@?$codecvt@GDH@_STL@@MBE?AW4result@codecvt_base@2@AAHPBG1AAPBGPAD3AAPAD@Z 0043e120 f   stlport_vc71_static:codecvt.obj
 0001:0003d190       ?do_in@?$codecvt@GDH@_STL@@MBE?AW4result@codecvt_base@2@AAHPBD1AAPBDPAG3AAPAG@Z 0043e190 f   stlport_vc71_static:codecvt.obj
 0001:0003d200       ?_Destroy@_STL@@YAXPAG0@Z  0043e200 f i stlport_vc71_static:collate.obj
 0001:0003d210       ?uninitialized_copy@_STL@@YAPAGPBG0PAG@Z 0043e210 f i stlport_vc71_static:collate.obj
 0001:0003d240       ??1?$collate@D@_STL@@MAE@XZ 0043e240 f   stlport_vc71_static:collate.obj
 0001:0003d250       ?do_hash@?$collate@D@_STL@@MBEJPBD0@Z 0043e250 f   stlport_vc71_static:collate.obj
 0001:0003d280       ??1?$collate@G@_STL@@MAE@XZ 0043e280 f   stlport_vc71_static:collate.obj
 0001:0003d290       ?do_hash@?$collate@G@_STL@@MBEJPBG0@Z 0043e290 f   stlport_vc71_static:collate.obj
 0001:0003d2c0       ??1?$_STLP_alloc_proxy@PAGGV?$allocator@G@_STL@@@_STL@@QAE@XZ 0043e2c0 f i stlport_vc71_static:collate.obj
 0001:0003d2d0       ??$__lexicographical_compare_3way@PBDPBD@_STL@@YAHPBD000@Z 0043e2d0 f i stlport_vc71_static:collate.obj
 0001:0003d320       ??$__lexicographical_compare_3way@PBGPBG@_STL@@YAHPBG000@Z 0043e320 f i stlport_vc71_static:collate.obj
 0001:0003d380       ??0?$allocator@G@_STL@@QAE@ABV01@@Z 0043e380 f i stlport_vc71_static:collate.obj
 0001:0003d390       ?_M_terminate_string_aux@?$basic_string@GV?$char_traits@G@_STL@@V?$allocator@G@2@@_STL@@AAEXABU__true_type@2@@Z 0043e390 f i stlport_vc71_static:collate.obj
 0001:0003d3a0       ?max_size@?$_String_base@GV?$allocator@G@_STL@@@_STL@@QBEIXZ 0043e3a0 f i stlport_vc71_static:collate.obj
 0001:0003d3b0       ??$__distance@PBG@_STL@@YAHABQBG0ABUrandom_access_iterator_tag@0@@Z 0043e3b0 f i stlport_vc71_static:collate.obj
 0001:0003d3c0       ?_M_throw_length_error@?$_String_base@GV?$allocator@G@_STL@@@_STL@@QBEXXZ 0043e3c0 f i stlport_vc71_static:collate.obj
 0001:0003d3d0       ?do_compare@?$collate@D@_STL@@MBEHPBD000@Z 0043e3d0 f   stlport_vc71_static:collate.obj
 0001:0003d3f0       ?do_compare@?$collate@G@_STL@@MBEHPBG000@Z 0043e3f0 f   stlport_vc71_static:collate.obj
 0001:0003d410       ??0?$_STLP_alloc_proxy@PAGGV?$allocator@G@_STL@@@_STL@@QAE@ABV?$allocator@G@1@PAG@Z 0043e410 f i stlport_vc71_static:collate.obj
 0001:0003d420       ?_M_terminate_string@?$basic_string@GV?$char_traits@G@_STL@@V?$allocator@G@2@@_STL@@AAEXXZ 0043e420 f i stlport_vc71_static:collate.obj
 0001:0003d430       ??$distance@PBG@_STL@@YAHABQBG0@Z 0043e430 f i stlport_vc71_static:collate.obj
 0001:0003d440       ?allocate@?$allocator@G@_STL@@QAEPAGIPBX@Z 0043e440 f i stlport_vc71_static:collate.obj
 0001:0003d470       ?deallocate@?$allocator@G@_STL@@QAEXPAGI@Z 0043e470 f i stlport_vc71_static:collate.obj
 0001:0003d4a0       ??$_M_range_initialize@PBG@?$basic_string@GV?$char_traits@G@_STL@@V?$allocator@G@2@@_STL@@AAEXPBG0@Z 0043e4a0 f i stlport_vc71_static:collate.obj
 0001:0003d4e0       ??$_M_initialize_dispatch@PBD@?$basic_string@DV?$char_traits@D@_STL@@V?$allocator@D@2@@_STL@@AAEXPBD0ABU__false_type@1@@Z 0043e4e0 f i stlport_vc71_static:collate.obj
 0001:0003d520       ??$_M_initialize_dispatch@PBG@?$basic_string@GV?$char_traits@G@_STL@@V?$allocator@G@2@@_STL@@AAEXPBG0ABU__false_type@1@@Z 0043e520 f i stlport_vc71_static:collate.obj
 0001:0003d560       ??$?0PBD@?$basic_string@DV?$char_traits@D@_STL@@V?$allocator@D@2@@_STL@@QAE@PBD0ABV?$allocator@D@1@@Z 0043e560 f i stlport_vc71_static:collate.obj
 0001:0003d5e0       ??$?0PBG@?$basic_string@GV?$char_traits@G@_STL@@V?$allocator@G@2@@_STL@@QAE@PBG0ABV?$allocator@G@1@@Z 0043e5e0 f i stlport_vc71_static:collate.obj
 0001:0003d660       ?do_transform@?$collate@D@_STL@@MBE?AV?$basic_string@DV?$char_traits@D@_STL@@V?$allocator@D@2@@2@PBD0@Z 0043e660 f   stlport_vc71_static:collate.obj
 0001:0003d690       ?do_transform@?$collate@G@_STL@@MBE?AV?$basic_string@GV?$char_traits@G@_STL@@V?$allocator@G@2@@2@PBG0@Z 0043e690 f   stlport_vc71_static:collate.obj
 0001:0003d6c0       ?do_decimal_point@?$numpunct@D@_STL@@MBEDXZ 0043e6c0 f   stlport_vc71_static:numpunct.obj
 0001:0003d6d0       ?do_thousands_sep@?$numpunct@D@_STL@@MBEDXZ 0043e6d0 f   stlport_vc71_static:numpunct.obj
 0001:0003d6e0       ??1?$numpunct@D@_STL@@MAE@XZ 0043e6e0 f   stlport_vc71_static:numpunct.obj
 0001:0003d6f0       ??1?$numpunct@G@_STL@@MAE@XZ 0043e6f0 f   stlport_vc71_static:numpunct.obj
 0001:0003d700       ?do_decimal_point@?$numpunct@G@_STL@@MBEGXZ 0043e700 f   stlport_vc71_static:numpunct.obj
 0001:0003d710       ?do_thousands_sep@?$numpunct@G@_STL@@MBEGXZ 0043e710 f   stlport_vc71_static:numpunct.obj
 0001:0003d720       ??$__distance@PAG@_STL@@YAHABQAG0ABUrandom_access_iterator_tag@0@@Z 0043e720 f i stlport_vc71_static:numpunct.obj
 0001:0003d730       ?_Ret@?$_BothPtrType@PAGPAG@_STL@@SA?AU__true_type@2@XZ 0043e730 f i stlport_vc71_static:numpunct.obj
 0001:0003d740       ?_Ret@?$_OKToMemCpy@GG@_STL@@SA?AU__true_type@2@XZ 0043e740 f i stlport_vc71_static:numpunct.obj
 0001:0003d750       ??$_IsOKToMemCpy@GG@_STL@@YA?AU?$_OKToMemCpy@GG@0@PAG0@Z 0043e750 f i stlport_vc71_static:numpunct.obj
 0001:0003d760       ??$__copy_ptrs@PAGPAG@_STL@@YAPAGPAG00ABU__true_type@0@@Z 0043e760 f i stlport_vc71_static:numpunct.obj
 0001:0003d790       ?length@?$__char_traits_base@GG@_STL@@SAIPBG@Z 0043e790 f i stlport_vc71_static:numpunct.obj
 0001:0003d7b0       ??$distance@PAG@_STL@@YAHABQAG0@Z 0043e7b0 f i stlport_vc71_static:numpunct.obj
 0001:0003d7c0       ??$__copy_aux@PAGPAG@_STL@@YAPAGPAG00ABU__true_type@0@@Z 0043e7c0 f i stlport_vc71_static:numpunct.obj
 0001:0003d7f0       ??$__uninitialized_copy@PAGPAG@_STL@@YAPAGPAG00ABU__true_type@0@@Z 0043e7f0 f i stlport_vc71_static:numpunct.obj
 0001:0003d820       ??$_M_range_initialize@PAG@?$basic_string@GV?$char_traits@G@_STL@@V?$allocator@G@2@@_STL@@AAEXPAG0@Z 0043e820 f i stlport_vc71_static:numpunct.obj
 0001:0003d860       ?do_grouping@?$numpunct@D@_STL@@MBE?AV?$basic_string@DV?$char_traits@D@_STL@@V?$allocator@D@2@@2@XZ 0043e860 f   stlport_vc71_static:numpunct.obj
 0001:0003d880       ?do_truename@?$numpunct@D@_STL@@MBE?AV?$basic_string@DV?$char_traits@D@_STL@@V?$allocator@D@2@@2@XZ 0043e880 f   stlport_vc71_static:numpunct.obj
 0001:0003d8b0       ?do_falsename@?$numpunct@D@_STL@@MBE?AV?$basic_string@DV?$char_traits@D@_STL@@V?$allocator@D@2@@2@XZ 0043e8b0 f   stlport_vc71_static:numpunct.obj
 0001:0003d8e0       ?do_grouping@?$numpunct@G@_STL@@MBE?AV?$basic_string@DV?$char_traits@D@_STL@@V?$allocator@D@2@@2@XZ 0043e8e0 f   stlport_vc71_static:numpunct.obj
 0001:0003d900       ?do_truename@?$numpunct@G@_STL@@MBE?AV?$basic_string@GV?$char_traits@G@_STL@@V?$allocator@G@2@@2@XZ 0043e900 f   stlport_vc71_static:numpunct.obj
 0001:0003d930       ?do_falsename@?$numpunct@G@_STL@@MBE?AV?$basic_string@GV?$char_traits@G@_STL@@V?$allocator@G@2@@2@XZ 0043e930 f   stlport_vc71_static:numpunct.obj
 0001:0003d960       ?widen@?$ctype@D@_STL@@QBEPBDPBD0PAD@Z 0043e960 f i stlport_vc71_static:num_get.obj
 0001:0003d970       ?widen@?$ctype@G@_STL@@QBEPBDPBD0PAG@Z 0043e970 f i stlport_vc71_static:num_get.obj
 0001:0003d980       ?_M_numpunct_facet@ios_base@_STL@@QBEPBVfacet@locale@2@XZ 0043e980 f i stlport_vc71_static:num_get.obj
 0001:0003d990       ?_M_grouping@ios_base@_STL@@QBEABV?$basic_string@DV?$char_traits@D@_STL@@V?$allocator@D@2@@2@XZ 0043e990 f i stlport_vc71_static:num_get.obj
 0001:0003d9a0       ?decimal_point@?$numpunct@D@_STL@@QBEDXZ 0043e9a0 f i stlport_vc71_static:num_get.obj
 0001:0003d9b0       ?thousands_sep@?$numpunct@D@_STL@@QBEDXZ 0043e9b0 f i stlport_vc71_static:num_get.obj
 0001:0003d9c0       ?decimal_point@?$numpunct@G@_STL@@QBEGXZ 0043e9c0 f i stlport_vc71_static:num_get.obj
 0001:0003d9d0       ?thousands_sep@?$numpunct@G@_STL@@QBEGXZ 0043e9d0 f i stlport_vc71_static:num_get.obj
 0001:0003d9e0       ?_Initialize_get_float@_STL@@YAXABV?$ctype@D@1@AAD111PAD@Z 0043e9e0 f i stlport_vc71_static:num_get.obj
 0001:0003da00       ?__get_fdigit@_STL@@YA_NAADPBD@Z 0043ea00 f i stlport_vc71_static:num_get.obj
 0001:0003da20       ?__get_fdigit_or_sep@_STL@@YA_NAADDPBD@Z 0043ea20 f i stlport_vc71_static:num_get.obj
 0001:0003da50       ?__get_digit_from_table@_STL@@YAHI@Z 0043ea50 f i stlport_vc71_static:num_get.obj
 0001:0003da70       ?_Initialize_get_digit@_STL@@YAXPAG0ABV?$ctype@G@1@@Z 0043ea70 f   stlport_vc71_static:num_get.obj
 0001:0003dab0       ?__valid_grouping@_STL@@YA_NPBD000@Z 0043eab0 f   stlport_vc71_static:num_get.obj
 0001:0003db00       ?_M_init@?$istreambuf_iterator@GV?$char_traits@G@_STL@@@_STL@@AAEXPAV?$basic_streambuf@GV?$char_traits@G@_STL@@@2@@Z 0043eb00 f i stlport_vc71_static:num_get.obj
 0001:0003db20       ?get@?$num_get@GV?$istreambuf_iterator@GV?$char_traits@G@_STL@@@_STL@@@_STL@@QBE?AV?$istreambuf_iterator@GV?$char_traits@G@_STL@@@2@V32@0AAVios_base@2@AAHAA_N@Z 0043eb20 f i stlport_vc71_static:num_get.obj
 0001:0003db60       ?get@?$num_get@GV?$istreambuf_iterator@GV?$char_traits@G@_STL@@@_STL@@@_STL@@QBE?AV?$istreambuf_iterator@GV?$char_traits@G@_STL@@@2@V32@0AAVios_base@2@AAHAAJ@Z 0043eb60 f i stlport_vc71_static:num_get.obj
 0001:0003dba0       ?get@?$num_get@GV?$istreambuf_iterator@GV?$char_traits@G@_STL@@@_STL@@@_STL@@QBE?AV?$istreambuf_iterator@GV?$char_traits@G@_STL@@@2@V32@0AAVios_base@2@AAHAAG@Z 0043eba0 f i stlport_vc71_static:num_get.obj
 0001:0003dbe0       ?get@?$num_get@GV?$istreambuf_iterator@GV?$char_traits@G@_STL@@@_STL@@@_STL@@QBE?AV?$istreambuf_iterator@GV?$char_traits@G@_STL@@@2@V32@0AAVios_base@2@AAHAAI@Z 0043ebe0 f i stlport_vc71_static:num_get.obj
 0001:0003dc20       ?get@?$num_get@GV?$istreambuf_iterator@GV?$char_traits@G@_STL@@@_STL@@@_STL@@QBE?AV?$istreambuf_iterator@GV?$char_traits@G@_STL@@@2@V32@0AAVios_base@2@AAHAAK@Z 0043ec20 f i stlport_vc71_static:num_get.obj
 0001:0003dc60       ?get@?$num_get@GV?$istreambuf_iterator@GV?$char_traits@G@_STL@@@_STL@@@_STL@@QBE?AV?$istreambuf_iterator@GV?$char_traits@G@_STL@@@2@V32@0AAVios_base@2@AAHAA_J@Z 0043ec60 f i stlport_vc71_static:num_get.obj
 0001:0003dca0       ?get@?$num_get@GV?$istreambuf_iterator@GV?$char_traits@G@_STL@@@_STL@@@_STL@@QBE?AV?$istreambuf_iterator@GV?$char_traits@G@_STL@@@2@V32@0AAVios_base@2@AAHAA_K@Z 0043eca0 f i stlport_vc71_static:num_get.obj
 0001:0003dce0       ?get@?$num_get@GV?$istreambuf_iterator@GV?$char_traits@G@_STL@@@_STL@@@_STL@@QBE?AV?$istreambuf_iterator@GV?$char_traits@G@_STL@@@2@V32@0AAVios_base@2@AAHAAM@Z 0043ece0 f i stlport_vc71_static:num_get.obj
 0001:0003dd20       ?get@?$num_get@GV?$istreambuf_iterator@GV?$char_traits@G@_STL@@@_STL@@@_STL@@QBE?AV?$istreambuf_iterator@GV?$char_traits@G@_STL@@@2@V32@0AAVios_base@2@AAHAAN@Z 0043ed20 f i stlport_vc71_static:num_get.obj
 0001:0003dd60       ?get@?$num_get@GV?$istreambuf_iterator@GV?$char_traits@G@_STL@@@_STL@@@_STL@@QBE?AV?$istreambuf_iterator@GV?$char_traits@G@_STL@@@2@V32@0AAVios_base@2@AAHAAO@Z 0043ed60 f i stlport_vc71_static:num_get.obj
 0001:0003dda0       ?get@?$num_get@GV?$istreambuf_iterator@GV?$char_traits@G@_STL@@@_STL@@@_STL@@QBE?AV?$istreambuf_iterator@GV?$char_traits@G@_STL@@@2@V32@0AAVios_base@2@AAHAAPAX@Z 0043eda0 f i stlport_vc71_static:num_get.obj
 0001:0003dde0       ?_M_bumpc@?$istreambuf_iterator@DV?$char_traits@D@_STL@@@_STL@@AAEXXZ 0043ede0 f i stlport_vc71_static:num_get.obj
 0001:0003de10       ?get@?$num_get@DV?$istreambuf_iterator@DV?$char_traits@D@_STL@@@_STL@@@_STL@@QBE?AV?$istreambuf_iterator@DV?$char_traits@D@_STL@@@2@V32@0AAVios_base@2@AAHAA_N@Z 0043ee10 f i stlport_vc71_static:num_get.obj
 0001:0003de50       ?get@?$num_get@DV?$istreambuf_iterator@DV?$char_traits@D@_STL@@@_STL@@@_STL@@QBE?AV?$istreambuf_iterator@DV?$char_traits@D@_STL@@@2@V32@0AAVios_base@2@AAHAAI@Z 0043ee50 f i stlport_vc71_static:num_get.obj
 0001:0003de90       ?get@?$num_get@DV?$istreambuf_iterator@DV?$char_traits@D@_STL@@@_STL@@@_STL@@QBE?AV?$istreambuf_iterator@DV?$char_traits@D@_STL@@@2@V32@0AAVios_base@2@AAHAAK@Z 0043ee90 f i stlport_vc71_static:num_get.obj
 0001:0003ded0       ?get@?$num_get@DV?$istreambuf_iterator@DV?$char_traits@D@_STL@@@_STL@@@_STL@@QBE?AV?$istreambuf_iterator@DV?$char_traits@D@_STL@@@2@V32@0AAVios_base@2@AAHAA_J@Z 0043eed0 f i stlport_vc71_static:num_get.obj
 0001:0003df10       ?get@?$num_get@DV?$istreambuf_iterator@DV?$char_traits@D@_STL@@@_STL@@@_STL@@QBE?AV?$istreambuf_iterator@DV?$char_traits@D@_STL@@@2@V32@0AAVios_base@2@AAHAA_K@Z 0043ef10 f i stlport_vc71_static:num_get.obj
 0001:0003df50       ?get@?$num_get@DV?$istreambuf_iterator@DV?$char_traits@D@_STL@@@_STL@@@_STL@@QBE?AV?$istreambuf_iterator@DV?$char_traits@D@_STL@@@2@V32@0AAVios_base@2@AAHAAM@Z 0043ef50 f i stlport_vc71_static:num_get.obj
 0001:0003df90       ?get@?$num_get@DV?$istreambuf_iterator@DV?$char_traits@D@_STL@@@_STL@@@_STL@@QBE?AV?$istreambuf_iterator@DV?$char_traits@D@_STL@@@2@V32@0AAVios_base@2@AAHAAN@Z 0043ef90 f i stlport_vc71_static:num_get.obj
 0001:0003dfd0       ?get@?$num_get@DV?$istreambuf_iterator@DV?$char_traits@D@_STL@@@_STL@@@_STL@@QBE?AV?$istreambuf_iterator@DV?$char_traits@D@_STL@@@2@V32@0AAVios_base@2@AAHAAO@Z 0043efd0 f i stlport_vc71_static:num_get.obj
 0001:0003e010       ?get@?$num_get@DV?$istreambuf_iterator@DV?$char_traits@D@_STL@@@_STL@@@_STL@@QBE?AV?$istreambuf_iterator@DV?$char_traits@D@_STL@@@2@V32@0AAVios_base@2@AAHAAPAX@Z 0043f010 f i stlport_vc71_static:num_get.obj
 0001:0003e050       ??E?$istreambuf_iterator@DV?$char_traits@D@_STL@@@_STL@@QAE?AV01@H@Z 0043f050 f i stlport_vc71_static:num_get.obj
 0001:0003e0a0       ?size@?$basic_string@GV?$char_traits@G@_STL@@V?$allocator@G@2@@_STL@@QBEIXZ 0043f0a0 f i stlport_vc71_static:num_get.obj
 0001:0003e0b0       ??A?$basic_string@GV?$char_traits@G@_STL@@V?$allocator@G@2@@_STL@@QBEABGI@Z 0043f0b0 f i stlport_vc71_static:num_get.obj
 0001:0003e0c0       ??$__find@PBGG@_STL@@YAPBGPBG0ABGABUrandom_access_iterator_tag@0@@Z 0043f0c0 f i stlport_vc71_static:num_get.obj
 0001:0003e140       ??$use_facet@V?$ctype@G@_STL@@@_STL@@YAABV?$ctype@G@0@ABVlocale@0@@Z 0043f140 f i stlport_vc71_static:num_get.obj
 0001:0003e150       ??$use_facet@V?$ctype@D@_STL@@@_STL@@YAABV?$ctype@D@0@ABVlocale@0@@Z 0043f150 f i stlport_vc71_static:num_get.obj
 0001:0003e160       ?max@?$_Integer_limits@G$0A@$0PPPP@$0?0$00@_STL@@SAGXZ 0043f160 f i stlport_vc71_static:num_get.obj
 0001:0003e170       ?max@?$_Integer_limits@I$0A@$0PPPPPPPP@$0?0$00@_STL@@SAIXZ 0043f170 f i stlport_vc71_static:num_get.obj
 0001:0003e180       ?min@?$_Integer_limits@J$0?IAAAAAAA@$0HPPPPPPP@$0?0$00@_STL@@SAJXZ 0043f180 f i stlport_vc71_static:num_get.obj
 0001:0003e190       ?max@?$_Integer_limits@J$0?IAAAAAAA@$0HPPPPPPP@$0?0$00@_STL@@SAJXZ 0043f190 f i stlport_vc71_static:num_get.obj
 0001:0003e1a0       ?max@?$_Integer_limits@K$0A@$0PPPPPPPP@$0?0$00@_STL@@SAKXZ 0043f1a0 f i stlport_vc71_static:num_get.obj
 0001:0003e1b0       ?min@?$_Integer_limits@_J$0?IAAAAAAAAAAAAAAA@$0HPPPPPPPPPPPPPPP@$0?0$00@_STL@@SA_JXZ 0043f1b0 f i stlport_vc71_static:num_get.obj
 0001:0003e1c0       ?max@?$_Integer_limits@_J$0?IAAAAAAAAAAAAAAA@$0HPPPPPPPPPPPPPPP@$0?0$00@_STL@@SA_JXZ 0043f1c0 f i stlport_vc71_static:num_get.obj
 0001:0003e1d0       ?max@?$_Integer_limits@_K$0A@$0?0$0?0$00@_STL@@SA_KXZ 0043f1d0 f i stlport_vc71_static:num_get.obj
 0001:0003e1e0       ??0?$istreambuf_iterator@GV?$char_traits@G@_STL@@@_STL@@QAE@PAV?$basic_streambuf@GV?$char_traits@G@_STL@@@1@@Z 0043f1e0 f i stlport_vc71_static:num_get.obj
 0001:0003e200       ??E?$istreambuf_iterator@DV?$char_traits@D@_STL@@@_STL@@QAEAAV01@XZ 0043f200 f i stlport_vc71_static:num_get.obj
 0001:0003e230       ??$find@PBGG@_STL@@YAPBGPBG0ABG@Z 0043f230 f i stlport_vc71_static:num_get.obj
 0001:0003e250       ??$_M_get_istreambuf@GV?$char_traits@G@_STL@@@_STL@@YAPAV?$basic_streambuf@GV?$char_traits@G@_STL@@@0@AAV?$basic_istream@GV?$char_traits@G@_STL@@@0@@Z 0043f250 f i stlport_vc71_static:num_get.obj
 0001:0003e260       ??$_M_get_istreambuf@DV?$char_traits@D@_STL@@@_STL@@YAPAV?$basic_streambuf@DV?$char_traits@D@_STL@@@0@AAV?$basic_istream@DV?$char_traits@D@_STL@@@0@@Z 0043f260 f i stlport_vc71_static:num_get.obj
 0001:0003e270       ?__get_digit@_STL@@YAHGPBG0G@Z 0043f270 f   stlport_vc71_static:num_get.obj
 0001:0003e2f0       ?__get_fdigit@_STL@@YA_NAAGPBG@Z 0043f2f0 f   stlport_vc71_static:num_get.obj
 0001:0003e330       ?__get_fdigit_or_sep@_STL@@YA_NAAGGPBG@Z 0043f330 f   stlport_vc71_static:num_get.obj
 0001:0003e380       ?_M_bumpc@?$istreambuf_iterator@GV?$char_traits@G@_STL@@@_STL@@AAEXXZ 0043f380 f i stlport_vc71_static:num_get.obj
 0001:0003e3b0       ??D?$istreambuf_iterator@DV?$char_traits@D@_STL@@@_STL@@QBEDXZ 0043f3b0 f i stlport_vc71_static:num_get.obj
 0001:0003e3f0       ??0?$istreambuf_iterator@GV?$char_traits@G@_STL@@@_STL@@QAE@AAV?$basic_istream@GV?$char_traits@G@_STL@@@1@@Z 0043f3f0 f i stlport_vc71_static:num_get.obj
 0001:0003e410       ??E?$istreambuf_iterator@GV?$char_traits@G@_STL@@@_STL@@QAE?AV01@H@Z 0043f410 f i stlport_vc71_static:num_get.obj
 0001:0003e460       ??0?$istreambuf_iterator@DV?$char_traits@D@_STL@@@_STL@@QAE@AAV?$basic_istream@DV?$char_traits@D@_STL@@@1@@Z 0043f460 f i stlport_vc71_static:num_get.obj
 0001:0003e480       ??$?8DV?$char_traits@D@_STL@@@_STL@@YA_NABV?$istreambuf_iterator@DV?$char_traits@D@_STL@@@0@0@Z 0043f480 f i stlport_vc71_static:num_get.obj
 0001:0003e4b0       ??$?9DV?$char_traits@D@_STL@@@_STL@@YA_NABV?$istreambuf_iterator@DV?$char_traits@D@_STL@@@0@0@Z 0043f4b0 f i stlport_vc71_static:num_get.obj
 0001:0003e4f0       ??D?$istreambuf_iterator@GV?$char_traits@G@_STL@@@_STL@@QBEGXZ 0043f4f0 f i stlport_vc71_static:num_get.obj
 0001:0003e530       ??E?$istreambuf_iterator@GV?$char_traits@G@_STL@@@_STL@@QAEAAV01@XZ 0043f530 f i stlport_vc71_static:num_get.obj
 0001:0003e560       ??$?8GV?$char_traits@G@_STL@@@_STL@@YA_NABV?$istreambuf_iterator@GV?$char_traits@G@_STL@@@0@0@Z 0043f560 f i stlport_vc71_static:num_get.obj
 0001:0003e590       ??$?9GV?$char_traits@G@_STL@@@_STL@@YA_NABV?$istreambuf_iterator@GV?$char_traits@G@_STL@@@0@0@Z 0043f590 f i stlport_vc71_static:num_get.obj
 0001:0003e5d0       ?precision@ios_base@_STL@@QBEHXZ 0043f5d0 f i stlport_vc71_static:num_put.obj
 0001:0003e5e0       ??D?$ostreambuf_iterator@DV?$char_traits@D@_STL@@@_STL@@QAEAAV01@XZ 0043f5e0 f i stlport_vc71_static:num_put.obj
 0001:0003e5f0       ??E?$ostreambuf_iterator@DV?$char_traits@D@_STL@@@_STL@@QAEAAV01@XZ 0043f5f0 f i stlport_vc71_static:num_put.obj
 0001:0003e600       ??E?$ostreambuf_iterator@DV?$char_traits@D@_STL@@@_STL@@QAEAAV01@H@Z 0043f600 f i stlport_vc71_static:num_put.obj
 0001:0003e610       ?put@?$num_put@DV?$ostreambuf_iterator@DV?$char_traits@D@_STL@@@_STL@@@_STL@@QBE?AV?$ostreambuf_iterator@DV?$char_traits@D@_STL@@@2@V32@AAVios_base@2@D_J@Z 0043f610 f i stlport_vc71_static:num_put.obj
 0001:0003e640       ?put@?$num_put@DV?$ostreambuf_iterator@DV?$char_traits@D@_STL@@@_STL@@@_STL@@QBE?AV?$ostreambuf_iterator@DV?$char_traits@D@_STL@@@2@V32@AAVios_base@2@D_K@Z 0043f640 f i stlport_vc71_static:num_put.obj
 0001:0003e670       ?put@?$num_put@DV?$ostreambuf_iterator@DV?$char_traits@D@_STL@@@_STL@@@_STL@@QBE?AV?$ostreambuf_iterator@DV?$char_traits@D@_STL@@@2@V32@AAVios_base@2@DN@Z 0043f670 f i stlport_vc71_static:num_put.obj
 0001:0003e6a0       ?put@?$num_put@DV?$ostreambuf_iterator@DV?$char_traits@D@_STL@@@_STL@@@_STL@@QBE?AV?$ostreambuf_iterator@DV?$char_traits@D@_STL@@@2@V32@AAVios_base@2@DO@Z 0043f6a0 f i stlport_vc71_static:num_put.obj
 0001:0003e6d0       ?put@?$num_put@DV?$ostreambuf_iterator@DV?$char_traits@D@_STL@@@_STL@@@_STL@@QBE?AV?$ostreambuf_iterator@DV?$char_traits@D@_STL@@@2@V32@AAVios_base@2@DPBX@Z 0043f6d0 f i stlport_vc71_static:num_put.obj
 0001:0003e700       ??0?$ostreambuf_iterator@GV?$char_traits@G@_STL@@@_STL@@QAE@PAV?$basic_streambuf@GV?$char_traits@G@_STL@@@1@@Z 0043f700 f i stlport_vc71_static:num_put.obj
 0001:0003e720       ??D?$ostreambuf_iterator@GV?$char_traits@G@_STL@@@_STL@@QAEAAV01@XZ 0043f720 f i stlport_vc71_static:num_put.obj
 0001:0003e730       ??E?$ostreambuf_iterator@GV?$char_traits@G@_STL@@@_STL@@QAEAAV01@XZ 0043f730 f i stlport_vc71_static:num_put.obj
 0001:0003e740       ??E?$ostreambuf_iterator@GV?$char_traits@G@_STL@@@_STL@@QAEAAV01@H@Z 0043f740 f i stlport_vc71_static:num_put.obj
 0001:0003e750       ?failed@?$ostreambuf_iterator@GV?$char_traits@G@_STL@@@_STL@@QBE_NXZ 0043f750 f i stlport_vc71_static:num_put.obj
 0001:0003e760       ?put@?$num_put@GV?$ostreambuf_iterator@GV?$char_traits@G@_STL@@@_STL@@@_STL@@QBE?AV?$ostreambuf_iterator@GV?$char_traits@G@_STL@@@2@V32@AAVios_base@2@G_N@Z 0043f760 f i stlport_vc71_static:num_put.obj
 0001:0003e790       ?put@?$num_put@GV?$ostreambuf_iterator@GV?$char_traits@G@_STL@@@_STL@@@_STL@@QBE?AV?$ostreambuf_iterator@GV?$char_traits@G@_STL@@@2@V32@AAVios_base@2@GJ@Z 0043f790 f i stlport_vc71_static:num_put.obj
 0001:0003e7c0       ?put@?$num_put@GV?$ostreambuf_iterator@GV?$char_traits@G@_STL@@@_STL@@@_STL@@QBE?AV?$ostreambuf_iterator@GV?$char_traits@G@_STL@@@2@V32@AAVios_base@2@GK@Z 0043f7c0 f i stlport_vc71_static:num_put.obj
 0001:0003e7f0       ?put@?$num_put@GV?$ostreambuf_iterator@GV?$char_traits@G@_STL@@@_STL@@@_STL@@QBE?AV?$ostreambuf_iterator@GV?$char_traits@G@_STL@@@2@V32@AAVios_base@2@G_J@Z 0043f7f0 f i stlport_vc71_static:num_put.obj
 0001:0003e820       ?put@?$num_put@GV?$ostreambuf_iterator@GV?$char_traits@G@_STL@@@_STL@@@_STL@@QBE?AV?$ostreambuf_iterator@GV?$char_traits@G@_STL@@@2@V32@AAVios_base@2@G_K@Z 0043f820 f i stlport_vc71_static:num_put.obj
 0001:0003e850       ?put@?$num_put@GV?$ostreambuf_iterator@GV?$char_traits@G@_STL@@@_STL@@@_STL@@QBE?AV?$ostreambuf_iterator@GV?$char_traits@G@_STL@@@2@V32@AAVios_base@2@GN@Z 0043f850 f i stlport_vc71_static:num_put.obj
 0001:0003e880       ?put@?$num_put@GV?$ostreambuf_iterator@GV?$char_traits@G@_STL@@@_STL@@@_STL@@QBE?AV?$ostreambuf_iterator@GV?$char_traits@G@_STL@@@2@V32@AAVios_base@2@GO@Z 0043f880 f i stlport_vc71_static:num_put.obj
 0001:0003e8b0       ?put@?$num_put@GV?$ostreambuf_iterator@GV?$char_traits@G@_STL@@@_STL@@@_STL@@QBE?AV?$ostreambuf_iterator@GV?$char_traits@G@_STL@@@2@V32@AAVios_base@2@GPBX@Z 0043f8b0 f i stlport_vc71_static:num_put.obj
 0001:0003e8e0       ?c_str@?$basic_string@GV?$char_traits@G@_STL@@V?$allocator@G@2@@_STL@@QBEPBGXZ 0043f8e0 f i stlport_vc71_static:num_put.obj
 0001:0003e8f0       ??$__write_decimal_backward@_K@_STL@@YAPADPAD_KHABU__false_type@0@@Z 0043f8f0 f i stlport_vc71_static:num_put.obj
 0001:0003e940       ??$__write_decimal_backward@K@_STL@@YAPADPADKHABU__false_type@0@@Z 0043f940 f i stlport_vc71_static:num_put.obj
 0001:0003e980       ?_Ret@?$_BothPtrType@PBDV?$ostreambuf_iterator@DV?$char_traits@D@_STL@@@_STL@@@_STL@@SA?AU__false_type@2@XZ 0043f980 f i stlport_vc71_static:num_put.obj
 0001:0003e990       ?_Ret@?$_BothPtrType@PBGV?$ostreambuf_iterator@GV?$char_traits@G@_STL@@@_STL@@@_STL@@SA?AU__false_type@2@XZ 0043f990 f i stlport_vc71_static:num_put.obj
 0001:0003e9a0       ??$__copy_backward_ptrs@PADPAD@_STL@@YAPADPAD00ABU__true_type@0@@Z 0043f9a0 f i stlport_vc71_static:num_put.obj
 0001:0003e9d0       ??$__copy_backward_ptrs@PAGPAG@_STL@@YAPAGPAG00ABU__true_type@0@@Z 0043f9d0 f i stlport_vc71_static:num_put.obj
 0001:0003ea00       ??$_M_get_ostreambuf@DV?$char_traits@D@_STL@@@_STL@@YAPAV?$basic_streambuf@DV?$char_traits@D@_STL@@@0@AAV?$basic_ostream@DV?$char_traits@D@_STL@@@0@@Z 0043fa00 f i stlport_vc71_static:num_put.obj
 0001:0003ea10       ??$_M_get_ostreambuf@GV?$char_traits@G@_STL@@@_STL@@YAPAV?$basic_streambuf@GV?$char_traits@G@_STL@@@0@AAV?$basic_ostream@GV?$char_traits@G@_STL@@@0@@Z 0043fa10 f i stlport_vc71_static:num_put.obj
 0001:0003ea20       ??$__copy_backward_aux@PADPAD@_STL@@YAPADPAD00ABU__true_type@0@@Z 0043fa20 f i stlport_vc71_static:num_put.obj
 0001:0003ea50       ??$__copy_backward_aux@PAGPAG@_STL@@YAPAGPAG00ABU__true_type@0@@Z 0043fa50 f i stlport_vc71_static:num_put.obj
 0001:0003ea80       ??$fill_n@V?$ostreambuf_iterator@DV?$char_traits@D@_STL@@@_STL@@HD@_STL@@YA?AV?$ostreambuf_iterator@DV?$char_traits@D@_STL@@@0@V10@HABD@Z 0043fa80 f i stlport_vc71_static:num_put.obj
 0001:0003eb00       ??$find@PADD@_STL@@YAPADPAD0ABD@Z 0043fb00 f i stlport_vc71_static:num_put.obj
 0001:0003eb20       ??$find@PAGG@_STL@@YAPAGPAG0ABG@Z 0043fb20 f i stlport_vc71_static:num_put.obj
 0001:0003eb40       ??0?$ostreambuf_iterator@DV?$char_traits@D@_STL@@@_STL@@QAE@AAV?$basic_ostream@DV?$char_traits@D@_STL@@@1@@Z 0043fb40 f i stlport_vc71_static:num_put.obj
 0001:0003eb60       ??0?$ostreambuf_iterator@GV?$char_traits@G@_STL@@@_STL@@QAE@AAV?$basic_ostream@GV?$char_traits@G@_STL@@@1@@Z 0043fb60 f i stlport_vc71_static:num_put.obj
 0001:0003eb80       ??$copy_backward@PADPAD@_STL@@YAPADPAD00@Z 0043fb80 f i stlport_vc71_static:num_put.obj
 0001:0003ebb0       ??$copy_backward@PAGPAG@_STL@@YAPAGPAG00@Z 0043fbb0 f i stlport_vc71_static:num_put.obj
 0001:0003ebe0       ??$fill_n@V?$ostreambuf_iterator@GV?$char_traits@G@_STL@@@_STL@@HG@_STL@@YA?AV?$ostreambuf_iterator@GV?$char_traits@G@_STL@@@0@V10@HABG@Z 0043fbe0 f i stlport_vc71_static:num_put.obj
 0001:0003ec50       ??$__copy_aux@PBDV?$ostreambuf_iterator@DV?$char_traits@D@_STL@@@_STL@@@_STL@@YA?AV?$ostreambuf_iterator@DV?$char_traits@D@_STL@@@0@PBD0V10@ABU__false_type@0@@Z 0043fc50 f i stlport_vc71_static:num_put.obj
 0001:0003ec80       ?__write_integer@_STL@@YAPADPADHJ@Z 0043fc80 f   stlport_vc71_static:num_put.obj
 0001:0003ecd0       ??$__insert_grouping_aux@D@_STL@@YAHPAD0ABV?$basic_string@DV?$char_traits@D@_STL@@V?$allocator@D@2@@0@DDDH@Z 0043fcd0 f i stlport_vc71_static:num_put.obj
 0001:0003ed70       ??$__insert_grouping_aux@G@_STL@@YAHPAG0ABV?$basic_string@DV?$char_traits@D@_STL@@V?$allocator@D@2@@0@GGGH@Z 0043fd70 f i stlport_vc71_static:num_put.obj
 0001:0003ee20       ??$copy@PBDV?$ostreambuf_iterator@DV?$char_traits@D@_STL@@@_STL@@@_STL@@YA?AV?$ostreambuf_iterator@DV?$char_traits@D@_STL@@@0@PBD0V10@@Z 0043fe20 f i stlport_vc71_static:num_put.obj
 0001:0003ee50       ??$__copy_aux@PBGV?$ostreambuf_iterator@GV?$char_traits@G@_STL@@@_STL@@@_STL@@YA?AV?$ostreambuf_iterator@GV?$char_traits@G@_STL@@@0@PBG0V10@ABU__false_type@0@@Z 0043fe50 f i stlport_vc71_static:num_put.obj
 0001:0003ee80       ?__insert_grouping@_STL@@YAHPAD0ABV?$basic_string@DV?$char_traits@D@_STL@@V?$allocator@D@2@@1@DDDH@Z 0043fe80 f   stlport_vc71_static:num_put.obj
 0001:0003ee90       ?__insert_grouping@_STL@@YAHPAG0ABV?$basic_string@DV?$char_traits@D@_STL@@V?$allocator@D@2@@1@GGGH@Z 0043fe90 f   stlport_vc71_static:num_put.obj
 0001:0003eea0       ??$copy@PBGV?$ostreambuf_iterator@GV?$char_traits@G@_STL@@@_STL@@@_STL@@YA?AV?$ostreambuf_iterator@GV?$char_traits@G@_STL@@@0@PBG0V10@@Z 0043fea0 f i stlport_vc71_static:num_put.obj
 0001:0003eed0       ?__get_date_order@_STL@@YA?AW4dateorder@time_base@1@PAU_Locale_time@@@Z 0043fed0 f   stlport_vc71_static:time_facets.obj
 0001:0003efa0       ??0?$back_insert_iterator@V?$basic_string@DV?$char_traits@D@_STL@@V?$allocator@D@2@@_STL@@@_STL@@QAE@AAV?$basic_string@DV?$char_traits@D@_STL@@V?$allocator@D@2@@1@@Z 0043ffa0 f i stlport_vc71_static:time_facets.obj
 0001:0003efb0       ?date_order@?$time_get@DV?$istreambuf_iterator@DV?$char_traits@D@_STL@@@_STL@@@_STL@@QBE?AW4dateorder@time_base@2@XZ 0043ffb0 f i stlport_vc71_static:time_facets.obj
 0001:0003efc0       ?get_time@?$time_get@DV?$istreambuf_iterator@DV?$char_traits@D@_STL@@@_STL@@@_STL@@QBE?AV?$istreambuf_iterator@DV?$char_traits@D@_STL@@@2@V32@0AAVios_base@2@AAHPAUtm@@@Z 0043ffc0 f i stlport_vc71_static:time_facets.obj
 0001:0003f000       ?get_date@?$time_get@DV?$istreambuf_iterator@DV?$char_traits@D@_STL@@@_STL@@@_STL@@QBE?AV?$istreambuf_iterator@DV?$char_traits@D@_STL@@@2@V32@0AAVios_base@2@AAHPAUtm@@@Z 00440000 f i stlport_vc71_static:time_facets.obj
 0001:0003f040       ?get_weekday@?$time_get@DV?$istreambuf_iterator@DV?$char_traits@D@_STL@@@_STL@@@_STL@@QBE?AV?$istreambuf_iterator@DV?$char_traits@D@_STL@@@2@V32@0AAVios_base@2@AAHPAUtm@@@Z 00440040 f i stlport_vc71_static:time_facets.obj
 0001:0003f080       ?get_monthname@?$time_get@DV?$istreambuf_iterator@DV?$char_traits@D@_STL@@@_STL@@@_STL@@QBE?AV?$istreambuf_iterator@DV?$char_traits@D@_STL@@@2@V32@0AAVios_base@2@AAHPAUtm@@@Z 00440080 f i stlport_vc71_static:time_facets.obj
 0001:0003f0c0       ?get_year@?$time_get@DV?$istreambuf_iterator@DV?$char_traits@D@_STL@@@_STL@@@_STL@@QBE?AV?$istreambuf_iterator@DV?$char_traits@D@_STL@@@2@V32@0AAVios_base@2@AAHPAUtm@@@Z 004400c0 f i stlport_vc71_static:time_facets.obj
 0001:0003f100       ?put@?$time_put@DV?$ostreambuf_iterator@DV?$char_traits@D@_STL@@@_STL@@@_STL@@QBE?AV?$ostreambuf_iterator@DV?$char_traits@D@_STL@@@2@V32@AAVios_base@2@DPBUtm@@DD@Z 00440100 f i stlport_vc71_static:time_facets.obj
 0001:0003f140       ?date_order@?$time_get@GV?$istreambuf_iterator@GV?$char_traits@G@_STL@@@_STL@@@_STL@@QBE?AW4dateorder@time_base@2@XZ 00440140 f i stlport_vc71_static:time_facets.obj
 0001:0003f150       ?get_time@?$time_get@GV?$istreambuf_iterator@GV?$char_traits@G@_STL@@@_STL@@@_STL@@QBE?AV?$istreambuf_iterator@GV?$char_traits@G@_STL@@@2@V32@0AAVios_base@2@AAHPAUtm@@@Z 00440150 f i stlport_vc71_static:time_facets.obj
 0001:0003f190       ?get_date@?$time_get@GV?$istreambuf_iterator@GV?$char_traits@G@_STL@@@_STL@@@_STL@@QBE?AV?$istreambuf_iterator@GV?$char_traits@G@_STL@@@2@V32@0AAVios_base@2@AAHPAUtm@@@Z 00440190 f i stlport_vc71_static:time_facets.obj
 0001:0003f1d0       ?get_weekday@?$time_get@GV?$istreambuf_iterator@GV?$char_traits@G@_STL@@@_STL@@@_STL@@QBE?AV?$istreambuf_iterator@GV?$char_traits@G@_STL@@@2@V32@0AAVios_base@2@AAHPAUtm@@@Z 004401d0 f i stlport_vc71_static:time_facets.obj
 0001:0003f210       ?get_monthname@?$time_get@GV?$istreambuf_iterator@GV?$char_traits@G@_STL@@@_STL@@@_STL@@QBE?AV?$istreambuf_iterator@GV?$char_traits@G@_STL@@@2@V32@0AAVios_base@2@AAHPAUtm@@@Z 00440210 f i stlport_vc71_static:time_facets.obj
 0001:0003f250       ?get_year@?$time_get@GV?$istreambuf_iterator@GV?$char_traits@G@_STL@@@_STL@@@_STL@@QBE?AV?$istreambuf_iterator@GV?$char_traits@G@_STL@@@2@V32@0AAVios_base@2@AAHPAUtm@@@Z 00440250 f i stlport_vc71_static:time_facets.obj
 0001:0003f290       ?put@?$time_put@GV?$ostreambuf_iterator@GV?$char_traits@G@_STL@@@_STL@@@_STL@@QBE?AV?$ostreambuf_iterator@GV?$char_traits@G@_STL@@@2@V32@AAVios_base@2@GPBUtm@@DD@Z 00440290 f i stlport_vc71_static:time_facets.obj
 0001:0003f2d0       ?_Ret@?$_BothPtrType@PBDV?$back_insert_iterator@V?$basic_string@DV?$char_traits@D@_STL@@V?$allocator@D@2@@_STL@@@_STL@@@_STL@@SA?AU__false_type@2@XZ 004402d0 f i stlport_vc71_static:time_facets.obj
 0001:0003f2e0       ?_Ret@?$_BothPtrType@PBDPAD@_STL@@SA?AU__true_type@2@XZ 004402e0 f i stlport_vc71_static:time_facets.obj
 0001:0003f2f0       ??$__copy_ptrs@PBDPAD@_STL@@YAPADPBD0PADABU__true_type@0@@Z 004402f0 f i stlport_vc71_static:time_facets.obj
 0001:0003f320       ?max@?$_Integer_limits@H$0?IAAAAAAA@$0HPPPPPPP@$0?0$00@_STL@@SAHXZ 00440320 f i stlport_vc71_static:time_facets.obj
 0001:0003f330       ??D?$back_insert_iterator@V?$basic_string@DV?$char_traits@D@_STL@@V?$allocator@D@2@@_STL@@@_STL@@QAEAAV01@XZ 00440330 f i stlport_vc71_static:time_facets.obj
 0001:0003f340       ??E?$back_insert_iterator@V?$basic_string@DV?$char_traits@D@_STL@@V?$allocator@D@2@@_STL@@@_STL@@QAEAAV01@XZ 00440340 f i stlport_vc71_static:time_facets.obj
 0001:0003f350       ?_Ret@?$_BothPtrType@PADV?$ostreambuf_iterator@DV?$char_traits@D@_STL@@@_STL@@@_STL@@SA?AU__false_type@2@XZ 00440350 f i stlport_vc71_static:time_facets.obj
 0001:0003f360       ?_Ret@?$_BothPtrType@PAGV?$ostreambuf_iterator@GV?$char_traits@G@_STL@@@_STL@@@_STL@@SA?AU__false_type@2@XZ 00440360 f i stlport_vc71_static:time_facets.obj
 0001:0003f370       ??$__copy_aux@PBDPAD@_STL@@YAPADPBD0PADABU__true_type@0@@Z 00440370 f i stlport_vc71_static:time_facets.obj
 0001:0003f3a0       ??$__copy@PADV?$ostreambuf_iterator@DV?$char_traits@D@_STL@@@_STL@@H@_STL@@YA?AV?$ostreambuf_iterator@DV?$char_traits@D@_STL@@@0@PAD0V10@ABUrandom_access_iterator_tag@0@PAH@Z 004403a0 f i stlport_vc71_static:time_facets.obj
 0001:0003f420       ??$copy@PBDPAD@_STL@@YAPADPBD0PAD@Z 00440420 f i stlport_vc71_static:time_facets.obj
 0001:0003f450       ?put@?$time_put@DV?$ostreambuf_iterator@DV?$char_traits@D@_STL@@@_STL@@@_STL@@QBE?AV?$ostreambuf_iterator@DV?$char_traits@D@_STL@@@2@V32@AAVios_base@2@DPBUtm@@PBD3@Z 00440450 f i stlport_vc71_static:time_facets.obj
 0001:0003f580       ??$__match@V?$istreambuf_iterator@DV?$char_traits@D@_STL@@@_STL@@PAV?$basic_string@DV?$char_traits@D@_STL@@V?$allocator@D@2@@2@@_STL@@YAPAV?$basic_string@DV?$char_traits@D@_STL@@V?$allocator@D@2@@0@AAV?$istreambuf_iterator@DV?$char_traits@D@_STL@@@0@0PAV10@1@Z 00440580 f i stlport_vc71_static:time_facets.obj
 0001:0003f5a0       ??$__match@V?$istreambuf_iterator@DV?$char_traits@D@_STL@@@_STL@@PBV?$basic_string@DV?$char_traits@D@_STL@@V?$allocator@D@2@@2@@_STL@@YAPBV?$basic_string@DV?$char_traits@D@_STL@@V?$allocator@D@2@@0@AAV?$istreambuf_iterator@DV?$char_traits@D@_STL@@@0@0PBV10@1@Z 004405a0 f i stlport_vc71_static:time_facets.obj
 0001:0003f5c0       ??$__copy_aux@PADV?$ostreambuf_iterator@DV?$char_traits@D@_STL@@@_STL@@@_STL@@YA?AV?$ostreambuf_iterator@DV?$char_traits@D@_STL@@@0@PAD0V10@ABU__false_type@0@@Z 004405c0 f i stlport_vc71_static:time_facets.obj
 0001:0003f5f0       ?__write_formatted_time@_STL@@YAPADPADDDABV_Time_Info@1@PBUtm@@@Z 004405f0 f   stlport_vc71_static:time_facets.obj
 0001:0003fba0       ?put@?$time_put@GV?$ostreambuf_iterator@GV?$char_traits@G@_STL@@@_STL@@@_STL@@QBE?AV?$ostreambuf_iterator@GV?$char_traits@G@_STL@@@2@V32@AAVios_base@2@GPBUtm@@PBG3@Z 00440ba0 f i stlport_vc71_static:time_facets.obj
 0001:0003fcb0       ??$__get_short_or_long_dayname@V?$istreambuf_iterator@DV?$char_traits@D@_STL@@@_STL@@@_STL@@YA_NAAV?$istreambuf_iterator@DV?$char_traits@D@_STL@@@0@0ABV_Time_Info@0@PAUtm@@@Z 00440cb0 f i stlport_vc71_static:time_facets.obj
 0001:0003fd10       ??$__get_short_or_long_monthname@V?$istreambuf_iterator@DV?$char_traits@D@_STL@@@_STL@@@_STL@@YA_NAAV?$istreambuf_iterator@DV?$char_traits@D@_STL@@@0@0ABV_Time_Info@0@PAUtm@@@Z 00440d10 f i stlport_vc71_static:time_facets.obj
 0001:0003fd70       ??$copy@PADV?$ostreambuf_iterator@DV?$char_traits@D@_STL@@@_STL@@@_STL@@YA?AV?$ostreambuf_iterator@DV?$char_traits@D@_STL@@@0@PAD0V10@@Z 00440d70 f i stlport_vc71_static:time_facets.obj
 0001:0003fda0       ??$__match@V?$istreambuf_iterator@GV?$char_traits@G@_STL@@@_STL@@PAV?$basic_string@DV?$char_traits@D@_STL@@V?$allocator@D@2@@2@@_STL@@YAPAV?$basic_string@DV?$char_traits@D@_STL@@V?$allocator@D@2@@0@AAV?$istreambuf_iterator@GV?$char_traits@G@_STL@@@0@0PAV10@1@Z 00440da0 f i stlport_vc71_static:time_facets.obj
 0001:0003fdc0       ??$__match@V?$istreambuf_iterator@GV?$char_traits@G@_STL@@@_STL@@PBV?$basic_string@DV?$char_traits@D@_STL@@V?$allocator@D@2@@2@@_STL@@YAPBV?$basic_string@DV?$char_traits@D@_STL@@V?$allocator@D@2@@0@AAV?$istreambuf_iterator@GV?$char_traits@G@_STL@@@0@0PBV10@1@Z 00440dc0 f i stlport_vc71_static:time_facets.obj
 0001:0003fde0       ??$__copy_aux@PAGV?$ostreambuf_iterator@GV?$char_traits@G@_STL@@@_STL@@@_STL@@YA?AV?$ostreambuf_iterator@GV?$char_traits@G@_STL@@@0@PAG0V10@ABU__false_type@0@@Z 00440de0 f i stlport_vc71_static:time_facets.obj
 0001:0003fe10       ??$__put_time@V?$ostreambuf_iterator@DV?$char_traits@D@_STL@@@_STL@@@_STL@@YA?AV?$ostreambuf_iterator@DV?$char_traits@D@_STL@@@0@PAD0V10@ABVios_base@0@D@Z 00440e10 f i stlport_vc71_static:time_facets.obj
 0001:0003fe40       ??$__get_short_or_long_dayname@V?$istreambuf_iterator@GV?$char_traits@G@_STL@@@_STL@@@_STL@@YA_NAAV?$istreambuf_iterator@GV?$char_traits@G@_STL@@@0@0ABV_Time_Info@0@PAUtm@@@Z 00440e40 f i stlport_vc71_static:time_facets.obj
 0001:0003fea0       ??$__get_short_or_long_monthname@V?$istreambuf_iterator@GV?$char_traits@G@_STL@@@_STL@@@_STL@@YA_NAAV?$istreambuf_iterator@GV?$char_traits@G@_STL@@@0@0ABV_Time_Info@0@PAUtm@@@Z 00440ea0 f i stlport_vc71_static:time_facets.obj
 0001:0003ff00       ??$copy@PAGV?$ostreambuf_iterator@GV?$char_traits@G@_STL@@@_STL@@@_STL@@YA?AV?$ostreambuf_iterator@GV?$char_traits@G@_STL@@@0@PAG0V10@@Z 00440f00 f i stlport_vc71_static:time_facets.obj
 0001:0003ff30       ??4?$back_insert_iterator@V?$basic_string@DV?$char_traits@D@_STL@@V?$allocator@D@2@@_STL@@@_STL@@QAEAAV01@ABD@Z 00440f30 f i stlport_vc71_static:time_facets.obj
 0001:0003ff50       ??0?$time_get@DV?$istreambuf_iterator@DV?$char_traits@D@_STL@@@_STL@@@_STL@@IAE@PAU_Locale_time@@I@Z 00440f50 f i stlport_vc71_static:time_facets.obj
 0001:0003ffb0       ??0?$time_put@DV?$ostreambuf_iterator@DV?$char_traits@D@_STL@@@_STL@@@_STL@@IAE@PAU_Locale_time@@I@Z 00440fb0 f i stlport_vc71_static:time_facets.obj
 0001:00040010       ??0?$time_get@GV?$istreambuf_iterator@GV?$char_traits@G@_STL@@@_STL@@@_STL@@IAE@PAU_Locale_time@@I@Z 00441010 f i stlport_vc71_static:time_facets.obj
 0001:00040070       ??0?$time_put@GV?$ostreambuf_iterator@GV?$char_traits@G@_STL@@@_STL@@@_STL@@IAE@PAU_Locale_time@@I@Z 00441070 f i stlport_vc71_static:time_facets.obj
 0001:000400d0       ??$__copy@PBDV?$back_insert_iterator@V?$basic_string@DV?$char_traits@D@_STL@@V?$allocator@D@2@@_STL@@@_STL@@H@_STL@@YA?AV?$back_insert_iterator@V?$basic_string@DV?$char_traits@D@_STL@@V?$allocator@D@2@@_STL@@@0@PBD0V10@ABUrandom_access_iterator_tag@0@PAH@Z 004410d0 f i stlport_vc71_static:time_facets.obj
 0001:00040150       ??$__copy_aux@PBDV?$back_insert_iterator@V?$basic_string@DV?$char_traits@D@_STL@@V?$allocator@D@2@@_STL@@@_STL@@@_STL@@YA?AV?$back_insert_iterator@V?$basic_string@DV?$char_traits@D@_STL@@V?$allocator@D@2@@_STL@@@0@PBD0V10@ABU__false_type@0@@Z 00441150 f i stlport_vc71_static:time_facets.obj
 0001:00040180       ??$copy@PBDV?$back_insert_iterator@V?$basic_string@DV?$char_traits@D@_STL@@V?$allocator@D@2@@_STL@@@_STL@@@_STL@@YA?AV?$back_insert_iterator@V?$basic_string@DV?$char_traits@D@_STL@@V?$allocator@D@2@@_STL@@@0@PBD0V10@@Z 00441180 f i stlport_vc71_static:time_facets.obj
 0001:000401e0       ?_Init_timeinfo@_STL@@YAXAAV_Time_Info@1@@Z 004411e0 f   stlport_vc71_static:time_facets.obj
 0001:00040320       ?_Init_timeinfo@_STL@@YAXAAV_Time_Info@1@PAU_Locale_time@@@Z 00441320 f   stlport_vc71_static:time_facets.obj
 0001:000405d0       ?infinity@?$numeric_limits@N@_STL@@SANXZ 004415d0 f i stlport_vc71_static:num_get_float.obj
 0001:000405e0       ?infinity@?$numeric_limits@O@_STL@@SAOXZ 004415e0 f i stlport_vc71_static:num_get_float.obj
 0001:000405f0       ?_Initialize_get_float@_STL@@YAXABV?$ctype@G@1@AAG111PAG@Z 004415f0 f   stlport_vc71_static:num_get_float.obj
 0001:00040680       ?_Stl_mult64@_STL@@YAX_K0AA_K1@Z 00441680 f   stlport_vc71_static:num_get_float.obj
 0001:00040730       ?_Stl_set_exponent@_STL@@YAXAA_K_K@Z 00441730 f i stlport_vc71_static:num_get_float.obj
 0001:00040760       ?_Stl_norm_and_round@_STL@@YAXAA_KAAH_K2@Z 00441760 f   stlport_vc71_static:num_get_float.obj
 0001:00040850       ?_Stl_tenscale@_STL@@YAXAA_KHAAH@Z 00441850 f   stlport_vc71_static:num_get_float.obj
 0001:000409f0       ?_Stl_atod@_STL@@YANPADHH@Z 004419f0 f   stlport_vc71_static:num_get_float.obj
 0001:00040c90       ?_Stl_string_to_double@_STL@@YANPBD@Z 00441c90 f   stlport_vc71_static:num_get_float.obj
 0001:00040df0       ?_Stl_string_to_long_double@_STL@@YAOPBD@Z 00441df0 f   stlport_vc71_static:num_get_float.obj
 0001:00040f60       ?__string_to_float@_STL@@YAXABV?$basic_string@DV?$char_traits@D@_STL@@V?$allocator@D@2@@1@AAM@Z 00441f60 f   stlport_vc71_static:num_get_float.obj
 0001:00040f80       ?__string_to_float@_STL@@YAXABV?$basic_string@DV?$char_traits@D@_STL@@V?$allocator@D@2@@1@AAN@Z 00441f80 f   stlport_vc71_static:num_get_float.obj
 0001:00040fa0       ?__string_to_float@_STL@@YAXABV?$basic_string@DV?$char_traits@D@_STL@@V?$allocator@D@2@@1@AAO@Z 00441fa0 f   stlport_vc71_static:num_get_float.obj
 0001:00040fc0       ?is@?$ctype@G@_STL@@QBE_NW4mask@ctype_base@2@G@Z 00441fc0 f i stlport_vc71_static:monetary.obj
 0001:00040fd0       ?decimal_point@?$moneypunct@D$00@_STL@@QBEDXZ 00441fd0 f i stlport_vc71_static:monetary.obj
 0001:00040fe0       ?thousands_sep@?$moneypunct@D$00@_STL@@QBEDXZ 00441fe0 f i stlport_vc71_static:monetary.obj
 0001:00040ff0       ?frac_digits@?$moneypunct@D$00@_STL@@QBEHXZ 00441ff0 f i stlport_vc71_static:monetary.obj
 0001:00041000       ?pos_format@?$moneypunct@D$00@_STL@@QBE?AUpattern@money_base@2@XZ 00442000 f i stlport_vc71_static:monetary.obj
 0001:00041020       ?neg_format@?$moneypunct@D$00@_STL@@QBE?AUpattern@money_base@2@XZ 00442020 f i stlport_vc71_static:monetary.obj
 0001:00041040       ?decimal_point@?$moneypunct@D$0A@@_STL@@QBEDXZ 00442040 f i stlport_vc71_static:monetary.obj
 0001:00041050       ?thousands_sep@?$moneypunct@D$0A@@_STL@@QBEDXZ 00442050 f i stlport_vc71_static:monetary.obj
 0001:00041060       ?frac_digits@?$moneypunct@D$0A@@_STL@@QBEHXZ 00442060 f i stlport_vc71_static:monetary.obj
 0001:00041070       ?pos_format@?$moneypunct@D$0A@@_STL@@QBE?AUpattern@money_base@2@XZ 00442070 f i stlport_vc71_static:monetary.obj
 0001:00041090       ?neg_format@?$moneypunct@D$0A@@_STL@@QBE?AUpattern@money_base@2@XZ 00442090 f i stlport_vc71_static:monetary.obj
 0001:000410b0       ?decimal_point@?$moneypunct@G$00@_STL@@QBEGXZ 004420b0 f i stlport_vc71_static:monetary.obj
 0001:000410c0       ?thousands_sep@?$moneypunct@G$00@_STL@@QBEGXZ 004420c0 f i stlport_vc71_static:monetary.obj
 0001:000410d0       ?frac_digits@?$moneypunct@G$00@_STL@@QBEHXZ 004420d0 f i stlport_vc71_static:monetary.obj
 0001:000410e0       ?pos_format@?$moneypunct@G$00@_STL@@QBE?AUpattern@money_base@2@XZ 004420e0 f i stlport_vc71_static:monetary.obj
 0001:00041100       ?neg_format@?$moneypunct@G$00@_STL@@QBE?AUpattern@money_base@2@XZ 00442100 f i stlport_vc71_static:monetary.obj
 0001:00041120       ?decimal_point@?$moneypunct@G$0A@@_STL@@QBEGXZ 00442120 f i stlport_vc71_static:monetary.obj
 0001:00041130       ?thousands_sep@?$moneypunct@G$0A@@_STL@@QBEGXZ 00442130 f i stlport_vc71_static:monetary.obj
 0001:00041140       ?frac_digits@?$moneypunct@G$0A@@_STL@@QBEHXZ 00442140 f i stlport_vc71_static:monetary.obj
 0001:00041150       ?pos_format@?$moneypunct@G$0A@@_STL@@QBE?AUpattern@money_base@2@XZ 00442150 f i stlport_vc71_static:monetary.obj
 0001:00041170       ?neg_format@?$moneypunct@G$0A@@_STL@@QBE?AUpattern@money_base@2@XZ 00442170 f i stlport_vc71_static:monetary.obj
 0001:00041190       ?max@?$numeric_limits@O@_STL@@SAOXZ 00442190 f i stlport_vc71_static:monetary.obj
 0001:000411c0       ??0?$moneypunct@D$00@_STL@@QAE@I@Z 004421c0 f   stlport_vc71_static:monetary.obj
 0001:00041200       ??1?$moneypunct@D$00@_STL@@MAE@XZ 00442200 f   stlport_vc71_static:monetary.obj
 0001:00041210       ?do_decimal_point@?$moneypunct@D$00@_STL@@MBEDXZ 00442210 f   stlport_vc71_static:monetary.obj
 0001:00041220       ?do_thousands_sep@?$moneypunct@D$00@_STL@@MBEDXZ 00442220 f   stlport_vc71_static:monetary.obj
 0001:00041230       ?do_pos_format@?$moneypunct@D$00@_STL@@MBE?AUpattern@money_base@2@XZ 00442230 f   stlport_vc71_static:monetary.obj
 0001:00041240       ?do_neg_format@?$moneypunct@D$00@_STL@@MBE?AUpattern@money_base@2@XZ 00442240 f   stlport_vc71_static:monetary.obj
 0001:00041250       ?do_frac_digits@?$moneypunct@D$00@_STL@@MBEHXZ 00442250 f   stlport_vc71_static:monetary.obj
 0001:00041260       ??0?$moneypunct@D$0A@@_STL@@QAE@I@Z 00442260 f   stlport_vc71_static:monetary.obj
 0001:000412a0       ??1?$moneypunct@D$0A@@_STL@@MAE@XZ 004422a0 f   stlport_vc71_static:monetary.obj
 0001:000412b0       ?do_decimal_point@?$moneypunct@D$0A@@_STL@@MBEDXZ 004422b0 f   stlport_vc71_static:monetary.obj
 0001:000412c0       ?do_thousands_sep@?$moneypunct@D$0A@@_STL@@MBEDXZ 004422c0 f   stlport_vc71_static:monetary.obj
 0001:000412d0       ?do_pos_format@?$moneypunct@D$0A@@_STL@@MBE?AUpattern@money_base@2@XZ 004422d0 f   stlport_vc71_static:monetary.obj
 0001:000412e0       ?do_neg_format@?$moneypunct@D$0A@@_STL@@MBE?AUpattern@money_base@2@XZ 004422e0 f   stlport_vc71_static:monetary.obj
 0001:000412f0       ?do_frac_digits@?$moneypunct@D$0A@@_STL@@MBEHXZ 004422f0 f   stlport_vc71_static:monetary.obj
 0001:00041300       ??0?$moneypunct@G$00@_STL@@QAE@I@Z 00442300 f   stlport_vc71_static:monetary.obj
 0001:00041340       ??1?$moneypunct@G$00@_STL@@MAE@XZ 00442340 f   stlport_vc71_static:monetary.obj
 0001:00041350       ?do_decimal_point@?$moneypunct@G$00@_STL@@MBEGXZ 00442350 f   stlport_vc71_static:monetary.obj
 0001:00041360       ?do_thousands_sep@?$moneypunct@G$00@_STL@@MBEGXZ 00442360 f   stlport_vc71_static:monetary.obj
 0001:00041370       ?do_frac_digits@?$moneypunct@G$00@_STL@@MBEHXZ 00442370 f   stlport_vc71_static:monetary.obj
 0001:00041380       ?do_pos_format@?$moneypunct@G$00@_STL@@MBE?AUpattern@money_base@2@XZ 00442380 f   stlport_vc71_static:monetary.obj
 0001:00041390       ?do_neg_format@?$moneypunct@G$00@_STL@@MBE?AUpattern@money_base@2@XZ 00442390 f   stlport_vc71_static:monetary.obj
 0001:000413a0       ??0?$moneypunct@G$0A@@_STL@@QAE@I@Z 004423a0 f   stlport_vc71_static:monetary.obj
 0001:000413e0       ??1?$moneypunct@G$0A@@_STL@@MAE@XZ 004423e0 f   stlport_vc71_static:monetary.obj
 0001:000413f0       ?do_decimal_point@?$moneypunct@G$0A@@_STL@@MBEGXZ 004423f0 f   stlport_vc71_static:monetary.obj
 0001:00041400       ?do_thousands_sep@?$moneypunct@G$0A@@_STL@@MBEGXZ 00442400 f   stlport_vc71_static:monetary.obj
 0001:00041410       ?do_frac_digits@?$moneypunct@G$0A@@_STL@@MBEHXZ 00442410 f   stlport_vc71_static:monetary.obj
 0001:00041420       ?do_pos_format@?$moneypunct@G$0A@@_STL@@MBE?AUpattern@money_base@2@XZ 00442420 f   stlport_vc71_static:monetary.obj
 0001:00041430       ?do_neg_format@?$moneypunct@G$0A@@_STL@@MBE?AUpattern@money_base@2@XZ 00442430 f   stlport_vc71_static:monetary.obj
 0001:00041440       ?get@?$money_get@DV?$istreambuf_iterator@DV?$char_traits@D@_STL@@@_STL@@@_STL@@QBE?AV?$istreambuf_iterator@DV?$char_traits@D@_STL@@@2@V32@0_NAAVios_base@2@AAHAAO@Z 00442440 f i stlport_vc71_static:monetary.obj
 0001:00041480       ?get@?$money_get@DV?$istreambuf_iterator@DV?$char_traits@D@_STL@@@_STL@@@_STL@@QBE?AV?$istreambuf_iterator@DV?$char_traits@D@_STL@@@2@V32@0_NAAVios_base@2@AAHAAV?$basic_string@DV?$char_traits@D@_STL@@V?$allocator@D@2@@2@@Z 00442480 f i stlport_vc71_static:monetary.obj
 0001:000414c0       ?put@?$money_put@DV?$ostreambuf_iterator@DV?$char_traits@D@_STL@@@_STL@@@_STL@@QBE?AV?$ostreambuf_iterator@DV?$char_traits@D@_STL@@@2@V32@_NAAVios_base@2@DO@Z 004424c0 f i stlport_vc71_static:monetary.obj
 0001:00041500       ?put@?$money_put@DV?$ostreambuf_iterator@DV?$char_traits@D@_STL@@@_STL@@@_STL@@QBE?AV?$ostreambuf_iterator@DV?$char_traits@D@_STL@@@2@V32@_NAAVios_base@2@DABV?$basic_string@DV?$char_traits@D@_STL@@V?$allocator@D@2@@2@@Z 00442500 f i stlport_vc71_static:monetary.obj
 0001:00041530       ?get@?$money_get@GV?$istreambuf_iterator@GV?$char_traits@G@_STL@@@_STL@@@_STL@@QBE?AV?$istreambuf_iterator@GV?$char_traits@G@_STL@@@2@V32@0_NAAVios_base@2@AAHAAO@Z 00442530 f i stlport_vc71_static:monetary.obj
 0001:00041570       ?get@?$money_get@GV?$istreambuf_iterator@GV?$char_traits@G@_STL@@@_STL@@@_STL@@QBE?AV?$istreambuf_iterator@GV?$char_traits@G@_STL@@@2@V32@0_NAAVios_base@2@AAHAAV?$basic_string@GV?$char_traits@G@_STL@@V?$allocator@G@2@@2@@Z 00442570 f i stlport_vc71_static:monetary.obj
 0001:000415b0       ?put@?$money_put@GV?$ostreambuf_iterator@GV?$char_traits@G@_STL@@@_STL@@@_STL@@QBE?AV?$ostreambuf_iterator@GV?$char_traits@G@_STL@@@2@V32@_NAAVios_base@2@GO@Z 004425b0 f i stlport_vc71_static:monetary.obj
 0001:000415f0       ?put@?$money_put@GV?$ostreambuf_iterator@GV?$char_traits@G@_STL@@@_STL@@@_STL@@QBE?AV?$ostreambuf_iterator@GV?$char_traits@G@_STL@@@2@V32@_NAAVios_base@2@GABV?$basic_string@GV?$char_traits@G@_STL@@V?$allocator@G@2@@2@@Z 004425f0 f i stlport_vc71_static:monetary.obj
 0001:00041620       ?begin@?$basic_string@GV?$char_traits@G@_STL@@V?$allocator@G@2@@_STL@@QAEPAGXZ 00442620 f i stlport_vc71_static:monetary.obj
 0001:00041630       ?end@?$basic_string@GV?$char_traits@G@_STL@@V?$allocator@G@2@@_STL@@QAEPAGXZ 00442630 f i stlport_vc71_static:monetary.obj
 0001:00041640       ?begin@?$basic_string@GV?$char_traits@G@_STL@@V?$allocator@G@2@@_STL@@QBEPBGXZ 00442640 f i stlport_vc71_static:monetary.obj
 0001:00041650       ?end@?$basic_string@GV?$char_traits@G@_STL@@V?$allocator@G@2@@_STL@@QBEPBGXZ 00442650 f i stlport_vc71_static:monetary.obj
 0001:00041660       ??A?$basic_string@GV?$char_traits@G@_STL@@V?$allocator@G@2@@_STL@@QAEAAGI@Z 00442660 f i stlport_vc71_static:monetary.obj
 0001:00041670       ?data@?$basic_string@GV?$char_traits@G@_STL@@V?$allocator@G@2@@_STL@@QBEPBGXZ 00442670 f i stlport_vc71_static:monetary.obj
 0001:00041680       ??0?$back_insert_iterator@V?$basic_string@GV?$char_traits@G@_STL@@V?$allocator@G@2@@_STL@@@_STL@@QAE@AAV?$basic_string@GV?$char_traits@G@_STL@@V?$allocator@G@2@@1@@Z 00442680 f i stlport_vc71_static:monetary.obj
 0001:00041690       ?assign@?$__char_traits_base@GG@_STL@@SAXAAGABG@Z 00442690 f i stlport_vc71_static:monetary.obj
 0001:000416a0       ?_M_construct_null_aux@?$basic_string@GV?$char_traits@G@_STL@@V?$allocator@G@2@@_STL@@AAEXPAGABU__true_type@2@@Z 004426a0 f i stlport_vc71_static:monetary.obj
 0001:000416b0       ??$use_facet@V?$moneypunct@D$0A@@_STL@@@_STL@@YAABV?$moneypunct@D$0A@@0@ABVlocale@0@@Z 004426b0 f i stlport_vc71_static:monetary.obj
 0001:000416c0       ??$use_facet@V?$moneypunct@D$00@_STL@@@_STL@@YAABV?$moneypunct@D$00@0@ABVlocale@0@@Z 004426c0 f i stlport_vc71_static:monetary.obj
 0001:000416d0       ??$use_facet@V?$moneypunct@G$0A@@_STL@@@_STL@@YAABV?$moneypunct@G$0A@@0@ABVlocale@0@@Z 004426d0 f i stlport_vc71_static:monetary.obj
 0001:000416e0       ??$use_facet@V?$moneypunct@G$00@_STL@@@_STL@@YAABV?$moneypunct@G$00@0@ABVlocale@0@@Z 004426e0 f i stlport_vc71_static:monetary.obj
 0001:000416f0       ?move@?$__char_traits_base@GG@_STL@@SAPAGPAGPBGI@Z 004426f0 f i stlport_vc71_static:monetary.obj
 0001:00041710       ?capacity@?$basic_string@GV?$char_traits@G@_STL@@V?$allocator@G@2@@_STL@@QBEIXZ 00442710 f i stlport_vc71_static:monetary.obj
 0001:00041720       ??E?$back_insert_iterator@V?$basic_string@DV?$char_traits@D@_STL@@V?$allocator@D@2@@_STL@@@_STL@@QAE?AV01@H@Z 00442720 f i stlport_vc71_static:monetary.obj
 0001:00041730       ??D?$back_insert_iterator@V?$basic_string@GV?$char_traits@G@_STL@@V?$allocator@G@2@@_STL@@@_STL@@QAEAAV01@XZ 00442730 f i stlport_vc71_static:monetary.obj
 0001:00041740       ??E?$back_insert_iterator@V?$basic_string@GV?$char_traits@G@_STL@@V?$allocator@G@2@@_STL@@@_STL@@QAE?AV01@H@Z 00442740 f i stlport_vc71_static:monetary.obj
 0001:00041750       ??0?$pair@V?$istreambuf_iterator@DV?$char_traits@D@_STL@@@_STL@@_N@_STL@@QAE@ABV?$istreambuf_iterator@DV?$char_traits@D@_STL@@@1@AB_N@Z 00442750 f i stlport_vc71_static:monetary.obj
 0001:00041770       ??0?$pair@V?$istreambuf_iterator@GV?$char_traits@G@_STL@@@_STL@@_N@_STL@@QAE@ABV?$istreambuf_iterator@GV?$char_traits@G@_STL@@@1@AB_N@Z 00442770 f i stlport_vc71_static:monetary.obj
 0001:00041790       ??0?$pair@V?$istreambuf_iterator@DV?$char_traits@D@_STL@@@_STL@@PAD@_STL@@QAE@ABV?$istreambuf_iterator@DV?$char_traits@D@_STL@@@1@ABQAD@Z 00442790 f i stlport_vc71_static:monetary.obj
 0001:000417b0       ??0?$pair@V?$istreambuf_iterator@GV?$char_traits@G@_STL@@@_STL@@PAG@_STL@@QAE@ABV?$istreambuf_iterator@GV?$char_traits@G@_STL@@@1@ABQAG@Z 004427b0 f i stlport_vc71_static:monetary.obj
 0001:000417d0       ??_G?$moneypunct@D$00@_STL@@MAEPAXI@Z 004427d0 f i stlport_vc71_static:monetary.obj
 0001:000417d0       ??_E?$moneypunct@D$00@_STL@@MAEPAXI@Z 004427d0 f i stlport_vc71_static:monetary.obj
 0001:000417f0       ??_E?$moneypunct@D$0A@@_STL@@MAEPAXI@Z 004427f0 f i stlport_vc71_static:monetary.obj
 0001:000417f0       ??_G?$moneypunct@D$0A@@_STL@@MAEPAXI@Z 004427f0 f i stlport_vc71_static:monetary.obj
 0001:00041810       ??_E?$moneypunct@G$00@_STL@@MAEPAXI@Z 00442810 f i stlport_vc71_static:monetary.obj
 0001:00041810       ??_G?$moneypunct@G$00@_STL@@MAEPAXI@Z 00442810 f i stlport_vc71_static:monetary.obj
 0001:00041830       ??_G?$moneypunct@G$0A@@_STL@@MAEPAXI@Z 00442830 f i stlport_vc71_static:monetary.obj
 0001:00041830       ??_E?$moneypunct@G$0A@@_STL@@MAEPAXI@Z 00442830 f i stlport_vc71_static:monetary.obj
 0001:00041850       ?_M_construct_null@?$basic_string@GV?$char_traits@G@_STL@@V?$allocator@G@2@@_STL@@AAEXPAG@Z 00442850 f i stlport_vc71_static:monetary.obj
 0001:00041860       ??$fill_n@V?$ostreambuf_iterator@DV?$char_traits@D@_STL@@@_STL@@ID@_STL@@YA?AV?$ostreambuf_iterator@DV?$char_traits@D@_STL@@@0@V10@IABD@Z 00442860 f i stlport_vc71_static:monetary.obj
 0001:000418e0       ?max_size@?$basic_string@GV?$char_traits@G@_STL@@V?$allocator@G@2@@_STL@@QBEIXZ 004428e0 f i stlport_vc71_static:monetary.obj
 0001:000418f0       ??$make_pair@V?$istreambuf_iterator@DV?$char_traits@D@_STL@@@_STL@@_N@_STL@@YA?AU?$pair@V?$istreambuf_iterator@DV?$char_traits@D@_STL@@@_STL@@_N@0@ABV?$istreambuf_iterator@DV?$char_traits@D@_STL@@@0@AB_N@Z 004428f0 f i stlport_vc71_static:monetary.obj
 0001:00041910       ??$make_pair@V?$istreambuf_iterator@GV?$char_traits@G@_STL@@@_STL@@_N@_STL@@YA?AU?$pair@V?$istreambuf_iterator@GV?$char_traits@G@_STL@@@_STL@@_N@0@ABV?$istreambuf_iterator@GV?$char_traits@G@_STL@@@0@AB_N@Z 00442910 f i stlport_vc71_static:monetary.obj
 0001:00041930       ??$__get_string@V?$istreambuf_iterator@DV?$char_traits@D@_STL@@@_STL@@PAD@_STL@@YA?AU?$pair@V?$istreambuf_iterator@DV?$char_traits@D@_STL@@@_STL@@_N@0@V?$istreambuf_iterator@DV?$char_traits@D@_STL@@@0@0PAD1@Z 00442930 f i stlport_vc71_static:monetary.obj
 0001:00041980       ??$fill_n@V?$ostreambuf_iterator@GV?$char_traits@G@_STL@@@_STL@@IG@_STL@@YA?AV?$ostreambuf_iterator@GV?$char_traits@G@_STL@@@0@V10@IABG@Z 00442980 f i stlport_vc71_static:monetary.obj
 0001:000419f0       ??4?$back_insert_iterator@V?$basic_string@GV?$char_traits@G@_STL@@V?$allocator@G@2@@_STL@@@_STL@@QAEAAV01@ABG@Z 004429f0 f i stlport_vc71_static:monetary.obj
 0001:00041a10       ??$_M_append_dispatch@PAG@?$basic_string@GV?$char_traits@G@_STL@@V?$allocator@G@2@@_STL@@AAEAAV01@PAG0ABU__false_type@1@@Z 00442a10 f i stlport_vc71_static:monetary.obj
 0001:00041a20       ??$append@PAG@?$basic_string@GV?$char_traits@G@_STL@@V?$allocator@G@2@@_STL@@QAEAAV01@PAG0@Z 00442a20 f i stlport_vc71_static:monetary.obj
 0001:00041a40       ?do_grouping@?$moneypunct@D$00@_STL@@MBE?AV?$basic_string@DV?$char_traits@D@_STL@@V?$allocator@D@2@@2@XZ 00442a40 f   stlport_vc71_static:monetary.obj
 0001:00041a70       ?do_curr_symbol@?$moneypunct@D$00@_STL@@MBE?AV?$basic_string@DV?$char_traits@D@_STL@@V?$allocator@D@2@@2@XZ 00442a70 f   stlport_vc71_static:monetary.obj
 0001:00041aa0       ?do_positive_sign@?$moneypunct@D$00@_STL@@MBE?AV?$basic_string@DV?$char_traits@D@_STL@@V?$allocator@D@2@@2@XZ 00442aa0 f   stlport_vc71_static:monetary.obj
 0001:00041ad0       ?do_negative_sign@?$moneypunct@D$00@_STL@@MBE?AV?$basic_string@DV?$char_traits@D@_STL@@V?$allocator@D@2@@2@XZ 00442ad0 f   stlport_vc71_static:monetary.obj
 0001:00041b00       ?do_grouping@?$moneypunct@D$0A@@_STL@@MBE?AV?$basic_string@DV?$char_traits@D@_STL@@V?$allocator@D@2@@2@XZ 00442b00 f   stlport_vc71_static:monetary.obj
 0001:00041b30       ?do_curr_symbol@?$moneypunct@D$0A@@_STL@@MBE?AV?$basic_string@DV?$char_traits@D@_STL@@V?$allocator@D@2@@2@XZ 00442b30 f   stlport_vc71_static:monetary.obj
 0001:00041b60       ?do_positive_sign@?$moneypunct@D$0A@@_STL@@MBE?AV?$basic_string@DV?$char_traits@D@_STL@@V?$allocator@D@2@@2@XZ 00442b60 f   stlport_vc71_static:monetary.obj
 0001:00041b90       ?do_negative_sign@?$moneypunct@D$0A@@_STL@@MBE?AV?$basic_string@DV?$char_traits@D@_STL@@V?$allocator@D@2@@2@XZ 00442b90 f   stlport_vc71_static:monetary.obj
 0001:00041bc0       ?do_grouping@?$moneypunct@G$00@_STL@@MBE?AV?$basic_string@DV?$char_traits@D@_STL@@V?$allocator@D@2@@2@XZ 00442bc0 f   stlport_vc71_static:monetary.obj
 0001:00041bf0       ?do_curr_symbol@?$moneypunct@G$00@_STL@@MBE?AV?$basic_string@GV?$char_traits@G@_STL@@V?$allocator@G@2@@2@XZ 00442bf0 f   stlport_vc71_static:monetary.obj
 0001:00041c20       ?do_positive_sign@?$moneypunct@G$00@_STL@@MBE?AV?$basic_string@GV?$char_traits@G@_STL@@V?$allocator@G@2@@2@XZ 00442c20 f   stlport_vc71_static:monetary.obj
 0001:00041c50       ?do_negative_sign@?$moneypunct@G$00@_STL@@MBE?AV?$basic_string@GV?$char_traits@G@_STL@@V?$allocator@G@2@@2@XZ 00442c50 f   stlport_vc71_static:monetary.obj
 0001:00041c80       ?do_grouping@?$moneypunct@G$0A@@_STL@@MBE?AV?$basic_string@DV?$char_traits@D@_STL@@V?$allocator@D@2@@2@XZ 00442c80 f   stlport_vc71_static:monetary.obj
 0001:00041cb0       ?do_curr_symbol@?$moneypunct@G$0A@@_STL@@MBE?AV?$basic_string@GV?$char_traits@G@_STL@@V?$allocator@G@2@@2@XZ 00442cb0 f   stlport_vc71_static:monetary.obj
 0001:00041ce0       ?do_positive_sign@?$moneypunct@G$0A@@_STL@@MBE?AV?$basic_string@GV?$char_traits@G@_STL@@V?$allocator@G@2@@2@XZ 00442ce0 f   stlport_vc71_static:monetary.obj
 0001:00041d10       ?do_negative_sign@?$moneypunct@G$0A@@_STL@@MBE?AV?$basic_string@GV?$char_traits@G@_STL@@V?$allocator@G@2@@2@XZ 00442d10 f   stlport_vc71_static:monetary.obj
 0001:00041d40       ??$assign@PAG@?$basic_string@GV?$char_traits@G@_STL@@V?$allocator@G@2@@_STL@@QAEAAV01@PAG0@Z 00442d40 f i stlport_vc71_static:monetary.obj
 0001:00041d60       ??0?$messages@D@_STL@@QAE@PAV_Messages@1@@Z 00442d60 f   stlport_vc71_static:messages.obj
 0001:00041d90       ??1?$messages@D@_STL@@MAE@XZ 00442d90 f   stlport_vc71_static:messages.obj
 0001:00041df0       ?do_open@?$messages@D@_STL@@MBEHABV?$basic_string@DV?$char_traits@D@_STL@@V?$allocator@D@2@@2@ABVlocale@2@@Z 00442df0 f   stlport_vc71_static:messages.obj
 0001:00041e00       ?do_close@?$messages@D@_STL@@MBEXH@Z 00442e00 f   stlport_vc71_static:messages.obj
 0001:00041e10       ??0_Messages@_STL@@QAE@XZ  00442e10 f   stlport_vc71_static:messages.obj
 0001:00041e20       ??1_Messages@_STL@@UAE@XZ  00442e20 f   stlport_vc71_static:messages.obj
 0001:00041e30       ?do_open@_Messages@_STL@@UBEHABV?$basic_string@DV?$char_traits@D@_STL@@V?$allocator@D@2@@2@ABVlocale@2@@Z 00442e30 f   stlport_vc71_static:messages.obj
 0001:00041e40       ?do_close@_Messages@_STL@@UBEXH@Z 00442e40 f   stlport_vc71_static:messages.obj
 0001:00041e50       ??0?$messages@G@_STL@@QAE@PAV_Messages@1@@Z 00442e50 f   stlport_vc71_static:messages.obj
 0001:00041e80       ??1?$messages@G@_STL@@MAE@XZ 00442e80 f   stlport_vc71_static:messages.obj
 0001:00041ee0       ?do_open@?$messages@G@_STL@@MBEHABV?$basic_string@DV?$char_traits@D@_STL@@V?$allocator@D@2@@2@ABVlocale@2@@Z 00442ee0 f   stlport_vc71_static:messages.obj
 0001:00041ef0       ?do_close@?$messages@G@_STL@@MBEXH@Z 00442ef0 f   stlport_vc71_static:messages.obj
 0001:00041f00       ??_E?$messages@D@_STL@@MAEPAXI@Z 00442f00 f i stlport_vc71_static:messages.obj
 0001:00041f00       ??_G?$messages@D@_STL@@MAEPAXI@Z 00442f00 f i stlport_vc71_static:messages.obj
 0001:00041f20       ??_G_Messages@_STL@@UAEPAXI@Z 00442f20 f i stlport_vc71_static:messages.obj
 0001:00041f20       ??_E_Messages@_STL@@UAEPAXI@Z 00442f20 f i stlport_vc71_static:messages.obj
 0001:00041f40       ??_G?$messages@G@_STL@@MAEPAXI@Z 00442f40 f i stlport_vc71_static:messages.obj
 0001:00041f40       ??_E?$messages@G@_STL@@MAEPAXI@Z 00442f40 f i stlport_vc71_static:messages.obj
 0001:00041f60       ?do_get@?$messages@D@_STL@@MBE?AV?$basic_string@DV?$char_traits@D@_STL@@V?$allocator@D@2@@2@HHHABV32@@Z 00442f60 f   stlport_vc71_static:messages.obj
 0001:00041fa0       ?do_get@_Messages@_STL@@UBE?AV?$basic_string@DV?$char_traits@D@_STL@@V?$allocator@D@2@@2@HHHABV32@@Z 00442fa0 f   stlport_vc71_static:messages.obj
 0001:00041fd0       ?do_get@?$messages@G@_STL@@MBE?AV?$basic_string@GV?$char_traits@G@_STL@@V?$allocator@G@2@@2@HHHABV32@@Z 00442fd0 f   stlport_vc71_static:messages.obj
 0001:00042010       ?do_get@_Messages@_STL@@UBE?AV?$basic_string@GV?$char_traits@G@_STL@@V?$allocator@G@2@@2@HHHABV32@@Z 00443010 f   stlport_vc71_static:messages.obj
 0001:00042040       ?_Stl_is_nan_or_inf@_STL@@YA_NN@Z 00443040 f i stlport_vc71_static:num_put_float.obj
 0001:00042060       ?_Stl_is_inf@_STL@@YA_NN@Z 00443060 f i stlport_vc71_static:num_put_float.obj
 0001:00042090       ?_Stl_is_neg_inf@_STL@@YA_NN@Z 00443090 f i stlport_vc71_static:num_put_float.obj
 0001:000420b0       ?_Stl_is_neg_nan@_STL@@YA_NN@Z 004430b0 f i stlport_vc71_static:num_put_float.obj
 0001:00042100       ?_Stl_ecvtR@_STL@@YAPADNHPAH0PAD@Z 00443100 f i stlport_vc71_static:num_put_float.obj
 0001:00042130       ?_Stl_fcvtR@_STL@@YAPADNHPAH0PAD@Z 00443130 f i stlport_vc71_static:num_put_float.obj
 0001:00042160       ?_Stl_qecvtR@_STL@@YAPADOHPAH0PAD@Z 00443160 f i stlport_vc71_static:num_put_float.obj
 0001:00042190       ?_Stl_qfcvtR@_STL@@YAPADOHPAH0PAD@Z 00443190 f i stlport_vc71_static:num_put_float.obj
 0001:000421c0       ?__format_float_scientific@_STL@@YAXPADPBDHH_NHH2@Z 004431c0 f   stlport_vc71_static:num_put_float.obj
 0001:000422b0       ?__format_nan_or_inf@_STL@@YAXPADNH@Z 004432b0 f   stlport_vc71_static:num_put_float.obj
 0001:00042350       ??$replace@PAGG@_STL@@YAXPAG0ABG1@Z 00443350 f i stlport_vc71_static:num_put_float.obj
 0001:00042380       ??$replace@PADD@_STL@@YAXPAD0ABD1@Z 00443380 f i stlport_vc71_static:num_put_float.obj
 0001:000423b0       ?__convert_float_buffer@_STL@@YAPAGPBD0PAGABV?$ctype@G@1@G@Z 004433b0 f   stlport_vc71_static:num_put_float.obj
 0001:00042410       ?__adjust_float_buffer@_STL@@YAXPAD0D@Z 00443410 f   stlport_vc71_static:num_put_float.obj
 0001:00042460       ?__format_float_fixed@_STL@@YAXAAV?$basic_string@DV?$char_traits@D@_STL@@V?$allocator@D@2@@1@PBDHH_NHH2@Z 00443460 f   stlport_vc71_static:num_put_float.obj
 0001:00042ad0       ?__write_float@_STL@@YAXAAV?$basic_string@DV?$char_traits@D@_STL@@V?$allocator@D@2@@1@HHN@Z 00443ad0 f   stlport_vc71_static:num_put_float.obj
 0001:00042bb0       ?__write_float@_STL@@YAXAAV?$basic_string@DV?$char_traits@D@_STL@@V?$allocator@D@2@@1@HHO@Z 00443bb0 f   stlport_vc71_static:num_put_float.obj
 0001:00042c90       ??0stdio_streambuf_base@_SgI@@QAE@PAU_iobuf@@@Z 00443c90 f   stlport_vc71_static:stdio_streambuf.obj
 0001:00042cb0       ??1stdio_streambuf_base@_SgI@@UAE@XZ 00443cb0 f   stlport_vc71_static:stdio_streambuf.obj
 0001:00042cd0       ?setbuf@stdio_streambuf_base@_SgI@@MAEPAV?$basic_streambuf@DV?$char_traits@D@_STL@@@_STL@@PADH@Z 00443cd0 f   stlport_vc71_static:stdio_streambuf.obj
 0001:00042d10       ?sync@stdio_streambuf_base@_SgI@@MAEHXZ 00443d10 f   stlport_vc71_static:stdio_streambuf.obj
 0001:00042d30       ??1stdio_istreambuf@_SgI@@UAE@XZ 00443d30 f   stlport_vc71_static:stdio_streambuf.obj
 0001:00042d50       ?showmanyc@stdio_istreambuf@_SgI@@MAEHXZ 00443d50 f   stlport_vc71_static:stdio_streambuf.obj
 0001:00042dd0       ??1stdio_ostreambuf@_SgI@@UAE@XZ 00443dd0 f   stlport_vc71_static:stdio_streambuf.obj
 0001:00042df0       ?showmanyc@stdio_ostreambuf@_SgI@@MAEHXZ 00443df0 f   stlport_vc71_static:stdio_streambuf.obj
 0001:00042e00       ??_Gstdio_streambuf_base@_SgI@@UAEPAXI@Z 00443e00 f i stlport_vc71_static:stdio_streambuf.obj
 0001:00042e00       ??_Estdio_streambuf_base@_SgI@@UAEPAXI@Z 00443e00 f i stlport_vc71_static:stdio_streambuf.obj
 0001:00042e20       ?seekoff@stdio_streambuf_base@_SgI@@MAE?AV?$fpos@H@_STL@@JHH@Z 00443e20 f   stlport_vc71_static:stdio_streambuf.obj
 0001:00042ea0       ?seekpos@stdio_streambuf_base@_SgI@@MAE?AV?$fpos@H@_STL@@V34@H@Z 00443ea0 f   stlport_vc71_static:stdio_streambuf.obj
 0001:00042ef0       ?underflow@stdio_istreambuf@_SgI@@MAEHXZ 00443ef0 f   stlport_vc71_static:stdio_streambuf.obj
 0001:00042f20       ?uflow@stdio_istreambuf@_SgI@@MAEHXZ 00443f20 f   stlport_vc71_static:stdio_streambuf.obj
 0001:00042f40       ?pbackfail@stdio_istreambuf@_SgI@@MAEHH@Z 00443f40 f   stlport_vc71_static:stdio_streambuf.obj
 0001:00042f80       ?overflow@stdio_ostreambuf@_SgI@@MAEHH@Z 00443f80 f   stlport_vc71_static:stdio_streambuf.obj
 0001:00043040       __Locale_messages_create   00444040 f   stlport_vc71_static:c_locale.obj
 0001:00043060       __Locale_ctype_destroy     00444060 f   stlport_vc71_static:c_locale.obj
 0001:00043080       __Locale_numeric_destroy   00444080 f   stlport_vc71_static:c_locale.obj
 0001:000430b0       __Locale_time_destroy      004440b0 f   stlport_vc71_static:c_locale.obj
 0001:00043130       __Locale_collate_destroy   00444130 f   stlport_vc71_static:c_locale.obj
 0001:00043150       __Locale_monetary_destroy  00444150 f   stlport_vc71_static:c_locale.obj
 0001:00043180       __Locale_messages_destroy  00444180 f   stlport_vc71_static:c_locale.obj
 0001:000431a0       __Locale_extract_messages_name 004441a0 f   stlport_vc71_static:c_locale.obj
 0001:000431e0       __Locale_compose_name      004441e0 f   stlport_vc71_static:c_locale.obj
 0001:000435c0       __Locale_ctype_table       004445c0 f   stlport_vc71_static:c_locale.obj
 0001:000435d0       __Locale_wchar_ctype       004445d0 f   stlport_vc71_static:c_locale.obj
 0001:00043600       __Locale_wchar_tolower     00444600 f   stlport_vc71_static:c_locale.obj
 0001:00043630       __Locale_wchar_toupper     00444630 f   stlport_vc71_static:c_locale.obj
 0001:00043660       __Locale_mb_cur_max        00444660 f   stlport_vc71_static:c_locale.obj
 0001:00043690       __Locale_mb_cur_min        00444690 f   stlport_vc71_static:c_locale.obj
 0001:000436a0       __Locale_is_stateless      004446a0 f   stlport_vc71_static:c_locale.obj
 0001:000436d0       __Locale_btowc             004446d0 f   stlport_vc71_static:c_locale.obj
 0001:00043710       __Locale_wctob             00444710 f   stlport_vc71_static:c_locale.obj
 0001:000437d0       __Locale_mbtowc            004447d0 f   stlport_vc71_static:c_locale.obj
 0001:000438d0       __Locale_wctomb            004448d0 f   stlport_vc71_static:c_locale.obj
 0001:00043930       __Locale_unshift           00444930 f   stlport_vc71_static:c_locale.obj
 0001:00043970       __Locale_strwcmp           00444970 f   stlport_vc71_static:c_locale.obj
 0001:000439b0       __Locale_strwxfrm          004449b0 f   stlport_vc71_static:c_locale.obj
 0001:000439e0       __Locale_decimal_point     004449e0 f   stlport_vc71_static:c_locale.obj
 0001:000439f0       __Locale_thousands_sep     004449f0 f   stlport_vc71_static:c_locale.obj
 0001:00043a00       __Locale_grouping          00444a00 f   stlport_vc71_static:c_locale.obj
 0001:00043a20       __Locale_true              00444a20 f   stlport_vc71_static:c_locale.obj
 0001:00043a30       __Locale_false             00444a30 f   stlport_vc71_static:c_locale.obj
 0001:00043a40       __Locale_int_curr_symbol   00444a40 f   stlport_vc71_static:c_locale.obj
 0001:00043a50       __Locale_currency_symbol   00444a50 f   stlport_vc71_static:c_locale.obj
 0001:00043a60       __Locale_mon_decimal_point 00444a60 f   stlport_vc71_static:c_locale.obj
 0001:00043a70       __Locale_mon_thousands_sep 00444a70 f   stlport_vc71_static:c_locale.obj
 0001:00043a80       __Locale_mon_grouping      00444a80 f   stlport_vc71_static:c_locale.obj
 0001:00043aa0       __Locale_positive_sign     00444aa0 f   stlport_vc71_static:c_locale.obj
 0001:00043ab0       __Locale_negative_sign     00444ab0 f   stlport_vc71_static:c_locale.obj
 0001:00043ac0       __Locale_int_frac_digits   00444ac0 f   stlport_vc71_static:c_locale.obj
 0001:00043ad0       __Locale_frac_digits       00444ad0 f   stlport_vc71_static:c_locale.obj
 0001:00043ae0       __Locale_p_cs_precedes     00444ae0 f   stlport_vc71_static:c_locale.obj
 0001:00043b20       __Locale_p_sep_by_space    00444b20 f   stlport_vc71_static:c_locale.obj
 0001:00043b60       __Locale_p_sign_posn       00444b60 f   stlport_vc71_static:c_locale.obj
 0001:00043b90       __Locale_n_cs_precedes     00444b90 f   stlport_vc71_static:c_locale.obj
 0001:00043bd0       __Locale_n_sep_by_space    00444bd0 f   stlport_vc71_static:c_locale.obj
 0001:00043c10       __Locale_n_sign_posn       00444c10 f   stlport_vc71_static:c_locale.obj
 0001:00043c40       __Locale_full_monthname    00444c40 f   stlport_vc71_static:c_locale.obj
 0001:00043c50       __Locale_abbrev_monthname  00444c50 f   stlport_vc71_static:c_locale.obj
 0001:00043c60       __Locale_full_dayofweek    00444c60 f   stlport_vc71_static:c_locale.obj
 0001:00043c70       __Locale_abbrev_dayofweek  00444c70 f   stlport_vc71_static:c_locale.obj
 0001:00043c80       ___ConvertDate             00444c80 f   stlport_vc71_static:c_locale.obj
 0001:00043e40       __Locale_catopen           00444e40 f   stlport_vc71_static:c_locale.obj
 0001:00043e50       __Locale_catclose          00444e50 f   stlport_vc71_static:c_locale.obj
 0001:00043e60       __Locale_catgets           00444e60 f   stlport_vc71_static:c_locale.obj
 0001:000444b0       __Locale_common_default    004454b0 f   stlport_vc71_static:c_locale.obj
 0001:00044520       __Locale_ctype_default     00445520 f   stlport_vc71_static:c_locale.obj
 0001:00044530       __Locale_numeric_default   00445530 f   stlport_vc71_static:c_locale.obj
 0001:00044540       __Locale_time_default      00445540 f   stlport_vc71_static:c_locale.obj
 0001:00044550       __Locale_collate_default   00445550 f   stlport_vc71_static:c_locale.obj
 0001:00044560       __Locale_monetary_default  00445560 f   stlport_vc71_static:c_locale.obj
 0001:00044570       __Locale_messages_default  00445570 f   stlport_vc71_static:c_locale.obj
 0001:00044580       __Locale_ctype_name        00445580 f   stlport_vc71_static:c_locale.obj
 0001:000445b0       __Locale_numeric_name      004455b0 f   stlport_vc71_static:c_locale.obj
 0001:000445d0       __Locale_time_name         004455d0 f   stlport_vc71_static:c_locale.obj
 0001:000445f0       __Locale_collate_name      004455f0 f   stlport_vc71_static:c_locale.obj
 0001:00044610       __Locale_monetary_name     00445610 f   stlport_vc71_static:c_locale.obj
 0001:00044630       __Locale_messages_name     00445630 f   stlport_vc71_static:c_locale.obj
 0001:00044650       __Locale_toupper           00445650 f   stlport_vc71_static:c_locale.obj
 0001:00044780       __Locale_tolower           00445780 f   stlport_vc71_static:c_locale.obj
 0001:000448b0       __Locale_strcmp            004458b0 f   stlport_vc71_static:c_locale.obj
 0001:000449d0       __Locale_strxfrm           004459d0 f   stlport_vc71_static:c_locale.obj
 0001:00044ac0       __Locale_d_fmt             00445ac0 f   stlport_vc71_static:c_locale.obj
 0001:00044b00       __Locale_long_d_fmt        00445b00 f   stlport_vc71_static:c_locale.obj
 0001:00044b40       __Locale_t_fmt             00445b40 f   stlport_vc71_static:c_locale.obj
 0001:00044cf0       __Locale_am_str            00445cf0 f   stlport_vc71_static:c_locale.obj
 0001:00044d20       __Locale_pm_str            00445d20 f   stlport_vc71_static:c_locale.obj
 0001:00044d50       __Locale_t_fmt_ampm        00445d50 f   stlport_vc71_static:c_locale.obj
 0001:00044ff0       __Locale_ctype_create      00445ff0 f   stlport_vc71_static:c_locale.obj
 0001:00045540       __Locale_numeric_create    00446540 f   stlport_vc71_static:c_locale.obj
 0001:000456a0       __Locale_time_create       004466a0 f   stlport_vc71_static:c_locale.obj
 0001:00045a90       __Locale_collate_create    00446a90 f   stlport_vc71_static:c_locale.obj
 0001:00045b80       __Locale_monetary_create   00446b80 f   stlport_vc71_static:c_locale.obj
 0001:00045d80       __Locale_extract_ctype_name 00446d80 f   stlport_vc71_static:c_locale.obj
 0001:00045e90       __Locale_extract_numeric_name 00446e90 f   stlport_vc71_static:c_locale.obj
 0001:00045fa0       __Locale_extract_time_name 00446fa0 f   stlport_vc71_static:c_locale.obj
 0001:000460b0       __Locale_extract_collate_name 004470b0 f   stlport_vc71_static:c_locale.obj
 0001:000461c0       __Locale_extract_monetary_name 004471c0 f   stlport_vc71_static:c_locale.obj
 0001:000462d0       __Locale_d_t_fmt           004472d0 f   stlport_vc71_static:c_locale.obj
 0001:00046370       __Locale_long_d_t_fmt      00447370 f   stlport_vc71_static:c_locale.obj
 0001:0004640f       ??2@YAPAXI@Z               0044740f f   libcpmt:newop.obj
 0001:00046433       ??_U@YAPAXI@Z              00447433 f   libcpmt:newaop.obj
 0001:00046438       ?_Nomemory@std@@YAXXZ      00447438 f   libcpmt:nomemory.obj
 0001:000464a0       _memmove                   004474a0 f   LIBCMT:memmove.obj
 0001:000467dd       ??3@YAXPAX@Z               004477dd f   LIBCMT:delete.obj
 0001:000467e2       __CxxThrowException@8      004477e2 f   LIBCMT:throw.obj
 0001:0004681c       ?_JumpToContinuation@@YGXPAXPAUEHRegistrationNode@@@Z 0044781c f   LIBCMT:trnsctrl.obj
 0001:0004684c       ?_CallMemberFunction0@@YGXPAX0@Z 0044784c f   LIBCMT:trnsctrl.obj
 0001:00046853       ?_CallMemberFunction1@@YGXPAX00@Z 00447853 f   LIBCMT:trnsctrl.obj
 0001:0004685a       ?_CallMemberFunction2@@YGXPAX00H@Z 0044785a f   LIBCMT:trnsctrl.obj
 0001:00046861       ?_UnwindNestedFrames@@YGXPAUEHRegistrationNode@@PAUEHExceptionRecord@@@Z 00447861 f   LIBCMT:trnsctrl.obj
 0001:000468b3       ___CxxFrameHandler         004478b3 f   LIBCMT:trnsctrl.obj
 0001:000468e9       ___CxxLongjmpUnwind@4      004478e9 f   LIBCMT:trnsctrl.obj
 0001:0004693e       ?_CallSETranslator@@YAHPAUEHExceptionRecord@@PAUEHRegistrationNode@@PAX2PBU_s_FuncInfo@@H1@Z 0044793e f   LIBCMT:trnsctrl.obj
 0001:00046ab7       ?_GetRangeOfTrysToCheck@@YAPBU_s_TryBlockMapEntry@@PBU_s_FuncInfo@@HHPAI1@Z 00447ab7 f   LIBCMT:trnsctrl.obj
 0001:00046b31       ?_CreateFrameInfo@@YAPAUFrameInfo@@PAU1@PAX@Z 00447b31 f   LIBCMT:trnsctrl.obj
 0001:00046b59       ?IsExceptionObjectToBeDestroyed@@YAHPAX@Z 00447b59 f   LIBCMT:trnsctrl.obj
 0001:00046b7a       ?_FindAndUnlinkFrame@@YAXPAUFrameInfo@@@Z 00447b7a f   LIBCMT:trnsctrl.obj
 0001:00046bc6       ?_CallCatchBlock2@@YAPAXPAUEHRegistrationNode@@PBU_s_FuncInfo@@PAXHK@Z 00447bc6 f   LIBCMT:trnsctrl.obj
 0001:00046c20       __global_unwind2           00447c20 f   LIBCMT:exsup.obj
 0001:00046c62       __local_unwind2            00447c62 f   LIBCMT:exsup.obj
 0001:00046cba       __NLG_Return2              00447cba     LIBCMT:exsup.obj
 0001:00046cca       __abnormal_termination     00447cca f   LIBCMT:exsup.obj
 0001:00046ced       __NLG_Notify1              00447ced f   LIBCMT:exsup.obj
 0001:00046cf6       __NLG_Notify               00447cf6 f   LIBCMT:exsup.obj
 0001:00046d09       __NLG_Dispatch             00447d09     LIBCMT:exsup.obj
 0001:00046ecd       _strtol                    00447ecd f   LIBCMT:strtol.obj
 0001:00046ee4       _strtoul                   00447ee4 f   LIBCMT:strtol.obj
 0001:00046f7b       ___onexitinit              00447f7b f   LIBCMT:onexit.obj
 0001:00046fa3       __onexit                   00447fa3 f   LIBCMT:onexit.obj
 0001:00046fdb       _atexit                    00447fdb f   LIBCMT:onexit.obj
 0001:00046fed       _rename                    00447fed f   LIBCMT:rename.obj
 0001:0004701b       __fclose_lk                0044801b f   LIBCMT:fclose.obj
 0001:00047067       _fclose                    00448067 f   LIBCMT:fclose.obj
 0001:000470b8       _feof                      004480b8 f   LIBCMT:feoferr.obj
 0001:000470c3       _ferror                    004480c3 f   LIBCMT:feoferr.obj
 0001:000470ce       __fwrite_lk                004480ce f   LIBCMT:fwrite.obj
 0001:000471d5       _fwrite                    004481d5 f   LIBCMT:fwrite.obj
 0001:00047221       __fsopen                   00448221 f   LIBCMT:fopen.obj
 0001:0004727d       _fopen                     0044827d f   LIBCMT:fopen.obj
 0001:00047290       ??0exception@@QAE@XZ       00448290 f   LIBCMT:stdexcpt.obj
 0001:000472a1       ??0exception@@QAE@ABQBD@Z  004482a1 f   LIBCMT:stdexcpt.obj
 0001:000472de       ??0exception@@QAE@ABV0@@Z  004482de f   LIBCMT:stdexcpt.obj
 0001:00047328       ??1exception@@UAE@XZ       00448328 f   LIBCMT:stdexcpt.obj
 0001:0004733e       ?what@exception@@UBEPBDXZ  0044833e f   LIBCMT:stdexcpt.obj
 0001:0004734b       ??0bad_cast@@QAE@PBD@Z     0044834b f   LIBCMT:stdexcpt.obj
 0001:00047364       ??0bad_cast@@QAE@ABV0@@Z   00448364 f   LIBCMT:stdexcpt.obj
 0001:0004737c       ??1bad_cast@@UAE@XZ        0044837c f   LIBCMT:stdexcpt.obj
 0001:00047387       ??0bad_typeid@@QAE@PBD@Z   00448387 f   LIBCMT:stdexcpt.obj
 0001:000473a0       ??0bad_typeid@@QAE@ABV0@@Z 004483a0 f   LIBCMT:stdexcpt.obj
 0001:000473b8       ??1bad_typeid@@UAE@XZ      004483b8 f   LIBCMT:stdexcpt.obj
 0001:000473c3       ??0__non_rtti_object@@QAE@PBD@Z 004483c3 f   LIBCMT:stdexcpt.obj
 0001:000473db       ??0__non_rtti_object@@QAE@ABV0@@Z 004483db f   LIBCMT:stdexcpt.obj
 0001:000473f3       ??1__non_rtti_object@@UAE@XZ 004483f3 f   LIBCMT:stdexcpt.obj
 0001:000473fe       ??_Eexception@@UAEPAXI@Z   004483fe f i LIBCMT:stdexcpt.obj
 0001:000473fe       ??_Gexception@@UAEPAXI@Z   004483fe f i LIBCMT:stdexcpt.obj
 0001:0004741a       ??4exception@@QAEAAV0@ABV0@@Z 0044841a f   LIBCMT:stdexcpt.obj
 0001:00047439       ??_Ebad_cast@@UAEPAXI@Z    00448439 f i LIBCMT:stdexcpt.obj
 0001:00047439       ??_Gbad_cast@@UAEPAXI@Z    00448439 f i LIBCMT:stdexcpt.obj
 0001:00047455       ??_Gbad_typeid@@UAEPAXI@Z  00448455 f i LIBCMT:stdexcpt.obj
 0001:00047455       ??_Ebad_typeid@@UAEPAXI@Z  00448455 f i LIBCMT:stdexcpt.obj
 0001:00047471       ??_G__non_rtti_object@@UAEPAXI@Z 00448471 f i LIBCMT:stdexcpt.obj
 0001:00047471       ??_E__non_rtti_object@@UAEPAXI@Z 00448471 f i LIBCMT:stdexcpt.obj
 0001:0004748d       ??1type_info@@UAE@XZ       0044848d f   LIBCMT:typinfo.obj
 0001:000474d3       ??_Gtype_info@@UAEPAXI@Z   004484d3 f i LIBCMT:typinfo.obj
 0001:000474d3       ??_Etype_info@@UAEPAXI@Z   004484d3 f i LIBCMT:typinfo.obj
 0001:000474ef       ??8type_info@@QBEHABV0@@Z  004484ef f   LIBCMT:typinfo.obj
 0001:0004750a       ??9type_info@@QBEHABV0@@Z  0044850a f   LIBCMT:typinfo.obj
 0001:00047526       ?before@type_info@@QBEHABV1@@Z 00448526 f   LIBCMT:typinfo.obj
 0001:00047545       ?raw_name@type_info@@QBEPBDXZ 00448545 f   LIBCMT:typinfo.obj
 0001:00047549       ??0type_info@@AAE@ABV0@@Z  00448549 f   LIBCMT:typinfo.obj
 0001:00047554       ??4type_info@@AAEAAV0@ABV0@@Z 00448554 f   LIBCMT:typinfo.obj
 0001:00047559       __fseek_lk                 00448559 f   LIBCMT:fseek.obj
 0001:000475e8       _fseek                     004485e8 f   LIBCMT:fseek.obj
 0001:00047631       __fread_lk                 00448631 f   LIBCMT:fread.obj
 0001:0004771a       _fread                     0044871a f   LIBCMT:fread.obj
 0001:00047766       _sprintf                   00448766 f   LIBCMT:sprintf.obj
 0001:000477be       __scprintf                 004487be f   LIBCMT:sprintf.obj
 0001:000477ef       ??_L@YGXPAXIHP6EX0@Z1@Z    004487ef f   LIBCMT:ehvecctr.obj
 0001:00047863       ?__ArrayUnwind@@YGXPAXIHP6EX0@Z@Z 00448863 f   LIBCMT:ehvecdtr.obj
 0001:000478c1       ??_M@YGXPAXIHP6EX0@Z@Z     004488c1 f   LIBCMT:ehvecdtr.obj
 0001:00047921       _printf                    00448921 f   LIBCMT:printf.obj
 0001:00047987       _fprintf                   00448987 f   LIBCMT:fprintf.obj
 0001:000479e5       ___iob_func                004489e5 f   LIBCMT:_file.obj
 0001:000479eb       ___initstdio               004489eb f   LIBCMT:_file.obj
 0001:00047a94       ___endstdio                00448a94 f   LIBCMT:_file.obj
 0001:00047aa8       __lock_file                00448aa8 f   LIBCMT:_file.obj
 0001:00047ad7       __lock_file2               00448ad7 f   LIBCMT:_file.obj
 0001:00047afa       __unlock_file              00448afa f   LIBCMT:_file.obj
 0001:00047b29       __unlock_file2             00448b29 f   LIBCMT:_file.obj
 0001:00047b4c       _atol                      00448b4c f   LIBCMT:atox.obj
 0001:00047bd4       _atoi                      00448bd4 f   LIBCMT:atox.obj
 0001:00047bd9       __atoi64                   00448bd9 f   LIBCMT:atox.obj
 0001:00047c80       _free                      00448c80 f   LIBCMT:free.obj
 0001:00047cf1       __heap_alloc               00448cf1 f   LIBCMT:malloc.obj
 0001:00047d6c       __nh_malloc                00448d6c f   LIBCMT:malloc.obj
 0001:00047d98       _malloc                    00448d98 f   LIBCMT:malloc.obj
 0001:00047daa       ??_V@YAXPAX@Z              00448daa f   LIBCMT:delete2.obj
 0001:00047daf       __amsg_exit                00448daf f   LIBCMT:crt0.obj
 0001:00047e4e       _mainCRTStartup            00448e4e f   LIBCMT:crt0.obj
 0001:00048018       __except_handler3          00449018 f   LIBCMT:exsup3.obj
 0001:000480fe       __seh_longjmp_unwind@4     004490fe f   LIBCMT:exsup3.obj
 0001:00048119       _abort                     00449119 f   LIBCMT:abort.obj
 0001:00048131       __purecall                 00449131 f   LIBCMT:purevirt.obj
 0001:00048145       __set_purecall_handler     00449145 f   LIBCMT:purevirt.obj
 0001:00048155       _isalpha                   00449155 f   LIBCMT:_ctype.obj
 0001:00048194       _isupper                   00449194 f   LIBCMT:_ctype.obj
 0001:000481ce       _islower                   004491ce f   LIBCMT:_ctype.obj
 0001:00048208       _isdigit                   00449208 f   LIBCMT:_ctype.obj
 0001:00048242       _isxdigit                  00449242 f   LIBCMT:_ctype.obj
 0001:00048281       _isspace                   00449281 f   LIBCMT:_ctype.obj
 0001:000482bb       _ispunct                   004492bb f   LIBCMT:_ctype.obj
 0001:000482f5       _isalnum                   004492f5 f   LIBCMT:_ctype.obj
 0001:00048334       _isprint                   00449334 f   LIBCMT:_ctype.obj
 0001:00048373       _isgraph                   00449373 f   LIBCMT:_ctype.obj
 0001:000483b2       _iscntrl                   004493b2 f   LIBCMT:_ctype.obj
 0001:000483ec       ___isascii                 004493ec f   LIBCMT:_ctype.obj
 0001:000483f9       ___toascii                 004493f9 f   LIBCMT:_ctype.obj
 0001:00048401       ___iscsymf                 00449401 f   LIBCMT:_ctype.obj
 0001:0004841b       ___iscsym                  0044941b f   LIBCMT:_ctype.obj
 0001:00048450       _strchr                    00449450 f   LIBCMT:strchr.obj
 0001:00048456       ___from_strstr_to_strchr   00449456     LIBCMT:strchr.obj
 0001:0004850e       _fgets                     0044950e f   LIBCMT:fgets.obj
 0001:00048594       _strtod                    00449594 f   LIBCMT:strtod.obj
 0001:00048622       __fpclear                  00449622 f   LIBCMT:fpinit.obj
 0001:00048623       __cfltcvt_init             00449623 f   LIBCMT:fpinit.obj
 0001:0004865b       ___setfflag                0044965b f   LIBCMT:fpinit.obj
 0001:0004866b       __fpmath                   0044966b f   LIBCMT:fpinit.obj
 0001:00048689       __tolower                  00449689 f   LIBCMT:tolower.obj
 0001:00048691       ___tolower_mt              00449691 f   LIBCMT:tolower.obj
 0001:00048759       _tolower                   00449759 f   LIBCMT:tolower.obj
 0001:0004877b       __toupper                  0044977b f   LIBCMT:toupper.obj
 0001:00048783       ___toupper_mt              00449783 f   LIBCMT:toupper.obj
 0001:0004884c       _toupper                   0044984c f   LIBCMT:toupper.obj
 0001:0004886e       __fullpath                 0044986e f   LIBCMT:fullpath.obj
 0001:00048918       __Getdays                  00449918 f   LIBCMT:strftime.obj
 0001:00048997       __Getmonths                00449997 f   LIBCMT:strftime.obj
 0001:00048a2c       __Gettnames                00449a2c f   LIBCMT:strftime.obj
 0001:0004941e       __Strftime_mt              0044a41e f   LIBCMT:strftime.obj
 0001:000494e3       __Strftime                 0044a4e3 f   LIBCMT:strftime.obj
 0001:00049515       _strftime                  0044a515 f   LIBCMT:strftime.obj
 0001:00049530       _localtime                 0044a530 f   LIBCMT:localtim.obj
 0001:000496b0       _time                      0044a6b0 f   LIBCMT:time.obj
 0001:000496e9       __flush                    0044a6e9 f   LIBCMT:fflush.obj
 0001:00049746       __fflush_lk                0044a746 f   LIBCMT:fflush.obj
 0001:00049849       _fflush                    0044a849 f   LIBCMT:fflush.obj
 0001:00049899       __flushall                 0044a899 f   LIBCMT:fflush.obj
 0001:000498a2       _vfprintf                  0044a8a2 f   LIBCMT:vfprintf.obj
 0001:000498ff       ?set_terminate@@YAP6AXXZP6AXXZ@Z 0044a8ff f   LIBCMT:user.obj
 0001:00049918       ?set_unexpected@@YAP6AXXZP6AXXZ@Z 0044a918 f   LIBCMT:user.obj
 0001:00049931       ?_set_se_translator@@YAP6AXIPAU_EXCEPTION_POINTERS@@@ZP6AXI0@Z@Z 0044a931 f   LIBCMT:user.obj
 0001:0004994a       ?__set_inconsistency@@YAP6AXXZP6AXXZ@Z 0044a94a f   LIBCMT:user.obj
 0001:0004995a       __mbsrchr                  0044a95a f   LIBCMT:mbsrchr.obj
 0001:000499d0       __allmul                   0044a9d0 f   LIBCMT:llmul.obj
 0001:00049a10       __aulldiv                  0044aa10 f   LIBCMT:ulldiv.obj
 0001:00049a80       __alldiv                   0044aa80 f   LIBCMT:lldiv.obj
 0001:00049b30       __aulldvrm                 0044ab30 f   LIBCMT:ulldvrm.obj
 0001:00049bd0       _strncat                   0044abd0 f   LIBCMT:strncat.obj
 0001:00049d05       ____setlc_active_func      0044ad05 f   LIBCMT:setlocal.obj
 0001:00049d0b       ____unguarded_readlc_active_add_func 0044ad0b f   LIBCMT:setlocal.obj
 0001:00049d11       ___freetlocinfo            0044ad11 f   LIBCMT:setlocal.obj
 0001:00049ea2       ___init_dummy              0044aea2 f   LIBCMT:setlocal.obj
 0001:00049ea5       __strcats                  0044aea5 f   LIBCMT:setlocal.obj
 0001:00049ec9       ___lc_strtolc              0044aec9 f   LIBCMT:setlocal.obj
 0001:00049fa5       ___lc_lctostr              0044afa5 f   LIBCMT:setlocal.obj
 0001:00049ff3       ___updatetlocinfo          0044aff3 f   LIBCMT:setlocal.obj
 0001:0004a0ed       __expandlocale             0044b0ed f   LIBCMT:setlocal.obj
 0001:0004a6b1       _setlocale                 0044b6b1 f   LIBCMT:setlocal.obj
 0001:0004a80b       _realloc                   0044b80b f   LIBCMT:realloc.obj
 0001:0004a9b8       __vsnprintf                0044b9b8 f   LIBCMT:vsnprint.obj
 0001:0004aa10       __alloca_probe             0044ba10     LIBCMT:chkstk.obj
 0001:0004aa10       __chkstk                   0044ba10 f   LIBCMT:chkstk.obj
 0001:0004aa50       _strncpy                   0044ba50 f   LIBCMT:strncpy.obj
 0001:0004ab74       __ioinit                   0044bb74 f   LIBCMT:ioinit.obj
 0001:0004ad72       __ioterm                   0044bd72 f   LIBCMT:ioinit.obj
 0001:0004adbe       __set_osfhnd               0044bdbe f   LIBCMT:osfinfo.obj
 0001:0004ae3a       __free_osfhnd              0044be3a f   LIBCMT:osfinfo.obj
 0001:0004aeb9       __get_osfhandle            0044beb9 f   LIBCMT:osfinfo.obj
 0001:0004aefa       __lock_fhandle             0044befa f   LIBCMT:osfinfo.obj
 0001:0004af9a       __unlock_fhandle           0044bf9a f   LIBCMT:osfinfo.obj
 0001:0004afbc       __alloc_osfhnd             0044bfbc f   LIBCMT:osfinfo.obj
 0001:0004b138       __open_osfhandle           0044c138 f   LIBCMT:osfinfo.obj
 0001:0004b200       _memchr                    0044c200 f   LIBCMT:memchr.obj
 0001:0004b2b0       __allshl                   0044c2b0 f   LIBCMT:llshl.obj
 0001:0004b2d0       __aullshr                  0044c2d0 f   LIBCMT:ullshr.obj
 0001:0004b2ef       __copysign                 0044c2ef f   LIBCMT:ieeemisc.obj
 0001:0004b310       __chgsign                  0044c310 f   LIBCMT:ieeemisc.obj
 0001:0004b336       __scalb                    0044c336 f   LIBCMT:ieeemisc.obj
 0001:0004b34c       __logb                     0044c34c f   LIBCMT:ieeemisc.obj
 0001:0004b437       __nextafter                0044c437 f   LIBCMT:ieeemisc.obj
 0001:0004b6da       __finite                   0044c6da f   LIBCMT:ieeemisc.obj
 0001:0004b6ef       __isnan                    0044c6ef f   LIBCMT:ieeemisc.obj
 0001:0004b71d       __fpclass                  0044c71d f   LIBCMT:ieeemisc.obj
 0001:0004b7b9       __fpcvt                    0044c7b9 f   LIBCMT:fcvt.obj
 0001:0004b816       __fcvt                     0044c816 f   LIBCMT:fcvt.obj
 0001:0004b857       __ecvt                     0044c857 f   LIBCMT:fcvt.obj
 0001:0004b8a2       _setvbuf                   0044c8a2 f   LIBCMT:setvbuf.obj
 0001:0004b97e       __ftell_lk                 0044c97e f   LIBCMT:ftell.obj
 0001:0004bae0       _ftell                     0044cae0 f   LIBCMT:ftell.obj
 0001:0004bb21       _fgetpos                   0044cb21 f   LIBCMT:fgetpos.obj
 0001:0004bb43       _fsetpos                   0044cb43 f   LIBCMT:fsetpos.obj
 0001:0004bb5b       __ungetc_lk                0044cb5b f   LIBCMT:ungetc.obj
 0001:0004bbc7       _ungetc                    0044cbc7 f   LIBCMT:ungetc.obj
 0001:0004bc0c       _fgetc                     0044cc0c f   LIBCMT:fgetc.obj
 0001:0004bc5c       _getc                      0044cc5c f   LIBCMT:fgetc.obj
 0001:0004bcac       _fputc                     0044ccac f   LIBCMT:fputc.obj
 0001:0004bd04       _putc                      0044cd04 f   LIBCMT:fputc.obj
 0001:0004bd60       _strcspn                   0044cd60 f   LIBCMT:strcspn.obj
 0001:0004bdb0       _strstr                    0044cdb0 f   LIBCMT:strstr.obj
 0001:0004be36       ?_set_new_handler@@YAP6AHI@ZP6AHI@Z@Z 0044ce36 f   LIBCMT:handler.obj
 0001:0004be5a       ?_query_new_handler@@YAP6AHI@ZXZ 0044ce5a f   LIBCMT:handler.obj
 0001:0004be60       __callnewh                 0044ce60 f   LIBCMT:handler.obj
 0001:0004be7b       ?__CxxUnhandledExceptionFilter@@YGJPAU_EXCEPTION_POINTERS@@@Z 0044ce7b f   LIBCMT:unhandld.obj
 0001:0004bec9       ?__CxxSetUnhandledExceptionFilter@@YAHXZ 0044cec9 f   LIBCMT:unhandld.obj
 0001:0004bedc       ?__CxxRestoreUnhandledExceptionFilter@@YAXXZ 0044cedc f   LIBCMT:unhandld.obj
 0001:0004bf56       ___FrameUnwindToState      0044cf56 f   LIBCMT:frame.obj
 0001:0004c054       ___DestructExceptionObject 0044d054 f   LIBCMT:frame.obj
 0001:0004c0b8       ?__uncaught_exception@@YA_NXZ 0044d0b8 f   LIBCMT:frame.obj
 0001:0004c0cb       ___CxxRegisterExceptionObject 0044d0cb f   LIBCMT:frame.obj
 0001:0004c16e       ___CxxDetectRethrow        0044d16e f   LIBCMT:frame.obj
 0001:0004c1a6       ___CxxUnregisterExceptionObject 0044d1a6 f   LIBCMT:frame.obj
 0001:0004c244       ___CxxQueryExceptionSize   0044d244 f   LIBCMT:frame.obj
 0001:0004c248       ___CxxCallUnwindDtor       0044d248 f   LIBCMT:frame.obj
 0001:0004c276       ___CxxCallUnwindVecDtor    0044d276 f   LIBCMT:frame.obj
 0001:0004c5ed       ___CxxExceptionFilter      0044d5ed f   LIBCMT:frame.obj
 0001:0004ca3b       ___InternalCxxFrameHandler 0044da3b f   LIBCMT:frame.obj
 0001:0004cadd       ___crtTlsAlloc@4           0044dadd f   LIBCMT:tidtable.obj
 0001:0004cae6       __mtterm                   0044dae6 f   LIBCMT:tidtable.obj
 0001:0004cb03       __initptd                  0044db03 f   LIBCMT:tidtable.obj
 0001:0004cb16       __getptd                   0044db16 f   LIBCMT:tidtable.obj
 0001:0004cb87       __freefls@4                0044db87 f   LIBCMT:tidtable.obj
 0001:0004ccce       __freeptd                  0044dcce f   LIBCMT:tidtable.obj
 0001:0004ccfd       ___threadid                0044dcfd f   LIBCMT:tidtable.obj
 0001:0004cd03       ___threadhandle            0044dd03 f   LIBCMT:tidtable.obj
 0001:0004cd09       __mtinit                   0044dd09 f   LIBCMT:tidtable.obj
 0001:0004cdf8       ?terminate@@YAXXZ          0044ddf8 f   LIBCMT:hooks.obj
 0001:0004ce2d       ?unexpected@@YAXXZ         0044de2d f   LIBCMT:hooks.obj
 0001:0004ce45       ?_inconsistency@@YAXXZ     0044de45 f   LIBCMT:hooks.obj
 0001:0004ce80       __CallSettingFrame@12      0044de80 f   LIBCMT:lowhelpr.obj
 0001:0004cea7       __NLG_Return               0044dea7     LIBCMT:lowhelpr.obj
 0001:0004cecc       __errno                    0044decc f   LIBCMT:dosmap.obj
 0001:0004ced5       ___doserrno                0044ded5 f   LIBCMT:dosmap.obj
 0001:0004cede       __dosmaperr                0044dede f   LIBCMT:dosmap.obj
 0001:0004cf51       ___pwctype_func            0044df51 f   LIBCMT:ctype.obj
 0001:0004cf57       ___pctype_func             0044df57 f   LIBCMT:ctype.obj
 0001:0004cf5d       ___isctype_mt              0044df5d f   LIBCMT:isctype.obj
 0001:0004cfd4       __isctype                  0044dfd4 f   LIBCMT:isctype.obj
 0001:0004cffb       ___crtExitProcess          0044dffb f   LIBCMT:crt0dat.obj
 0001:0004d02b       __lockexit                 0044e02b f   LIBCMT:crt0dat.obj
 0001:0004d034       __unlockexit               0044e034 f   LIBCMT:crt0dat.obj
 0001:0004d073       __cinit                    0044e073 f   LIBCMT:crt0dat.obj
 0001:0004d1a0       _exit                      0044e1a0 f   LIBCMT:crt0dat.obj
 0001:0004d1b1       __exit                     0044e1b1 f   LIBCMT:crt0dat.obj
 0001:0004d1c2       __cexit                    0044e1c2 f   LIBCMT:crt0dat.obj
 0001:0004d1d1       __c_exit                   0044e1d1 f   LIBCMT:crt0dat.obj
 0001:0004d1e0       __msize                    0044e1e0 f   LIBCMT:msize.obj
 0001:0004d258       __SEH_prolog               0044e258 f   LIBCMT:sehprolg.obj
 0001:0004d293       __SEH_epilog               0044e293 f   LIBCMT:sehprolg.obj
 0001:0004d2a4       __close_lk                 0044e2a4 f   LIBCMT:close.obj
 0001:0004d327       __close                    0044e327 f   LIBCMT:close.obj
 0001:0004d3c2       __freebuf                  0044e3c2 f   LIBCMT:_freebuf.obj
 0001:0004d3ed       __flsbuf                   0044e3ed f   LIBCMT:_flsbuf.obj
 0001:0004d506       __write_lk                 0044e506 f   LIBCMT:write.obj
 0001:0004d6d4       __write                    0044e6d4 f   LIBCMT:write.obj
 0001:0004d780       _memcpy                    0044e780 f   LIBCMT:memcpy.obj
 0001:0004dabd       __openfile                 0044eabd f   LIBCMT:_open.obj
 0001:0004dc25       __getstream                0044ec25 f   LIBCMT:stream.obj
 0001:0004dd50       _strcpy                    0044ed50 f   LIBCMT:strcat.obj
 0001:0004dd60       _strcat                    0044ed60 f   LIBCMT:strcat.obj
 0001:0004de50       _strlen                    0044ee50 f   LIBCMT:strlen.obj
 0001:0004dedb       __mtinitlocks              0044eedb f   LIBCMT:mlock.obj
 0001:0004df24       __mtdeletelocks            0044ef24 f   LIBCMT:mlock.obj
 0001:0004df79       __unlock                   0044ef79 f   LIBCMT:mlock.obj
 0001:0004df8e       __lockerr_exit             0044ef8e f   LIBCMT:mlock.obj
 0001:0004dfa6       __mtinitlocknum            0044efa6 f   LIBCMT:mlock.obj
 0001:0004e046       __lock                     0044f046 f   LIBCMT:mlock.obj
 0001:0004e080       _strcmp                    0044f080 f   LIBCMT:strcmp.obj
 0001:0004e108       __lseek_lk                 0044f108 f   LIBCMT:lseek.obj
 0001:0004e17c       __lseek                    0044f17c f   LIBCMT:lseek.obj
 0001:0004e227       __filbuf                   0044f227 f   LIBCMT:_filbuf.obj
 0001:0004e308       __read_lk                  0044f308 f   LIBCMT:read.obj
 0001:0004e4e3       __read                     0044f4e3 f   LIBCMT:read.obj
 0001:0004e63b       __output                   0044f63b f   LIBCMT:output.obj
 0001:0004ee35       __stbuf                    0044fe35 f   LIBCMT:_sftbuf.obj
 0001:0004eebd       __ftbuf                    0044febd f   LIBCMT:_sftbuf.obj
 0001:0004eee7       _calloc                    0044fee7 f   LIBCMT:calloc.obj
 0001:0004efa2       __fcloseall                0044ffa2 f   LIBCMT:closeall.obj
 0001:0004f03d       ___heap_select             0045003d f   LIBCMT:heapinit.obj
 0001:0004f057       __heap_init                00450057 f   LIBCMT:heapinit.obj
 0001:0004f0a8       __heap_term                004500a8 f   LIBCMT:heapinit.obj
 0001:0004f127       __get_heap_handle          00450127 f   LIBCMT:heapinit.obj
 0001:0004f12d       __get_sbh_threshold        0045012d f   LIBCMT:sbheap.obj
 0001:0004f142       ___sbh_heap_init           00450142 f   LIBCMT:sbheap.obj
 0001:0004f18a       ___sbh_find_block          0045018a f   LIBCMT:sbheap.obj
 0001:0004f1b5       ___sbh_free_block          004501b5 f   LIBCMT:sbheap.obj
 0001:0004f4cd       ___sbh_alloc_new_region    004504cd f   LIBCMT:sbheap.obj
 0001:0004f584       ___sbh_alloc_new_group     00450584 f   LIBCMT:sbheap.obj
 0001:0004f68a       ___sbh_resize_block        0045068a f   LIBCMT:sbheap.obj
 0001:0004f969       ___sbh_heapmin             00450969 f   LIBCMT:sbheap.obj
 0001:0004fa3a       ___sbh_heap_check          00450a3a f   LIBCMT:sbheap.obj
 0001:0004fd53       __set_sbh_threshold        00450d53 f   LIBCMT:sbheap.obj
 0001:0004fdae       ___sbh_alloc_block         00450dae f   LIBCMT:sbheap.obj
 0001:000500aa       __NMSG_WRITE               004510aa f   LIBCMT:crt0msg.obj
 0001:00050221       __GET_RTERRMSG             00451221 f   LIBCMT:crt0msg.obj
 0001:0005024b       __FF_MSGBANNER             0045124b f   LIBCMT:crt0msg.obj
 0001:000502b0       __XcptFilter               004512b0 f   LIBCMT:winxfltr.obj
 0001:00050414       ___CppXcptFilter           00451414 f   LIBCMT:winxfltr.obj
 0001:0005042f       __setenvp                  0045142f f   LIBCMT:stdenvp.obj
 0001:00050662       __setargv                  00451662 f   LIBCMT:stdargv.obj
 0001:00050704       ___crtGetEnvironmentStringsA 00451704 f   LIBCMT:a_env.obj
 0001:00050826       __RTC_Initialize           00451826 f   LIBCMT:initsect.obj
 0001:0005086a       __RTC_Terminate            0045186a f   LIBCMT:initsect.obj
 0001:000508ae       __ValidateEH3RN            004518ae f   LIBCMT:eh3valid.obj
 0001:00050b94       ___fpecode                 00451b94 f   LIBCMT:winsig.obj
 0001:00050b9d       ___pxcptinfoptrs           00451b9d f   LIBCMT:winsig.obj
 0001:00050ba6       _signal                    00451ba6 f   LIBCMT:winsig.obj
 0001:00050d47       _raise                     00451d47 f   LIBCMT:winsig.obj
 0001:00050ec0       __fltin2                   00451ec0 f   LIBCMT:cfin.obj
 0001:00050f55       __forcdecpt                00451f55 f   LIBCMT:cvt.obj
 0001:00050f91       __cropzeros                00451f91 f   LIBCMT:cvt.obj
 0001:00050fdc       __positive                 00451fdc f   LIBCMT:cvt.obj
 0001:00050ff6       __fassign                  00451ff6 f   LIBCMT:cvt.obj
 0001:000510ff       __cftoe                    004520ff f   LIBCMT:cvt.obj
 0001:00051207       __cftof                    00452207 f   LIBCMT:cvt.obj
 0001:00051269       __cftog                    00452269 f   LIBCMT:cvt.obj
 0001:00051303       __cfltcvt                  00452303 f   LIBCMT:cvt.obj
 0001:00051354       __setdefaultprecision      00452354 f   LIBCMT:fp8.obj
 0001:00051366       __ms_p5_test_fdiv          00452366 f   LIBCMT:testfdiv.obj
 0001:000513a6       __ms_p5_mp_test_fdiv       004523a6 f   LIBCMT:testfdiv.obj
 0001:000513eb       ___crtLCMapStringA         004523eb f   LIBCMT:a_map.obj
 0001:000517a7       __validdrive               004527a7 f   LIBCMT:getcwd.obj
 0001:000517de       __getdcwd_lk               004527de f   LIBCMT:getcwd.obj
 0001:000518c9       _getcwd                    004528c9 f   LIBCMT:getcwd.obj
 0001:000518c9       __getcwd                   004528c9 f   LIBCMT:getcwd.obj
 0001:0005190f       __getdcwd                  0045290f f   LIBCMT:getcwd.obj
 0001:00051f3d       ___tzset                   00452f3d f   LIBCMT:tzset.obj
 0001:00051f89       __tzset                    00452f89 f   LIBCMT:tzset.obj
 0001:00051fbe       __isindst                  00452fbe f   LIBCMT:tzset.obj
 0001:00052000       ___ascii_stricmp           00453000 f   LIBCMT:_stricmp.obj
 0001:0005204e       __resetstkoflw             0045304e f   LIBCMT:resetstk.obj
 0001:00052131       _gmtime                    00453131 f   LIBCMT:gmtime.obj
 0001:00052238       __commit                   00453238 f   LIBCMT:commit.obj
 0001:00052300       _strrchr                   00453300 f   LIBCMT:strrchr.obj
