 poltool

 Timestamp is 4743ce5a (Tue Nov 20 22:21:14 2007)

 Preferred load address is 00400000

 Start         Length     Name                   Class
 0001:00000000 0004e6a0H .text                   CODE
 0001:0004e6a0 0000381aH .text$x                 CODE
 0001:00051ec0 00000886H .text$yc                CODE
 0001:00052750 000004daH .text$yd                CODE
 0002:00000000 000001acH .idata$5                DATA
 0002:000001b0 00005918H .rdata                  DATA
 0002:00005ac8 0000003fH .rdata$debug            DATA
 0002:00005b08 00001584H .rdata$r                DATA
 0002:00007090 00000478H .rdata$sxdata           DATA
 0002:00007508 00000004H .rtc$IAA                DATA
 0002:0000750c 00000004H .rtc$IZZ                DATA
 0002:00007510 00000004H .rtc$TAA                DATA
 0002:00007514 00000004H .rtc$TZZ                DATA
 0002:00007518 00004124H .xdata$x                DATA
 0002:0000b63c 00000028H .idata$2                DATA
 0002:0000b664 00000014H .idata$3                DATA
 0002:0000b678 000001acH .idata$4                DATA
 0002:0000b824 0000078eH .idata$6                DATA
 0002:0000bfb2 00000000H .edata                  DATA
 0003:00000000 00000004H .CRT$XCA                DATA
 0003:00000004 00000004H .CRT$XCAA               DATA
 0003:00000008 000000dcH .CRT$XCU                DATA
 0003:000000e4 00000004H .CRT$XCZ                DATA
 0003:000000e8 00000004H .CRT$XIA                DATA
 0003:000000ec 0000000cH .CRT$XIC                DATA
 0003:000000f8 00000004H .CRT$XIY                DATA
 0003:000000fc 00000004H .CRT$XIZ                DATA
 0003:00000100 00000004H .CRT$XPA                DATA
 0003:00000104 00000004H .CRT$XPX                DATA
 0003:00000108 00000004H .CRT$XPZ                DATA
 0003:0000010c 00000004H .CRT$XTA                DATA
 0003:00000110 00000004H .CRT$XTB                DATA
 0003:00000114 00000004H .CRT$XTZ                DATA
 0003:00000120 00002547H .data                   DATA
 0003:00002680 00003668H .bss                    DATA
 0004:00000000 00000020H STLPORT_NO_INIT         DATA

  Address         Publics by Value              Rva+Base     Lib:Object

 0000:00000000       __except_list              00000000     <absolute>
 0000:0000011e       ___safe_se_handler_count   0000011e     <absolute>
 0001:00000000       ?__copy_trivial@_STL@@YAPAXPBX0PAX@Z 00401000 f i poltool.obj
 0001:00000030       ?__stl_new@_STL@@YAPAXI@Z  00401030 f i poltool.obj
 0001:00000040       ?__stl_delete@_STL@@YAXPAX@Z 00401040 f i poltool.obj
 0001:00000050       ?_Destroy@_STL@@YAXPAD0@Z  00401050 f i poltool.obj
 0001:00000060       ?uninitialized_copy@_STL@@YAPADPBD0PAD@Z 00401060 f i poltool.obj
 0001:00000090       ?_M_initialize@_STLP_mutex_base@_STL@@QAEXXZ 00401090 f i poltool.obj
 0001:000000a0       ?_M_destroy@_STLP_mutex_base@_STL@@QAEXXZ 004010a0 f i poltool.obj
 0001:000000b0       ??0_STLP_mutex@_STL@@QAE@XZ 004010b0 f i poltool.obj
 0001:000000c0       ??1_STLP_mutex@_STL@@QAE@XZ 004010c0 f i poltool.obj
 0001:000000d0       ?to_int_type@?$char_traits@D@_STL@@SAHABD@Z 004010d0 f i poltool.obj
 0001:000000e0       ?compare@?$char_traits@D@_STL@@SAHPBD0I@Z 004010e0 f i poltool.obj
 0001:00000100       ?length@?$char_traits@D@_STL@@SAIPBD@Z 00401100 f i poltool.obj
 0001:00000120       ?assign@?$char_traits@D@_STL@@SAXAADABD@Z 00401120 f i poltool.obj
 0001:00000130       ?__set@__ptr_base@_STL@@QAEXPAX@Z 00401130 f i poltool.obj
 0001:00000140       ?widen@?$ctype@D@_STL@@QBEDD@Z 00401140 f i poltool.obj
 0001:00000150       ?flags@ios_base@_STL@@QBEHXZ 00401150 f i poltool.obj
 0001:00000160       ?flags@ios_base@_STL@@QAEHH@Z 00401160 f i poltool.obj
 0001:00000170       ?precision@ios_base@_STL@@QAEHH@Z 00401170 f i poltool.obj
 0001:00000180       ?width@ios_base@_STL@@QBEHXZ 00401180 f i poltool.obj
 0001:00000190       ?width@ios_base@_STL@@QAEHH@Z 00401190 f i poltool.obj
 0001:000001a0       ?getloc@ios_base@_STL@@QBE?AVlocale@2@XZ 004011a0 f i poltool.obj
 0001:000001c0       ?rdstate@ios_base@_STL@@QBEHXZ 004011c0 f i poltool.obj
 0001:000001d0       ?good@ios_base@_STL@@QBE_NXZ 004011d0 f i poltool.obj
 0001:000001e0       ?_M_setstate_nothrow@ios_base@_STL@@IAEXH@Z 004011e0 f i poltool.obj
 0001:000001f0       ?_M_clear_nothrow@ios_base@_STL@@IAEXH@Z 004011f0 f i poltool.obj
 0001:00000200       ?_M_get_exception_mask@ios_base@_STL@@IBEHXZ 00401200 f i poltool.obj
 0001:00000210       ?_M_set_exception_mask@ios_base@_STL@@IAEXH@Z 00401210 f i poltool.obj
 0001:00000220       ?_M_check_exception_mask@ios_base@_STL@@IAEXXZ 00401220 f i poltool.obj
 0001:00000230       ?_M_ctype_facet@ios_base@_STL@@QBEPBVfacet@locale@2@XZ 00401230 f i poltool.obj
 0001:00000240       ?_FILE_I_avail@_STL@@YAHPBU_iobuf@@@Z 00401240 f i poltool.obj
 0001:00000250       ?_FILE_I_postincr@_STL@@YAAADPAU_iobuf@@@Z 00401250 f i poltool.obj
 0001:00000260       ?_FILE_I_set@_STL@@YAXPAU_iobuf@@PAD11@Z 00401260 f i poltool.obj
 0001:00000280       ?_FILE_O_avail@_STL@@YAHPBU_iobuf@@@Z 00401280 f i poltool.obj
 0001:00000290       ?_FILE_O_postincr@_STL@@YAAADPAU_iobuf@@@Z 00401290 f i poltool.obj
 0001:000002a0       ?_FILE_O_set@_STL@@YAXPAU_iobuf@@PAD11@Z 004012a0 f i poltool.obj
 0001:000002c0       ??0?$basic_streambuf@DV?$char_traits@D@_STL@@@_STL@@IAE@XZ 004012c0 f i poltool.obj
 0001:00000300       ?setg@?$basic_streambuf@DV?$char_traits@D@_STL@@@_STL@@IAEXPAD00@Z 00401300 f i poltool.obj
 0001:00000320       ?setp@?$basic_streambuf@DV?$char_traits@D@_STL@@@_STL@@IAEXPAD0@Z 00401320 f i poltool.obj
 0001:00000340       ?pubsync@?$basic_streambuf@DV?$char_traits@D@_STL@@@_STL@@QAEHXZ 00401340 f i poltool.obj
 0001:00000350       ?sputc@?$basic_streambuf@DV?$char_traits@D@_STL@@@_STL@@QAEHD@Z 00401350 f i poltool.obj
 0001:00000390       ?sputn@?$basic_streambuf@DV?$char_traits@D@_STL@@@_STL@@QAEHPBDH@Z 00401390 f i poltool.obj
 0001:000003a0       ?_M_sputnc@?$basic_streambuf@DV?$char_traits@D@_STL@@@_STL@@QAEHDH@Z 004013a0 f i poltool.obj
 0001:000003b0       ??_E?$basic_streambuf@DV?$char_traits@D@_STL@@@_STL@@UAEPAXI@Z 004013b0 f i poltool.obj
 0001:000003b0       ??_G?$basic_streambuf@DV?$char_traits@D@_STL@@@_STL@@UAEPAXI@Z 004013b0 f i poltool.obj
 0001:000003d0       ?unshift@?$codecvt@DDH@_STL@@QBE?AW4result@codecvt_base@2@AAHPAD1AAPAD@Z 004013d0 f i poltool.obj
 0001:000003e0       ?encoding@?$codecvt@DDH@_STL@@QBEHXZ 004013e0 f i poltool.obj
 0001:000003f0       ?always_noconv@?$codecvt@DDH@_STL@@QBE_NXZ 004013f0 f i poltool.obj
 0001:00000400       ?max_length@?$codecvt@DDH@_STL@@QBEHXZ 00401400 f i poltool.obj
 0001:00000410       ?__is_open@_Filebuf_base@_STL@@QBE_NXZ 00401410 f i poltool.obj
 0001:00000420       ?eof@?$__char_traits_base@DH@_STL@@SAHXZ 00401420 f i poltool.obj
 0001:00000430       ??0?$allocator@D@_STL@@QAE@XZ 00401430 f i poltool.obj
 0001:00000440       ??1?$allocator@D@_STL@@QAE@XZ 00401440 f i poltool.obj
 0001:00000450       ?_M_write@?$basic_filebuf@DV?$char_traits@D@_STL@@@_STL@@QAE_NPADH@Z 00401450 f i poltool.obj
 0001:00000460       ??1?$basic_ios@DV?$char_traits@D@_STL@@@_STL@@UAE@XZ 00401460 f i poltool.obj
 0001:00000470       ??6?$basic_ostream@DV?$char_traits@D@_STL@@@_STL@@QAEAAV01@P6AAAV01@AAV01@@Z@Z 00401470 f i poltool.obj
 0001:00000480       ?size@?$vector@UMapShape@@V?$allocator@UMapShape@@@_STL@@@_STL@@QBEIXZ 00401480 f i poltool.obj
 0001:000004a0       ??0?$allocator@UMapShape@@@_STL@@QAE@XZ 004014a0 f i poltool.obj
 0001:000004b0       ??1?$allocator@UMapShape@@@_STL@@QAE@XZ 004014b0 f i poltool.obj
 0001:000004c0       ??0?$auto_ptr@VMapServer@@@_STL@@QAE@PAVMapServer@@@Z 004014c0 f i poltool.obj
 0001:000004d0       ??_E?$basic_ios@DV?$char_traits@D@_STL@@@_STL@@UAEPAXI@Z 004014d0 f i poltool.obj
 0001:000004d0       ??_G?$basic_ios@DV?$char_traits@D@_STL@@@_STL@@UAEPAXI@Z 004014d0 f i poltool.obj
 0001:000004f0       ?open@?$basic_filebuf@DV?$char_traits@D@_STL@@@_STL@@QAEPAV12@PBDH@Z 004014f0 f i poltool.obj
 0001:00000510       ?begin@?$vector@UMapShape@@V?$allocator@UMapShape@@@_STL@@@_STL@@QAEPAUMapShape@@XZ 00401510 f i poltool.obj
 0001:00000520       ?get@?$auto_ptr@VMapServer@@@_STL@@QBEPAVMapServer@@XZ 00401520 f i poltool.obj
 0001:00000530       ??1?$_STLP_alloc_proxy@PADDV?$allocator@D@_STL@@@_STL@@QAE@XZ 00401530 f i poltool.obj
 0001:00000540       ??1?$_STLP_alloc_proxy@PAUMapShape@@U1@V?$allocator@UMapShape@@@_STL@@@_STL@@QAE@XZ 00401540 f i poltool.obj
 0001:00000550       ?rdbuf@?$basic_ios@DV?$char_traits@D@_STL@@@_STL@@QBEPAV?$basic_streambuf@DV?$char_traits@D@_STL@@@2@XZ 00401550 f i poltool.obj
 0001:00000560       ??0?$allocator@UMapShape@@@_STL@@QAE@ABV01@@Z 00401560 f i poltool.obj
 0001:00000570       ?deallocate@?$__node_alloc@$00$0A@@_STL@@SAXPAXI@Z 00401570 f i poltool.obj
 0001:000005a0       ??0?$basic_ios@DV?$char_traits@D@_STL@@@_STL@@IAE@XZ 004015a0 f i poltool.obj
 0001:000005c0       ??1?$basic_ostream@DV?$char_traits@D@_STL@@@_STL@@UAE@XZ 004015c0 f i poltool.obj
 0001:000005d0       ?eq_int_type@?$__char_traits_base@DH@_STL@@SA_NABH0@Z 004015d0 f i poltool.obj
 0001:000005f0       ?size@?$basic_string@DV?$char_traits@D@_STL@@V?$allocator@D@2@@_STL@@QBEIXZ 004015f0 f i poltool.obj
 0001:00000600       ?data@?$basic_string@DV?$char_traits@D@_STL@@V?$allocator@D@2@@_STL@@QBEPBDXZ 00401600 f i poltool.obj
 0001:00000610       ?is_open@?$basic_filebuf@DV?$char_traits@D@_STL@@@_STL@@QBE_NXZ 00401610 f i poltool.obj
 0001:00000620       ?tie@?$basic_ios@DV?$char_traits@D@_STL@@@_STL@@QAEPAV?$basic_ostream@DV?$char_traits@D@_STL@@@2@PAV32@@Z 00401620 f i poltool.obj
 0001:00000630       ?fill@?$basic_ios@DV?$char_traits@D@_STL@@@_STL@@QBEDXZ 00401630 f i poltool.obj
 0001:00000640       ?fill@?$basic_ios@DV?$char_traits@D@_STL@@@_STL@@QAEDD@Z 00401640 f i poltool.obj
 0001:00000650       ??Bsentry@?$basic_ostream@DV?$char_traits@D@_STL@@@_STL@@QBE_NXZ 00401650 f i poltool.obj
 0001:00000660       ?put@?$num_put@DV?$ostreambuf_iterator@DV?$char_traits@D@_STL@@@_STL@@@_STL@@QBE?AV?$ostreambuf_iterator@DV?$char_traits@D@_STL@@@2@V32@AAVios_base@2@DJ@Z 00401660 f i poltool.obj
 0001:00000690       ??0?$ostreambuf_iterator@DV?$char_traits@D@_STL@@@_STL@@QAE@PAV?$basic_streambuf@DV?$char_traits@D@_STL@@@1@@Z 00401690 f i poltool.obj
 0001:000006b0       ?failed@?$ostreambuf_iterator@DV?$char_traits@D@_STL@@@_STL@@QBE_NXZ 004016b0 f i poltool.obj
 0001:000006c0       ??0?$allocator@D@_STL@@QAE@ABV01@@Z 004016c0 f i poltool.obj
 0001:000006d0       ?_M_exit_input_mode@?$basic_filebuf@DV?$char_traits@D@_STL@@@_STL@@AAEXXZ 004016d0 f i poltool.obj
 0001:00000700       ?_M_deallocate_buffers@?$basic_filebuf@DV?$char_traits@D@_STL@@@_STL@@AAEXXZ 00401700 f i poltool.obj
 0001:00000740       ?widen@?$basic_ios@DV?$char_traits@D@_STL@@@_STL@@QBEDD@Z 00401740 f i poltool.obj
 0001:00000750       ?_M_handle_exception@?$basic_ios@DV?$char_traits@D@_STL@@@_STL@@QAEXH@Z 00401750 f i poltool.obj
 0001:00000770       ??$__stlp_string_fill@DV?$char_traits@D@_STL@@@_STL@@YA_NAAV?$basic_ostream@DV?$char_traits@D@_STL@@@0@PAV?$basic_streambuf@DV?$char_traits@D@_STL@@@0@I@Z 00401770 f i poltool.obj
 0001:000007d0       ??$use_facet@V?$num_put@DV?$ostreambuf_iterator@DV?$char_traits@D@_STL@@@_STL@@@_STL@@@_STL@@YAABV?$num_put@DV?$ostreambuf_iterator@DV?$char_traits@D@_STL@@@_STL@@@0@ABVlocale@0@@Z 004017d0 f i poltool.obj
 0001:000007e0       ?tie@?$basic_ios@DV?$char_traits@D@_STL@@@_STL@@QBEPAV?$basic_ostream@DV?$char_traits@D@_STL@@@2@XZ 004017e0 f i poltool.obj
 0001:000007f0       ?_S_eof@?$basic_ios@DV?$char_traits@D@_STL@@@_STL@@SA_NH@Z 004017f0 f i poltool.obj
 0001:00000800       ?_M_unshift@?$basic_filebuf@DV?$char_traits@D@_STL@@@_STL@@AAE_NXZ 00401800 f i poltool.obj
 0001:00000880       ??$max@H@_STL@@YAABHABH0@Z 00401880 f i poltool.obj
 0001:000008a0       ??$use_facet@V?$codecvt@DDH@_STL@@@_STL@@YAABV?$codecvt@DDH@0@ABVlocale@0@@Z 004018a0 f i poltool.obj
 0001:000008b0       ?_M_terminate_string_aux@?$basic_string@DV?$char_traits@D@_STL@@V?$allocator@D@2@@_STL@@AAEXABU__true_type@2@@Z 004018b0 f i poltool.obj
 0001:000008c0       ??$_Destroy@UMapShape@@@_STL@@YAXPAUMapShape@@@Z 004018c0 f i poltool.obj
 0001:000008d0       ?end@?$basic_string@DV?$char_traits@D@_STL@@V?$allocator@D@2@@_STL@@QAEPADXZ 004018d0 f i poltool.obj
 0001:000008e0       ?capacity@?$basic_string@DV?$char_traits@D@_STL@@V?$allocator@D@2@@_STL@@QBEIXZ 004018e0 f i poltool.obj
 0001:000008f0       ?max_size@?$_String_base@DV?$allocator@D@_STL@@@_STL@@QBEIXZ 004018f0 f i poltool.obj
 0001:00000900       ?_Ret@?$_BothPtrType@PADPAD@_STL@@SA?AU__true_type@2@XZ 00401900 f i poltool.obj
 0001:00000910       ?move@?$__char_traits_base@DH@_STL@@SAPADPADPBDI@Z 00401910 f i poltool.obj
 0001:00000930       ?_M_construct_null_aux@?$basic_string@DV?$char_traits@D@_STL@@V?$allocator@D@2@@_STL@@AAEXPADABU__true_type@2@@Z 00401930 f i poltool.obj
 0001:00000940       ?allocate@?$__node_alloc@$00$0A@@_STL@@SAPAXI@Z 00401940 f i poltool.obj
 0001:00000960       ?_M_throw_length_error@?$_String_base@DV?$allocator@D@_STL@@@_STL@@QBEXXZ 00401960 f i poltool.obj
 0001:00000970       ??$__distance@PBD@_STL@@YAHABQBD0ABUrandom_access_iterator_tag@0@@Z 00401970 f i poltool.obj
 0001:00000980       ??$max@I@_STL@@YAABIABI0@Z 00401980 f i poltool.obj
 0001:000009a0       ?_Ret@?$_OKToMemCpy@DD@_STL@@SA?AU__true_type@2@XZ 004019a0 f i poltool.obj
 0001:000009b0       ??$_IsOKToMemCpy@DD@_STL@@YA?AU?$_OKToMemCpy@DD@0@PAD0@Z 004019b0 f i poltool.obj
 0001:000009c0       ??$__copy_ptrs@PADPAD@_STL@@YAPADPAD00ABU__true_type@0@@Z 004019c0 f i poltool.obj
 0001:000009f0       ??$__distance@PAD@_STL@@YAHABQAD0ABUrandom_access_iterator_tag@0@@Z 004019f0 f i poltool.obj
 0001:00000a00       ??A?$vector@UMapShape@@V?$allocator@UMapShape@@@_STL@@@_STL@@QAEAAUMapShape@@I@Z 00401a00 f i poltool.obj
 0001:00000a10       ??1?$auto_ptr@VMapServer@@@_STL@@QAE@XZ 00401a10 f i poltool.obj
 0001:00000a20       ?clear@?$basic_ios@DV?$char_traits@D@_STL@@@_STL@@QAEXH@Z 00401a20 f i poltool.obj
 0001:00000a40       ?deallocate@?$allocator@UMapShape@@@_STL@@QAEXPAUMapShape@@I@Z 00401a40 f i poltool.obj
 0001:00000a80       ??0?$_STLP_alloc_proxy@PAUMapShape@@U1@V?$allocator@UMapShape@@@_STL@@@_STL@@QAE@ABV?$allocator@UMapShape@@@1@PAUMapShape@@@Z 00401a80 f i poltool.obj
 0001:00000a90       ?deallocate@?$allocator@D@_STL@@QAEXPADI@Z 00401a90 f i poltool.obj
 0001:00000ac0       ??$?8DV?$char_traits@D@_STL@@V?$allocator@D@1@@_STL@@YA_NABV?$basic_string@DV?$char_traits@D@_STL@@V?$allocator@D@2@@0@PBD@Z 00401ac0 f i poltool.obj
 0001:00000b00       ??_G?$basic_ostream@DV?$char_traits@D@_STL@@@_STL@@UAEPAXI@Z 00401b00 f i poltool.obj
 0001:00000b00       ??_E?$basic_ostream@DV?$char_traits@D@_STL@@@_STL@@UAEPAXI@Z 00401b00 f i poltool.obj
 0001:00000b30       ??0?$_STLP_alloc_proxy@PADDV?$allocator@D@_STL@@@_STL@@QAE@ABV?$allocator@D@1@PAD@Z 00401b30 f i poltool.obj
 0001:00000b40       ?close@?$basic_filebuf@DV?$char_traits@D@_STL@@@_STL@@QAEPAV12@XZ 00401b40 f i poltool.obj
 0001:00000c20       ?_M_setup_codecvt@?$basic_filebuf@DV?$char_traits@D@_STL@@@_STL@@AAEXABVlocale@2@@Z 00401c20 f i poltool.obj
 0001:00000c90       ?rdbuf@?$basic_ios@DV?$char_traits@D@_STL@@@_STL@@QAEPAV?$basic_streambuf@DV?$char_traits@D@_STL@@@2@PAV32@@Z 00401c90 f i poltool.obj
 0001:00000cc0       ??$__destroy_aux@PAUMapShape@@@_STL@@YAXPAUMapShape@@0ABU__false_type@0@@Z 00401cc0 f i poltool.obj
 0001:00000cd0       ?_M_terminate_string@?$basic_string@DV?$char_traits@D@_STL@@V?$allocator@D@2@@_STL@@AAEXXZ 00401cd0 f i poltool.obj
 0001:00000ce0       ??$distance@PBD@_STL@@YAHABQBD0@Z 00401ce0 f i poltool.obj
 0001:00000cf0       ?_M_construct_null@?$basic_string@DV?$char_traits@D@_STL@@V?$allocator@D@2@@_STL@@AAEXPAD@Z 00401cf0 f i poltool.obj
 0001:00000d00       ?max_size@?$basic_string@DV?$char_traits@D@_STL@@V?$allocator@D@2@@_STL@@QBEIXZ 00401d00 f i poltool.obj
 0001:00000d10       ?erase@?$basic_string@DV?$char_traits@D@_STL@@V?$allocator@D@2@@_STL@@QAEPADPAD0@Z 00401d10 f i poltool.obj
 0001:00000d50       ?allocate@?$allocator@D@_STL@@QAEPADIPBX@Z 00401d50 f i poltool.obj
 0001:00000d80       ??$__copy_aux@PADPAD@_STL@@YAPADPAD00ABU__true_type@0@@Z 00401d80 f i poltool.obj
 0001:00000db0       ??$__uninitialized_copy@PADPAD@_STL@@YAPADPAD00ABU__true_type@0@@Z 00401db0 f i poltool.obj
 0001:00000de0       ??$distance@PAD@_STL@@YAHABQAD0@Z 00401de0 f i poltool.obj
 0001:00000df0       ?setstate@?$basic_ios@DV?$char_traits@D@_STL@@@_STL@@QAEXH@Z 00401df0 f i poltool.obj
 0001:00000e20       ??0?$_Vector_base@UMapShape@@V?$allocator@UMapShape@@@_STL@@@_STL@@QAE@ABV?$allocator@UMapShape@@@1@@Z 00401e20 f i poltool.obj
 0001:00000e50       ??1?$_Vector_base@UMapShape@@V?$allocator@UMapShape@@@_STL@@@_STL@@QAE@XZ 00401e50 f i poltool.obj
 0001:00000e90       ?_M_deallocate_block@?$_String_base@DV?$allocator@D@_STL@@@_STL@@QAEXXZ 00401e90 f i poltool.obj
 0001:00000ec0       ??0?$basic_filebuf@DV?$char_traits@D@_STL@@@_STL@@QAE@XZ 00401ec0 f i poltool.obj
 0001:00000fd0       ?underflow@?$basic_filebuf@DV?$char_traits@D@_STL@@@_STL@@MAEHXZ 00401fd0 f i poltool.obj
 0001:00000fe0       ?showmanyc@?$basic_filebuf@DV?$char_traits@D@_STL@@@_STL@@MAEHXZ 00401fe0 f i poltool.obj
 0001:00001050       ?pbackfail@?$basic_filebuf@DV?$char_traits@D@_STL@@@_STL@@MAEHH@Z 00402050 f i poltool.obj
 0001:00001140       ?sync@?$basic_filebuf@DV?$char_traits@D@_STL@@@_STL@@MAEHXZ 00402140 f i poltool.obj
 0001:00001160       ??1?$basic_filebuf@DV?$char_traits@D@_STL@@@_STL@@UAE@XZ 00402160 f i poltool.obj
 0001:000011e0       ?setbuf@?$basic_filebuf@DV?$char_traits@D@_STL@@@_STL@@MAEPAV?$basic_streambuf@DV?$char_traits@D@_STL@@@2@PADH@Z 004021e0 f i poltool.obj
 0001:00001240       ?_M_allocate_buffers@?$basic_filebuf@DV?$char_traits@D@_STL@@@_STL@@AAE_NPADH@Z 00402240 f i poltool.obj
 0001:00001320       ?seekoff@?$basic_filebuf@DV?$char_traits@D@_STL@@@_STL@@MAE?AV?$fpos@H@2@JHH@Z 00402320 f i poltool.obj
 0001:000016b0       ??$count@PADD@_STL@@YAHPAD0ABD@Z 004026b0 f i poltool.obj
 0001:000016e0       ??1?$_Filebuf_Tmp_Buf@D@_STL@@QAE@XZ 004026e0 f i poltool.obj
 0001:000016f0       ?_M_seek_return@?$basic_filebuf@DV?$char_traits@D@_STL@@@_STL@@AAE?AV?$fpos@H@2@JH@Z 004026f0 f i poltool.obj
 0001:00001760       ?_M_seek_init@?$basic_filebuf@DV?$char_traits@D@_STL@@@_STL@@AAE_N_N@Z 00402760 f i poltool.obj
 0001:000017d0       ?_M_exit_putback_mode@?$basic_filebuf@DV?$char_traits@D@_STL@@@_STL@@AAEXXZ 004027d0 f i poltool.obj
 0001:00001800       ?seekpos@?$basic_filebuf@DV?$char_traits@D@_STL@@@_STL@@MAE?AV?$fpos@H@2@V32@H@Z 00402800 f i poltool.obj
 0001:000018d0       ?imbue@?$basic_filebuf@DV?$char_traits@D@_STL@@@_STL@@MAEXABVlocale@2@@Z 004028d0 f i poltool.obj
 0001:000018f0       ??_G?$basic_filebuf@DV?$char_traits@D@_STL@@@_STL@@UAEPAXI@Z 004028f0 f i poltool.obj
 0001:000018f0       ??_E?$basic_filebuf@DV?$char_traits@D@_STL@@@_STL@@UAEPAXI@Z 004028f0 f i poltool.obj
 0001:00001910       ??0?$_String_base@DV?$allocator@D@_STL@@@_STL@@QAE@ABV?$allocator@D@1@@Z 00402910 f i poltool.obj
 0001:00001940       ?flush@?$basic_ostream@DV?$char_traits@D@_STL@@@_STL@@QAEAAV12@XZ 00402940 f i poltool.obj
 0001:00001990       ??1sentry@?$basic_ostream@DV?$char_traits@D@_STL@@@_STL@@QAE@XZ 00402990 f i poltool.obj
 0001:000019b0       ??$__destroy@PAUMapShape@@U1@@_STL@@YAXPAUMapShape@@00@Z 004029b0 f i poltool.obj
 0001:000019c0       ??$_M_init@DV?$char_traits@D@_STL@@@_STL@@YA_NAAV?$basic_ostream@DV?$char_traits@D@_STL@@@0@@Z 004029c0 f i poltool.obj
 0001:00001a20       ?_M_allocate_block@?$_String_base@DV?$allocator@D@_STL@@@_STL@@QAEXI@Z 00402a20 f i poltool.obj
 0001:00001a80       ??$uninitialized_copy@PADPAD@_STL@@YAPADPAD00@Z 00402a80 f i poltool.obj
 0001:00001ab0       ??$append@PAD@?$basic_string@DV?$char_traits@D@_STL@@V?$allocator@D@2@@_STL@@AAEAAV01@PAD0ABUforward_iterator_tag@1@@Z 00402ab0 f i poltool.obj
 0001:00001c10       ??0?$vector@UMapShape@@V?$allocator@UMapShape@@@_STL@@@_STL@@QAE@ABV?$allocator@UMapShape@@@1@@Z 00402c10 f i poltool.obj
 0001:00001c20       ??1?$basic_ofstream@DV?$char_traits@D@_STL@@@_STL@@UAE@XZ 00402c20 f i poltool.obj
 0001:00001c90       ??1?$_String_base@DV?$allocator@D@_STL@@@_STL@@QAE@XZ 00402c90 f i poltool.obj
 0001:00001cc0       ?overflow@?$basic_filebuf@DV?$char_traits@D@_STL@@@_STL@@MAEHH@Z 00402cc0 f i poltool.obj
 0001:00001df0       ?_M_output_error@?$basic_filebuf@DV?$char_traits@D@_STL@@@_STL@@AAEHXZ 00402df0 f i poltool.obj
 0001:00001e10       ?_M_switch_to_output_mode@?$basic_filebuf@DV?$char_traits@D@_STL@@@_STL@@AAE_NXZ 00402e10 f i poltool.obj
 0001:00001e90       ??$_Destroy@PAUMapShape@@@_STL@@YAXPAUMapShape@@0@Z 00402e90 f i poltool.obj
 0001:00001ea0       ??0sentry@?$basic_ostream@DV?$char_traits@D@_STL@@@_STL@@QAE@AAV12@@Z 00402ea0 f i poltool.obj
 0001:00001ec0       ?_M_put_nowiden@?$basic_ostream@DV?$char_traits@D@_STL@@@_STL@@QAEXPBD@Z 00402ec0 f i poltool.obj
 0001:00002080       ?put@?$basic_ostream@DV?$char_traits@D@_STL@@@_STL@@QAEAAV12@D@Z 00403080 f i poltool.obj
 0001:00002190       ??$_M_range_initialize@PBD@?$basic_string@DV?$char_traits@D@_STL@@V?$allocator@D@2@@_STL@@AAEXPBD0ABUforward_iterator_tag@1@@Z 00403190 f i poltool.obj
 0001:000021d0       ??$_M_append_dispatch@PAD@?$basic_string@DV?$char_traits@D@_STL@@V?$allocator@D@2@@_STL@@AAEAAV01@PAD0ABU__false_type@1@@Z 004031d0 f i poltool.obj
 0001:000021e0       ??_D?$basic_ofstream@DV?$char_traits@D@_STL@@@_STL@@QAEXXZ 004031e0 f i poltool.obj
 0001:00002200       ??1?$basic_string@DV?$char_traits@D@_STL@@V?$allocator@D@2@@_STL@@QAE@XZ 00403200 f i poltool.obj
 0001:00002230       ??1?$vector@UMapShape@@V?$allocator@UMapShape@@@_STL@@@_STL@@QAE@XZ 00403230 f i poltool.obj
 0001:00002270       ??_G?$basic_ofstream@DV?$char_traits@D@_STL@@@_STL@@UAEPAXI@Z 00403270 f i poltool.obj
 0001:00002270       ??_E?$basic_ofstream@DV?$char_traits@D@_STL@@@_STL@@UAEPAXI@Z 00403270 f i poltool.obj
 0001:000022b0       ??$?6V?$char_traits@D@_STL@@@_STL@@YAAAV?$basic_ostream@DV?$char_traits@D@_STL@@@0@AAV10@PBD@Z 004032b0 f i poltool.obj
 0001:000022d0       ??$endl@DV?$char_traits@D@_STL@@@_STL@@YAAAV?$basic_ostream@DV?$char_traits@D@_STL@@@0@AAV10@@Z 004032d0 f i poltool.obj
 0001:00002330       ??$?6DV?$char_traits@D@_STL@@V?$allocator@D@1@@_STL@@YAAAV?$basic_ostream@DV?$char_traits@D@_STL@@@0@AAV10@ABV?$basic_string@DV?$char_traits@D@_STL@@V?$allocator@D@2@@0@@Z 00403330 f i poltool.obj
 0001:00002450       ??$_M_put_num@DV?$char_traits@D@_STL@@J@_STL@@YAAAV?$basic_ostream@DV?$char_traits@D@_STL@@@0@AAV10@J@Z 00403450 f i poltool.obj
 0001:00002590       ??$_M_range_initialize@PBD@?$basic_string@DV?$char_traits@D@_STL@@V?$allocator@D@2@@_STL@@AAEXPBD0@Z 00403590 f i poltool.obj
 0001:000025d0       ??$append@PAD@?$basic_string@DV?$char_traits@D@_STL@@V?$allocator@D@2@@_STL@@QAEAAV01@PAD0@Z 004035d0 f i poltool.obj
 0001:000025f0       ?grouping@?$numpunct@D@_STL@@QBE?AV?$basic_string@DV?$char_traits@D@_STL@@V?$allocator@D@2@@2@XZ 004035f0 f i poltool.obj
 0001:00002610       ?usage@@YAXXZ              00403610 f   poltool.obj
 0001:00002650       ??1RealmDescriptor@@QAE@XZ 00403650 f i poltool.obj
 0001:00002720       ??0MapShapeList@@QAE@XZ    00403720 f i poltool.obj
 0001:00002730       ??1MapShapeList@@QAE@XZ    00403730 f i poltool.obj
 0001:00002770       ??6?$basic_ostream@DV?$char_traits@D@_STL@@@_STL@@QAEAAV01@H@Z 00403770 f i poltool.obj
 0001:00002790       ??0?$basic_string@DV?$char_traits@D@_STL@@V?$allocator@D@2@@_STL@@QAE@PBDABV?$allocator@D@1@@Z 00403790 f i poltool.obj
 0001:00002820       ??$_M_assign_dispatch@PAD@?$basic_string@DV?$char_traits@D@_STL@@V?$allocator@D@2@@_STL@@AAEAAV01@PAD0ABU__false_type@1@@Z 00403820 f i poltool.obj
 0001:00002890       ??$assign@PAD@?$basic_string@DV?$char_traits@D@_STL@@V?$allocator@D@2@@_STL@@QAEAAV01@PAD0@Z 00403890 f i poltool.obj
 0001:000028b0       ??4?$basic_string@DV?$char_traits@D@_STL@@V?$allocator@D@2@@_STL@@QAEAAV01@ABV01@@Z 004038b0 f i poltool.obj
 0001:000028e0       ?imbue@?$basic_ios@DV?$char_traits@D@_STL@@@_STL@@QAE?AVlocale@2@ABV32@@Z 004038e0 f i poltool.obj
 0001:000029f0       ?init@?$basic_ios@DV?$char_traits@D@_STL@@@_STL@@IAEXPAV?$basic_streambuf@DV?$char_traits@D@_STL@@@2@@Z 004039f0 f i poltool.obj
 0001:00002ab0       ??0?$basic_ostream@DV?$char_traits@D@_STL@@@_STL@@QAE@PAV?$basic_streambuf@DV?$char_traits@D@_STL@@@1@@Z 00403ab0 f i poltool.obj
 0001:00002b40       ??0?$basic_ofstream@DV?$char_traits@D@_STL@@@_STL@@QAE@PBDH@Z 00403b40 f i poltool.obj
 0001:00002c40       ?mapdump@@YAHHQAPAD@Z      00403c40 f   poltool.obj
 0001:00003500       ?xmain@@YAHHQAPAD@Z        00404500 f   poltool.obj
 0001:00003690       ?flags_set@@YA_NKK@Z       00404690 f   plib:mapfunc.obj
 0001:000036b0       ?flags_clear@@YA_NKK@Z     004046b0 f   plib:mapfunc.obj
 0001:000036d0       ?readflags@@YAKAAVConfigElem@@@Z 004046d0 f   plib:mapfunc.obj
 0001:00003840       ??6?$basic_ostream@DV?$char_traits@D@_STL@@@_STL@@QAEAAV01@P6AAAVios_base@1@AAV21@@Z@Z 00404840 f i plib:mapfunc.obj
 0001:00003870       ?setf@ios_base@_STL@@QAEHHH@Z 00404870 f i plib:mapfunc.obj
 0001:00003890       ?put@?$num_put@DV?$ostreambuf_iterator@DV?$char_traits@D@_STL@@@_STL@@@_STL@@QBE?AV?$ostreambuf_iterator@DV?$char_traits@D@_STL@@@2@V32@AAVios_base@2@DK@Z 00404890 f i plib:mapfunc.obj
 0001:000038c0       ?dec@_STL@@YAAAVios_base@1@AAV21@@Z 004048c0 f i plib:mapfunc.obj
 0001:000038e0       ?hex@_STL@@YAAAVios_base@1@AAV21@@Z 004048e0 f i plib:mapfunc.obj
 0001:00003900       ?get_allocator@?$basic_string@DV?$char_traits@D@_STL@@V?$allocator@D@2@@_STL@@QBE?AV?$allocator@D@2@XZ 00404900 f i plib:mapfunc.obj
 0001:00003910       ??0?$basic_string@DV?$char_traits@D@_STL@@V?$allocator@D@2@@_STL@@QAE@XZ 00404910 f i plib:mapfunc.obj
 0001:00003980       ??$_M_put_num@DV?$char_traits@D@_STL@@K@_STL@@YAAAV?$basic_ostream@DV?$char_traits@D@_STL@@@0@AAV10@K@Z 00404980 f i plib:mapfunc.obj
 0001:00003ac0       ??6?$basic_ostream@DV?$char_traits@D@_STL@@@_STL@@QAEAAV01@I@Z 00404ac0 f i plib:mapfunc.obj
 0001:00003ae0       ??$_M_range_initialize@PAD@?$basic_string@DV?$char_traits@D@_STL@@V?$allocator@D@2@@_STL@@AAEXPAD0ABUforward_iterator_tag@1@@Z 00404ae0 f i plib:mapfunc.obj
 0001:00003b20       ??$append@PBD@?$basic_string@DV?$char_traits@D@_STL@@V?$allocator@D@2@@_STL@@AAEAAV01@PBD0ABUforward_iterator_tag@1@@Z 00404b20 f i plib:mapfunc.obj
 0001:00003c80       ?polflags_from_tileflags@@YAKIK_N0@Z 00404c80 f   plib:mapfunc.obj
 0001:00003e10       ?polflags_from_landtileflags@@YAKIK@Z 00404e10 f   plib:mapfunc.obj
 0001:00003e40       ??$_M_range_initialize@PAD@?$basic_string@DV?$char_traits@D@_STL@@V?$allocator@D@2@@_STL@@AAEXPAD0@Z 00404e40 f i plib:mapfunc.obj
 0001:00003e80       ??$_M_append_dispatch@PBD@?$basic_string@DV?$char_traits@D@_STL@@V?$allocator@D@2@@_STL@@AAEAAV01@PBD0ABU__false_type@1@@Z 00404e80 f i plib:mapfunc.obj
 0001:00003e90       ??0?$basic_string@DV?$char_traits@D@_STL@@V?$allocator@D@2@@_STL@@QAE@ABV01@@Z 00404e90 f i plib:mapfunc.obj
 0001:00003f10       ??$append@PBD@?$basic_string@DV?$char_traits@D@_STL@@V?$allocator@D@2@@_STL@@QAEAAV01@PBD0@Z 00404f10 f i plib:mapfunc.obj
 0001:00003f30       ?flagdescs@@YA?AV?$basic_string@DV?$char_traits@D@_STL@@V?$allocator@D@2@@_STL@@XZ 00404f30 f   plib:mapfunc.obj
 0001:00003fb0       ?append@?$basic_string@DV?$char_traits@D@_STL@@V?$allocator@D@2@@_STL@@QAEAAV12@PBD@Z 00404fb0 f i plib:mapfunc.obj
 0001:00003fe0       ??Y?$basic_string@DV?$char_traits@D@_STL@@V?$allocator@D@2@@_STL@@QAEAAV01@PBD@Z 00404fe0 f i plib:mapfunc.obj
 0001:00004010       ?flagstr@@YA?AV?$basic_string@DV?$char_traits@D@_STL@@V?$allocator@D@2@@_STL@@K@Z 00405010 f   plib:mapfunc.obj
 0001:000041f0       ??0?$fpos@H@_STL@@QAE@J@Z  004051f0 f i plib:maptileserver.obj
 0001:00004210       ??$Read@UMAPTILE_BLOCK@@@BinaryFile@@QAEXAAUMAPTILE_BLOCK@@@Z 00405210 f i plib:maptileserver.obj
 0001:00004230       ?GetMapTile@MapTileServer@@QAE?AUMAPTILE_CELL@@GG@Z 00405230 f   plib:maptileserver.obj
 0001:000042d0       ??1MapTileServer@@QAE@XZ   004052d0 f   plib:maptileserver.obj
 0001:00004320       ??0RealmDescriptor@@QAE@ABV0@@Z 00405320 f i plib:maptileserver.obj
 0001:000043b0       ??0MapTileServer@@QAE@ABVRealmDescriptor@@@Z 004053b0 f   plib:maptileserver.obj
 0001:000044c0       ?__copy_trivial_backward@_STL@@YAPAXPBX0PAX@Z 004054c0 f i plib:mapserver.obj
 0001:000044f0       ??2@YAPAXIPAX@Z            004054f0 f i plib:mapserver.obj
 0001:00004500       ??B?$fpos@H@_STL@@QBEJXZ   00405500 f i plib:mapserver.obj
 0001:00004510       ??0?$allocator@PAUSOLIDX2_ELEM@@@_STL@@QAE@XZ 00405510 f i plib:mapserver.obj
 0001:00004520       ??1?$allocator@PAUSOLIDX2_ELEM@@@_STL@@QAE@XZ 00405520 f i plib:mapserver.obj
 0001:00004530       ?size@?$vector@USOLIDX2_ELEM@@V?$allocator@USOLIDX2_ELEM@@@_STL@@@_STL@@QBEIXZ 00405530 f i plib:mapserver.obj
 0001:00004550       ??0runtime_error@_STL@@QAE@ABV?$basic_string@DV?$char_traits@D@_STL@@V?$allocator@D@2@@1@@Z 00405550 f i plib:mapserver.obj
 0001:00004570       ??_Eruntime_error@_STL@@UAEPAXI@Z 00405570 f i plib:mapserver.obj
 0001:00004570       ??_Gruntime_error@_STL@@UAEPAXI@Z 00405570 f i plib:mapserver.obj
 0001:00004590       ??0?$allocator@USOLIDX2_ELEM@@@_STL@@QAE@XZ 00405590 f i plib:mapserver.obj
 0001:000045a0       ??1?$allocator@USOLIDX2_ELEM@@@_STL@@QAE@XZ 004055a0 f i plib:mapserver.obj
 0001:000045b0       ?size@?$vector@USOLIDS_ELEM@@V?$allocator@USOLIDS_ELEM@@@_STL@@@_STL@@QBEIXZ 004055b0 f i plib:mapserver.obj
 0001:000045d0       ??0?$allocator@USOLIDS_ELEM@@@_STL@@QAE@XZ 004055d0 f i plib:mapserver.obj
 0001:000045e0       ??1?$allocator@USOLIDS_ELEM@@@_STL@@QAE@XZ 004055e0 f i plib:mapserver.obj
 0001:000045f0       ??Z?$fpos@H@_STL@@QAEAAV01@J@Z 004055f0 f i plib:mapserver.obj
 0001:00004600       ?begin@?$vector@PAUSOLIDX2_ELEM@@V?$allocator@PAUSOLIDX2_ELEM@@@_STL@@@_STL@@QAEPAPAUSOLIDX2_ELEM@@XZ 00405600 f i plib:mapserver.obj
 0001:00004610       ?begin@?$vector@PAUSOLIDX2_ELEM@@V?$allocator@PAUSOLIDX2_ELEM@@@_STL@@@_STL@@QBEPBQAUSOLIDX2_ELEM@@XZ 00405610 f i plib:mapserver.obj
 0001:00004620       ?_M_range_check@?$vector@USOLIDX2_ELEM@@V?$allocator@USOLIDX2_ELEM@@@_STL@@@_STL@@IBEXI@Z 00405620 f i plib:mapserver.obj
 0001:00004650       ?begin@?$vector@USOLIDX2_ELEM@@V?$allocator@USOLIDX2_ELEM@@@_STL@@@_STL@@QAEPAUSOLIDX2_ELEM@@XZ 00405650 f i plib:mapserver.obj
 0001:00004660       ?begin@?$vector@USOLIDS_ELEM@@V?$allocator@USOLIDS_ELEM@@@_STL@@@_STL@@QBEPBUSOLIDS_ELEM@@XZ 00405660 f i plib:mapserver.obj
 0001:00004670       ??1?$_STLP_alloc_proxy@PAPAUSOLIDX2_ELEM@@PAU1@V?$allocator@PAUSOLIDX2_ELEM@@@_STL@@@_STL@@QAE@XZ 00405670 f i plib:mapserver.obj
 0001:00004680       ??1?$_STLP_alloc_proxy@PAUSOLIDX2_ELEM@@U1@V?$allocator@USOLIDX2_ELEM@@@_STL@@@_STL@@QAE@XZ 00405680 f i plib:mapserver.obj
 0001:00004690       ??1?$_STLP_alloc_proxy@PAUSOLIDS_ELEM@@U1@V?$allocator@USOLIDS_ELEM@@@_STL@@@_STL@@QAE@XZ 00405690 f i plib:mapserver.obj
 0001:000046a0       ?end@?$vector@PAUSOLIDX2_ELEM@@V?$allocator@PAUSOLIDX2_ELEM@@@_STL@@@_STL@@QAEPAPAUSOLIDX2_ELEM@@XZ 004056a0 f i plib:mapserver.obj
 0001:000046b0       ?size@?$vector@PAUSOLIDX2_ELEM@@V?$allocator@PAUSOLIDX2_ELEM@@@_STL@@@_STL@@QBEIXZ 004056b0 f i plib:mapserver.obj
 0001:000046c0       ?end@?$vector@USOLIDX2_ELEM@@V?$allocator@USOLIDX2_ELEM@@@_STL@@@_STL@@QAEPAUSOLIDX2_ELEM@@XZ 004056c0 f i plib:mapserver.obj
 0001:000046d0       ?_M_set@?$vector@UMapShape@@V?$allocator@UMapShape@@@_STL@@@_STL@@IAEXPAUMapShape@@00@Z 004056d0 f i plib:mapserver.obj
 0001:000046f0       ??0?$allocator@PAUSOLIDX2_ELEM@@@_STL@@QAE@ABV01@@Z 004056f0 f i plib:mapserver.obj
 0001:00004700       ??0?$allocator@USOLIDX2_ELEM@@@_STL@@QAE@ABV01@@Z 00405700 f i plib:mapserver.obj
 0001:00004710       ??0?$allocator@USOLIDS_ELEM@@@_STL@@QAE@ABV01@@Z 00405710 f i plib:mapserver.obj
 0001:00004720       ??$Read@USOLIDX2_ELEM@@@BinaryFile@@QAEXPAUSOLIDX2_ELEM@@I@Z 00405720 f i plib:mapserver.obj
 0001:00004740       ??$Read@K@BinaryFile@@QAEXAAK@Z 00405740 f i plib:mapserver.obj
 0001:00004750       ??$_Construct@UMapShape@@U1@@_STL@@YAXPAUMapShape@@ABU1@@Z 00405750 f i plib:mapserver.obj
 0001:00004770       ??$__copy_ptrs@PAPAUSOLIDX2_ELEM@@PAPAU1@@_STL@@YAPAPAUSOLIDX2_ELEM@@PAPAU1@00ABU__true_type@0@@Z 00405770 f i plib:mapserver.obj
 0001:000047a0       ?_M_set@?$vector@PAUSOLIDX2_ELEM@@V?$allocator@PAUSOLIDX2_ELEM@@@_STL@@@_STL@@IAEXPAPAUSOLIDX2_ELEM@@00@Z 004057a0 f i plib:mapserver.obj
 0001:000047c0       ?allocate@?$allocator@PAUSOLIDX2_ELEM@@@_STL@@QAEPAPAUSOLIDX2_ELEM@@IPBX@Z 004057c0 f i plib:mapserver.obj
 0001:000047f0       ?_M_set@?$vector@USOLIDX2_ELEM@@V?$allocator@USOLIDX2_ELEM@@@_STL@@@_STL@@IAEXPAUSOLIDX2_ELEM@@00@Z 004057f0 f i plib:mapserver.obj
 0001:00004810       ?allocate@?$allocator@USOLIDX2_ELEM@@@_STL@@QAEPAUSOLIDX2_ELEM@@IPBX@Z 00405810 f i plib:mapserver.obj
 0001:00004850       ?begin@?$vector@USOLIDS_ELEM@@V?$allocator@USOLIDS_ELEM@@@_STL@@@_STL@@QAEPAUSOLIDS_ELEM@@XZ 00405850 f i plib:mapserver.obj
 0001:00004860       ?end@?$vector@USOLIDS_ELEM@@V?$allocator@USOLIDS_ELEM@@@_STL@@@_STL@@QAEPAUSOLIDS_ELEM@@XZ 00405860 f i plib:mapserver.obj
 0001:00004870       ??$__copy_backward_ptrs@PAPAUSOLIDX2_ELEM@@PAPAU1@@_STL@@YAPAPAUSOLIDX2_ELEM@@PAPAU1@00ABU__true_type@0@@Z 00405870 f i plib:mapserver.obj
 0001:000048a0       ??$fill@PAPAUSOLIDX2_ELEM@@PAU1@@_STL@@YAXPAPAUSOLIDX2_ELEM@@0ABQAU1@@Z 004058a0 f i plib:mapserver.obj
 0001:000048c0       ??$fill@PAUSOLIDX2_ELEM@@U1@@_STL@@YAXPAUSOLIDX2_ELEM@@0ABU1@@Z 004058c0 f i plib:mapserver.obj
 0001:000048f0       ??$Read@USOLIDS_ELEM@@@BinaryFile@@QAEXPAUSOLIDS_ELEM@@I@Z 004058f0 f i plib:mapserver.obj
 0001:00004900       ??$__copy@PAUSOLIDX2_ELEM@@PAU1@H@_STL@@YAPAUSOLIDX2_ELEM@@PAU1@00ABUrandom_access_iterator_tag@0@PAH@Z 00405900 f i plib:mapserver.obj
 0001:00004960       ??$fill_n@PAPAUSOLIDX2_ELEM@@IPAU1@@_STL@@YAPAPAUSOLIDX2_ELEM@@PAPAU1@IABQAU1@@Z 00405960 f i plib:mapserver.obj
 0001:00004980       ??$_Construct@USOLIDX2_ELEM@@U1@@_STL@@YAXPAUSOLIDX2_ELEM@@ABU1@@Z 00405980 f i plib:mapserver.obj
 0001:000049a0       ?_Ret@?$_BothPtrType@PAPAUSOLIDX2_ELEM@@PAPAU1@@_STL@@SA?AU__true_type@2@XZ 004059a0 f i plib:mapserver.obj
 0001:000049b0       ?_M_set@?$vector@USOLIDS_ELEM@@V?$allocator@USOLIDS_ELEM@@@_STL@@@_STL@@IAEXPAUSOLIDS_ELEM@@00@Z 004059b0 f i plib:mapserver.obj
 0001:000049d0       ?allocate@?$allocator@USOLIDS_ELEM@@@_STL@@QAEPAUSOLIDS_ELEM@@IPBX@Z 004059d0 f i plib:mapserver.obj
 0001:00004a00       ??$__uninitialized_fill_n@PAPAUSOLIDX2_ELEM@@IPAU1@@_STL@@YAPAPAUSOLIDX2_ELEM@@PAPAU1@IABQAU1@ABU__true_type@0@@Z 00405a00 f i plib:mapserver.obj
 0001:00004a20       ??$__copy_backward@PAUSOLIDX2_ELEM@@PAU1@H@_STL@@YAPAUSOLIDX2_ELEM@@PAU1@00ABUrandom_access_iterator_tag@0@PAH@Z 00405a20 f i plib:mapserver.obj
 0001:00004a80       ??$fill@PAUSOLIDS_ELEM@@U1@@_STL@@YAXPAUSOLIDS_ELEM@@0ABU1@@Z 00405a80 f i plib:mapserver.obj
 0001:00004ab0       ??$__destroy_aux@PAPAUSOLIDX2_ELEM@@@_STL@@YAXPAPAUSOLIDX2_ELEM@@0ABU__true_type@0@@Z 00405ab0 f i plib:mapserver.obj
 0001:00004ac0       ??$__copy@PAUSOLIDS_ELEM@@PAU1@H@_STL@@YAPAUSOLIDS_ELEM@@PAU1@00ABUrandom_access_iterator_tag@0@PAH@Z 00405ac0 f i plib:mapserver.obj
 0001:00004b10       ??$_Construct@USOLIDS_ELEM@@U1@@_STL@@YAXPAUSOLIDS_ELEM@@ABU1@@Z 00405b10 f i plib:mapserver.obj
 0001:00004b30       ?_Ret@?$_OKToMemCpy@PAUSOLIDX2_ELEM@@PAU1@@_STL@@SA?AU__true_type@2@XZ 00405b30 f i plib:mapserver.obj
 0001:00004b40       ??$_IsOKToMemCpy@PAUSOLIDX2_ELEM@@PAU1@@_STL@@YA?AU?$_OKToMemCpy@PAUSOLIDX2_ELEM@@PAU1@@0@PAPAUSOLIDX2_ELEM@@0@Z 00405b40 f i plib:mapserver.obj
 0001:00004b50       ??$__copy_backward@PAUSOLIDS_ELEM@@PAU1@H@_STL@@YAPAUSOLIDS_ELEM@@PAU1@00ABUrandom_access_iterator_tag@0@PAH@Z 00405b50 f i plib:mapserver.obj
 0001:00004ba0       ??$_Destroy@USOLIDX2_ELEM@@@_STL@@YAXPAUSOLIDX2_ELEM@@@Z 00405ba0 f i plib:mapserver.obj
 0001:00004bb0       ??$_Destroy@USOLIDS_ELEM@@@_STL@@YAXPAUSOLIDS_ELEM@@@Z 00405bb0 f i plib:mapserver.obj
 0001:00004bc0       ??G?$fpos@H@_STL@@QAE?AV01@J@Z 00405bc0 f i plib:mapserver.obj
 0001:00004be0       ??A?$vector@PAUSOLIDX2_ELEM@@V?$allocator@PAUSOLIDX2_ELEM@@@_STL@@@_STL@@QAEAAPAUSOLIDX2_ELEM@@I@Z 00405be0 f i plib:mapserver.obj
 0001:00004bf0       ??A?$vector@PAUSOLIDX2_ELEM@@V?$allocator@PAUSOLIDX2_ELEM@@@_STL@@@_STL@@QBEABQAUSOLIDX2_ELEM@@I@Z 00405bf0 f i plib:mapserver.obj
 0001:00004c00       ??A?$vector@USOLIDX2_ELEM@@V?$allocator@USOLIDX2_ELEM@@@_STL@@@_STL@@QAEAAUSOLIDX2_ELEM@@I@Z 00405c00 f i plib:mapserver.obj
 0001:00004c20       ?at@?$vector@USOLIDX2_ELEM@@V?$allocator@USOLIDX2_ELEM@@@_STL@@@_STL@@QAEAAUSOLIDX2_ELEM@@I@Z 00405c20 f i plib:mapserver.obj
 0001:00004c70       ??A?$vector@USOLIDS_ELEM@@V?$allocator@USOLIDS_ELEM@@@_STL@@@_STL@@QBEABUSOLIDS_ELEM@@I@Z 00405c70 f i plib:mapserver.obj
 0001:00004c80       ?deallocate@?$allocator@PAUSOLIDX2_ELEM@@@_STL@@QAEXPAPAUSOLIDX2_ELEM@@I@Z 00405c80 f i plib:mapserver.obj
 0001:00004cb0       ??0?$_STLP_alloc_proxy@PAPAUSOLIDX2_ELEM@@PAU1@V?$allocator@PAUSOLIDX2_ELEM@@@_STL@@@_STL@@QAE@ABV?$allocator@PAUSOLIDX2_ELEM@@@1@PAPAUSOLIDX2_ELEM@@@Z 00405cb0 f i plib:mapserver.obj
 0001:00004cc0       ?deallocate@?$allocator@USOLIDX2_ELEM@@@_STL@@QAEXPAUSOLIDX2_ELEM@@I@Z 00405cc0 f i plib:mapserver.obj
 0001:00004d00       ??0?$_STLP_alloc_proxy@PAUSOLIDX2_ELEM@@U1@V?$allocator@USOLIDX2_ELEM@@@_STL@@@_STL@@QAE@ABV?$allocator@USOLIDX2_ELEM@@@1@PAUSOLIDX2_ELEM@@@Z 00405d00 f i plib:mapserver.obj
 0001:00004d10       ?deallocate@?$allocator@USOLIDS_ELEM@@@_STL@@QAEXPAUSOLIDS_ELEM@@I@Z 00405d10 f i plib:mapserver.obj
 0001:00004d40       ??0?$_STLP_alloc_proxy@PAUSOLIDS_ELEM@@U1@V?$allocator@USOLIDS_ELEM@@@_STL@@@_STL@@QAE@ABV?$allocator@USOLIDS_ELEM@@@1@PAUSOLIDS_ELEM@@@Z 00405d40 f i plib:mapserver.obj
 0001:00004d50       ?allocate@?$allocator@UMapShape@@@_STL@@QAEPAUMapShape@@IPBX@Z 00405d50 f i plib:mapserver.obj
 0001:00004d90       ??$__copy_ptrs@PAUSOLIDX2_ELEM@@PAU1@@_STL@@YAPAUSOLIDX2_ELEM@@PAU1@00ABU__false_type@0@@Z 00405d90 f i plib:mapserver.obj
 0001:00004db0       ??A?$vector@USOLIDS_ELEM@@V?$allocator@USOLIDS_ELEM@@@_STL@@@_STL@@QAEAAUSOLIDS_ELEM@@I@Z 00405db0 f i plib:mapserver.obj
 0001:00004dc0       ??$uninitialized_fill_n@PAPAUSOLIDX2_ELEM@@IPAU1@@_STL@@YAPAPAUSOLIDX2_ELEM@@PAPAU1@IABQAU1@@Z 00405dc0 f i plib:mapserver.obj
 0001:00004de0       ??$__copy_backward_ptrs@PAUSOLIDX2_ELEM@@PAU1@@_STL@@YAPAUSOLIDX2_ELEM@@PAU1@00ABU__false_type@0@@Z 00405de0 f i plib:mapserver.obj
 0001:00004e00       ??$__destroy@PAPAUSOLIDX2_ELEM@@PAU1@@_STL@@YAXPAPAUSOLIDX2_ELEM@@00@Z 00405e00 f i plib:mapserver.obj
 0001:00004e10       ??$__copy_ptrs@PAUSOLIDS_ELEM@@PAU1@@_STL@@YAPAUSOLIDS_ELEM@@PAU1@00ABU__false_type@0@@Z 00405e10 f i plib:mapserver.obj
 0001:00004e30       ??$__copy_aux@PAPAUSOLIDX2_ELEM@@PAPAU1@@_STL@@YAPAPAUSOLIDX2_ELEM@@PAPAU1@00ABU__true_type@0@@Z 00405e30 f i plib:mapserver.obj
 0001:00004e60       ??$__copy_backward_ptrs@PAUSOLIDS_ELEM@@PAU1@@_STL@@YAPAUSOLIDS_ELEM@@PAU1@00ABU__false_type@0@@Z 00405e60 f i plib:mapserver.obj
 0001:00004e80       ??$__destroy_aux@PAUSOLIDX2_ELEM@@@_STL@@YAXPAUSOLIDX2_ELEM@@0ABU__false_type@0@@Z 00405e80 f i plib:mapserver.obj
 0001:00004e90       ??$__destroy_aux@PAUSOLIDS_ELEM@@@_STL@@YAXPAUSOLIDS_ELEM@@0ABU__false_type@0@@Z 00405e90 f i plib:mapserver.obj
 0001:00004ea0       ??0?$_Vector_base@PAUSOLIDX2_ELEM@@V?$allocator@PAUSOLIDX2_ELEM@@@_STL@@@_STL@@QAE@ABV?$allocator@PAUSOLIDX2_ELEM@@@1@@Z 00405ea0 f i plib:mapserver.obj
 0001:00004ed0       ??1?$_Vector_base@PAUSOLIDX2_ELEM@@V?$allocator@PAUSOLIDX2_ELEM@@@_STL@@@_STL@@QAE@XZ 00405ed0 f i plib:mapserver.obj
 0001:00004f00       ??0?$_Vector_base@USOLIDX2_ELEM@@V?$allocator@USOLIDX2_ELEM@@@_STL@@@_STL@@QAE@ABV?$allocator@USOLIDX2_ELEM@@@1@@Z 00405f00 f i plib:mapserver.obj
 0001:00004f30       ??1?$_Vector_base@USOLIDX2_ELEM@@V?$allocator@USOLIDX2_ELEM@@@_STL@@@_STL@@QAE@XZ 00405f30 f i plib:mapserver.obj
 0001:00004f80       ??0?$_Vector_base@USOLIDS_ELEM@@V?$allocator@USOLIDS_ELEM@@@_STL@@@_STL@@QAE@ABV?$allocator@USOLIDS_ELEM@@@1@@Z 00405f80 f i plib:mapserver.obj
 0001:00004fb0       ??1?$_Vector_base@USOLIDS_ELEM@@V?$allocator@USOLIDS_ELEM@@@_STL@@@_STL@@QAE@XZ 00405fb0 f i plib:mapserver.obj
 0001:00004ff0       ??$_Destroy@PAPAUSOLIDX2_ELEM@@@_STL@@YAXPAPAUSOLIDX2_ELEM@@0@Z 00405ff0 f i plib:mapserver.obj
 0001:00005000       ??0?$_String_base@DV?$allocator@D@_STL@@@_STL@@QAE@ABV?$allocator@D@1@I@Z 00406000 f i plib:mapserver.obj
 0001:00005040       ?_M_clear@?$vector@PAUSOLIDX2_ELEM@@V?$allocator@PAUSOLIDX2_ELEM@@@_STL@@@_STL@@IAEXXZ 00406040 f i plib:mapserver.obj
 0001:00005070       ??$__uninitialized_copy@PAPAUSOLIDX2_ELEM@@PAPAU1@@_STL@@YAPAPAUSOLIDX2_ELEM@@PAPAU1@00ABU__true_type@0@@Z 00406070 f i plib:mapserver.obj
 0001:000050a0       ??$__destroy@PAUSOLIDX2_ELEM@@U1@@_STL@@YAXPAUSOLIDX2_ELEM@@00@Z 004060a0 f i plib:mapserver.obj
 0001:000050b0       ??$__destroy@PAUSOLIDS_ELEM@@U1@@_STL@@YAXPAUSOLIDS_ELEM@@00@Z 004060b0 f i plib:mapserver.obj
 0001:000050c0       ??0?$vector@PAUSOLIDX2_ELEM@@V?$allocator@PAUSOLIDX2_ELEM@@@_STL@@@_STL@@QAE@ABV?$allocator@PAUSOLIDX2_ELEM@@@1@@Z 004060c0 f i plib:mapserver.obj
 0001:000050d0       ??1?$vector@PAUSOLIDX2_ELEM@@V?$allocator@PAUSOLIDX2_ELEM@@@_STL@@@_STL@@QAE@XZ 004060d0 f i plib:mapserver.obj
 0001:00005100       ??0?$vector@USOLIDX2_ELEM@@V?$allocator@USOLIDX2_ELEM@@@_STL@@@_STL@@QAE@ABV?$allocator@USOLIDX2_ELEM@@@1@@Z 00406100 f i plib:mapserver.obj
 0001:00005110       ??0?$vector@USOLIDS_ELEM@@V?$allocator@USOLIDS_ELEM@@@_STL@@@_STL@@QAE@ABV?$allocator@USOLIDS_ELEM@@@1@@Z 00406110 f i plib:mapserver.obj
 0001:00005120       ?erase@?$vector@PAUSOLIDX2_ELEM@@V?$allocator@PAUSOLIDX2_ELEM@@@_STL@@@_STL@@QAEPAPAUSOLIDX2_ELEM@@PAPAU3@0@Z 00406120 f i plib:mapserver.obj
 0001:00005160       ??$_Destroy@PAUSOLIDX2_ELEM@@@_STL@@YAXPAUSOLIDX2_ELEM@@0@Z 00406160 f i plib:mapserver.obj
 0001:00005170       ??$_Destroy@PAUSOLIDS_ELEM@@@_STL@@YAXPAUSOLIDS_ELEM@@0@Z 00406170 f i plib:mapserver.obj
 0001:00005180       ??0?$basic_string@DV?$char_traits@D@_STL@@V?$allocator@D@2@@_STL@@QAE@U_String_reserve_t@1@IABV?$allocator@D@1@@Z 00406180 f i plib:mapserver.obj
 0001:000051b0       ?_M_insert_overflow@?$vector@PAUSOLIDX2_ELEM@@V?$allocator@PAUSOLIDX2_ELEM@@@_STL@@@_STL@@IAEXPAPAUSOLIDX2_ELEM@@ABQAU3@ABU__true_type@2@I_N@Z 004061b0 f i plib:mapserver.obj
 0001:000052c0       ?_M_clear@?$vector@USOLIDX2_ELEM@@V?$allocator@USOLIDX2_ELEM@@@_STL@@@_STL@@IAEXXZ 004062c0 f i plib:mapserver.obj
 0001:00005310       ?erase@?$vector@USOLIDS_ELEM@@V?$allocator@USOLIDS_ELEM@@@_STL@@@_STL@@QAEPAUSOLIDS_ELEM@@PAU3@0@Z 00406310 f i plib:mapserver.obj
 0001:00005340       ??$__uninitialized_copy@PAUSOLIDX2_ELEM@@PAU1@@_STL@@YAPAUSOLIDX2_ELEM@@PAU1@00ABU__false_type@0@@Z 00406340 f i plib:mapserver.obj
 0001:00005380       ??$__uninitialized_fill_n@PAUSOLIDX2_ELEM@@IU1@@_STL@@YAPAUSOLIDX2_ELEM@@PAU1@IABU1@ABU__false_type@0@@Z 00406380 f i plib:mapserver.obj
 0001:000053b0       ?_M_clear@?$vector@USOLIDS_ELEM@@V?$allocator@USOLIDS_ELEM@@@_STL@@@_STL@@IAEXXZ 004063b0 f i plib:mapserver.obj
 0001:000053f0       ??$__uninitialized_copy@PAUSOLIDS_ELEM@@PAU1@@_STL@@YAPAUSOLIDS_ELEM@@PAU1@00ABU__false_type@0@@Z 004063f0 f i plib:mapserver.obj
 0001:00005430       ??$__uninitialized_fill_n@PAUSOLIDS_ELEM@@IU1@@_STL@@YAPAUSOLIDS_ELEM@@PAU1@IABU1@ABU__false_type@0@@Z 00406430 f i plib:mapserver.obj
 0001:00005470       ??1?$vector@USOLIDX2_ELEM@@V?$allocator@USOLIDX2_ELEM@@@_STL@@@_STL@@QAE@XZ 00406470 f i plib:mapserver.obj
 0001:000054c0       ??1?$vector@USOLIDS_ELEM@@V?$allocator@USOLIDS_ELEM@@@_STL@@@_STL@@QAE@XZ 004064c0 f i plib:mapserver.obj
 0001:00005500       ?erase@?$vector@USOLIDX2_ELEM@@V?$allocator@USOLIDX2_ELEM@@@_STL@@@_STL@@QAEPAUSOLIDX2_ELEM@@PAU3@0@Z 00406500 f i plib:mapserver.obj
 0001:00005530       ?_M_clear@?$vector@UMapShape@@V?$allocator@UMapShape@@@_STL@@@_STL@@IAEXXZ 00406530 f i plib:mapserver.obj
 0001:00005570       ?_M_fill_insert@?$vector@PAUSOLIDX2_ELEM@@V?$allocator@PAUSOLIDX2_ELEM@@@_STL@@@_STL@@QAEXPAPAUSOLIDX2_ELEM@@IABQAU3@@Z 00406570 f i plib:mapserver.obj
 0001:00005690       ??$__uninitialized_copy@PAUMapShape@@PAU1@@_STL@@YAPAUMapShape@@PAU1@00ABU__false_type@0@@Z 00406690 f i plib:mapserver.obj
 0001:000056d0       ??$__uninitialized_fill_n@PAUMapShape@@IU1@@_STL@@YAPAUMapShape@@PAU1@IABU1@ABU__false_type@0@@Z 004066d0 f i plib:mapserver.obj
 0001:00005710       ?_M_insert_overflow@?$vector@USOLIDX2_ELEM@@V?$allocator@USOLIDX2_ELEM@@@_STL@@@_STL@@IAEXPAUSOLIDX2_ELEM@@ABU3@ABU__false_type@2@I_N@Z 00406710 f i plib:mapserver.obj
 0001:000058a0       ??$uninitialized_fill_n@PAUSOLIDX2_ELEM@@IU1@@_STL@@YAPAUSOLIDX2_ELEM@@PAU1@IABU1@@Z 004068a0 f i plib:mapserver.obj
 0001:000058c0       ?_M_insert_overflow@?$vector@USOLIDS_ELEM@@V?$allocator@USOLIDS_ELEM@@@_STL@@@_STL@@IAEXPAUSOLIDS_ELEM@@ABU3@ABU__false_type@2@I_N@Z 004068c0 f i plib:mapserver.obj
 0001:00005a40       ??$uninitialized_fill_n@PAUSOLIDS_ELEM@@IU1@@_STL@@YAPAUSOLIDS_ELEM@@PAU1@IABU1@@Z 00406a40 f i plib:mapserver.obj
 0001:00005a60       ??1MapServer@@UAE@XZ       00406a60 f   plib:mapserver.obj
 0001:00005b60       ?_M_insert_overflow@?$vector@UMapShape@@V?$allocator@UMapShape@@@_STL@@@_STL@@IAEXPAUMapShape@@ABU3@ABU__false_type@2@I_N@Z 00406b60 f i plib:mapserver.obj
 0001:00005cf0       ?insert@?$vector@PAUSOLIDX2_ELEM@@V?$allocator@PAUSOLIDX2_ELEM@@@_STL@@@_STL@@QAEXPAPAUSOLIDX2_ELEM@@IABQAU3@@Z 00406cf0 f i plib:mapserver.obj
 0001:00005d00       ?_M_fill_insert@?$vector@USOLIDX2_ELEM@@V?$allocator@USOLIDX2_ELEM@@@_STL@@@_STL@@QAEXPAUSOLIDX2_ELEM@@IABU3@@Z 00406d00 f i plib:mapserver.obj
 0001:00005e50       ?_M_fill_insert@?$vector@USOLIDS_ELEM@@V?$allocator@USOLIDS_ELEM@@@_STL@@@_STL@@QAEXPAUSOLIDS_ELEM@@IABU3@@Z 00406e50 f i plib:mapserver.obj
 0001:00005f70       ??_GMapServer@@UAEPAXI@Z   00406f70 f i plib:mapserver.obj
 0001:00005f70       ??_EMapServer@@UAEPAXI@Z   00406f70 f i plib:mapserver.obj
 0001:00005f90       ?push_back@?$vector@UMapShape@@V?$allocator@UMapShape@@@_STL@@@_STL@@QAEXABUMapShape@@@Z 00406f90 f i plib:mapserver.obj
 0001:00005fd0       ?resize@?$vector@PAUSOLIDX2_ELEM@@V?$allocator@PAUSOLIDX2_ELEM@@@_STL@@@_STL@@QAEXIPAUSOLIDX2_ELEM@@@Z 00406fd0 f i plib:mapserver.obj
 0001:00006030       ?insert@?$vector@USOLIDX2_ELEM@@V?$allocator@USOLIDX2_ELEM@@@_STL@@@_STL@@QAEXPAUSOLIDX2_ELEM@@IABU3@@Z 00407030 f i plib:mapserver.obj
 0001:00006040       ?append@?$basic_string@DV?$char_traits@D@_STL@@V?$allocator@D@2@@_STL@@QAEAAV12@ABV12@@Z 00407040 f i plib:mapserver.obj
 0001:00006060       ?insert@?$vector@USOLIDS_ELEM@@V?$allocator@USOLIDS_ELEM@@@_STL@@@_STL@@QAEXPAUSOLIDS_ELEM@@IABU3@@Z 00407060 f i plib:mapserver.obj
 0001:00006070       ?GetMapShapes@MapServer@@QBEXAAVMapShapeList@@IIK@Z 00407070 f   plib:mapserver.obj
 0001:000061c0       ?resize@?$vector@PAUSOLIDX2_ELEM@@V?$allocator@PAUSOLIDX2_ELEM@@@_STL@@@_STL@@QAEXI@Z 004071c0 f i plib:mapserver.obj
 0001:000061d0       ?resize@?$vector@USOLIDX2_ELEM@@V?$allocator@USOLIDX2_ELEM@@@_STL@@@_STL@@QAEXIUSOLIDX2_ELEM@@@Z 004071d0 f i plib:mapserver.obj
 0001:00006230       ??$?HDV?$char_traits@D@_STL@@V?$allocator@D@1@@_STL@@YA?AV?$basic_string@DV?$char_traits@D@_STL@@V?$allocator@D@2@@0@ABV10@PBD@Z 00407230 f i plib:mapserver.obj
 0001:00006340       ??$?HDV?$char_traits@D@_STL@@V?$allocator@D@1@@_STL@@YA?AV?$basic_string@DV?$char_traits@D@_STL@@V?$allocator@D@2@@0@ABV10@0@Z 00407340 f i plib:mapserver.obj
 0001:00006440       ??$?HDV?$char_traits@D@_STL@@V?$allocator@D@1@@_STL@@YA?AV?$basic_string@DV?$char_traits@D@_STL@@V?$allocator@D@2@@0@PBDABV10@@Z 00407440 f i plib:mapserver.obj
 0001:00006550       ?resize@?$vector@USOLIDS_ELEM@@V?$allocator@USOLIDS_ELEM@@@_STL@@@_STL@@QAEXIUSOLIDS_ELEM@@@Z 00407550 f i plib:mapserver.obj
 0001:000065b0       ?LoadFirstLevelIndex@MapServer@@AAEXXZ 004075b0 f   plib:mapserver.obj
 0001:00006760       ?Create@MapServer@@SAPAV1@ABVRealmDescriptor@@@Z 00407760 f   plib:mapserver.obj
 0001:000068a0       ??0__Named_exception@_STL@@QAE@ABV01@@Z 004078a0 f i plib:mapserver.obj
 0001:000068d0       ??_G__Named_exception@_STL@@UAEPAXI@Z 004078d0 f i plib:mapserver.obj
 0001:000068d0       ??_E__Named_exception@_STL@@UAEPAXI@Z 004078d0 f i plib:mapserver.obj
 0001:000068f0       ??0runtime_error@_STL@@QAE@ABV01@@Z 004078f0 f i plib:mapserver.obj
 0001:00006920       ?resize@?$vector@USOLIDX2_ELEM@@V?$allocator@USOLIDX2_ELEM@@@_STL@@@_STL@@QAEXI@Z 00407920 f i plib:mapserver.obj
 0001:00006970       ?resize@?$vector@USOLIDS_ELEM@@V?$allocator@USOLIDS_ELEM@@@_STL@@@_STL@@QAEXI@Z 00407970 f i plib:mapserver.obj
 0001:00006990       ?LoadSecondLevelIndex@MapServer@@AAEXXZ 00407990 f   plib:mapserver.obj
 0001:00006d10       ??$ReadVector@USOLIDS_ELEM@@@BinaryFile@@QAEXAAV?$vector@USOLIDS_ELEM@@V?$allocator@USOLIDS_ELEM@@@_STL@@@_STL@@@Z 00407d10 f i plib:mapserver.obj
 0001:00006d50       ?LoadSolids@MapServer@@AAEXXZ 00407d50 f   plib:mapserver.obj
 0001:00006e90       ??0MapServer@@IAE@ABVRealmDescriptor@@@Z 00407e90 f   plib:mapserver.obj
 0001:00006f10       ??0RealmDescriptor@@AAE@ABV?$basic_string@DV?$char_traits@D@_STL@@V?$allocator@D@2@@_STL@@0AAVConfigElem@@@Z 00407f10 f   plib:realmdescriptor.obj
 0001:00007050       ?path@RealmDescriptor@@QBE?AV?$basic_string@DV?$char_traits@D@_STL@@V?$allocator@D@2@@_STL@@ABV23@@Z 00408050 f   plib:realmdescriptor.obj
 0001:000071b0       ?Load@RealmDescriptor@@SA?AV1@ABV?$basic_string@DV?$char_traits@D@_STL@@V?$allocator@D@2@@_STL@@0@Z 004081b0 f   plib:realmdescriptor.obj
 0001:00007440       ??$Read@UMAPBLOCK@@@BinaryFile@@QAEXAAUMAPBLOCK@@@Z 00408440 f i plib:filemapserver.obj
 0001:00007460       ?GetMapCell@FileMapServer@@UBE?AUMAPCELL@@II@Z 00408460 f   plib:filemapserver.obj
 0001:00007520       ??0FileMapServer@@QAE@ABVRealmDescriptor@@@Z 00408520 f   plib:filemapserver.obj
 0001:00007650       ??_GFileMapServer@@UAEPAXI@Z 00408650 f i plib:filemapserver.obj
 0001:00007650       ??_EFileMapServer@@UAEPAXI@Z 00408650 f i plib:filemapserver.obj
 0001:00007670       ??1FileMapServer@@UAE@XZ   00408670 f i plib:filemapserver.obj
 0001:000076d0       ??0?$allocator@UMAPBLOCK@@@_STL@@QAE@XZ 004086d0 f i plib:inmemorymapserver.obj
 0001:000076e0       ??1?$allocator@UMAPBLOCK@@@_STL@@QAE@XZ 004086e0 f i plib:inmemorymapserver.obj
 0001:000076f0       ?begin@?$vector@UMAPBLOCK@@V?$allocator@UMAPBLOCK@@@_STL@@@_STL@@QAEPAUMAPBLOCK@@XZ 004086f0 f i plib:inmemorymapserver.obj
 0001:00007700       ?begin@?$vector@UMAPBLOCK@@V?$allocator@UMAPBLOCK@@@_STL@@@_STL@@QBEPBUMAPBLOCK@@XZ 00408700 f i plib:inmemorymapserver.obj
 0001:00007710       ??1?$_STLP_alloc_proxy@PAUMAPBLOCK@@U1@V?$allocator@UMAPBLOCK@@@_STL@@@_STL@@QAE@XZ 00408710 f i plib:inmemorymapserver.obj
 0001:00007720       ?end@?$vector@UMAPBLOCK@@V?$allocator@UMAPBLOCK@@@_STL@@@_STL@@QAEPAUMAPBLOCK@@XZ 00408720 f i plib:inmemorymapserver.obj
 0001:00007730       ?size@?$vector@UMAPBLOCK@@V?$allocator@UMAPBLOCK@@@_STL@@@_STL@@QBEIXZ 00408730 f i plib:inmemorymapserver.obj
 0001:00007740       ??0?$allocator@UMAPBLOCK@@@_STL@@QAE@ABV01@@Z 00408740 f i plib:inmemorymapserver.obj
 0001:00007750       ??$Read@UMAPBLOCK@@@BinaryFile@@QAEXPAUMAPBLOCK@@I@Z 00408750 f i plib:inmemorymapserver.obj
 0001:00007760       ?_M_set@?$vector@UMAPBLOCK@@V?$allocator@UMAPBLOCK@@@_STL@@@_STL@@IAEXPAUMAPBLOCK@@00@Z 00408760 f i plib:inmemorymapserver.obj
 0001:00007780       ??$fill@PAUMAPBLOCK@@U1@@_STL@@YAXPAUMAPBLOCK@@0ABU1@@Z 00408780 f i plib:inmemorymapserver.obj
 0001:000077b0       ??$__copy@PAUMAPBLOCK@@PAU1@H@_STL@@YAPAUMAPBLOCK@@PAU1@00ABUrandom_access_iterator_tag@0@PAH@Z 004087b0 f i plib:inmemorymapserver.obj
 0001:00007800       ??$_Construct@UMAPBLOCK@@U1@@_STL@@YAXPAUMAPBLOCK@@ABU1@@Z 00408800 f i plib:inmemorymapserver.obj
 0001:00007820       ??$__copy_backward@PAUMAPBLOCK@@PAU1@H@_STL@@YAPAUMAPBLOCK@@PAU1@00ABUrandom_access_iterator_tag@0@PAH@Z 00408820 f i plib:inmemorymapserver.obj
 0001:00007870       ??$_Destroy@UMAPBLOCK@@@_STL@@YAXPAUMAPBLOCK@@@Z 00408870 f i plib:inmemorymapserver.obj
 0001:00007880       ??A?$vector@UMAPBLOCK@@V?$allocator@UMAPBLOCK@@@_STL@@@_STL@@QAEAAUMAPBLOCK@@I@Z 00408880 f i plib:inmemorymapserver.obj
 0001:00007890       ??A?$vector@UMAPBLOCK@@V?$allocator@UMAPBLOCK@@@_STL@@@_STL@@QBEABUMAPBLOCK@@I@Z 00408890 f i plib:inmemorymapserver.obj
 0001:000078a0       ?deallocate@?$allocator@UMAPBLOCK@@@_STL@@QAEXPAUMAPBLOCK@@I@Z 004088a0 f i plib:inmemorymapserver.obj
 0001:000078d0       ??0?$_STLP_alloc_proxy@PAUMAPBLOCK@@U1@V?$allocator@UMAPBLOCK@@@_STL@@@_STL@@QAE@ABV?$allocator@UMAPBLOCK@@@1@PAUMAPBLOCK@@@Z 004088d0 f i plib:inmemorymapserver.obj
 0001:000078e0       ??$__copy_ptrs@PAUMAPBLOCK@@PAU1@@_STL@@YAPAUMAPBLOCK@@PAU1@00ABU__false_type@0@@Z 004088e0 f i plib:inmemorymapserver.obj
 0001:00007900       ?allocate@?$allocator@UMAPBLOCK@@@_STL@@QAEPAUMAPBLOCK@@IPBX@Z 00408900 f i plib:inmemorymapserver.obj
 0001:00007930       ??$__copy_backward_ptrs@PAUMAPBLOCK@@PAU1@@_STL@@YAPAUMAPBLOCK@@PAU1@00ABU__false_type@0@@Z 00408930 f i plib:inmemorymapserver.obj
 0001:00007950       ??$__destroy_aux@PAUMAPBLOCK@@@_STL@@YAXPAUMAPBLOCK@@0ABU__false_type@0@@Z 00408950 f i plib:inmemorymapserver.obj
 0001:00007960       ?GetMapCell@InMemoryMapServer@@UBE?AUMAPCELL@@II@Z 00408960 f   plib:inmemorymapserver.obj
 0001:000079d0       ??0?$_Vector_base@UMAPBLOCK@@V?$allocator@UMAPBLOCK@@@_STL@@@_STL@@QAE@ABV?$allocator@UMAPBLOCK@@@1@@Z 004089d0 f i plib:inmemorymapserver.obj
 0001:00007a00       ??1?$_Vector_base@UMAPBLOCK@@V?$allocator@UMAPBLOCK@@@_STL@@@_STL@@QAE@XZ 00408a00 f i plib:inmemorymapserver.obj
 0001:00007a30       ??$__destroy@PAUMAPBLOCK@@U1@@_STL@@YAXPAUMAPBLOCK@@00@Z 00408a30 f i plib:inmemorymapserver.obj
 0001:00007a40       ??0?$vector@UMAPBLOCK@@V?$allocator@UMAPBLOCK@@@_STL@@@_STL@@QAE@ABV?$allocator@UMAPBLOCK@@@1@@Z 00408a40 f i plib:inmemorymapserver.obj
 0001:00007a50       ??$_Destroy@PAUMAPBLOCK@@@_STL@@YAXPAUMAPBLOCK@@0@Z 00408a50 f i plib:inmemorymapserver.obj
 0001:00007a60       ?_M_clear@?$vector@UMAPBLOCK@@V?$allocator@UMAPBLOCK@@@_STL@@@_STL@@IAEXXZ 00408a60 f i plib:inmemorymapserver.obj
 0001:00007a90       ??$__uninitialized_copy@PAUMAPBLOCK@@PAU1@@_STL@@YAPAUMAPBLOCK@@PAU1@00ABU__false_type@0@@Z 00408a90 f i plib:inmemorymapserver.obj
 0001:00007ad0       ??$__uninitialized_fill_n@PAUMAPBLOCK@@IU1@@_STL@@YAPAUMAPBLOCK@@PAU1@IABU1@ABU__false_type@0@@Z 00408ad0 f i plib:inmemorymapserver.obj
 0001:00007b00       ??1?$vector@UMAPBLOCK@@V?$allocator@UMAPBLOCK@@@_STL@@@_STL@@QAE@XZ 00408b00 f i plib:inmemorymapserver.obj
 0001:00007b30       ?erase@?$vector@UMAPBLOCK@@V?$allocator@UMAPBLOCK@@@_STL@@@_STL@@QAEPAUMAPBLOCK@@PAU3@0@Z 00408b30 f i plib:inmemorymapserver.obj
 0001:00007b60       ?_M_insert_overflow@?$vector@UMAPBLOCK@@V?$allocator@UMAPBLOCK@@@_STL@@@_STL@@IAEXPAUMAPBLOCK@@ABU3@ABU__false_type@2@I_N@Z 00408b60 f i plib:inmemorymapserver.obj
 0001:00007cd0       ??$uninitialized_fill_n@PAUMAPBLOCK@@IU1@@_STL@@YAPAUMAPBLOCK@@PAU1@IABU1@@Z 00408cd0 f i plib:inmemorymapserver.obj
 0001:00007cf0       ??1InMemoryMapServer@@UAE@XZ 00408cf0 f   plib:inmemorymapserver.obj
 0001:00007d70       ?_M_fill_insert@?$vector@UMAPBLOCK@@V?$allocator@UMAPBLOCK@@@_STL@@@_STL@@QAEXPAUMAPBLOCK@@IABU3@@Z 00408d70 f i plib:inmemorymapserver.obj
 0001:00007e90       ??_EInMemoryMapServer@@UAEPAXI@Z 00408e90 f i plib:inmemorymapserver.obj
 0001:00007e90       ??_GInMemoryMapServer@@UAEPAXI@Z 00408e90 f i plib:inmemorymapserver.obj
 0001:00007eb0       ?insert@?$vector@UMAPBLOCK@@V?$allocator@UMAPBLOCK@@@_STL@@@_STL@@QAEXPAUMAPBLOCK@@IABU3@@Z 00408eb0 f i plib:inmemorymapserver.obj
 0001:00007ec0       ?resize@?$vector@UMAPBLOCK@@V?$allocator@UMAPBLOCK@@@_STL@@@_STL@@QAEXIUMAPBLOCK@@@Z 00408ec0 f i plib:inmemorymapserver.obj
 0001:00007f10       ?resize@?$vector@UMAPBLOCK@@V?$allocator@UMAPBLOCK@@@_STL@@@_STL@@QAEXI@Z 00408f10 f i plib:inmemorymapserver.obj
 0001:00007f60       ??0InMemoryMapServer@@QAE@ABVRealmDescriptor@@@Z 00408f60 f   plib:inmemorymapserver.obj
 0001:000080f0       ??3@YAXPAX0@Z              004090f0 f i clib:cfgfile.obj
 0001:00008100       ?to_char_type@?$char_traits@D@_STL@@SADABH@Z 00409100 f i clib:cfgfile.obj
 0001:00008110       ?is@?$ctype@D@_STL@@QBE_NW4mask@ctype_base@2@D@Z 00409110 f i clib:cfgfile.obj
 0001:00008130       ?fail@ios_base@_STL@@QBE_NXZ 00409130 f i clib:cfgfile.obj
 0001:00008140       ?_FILE_I_begin@_STL@@YAPADPBU_iobuf@@@Z 00409140 f i clib:cfgfile.obj
 0001:00008150       ?_FILE_I_next@_STL@@YAPADPBU_iobuf@@@Z 00409150 f i clib:cfgfile.obj
 0001:00008160       ?_FILE_I_end@_STL@@YAPADPBU_iobuf@@@Z 00409160 f i clib:cfgfile.obj
 0001:00008170       ?_FILE_I_predecr@_STL@@YAAADPAU_iobuf@@@Z 00409170 f i clib:cfgfile.obj
 0001:00008180       ?_FILE_I_bump@_STL@@YAXPAU_iobuf@@H@Z 00409180 f i clib:cfgfile.obj
 0001:00008190       ?_FILE_O_begin@_STL@@YAPADPBU_iobuf@@@Z 00409190 f i clib:cfgfile.obj
 0001:000081a0       ?_FILE_O_next@_STL@@YAPADPBU_iobuf@@@Z 004091a0 f i clib:cfgfile.obj
 0001:000081b0       ?_FILE_O_end@_STL@@YAPADPBU_iobuf@@@Z 004091b0 f i clib:cfgfile.obj
 0001:000081c0       ?gptr@?$basic_streambuf@DV?$char_traits@D@_STL@@@_STL@@IBEPADXZ 004091c0 f i clib:cfgfile.obj
 0001:000081d0       ?egptr@?$basic_streambuf@DV?$char_traits@D@_STL@@@_STL@@IBEPADXZ 004091d0 f i clib:cfgfile.obj
 0001:000081e0       ?_M_gptr@?$basic_streambuf@DV?$char_traits@D@_STL@@@_STL@@QBEPADXZ 004091e0 f i clib:cfgfile.obj
 0001:000081f0       ?_M_egptr@?$basic_streambuf@DV?$char_traits@D@_STL@@@_STL@@QBEPADXZ 004091f0 f i clib:cfgfile.obj
 0001:00008200       ?_M_gbump@?$basic_streambuf@DV?$char_traits@D@_STL@@@_STL@@QAEXH@Z 00409200 f i clib:cfgfile.obj
 0001:00008210       ?pbase@?$basic_streambuf@DV?$char_traits@D@_STL@@@_STL@@IBEPADXZ 00409210 f i clib:cfgfile.obj
 0001:00008220       ?pptr@?$basic_streambuf@DV?$char_traits@D@_STL@@@_STL@@IBEPADXZ 00409220 f i clib:cfgfile.obj
 0001:00008230       ?epptr@?$basic_streambuf@DV?$char_traits@D@_STL@@@_STL@@IBEPADXZ 00409230 f i clib:cfgfile.obj
 0001:00008240       ?sbumpc@?$basic_streambuf@DV?$char_traits@D@_STL@@@_STL@@QAEHXZ 00409240 f i clib:cfgfile.obj
 0001:00008260       ?sgetc@?$basic_streambuf@DV?$char_traits@D@_STL@@@_STL@@QAEHXZ 00409260 f i clib:cfgfile.obj
 0001:00008280       ?sputbackc@?$basic_streambuf@DV?$char_traits@D@_STL@@@_STL@@QAEHD@Z 00409280 f i clib:cfgfile.obj
 0001:000082c0       ??8_Rb_tree_base_iterator@_STL@@QBE_NABU01@@Z 004092c0 f i clib:cfgfile.obj
 0001:000082d0       ??9_Rb_tree_base_iterator@_STL@@QBE_NABU01@@Z 004092d0 f i clib:cfgfile.obj
 0001:000082f0       ??1ConfigSource@@UAE@XZ    004092f0 f i clib:cfgfile.obj
 0001:00008300       ??_GConfigSource@@UAEPAXI@Z 00409300 f i clib:cfgfile.obj
 0001:00008300       ??_EConfigSource@@UAEPAXI@Z 00409300 f i clib:cfgfile.obj
 0001:00008320       ?set_source@ConfigElem@@QAEXABV1@@Z 00409320 f   clib:cfgfile.obj
 0001:00008330       ?set_source@ConfigElem@@QAEXPBVConfigSource@@@Z 00409330 f   clib:cfgfile.obj
 0001:00008340       ?warn@ConfigElem@@QBEXABV?$basic_string@DV?$char_traits@D@_STL@@V?$allocator@D@2@@_STL@@@Z 00409340 f   clib:cfgfile.obj
 0001:00008360       ?warn_with_line@ConfigElem@@QBEXABV?$basic_string@DV?$char_traits@D@_STL@@V?$allocator@D@2@@_STL@@@Z 00409360 f   clib:cfgfile.obj
 0001:00008380       ??0ConfigSource@@QAE@XZ    00409380 f i clib:cfgfile.obj
 0001:00008390       ?filename@ConfigFile@@QBEABV?$basic_string@DV?$char_traits@D@_STL@@V?$allocator@D@2@@_STL@@XZ 00409390 f   clib:cfgfile.obj
 0001:000083a0       ?modified@ConfigFile@@QBE?BJXZ 004093a0 f   clib:cfgfile.obj
 0001:000083b0       ?element_line_start@ConfigFile@@QBEIXZ 004093b0 f   clib:cfgfile.obj
 0001:000083c0       ?empty@?$basic_string@DV?$char_traits@D@_STL@@V?$allocator@D@2@@_STL@@QBE_NXZ 004093c0 f i clib:cfgfile.obj
 0001:000083d0       ??A?$basic_string@DV?$char_traits@D@_STL@@V?$allocator@D@2@@_STL@@QBEABDI@Z 004093d0 f i clib:cfgfile.obj
 0001:000083e0       ??A?$basic_string@DV?$char_traits@D@_STL@@V?$allocator@D@2@@_STL@@QAEAADI@Z 004093e0 f i clib:cfgfile.obj
 0001:000083f0       ?c_str@?$basic_string@DV?$char_traits@D@_STL@@V?$allocator@D@2@@_STL@@QBEPBDXZ 004093f0 f i clib:cfgfile.obj
 0001:00008400       ??1?$basic_istream@DV?$char_traits@D@_STL@@@_STL@@UAE@XZ 00409400 f i clib:cfgfile.obj
 0001:00008410       ?begin@?$vector@PAVConfigProperty@@V?$allocator@PAVConfigProperty@@@_STL@@@_STL@@QAEPAPAVConfigProperty@@XZ 00409410 f i clib:cfgfile.obj
 0001:00008420       ?begin@?$vector@PAVConfigProperty@@V?$allocator@PAVConfigProperty@@@_STL@@@_STL@@QBEPBQAVConfigProperty@@XZ 00409420 f i clib:cfgfile.obj
 0001:00008430       ?end@?$vector@PAVConfigProperty@@V?$allocator@PAVConfigProperty@@@_STL@@@_STL@@QAEPAPAVConfigProperty@@XZ 00409430 f i clib:cfgfile.obj
 0001:00008440       ?end@?$vector@PAVConfigProperty@@V?$allocator@PAVConfigProperty@@@_STL@@@_STL@@QBEPBQAVConfigProperty@@XZ 00409440 f i clib:cfgfile.obj
 0001:00008450       ?empty@?$vector@PAVConfigProperty@@V?$allocator@PAVConfigProperty@@@_STL@@@_STL@@QBE_NXZ 00409450 f i clib:cfgfile.obj
 0001:00008460       ?front@?$vector@PAVConfigProperty@@V?$allocator@PAVConfigProperty@@@_STL@@@_STL@@QAEAAPAVConfigProperty@@XZ 00409460 f i clib:cfgfile.obj
 0001:00008470       ?back@?$vector@PAVConfigProperty@@V?$allocator@PAVConfigProperty@@@_STL@@@_STL@@QAEAAPAVConfigProperty@@XZ 00409470 f i clib:cfgfile.obj
 0001:00008480       ??0?$_Rb_tree_iterator@U?$pair@$$CBV?$basic_string@DV?$char_traits@D@_STL@@V?$allocator@D@2@@_STL@@V12@@_STL@@U?$_Nonconst_traits@U?$pair@$$CBV?$basic_string@DV?$char_traits@D@_STL@@V?$allocator@D@2@@_STL@@V12@@_STL@@@2@@_STL@@QAE@ABU01@@Z 00409480 f i clib:cfgfile.obj
 0001:00008490       ??D?$_Rb_tree_iterator@U?$pair@$$CBV?$basic_string@DV?$char_traits@D@_STL@@V?$allocator@D@2@@_STL@@V12@@_STL@@U?$_Nonconst_traits@U?$pair@$$CBV?$basic_string@DV?$char_traits@D@_STL@@V?$allocator@D@2@@_STL@@V12@@_STL@@@2@@_STL@@QBEAAU?$pair@$$CBV?$basic_string@DV?$char_traits@D@_STL@@V?$allocator@D@2@@_STL@@V12@@1@XZ 00409490 f i clib:cfgfile.obj
 0001:000084a0       ??D?$_Rb_tree_iterator@U?$pair@$$CBV?$basic_string@DV?$char_traits@D@_STL@@V?$allocator@D@2@@_STL@@V12@@_STL@@U?$_Const_traits@U?$pair@$$CBV?$basic_string@DV?$char_traits@D@_STL@@V?$allocator@D@2@@_STL@@V12@@_STL@@@2@@_STL@@QBEABU?$pair@$$CBV?$basic_string@DV?$char_traits@D@_STL@@V?$allocator@D@2@@_STL@@V12@@1@XZ 004094a0 f i clib:cfgfile.obj
 0001:000084b0       ??D?$_Rb_tree_iterator@V?$basic_string@DV?$char_traits@D@_STL@@V?$allocator@D@2@@_STL@@U?$_Const_traits@V?$basic_string@DV?$char_traits@D@_STL@@V?$allocator@D@2@@_STL@@@2@@_STL@@QBEABV?$basic_string@DV?$char_traits@D@_STL@@V?$allocator@D@2@@1@XZ 004094b0 f i clib:cfgfile.obj
 0001:000084c0       ??E?$_Rb_tree_iterator@V?$basic_string@DV?$char_traits@D@_STL@@V?$allocator@D@2@@_STL@@U?$_Const_traits@V?$basic_string@DV?$char_traits@D@_STL@@V?$allocator@D@2@@_STL@@@2@@_STL@@QAEAAU01@XZ 004094c0 f i clib:cfgfile.obj
 0001:000084e0       ?empty@?$_Rb_tree@V?$basic_string@DV?$char_traits@D@_STL@@V?$allocator@D@2@@_STL@@U?$pair@$$CBV?$basic_string@DV?$char_traits@D@_STL@@V?$allocator@D@2@@_STL@@V12@@2@U?$_Select1st@U?$pair@$$CBV?$basic_string@DV?$char_traits@D@_STL@@V?$allocator@D@2@@_STL@@V12@@_STL@@@2@Vci_cmp_pred@@V?$allocator@U?$pair@$$CBV?$basic_string@DV?$char_traits@D@_STL@@V?$allocator@D@2@@_STL@@V12@@_STL@@@2@@_STL@@QBE_NXZ 004094e0 f i clib:cfgfile.obj
 0001:000084f0       ??0?$allocator@U?$pair@$$CBV?$basic_string@DV?$char_traits@D@_STL@@V?$allocator@D@2@@_STL@@V12@@_STL@@@_STL@@QAE@XZ 004094f0 f i clib:cfgfile.obj
 0001:00008500       ??1?$allocator@U?$pair@$$CBV?$basic_string@DV?$char_traits@D@_STL@@V?$allocator@D@2@@_STL@@V12@@_STL@@@_STL@@QAE@XZ 00409500 f i clib:cfgfile.obj
 0001:00008510       ?empty@?$_Rb_tree@V?$basic_string@DV?$char_traits@D@_STL@@V?$allocator@D@2@@_STL@@V12@U?$_Identity@V?$basic_string@DV?$char_traits@D@_STL@@V?$allocator@D@2@@_STL@@@2@Vci_cmp_pred@@V?$allocator@V?$basic_string@DV?$char_traits@D@_STL@@V?$allocator@D@2@@_STL@@@2@@_STL@@QBE_NXZ 00409510 f i clib:cfgfile.obj
 0001:00008520       ??0?$allocator@V?$basic_string@DV?$char_traits@D@_STL@@V?$allocator@D@2@@_STL@@@_STL@@QAE@XZ 00409520 f i clib:cfgfile.obj
 0001:00008530       ??1?$allocator@V?$basic_string@DV?$char_traits@D@_STL@@V?$allocator@D@2@@_STL@@@_STL@@QAE@XZ 00409530 f i clib:cfgfile.obj
 0001:00008540       ??0?$pair@U?$_Rb_tree_iterator@V?$basic_string@DV?$char_traits@D@_STL@@V?$allocator@D@2@@_STL@@U?$_Const_traits@V?$basic_string@DV?$char_traits@D@_STL@@V?$allocator@D@2@@_STL@@@2@@_STL@@_N@_STL@@QAE@ABU?$_Rb_tree_iterator@V?$basic_string@DV?$char_traits@D@_STL@@V?$allocator@D@2@@_STL@@U?$_Const_traits@V?$basic_string@DV?$char_traits@D@_STL@@V?$allocator@D@2@@_STL@@@2@@1@AB_N@Z 00409540 f i clib:cfgfile.obj
 0001:00008560       ?copy@?$__char_traits_base@DH@_STL@@SAPADPADPBDI@Z 00409560 f i clib:cfgfile.obj
 0001:00008590       ?begin@?$basic_string@DV?$char_traits@D@_STL@@V?$allocator@D@2@@_STL@@QAEPADXZ 00409590 f i clib:cfgfile.obj
 0001:000085a0       ?_M_root@?$_Rb_tree@V?$basic_string@DV?$char_traits@D@_STL@@V?$allocator@D@2@@_STL@@U?$pair@$$CBV?$basic_string@DV?$char_traits@D@_STL@@V?$allocator@D@2@@_STL@@V12@@2@U?$_Select1st@U?$pair@$$CBV?$basic_string@DV?$char_traits@D@_STL@@V?$allocator@D@2@@_STL@@V12@@_STL@@@2@Vci_cmp_pred@@V?$allocator@U?$pair@$$CBV?$basic_string@DV?$char_traits@D@_STL@@V?$allocator@D@2@@_STL@@V12@@_STL@@@2@@_STL@@IBEAAPAU?$_Rb_tree_node@U?$pair@$$CBV?$basic_string@DV?$char_traits@D@_STL@@V?$allocator@D@2@@_STL@@V12@@_STL@@@2@XZ 004095a0 f i clib:cfgfile.obj
 0001:000085b0       ?_M_leftmost@?$_Rb_tree@V?$basic_string@DV?$char_traits@D@_STL@@V?$allocator@D@2@@_STL@@U?$pair@$$CBV?$basic_string@DV?$char_traits@D@_STL@@V?$allocator@D@2@@_STL@@V12@@2@U?$_Select1st@U?$pair@$$CBV?$basic_string@DV?$char_traits@D@_STL@@V?$allocator@D@2@@_STL@@V12@@_STL@@@2@Vci_cmp_pred@@V?$allocator@U?$pair@$$CBV?$basic_string@DV?$char_traits@D@_STL@@V?$allocator@D@2@@_STL@@V12@@_STL@@@2@@_STL@@IBEAAPAU?$_Rb_tree_node@U?$pair@$$CBV?$basic_string@DV?$char_traits@D@_STL@@V?$allocator@D@2@@_STL@@V12@@_STL@@@2@XZ 004095b0 f i clib:cfgfile.obj
 0001:000085c0       ?_M_rightmost@?$_Rb_tree@V?$basic_string@DV?$char_traits@D@_STL@@V?$allocator@D@2@@_STL@@U?$pair@$$CBV?$basic_string@DV?$char_traits@D@_STL@@V?$allocator@D@2@@_STL@@V12@@2@U?$_Select1st@U?$pair@$$CBV?$basic_string@DV?$char_traits@D@_STL@@V?$allocator@D@2@@_STL@@V12@@_STL@@@2@Vci_cmp_pred@@V?$allocator@U?$pair@$$CBV?$basic_string@DV?$char_traits@D@_STL@@V?$allocator@D@2@@_STL@@V12@@_STL@@@2@@_STL@@IBEAAPAU?$_Rb_tree_node@U?$pair@$$CBV?$basic_string@DV?$char_traits@D@_STL@@V?$allocator@D@2@@_STL@@V12@@_STL@@@2@XZ 004095c0 f i clib:cfgfile.obj
 0001:000085d0       ??1?$allocator@U?$_Rb_tree_node@U?$pair@$$CBV?$basic_string@DV?$char_traits@D@_STL@@V?$allocator@D@2@@_STL@@V12@@_STL@@@_STL@@@_STL@@QAE@XZ 004095d0 f i clib:cfgfile.obj
 0001:000085e0       ?size@?$vector@PAVConfigProperty@@V?$allocator@PAVConfigProperty@@@_STL@@@_STL@@QBEIXZ 004095e0 f i clib:cfgfile.obj
 0001:000085f0       ?_M_set@?$vector@PAVConfigProperty@@V?$allocator@PAVConfigProperty@@@_STL@@@_STL@@IAEXPAPAVConfigProperty@@00@Z 004095f0 f i clib:cfgfile.obj
 0001:00008610       ?_M_root@?$_Rb_tree@V?$basic_string@DV?$char_traits@D@_STL@@V?$allocator@D@2@@_STL@@V12@U?$_Identity@V?$basic_string@DV?$char_traits@D@_STL@@V?$allocator@D@2@@_STL@@@2@Vci_cmp_pred@@V?$allocator@V?$basic_string@DV?$char_traits@D@_STL@@V?$allocator@D@2@@_STL@@@2@@_STL@@IBEAAPAU?$_Rb_tree_node@V?$basic_string@DV?$char_traits@D@_STL@@V?$allocator@D@2@@_STL@@@2@XZ 00409610 f i clib:cfgfile.obj
 0001:00008620       ?_M_leftmost@?$_Rb_tree@V?$basic_string@DV?$char_traits@D@_STL@@V?$allocator@D@2@@_STL@@V12@U?$_Identity@V?$basic_string@DV?$char_traits@D@_STL@@V?$allocator@D@2@@_STL@@@2@Vci_cmp_pred@@V?$allocator@V?$basic_string@DV?$char_traits@D@_STL@@V?$allocator@D@2@@_STL@@@2@@_STL@@IBEAAPAU?$_Rb_tree_node@V?$basic_string@DV?$char_traits@D@_STL@@V?$allocator@D@2@@_STL@@@2@XZ 00409620 f i clib:cfgfile.obj
 0001:00008630       ?_M_rightmost@?$_Rb_tree@V?$basic_string@DV?$char_traits@D@_STL@@V?$allocator@D@2@@_STL@@V12@U?$_Identity@V?$basic_string@DV?$char_traits@D@_STL@@V?$allocator@D@2@@_STL@@@2@Vci_cmp_pred@@V?$allocator@V?$basic_string@DV?$char_traits@D@_STL@@V?$allocator@D@2@@_STL@@@2@@_STL@@IBEAAPAU?$_Rb_tree_node@V?$basic_string@DV?$char_traits@D@_STL@@V?$allocator@D@2@@_STL@@@2@XZ 00409630 f i clib:cfgfile.obj
 0001:00008640       ??1?$allocator@U?$_Rb_tree_node@V?$basic_string@DV?$char_traits@D@_STL@@V?$allocator@D@2@@_STL@@@_STL@@@_STL@@QAE@XZ 00409640 f i clib:cfgfile.obj
 0001:00008650       ??0?$_Rb_tree_iterator@U?$pair@$$CBV?$basic_string@DV?$char_traits@D@_STL@@V?$allocator@D@2@@_STL@@V12@@_STL@@U?$_Nonconst_traits@U?$pair@$$CBV?$basic_string@DV?$char_traits@D@_STL@@V?$allocator@D@2@@_STL@@V12@@_STL@@@2@@_STL@@QAE@PAU?$_Rb_tree_node@U?$pair@$$CBV?$basic_string@DV?$char_traits@D@_STL@@V?$allocator@D@2@@_STL@@V12@@_STL@@@1@@Z 00409650 f i clib:cfgfile.obj
 0001:00008660       ??0?$_Rb_tree_iterator@U?$pair@$$CBV?$basic_string@DV?$char_traits@D@_STL@@V?$allocator@D@2@@_STL@@V12@@_STL@@U?$_Const_traits@U?$pair@$$CBV?$basic_string@DV?$char_traits@D@_STL@@V?$allocator@D@2@@_STL@@V12@@_STL@@@2@@_STL@@QAE@PAU?$_Rb_tree_node@U?$pair@$$CBV?$basic_string@DV?$char_traits@D@_STL@@V?$allocator@D@2@@_STL@@V12@@_STL@@@1@@Z 00409660 f i clib:cfgfile.obj
 0001:00008670       ??0?$_Rb_tree_iterator@V?$basic_string@DV?$char_traits@D@_STL@@V?$allocator@D@2@@_STL@@U?$_Const_traits@V?$basic_string@DV?$char_traits@D@_STL@@V?$allocator@D@2@@_STL@@@2@@_STL@@QAE@PAU?$_Rb_tree_node@V?$basic_string@DV?$char_traits@D@_STL@@V?$allocator@D@2@@_STL@@@1@@Z 00409670 f i clib:cfgfile.obj
 0001:00008680       ?_S_color@?$_Rb_tree@V?$basic_string@DV?$char_traits@D@_STL@@V?$allocator@D@2@@_STL@@U?$pair@$$CBV?$basic_string@DV?$char_traits@D@_STL@@V?$allocator@D@2@@_STL@@V12@@2@U?$_Select1st@U?$pair@$$CBV?$basic_string@DV?$char_traits@D@_STL@@V?$allocator@D@2@@_STL@@V12@@_STL@@@2@Vci_cmp_pred@@V?$allocator@U?$pair@$$CBV?$basic_string@DV?$char_traits@D@_STL@@V?$allocator@D@2@@_STL@@V12@@_STL@@@2@@_STL@@KAAA_NPAU?$_Rb_tree_node@U?$pair@$$CBV?$basic_string@DV?$char_traits@D@_STL@@V?$allocator@D@2@@_STL@@V12@@_STL@@@2@@Z 00409680 f i clib:cfgfile.obj
 0001:00008690       ?_S_color@?$_Rb_tree@V?$basic_string@DV?$char_traits@D@_STL@@V?$allocator@D@2@@_STL@@V12@U?$_Identity@V?$basic_string@DV?$char_traits@D@_STL@@V?$allocator@D@2@@_STL@@@2@Vci_cmp_pred@@V?$allocator@V?$basic_string@DV?$char_traits@D@_STL@@V?$allocator@D@2@@_STL@@@2@@_STL@@KAAA_NPAU?$_Rb_tree_node@V?$basic_string@DV?$char_traits@D@_STL@@V?$allocator@D@2@@_STL@@@2@@Z 00409690 f i clib:cfgfile.obj
 0001:000086a0       ??0?$allocator@U?$_Rb_tree_node@U?$pair@$$CBV?$basic_string@DV?$char_traits@D@_STL@@V?$allocator@D@2@@_STL@@V12@@_STL@@@_STL@@@_STL@@QAE@ABV01@@Z 004096a0 f i clib:cfgfile.obj
 0001:000086b0       ??0?$allocator@U?$_Rb_tree_node@V?$basic_string@DV?$char_traits@D@_STL@@V?$allocator@D@2@@_STL@@@_STL@@@_STL@@QAE@ABV01@@Z 004096b0 f i clib:cfgfile.obj
 0001:000086c0       ??$min@I@_STL@@YAABIABI0@Z 004096c0 f i clib:cfgfile.obj
 0001:000086e0       ??$min@H@_STL@@YAABHABH0@Z 004096e0 f i clib:cfgfile.obj
 0001:00008700       ?_M_throw_out_of_range@?$_String_base@DV?$allocator@D@_STL@@@_STL@@QBEXXZ 00409700 f i clib:cfgfile.obj
 0001:00008710       ??$swap@PAD@_STL@@YAXAAPAD0@Z 00409710 f i clib:cfgfile.obj
 0001:00008730       ??$_Construct@PAVConfigProperty@@PAV1@@_STL@@YAXPAPAVConfigProperty@@ABQAV1@@Z 00409730 f i clib:cfgfile.obj
 0001:00008750       ??$_Destroy@PAVConfigProperty@@@_STL@@YAXPAPAVConfigProperty@@@Z 00409750 f i clib:cfgfile.obj
 0001:00008760       ??$__copy_ptrs@PAPAVConfigProperty@@PAPAV1@@_STL@@YAPAPAVConfigProperty@@PAPAV1@00ABU__true_type@0@@Z 00409760 f i clib:cfgfile.obj
 0001:00008790       ??$fill_n@PAPAVConfigProperty@@IPAV1@@_STL@@YAPAPAVConfigProperty@@PAPAV1@IABQAV1@@Z 00409790 f i clib:cfgfile.obj
 0001:000087b0       ??$?0U?$pair@$$CBV?$basic_string@DV?$char_traits@D@_STL@@V?$allocator@D@2@@_STL@@V12@@_STL@@@?$allocator@U?$_Rb_tree_node@U?$pair@$$CBV?$basic_string@DV?$char_traits@D@_STL@@V?$allocator@D@2@@_STL@@V12@@_STL@@@_STL@@@_STL@@QAE@ABV?$allocator@U?$pair@$$CBV?$basic_string@DV?$char_traits@D@_STL@@V?$allocator@D@2@@_STL@@V12@@_STL@@@1@@Z 004097b0 f i clib:cfgfile.obj
 0001:000087c0       ??$?0V?$basic_string@DV?$char_traits@D@_STL@@V?$allocator@D@2@@_STL@@@?$allocator@U?$_Rb_tree_node@V?$basic_string@DV?$char_traits@D@_STL@@V?$allocator@D@2@@_STL@@@_STL@@@_STL@@QAE@ABV?$allocator@V?$basic_string@DV?$char_traits@D@_STL@@V?$allocator@D@2@@_STL@@@1@@Z 004097c0 f i clib:cfgfile.obj
 0001:000087d0       ?_S_left@?$_Rb_tree@V?$basic_string@DV?$char_traits@D@_STL@@V?$allocator@D@2@@_STL@@U?$pair@$$CBV?$basic_string@DV?$char_traits@D@_STL@@V?$allocator@D@2@@_STL@@V12@@2@U?$_Select1st@U?$pair@$$CBV?$basic_string@DV?$char_traits@D@_STL@@V?$allocator@D@2@@_STL@@V12@@_STL@@@2@Vci_cmp_pred@@V?$allocator@U?$pair@$$CBV?$basic_string@DV?$char_traits@D@_STL@@V?$allocator@D@2@@_STL@@V12@@_STL@@@2@@_STL@@KAAAPAU?$_Rb_tree_node@U?$pair@$$CBV?$basic_string@DV?$char_traits@D@_STL@@V?$allocator@D@2@@_STL@@V12@@_STL@@@2@PAU32@@Z 004097d0 f i clib:cfgfile.obj
 0001:000087e0       ?_S_right@?$_Rb_tree@V?$basic_string@DV?$char_traits@D@_STL@@V?$allocator@D@2@@_STL@@U?$pair@$$CBV?$basic_string@DV?$char_traits@D@_STL@@V?$allocator@D@2@@_STL@@V12@@2@U?$_Select1st@U?$pair@$$CBV?$basic_string@DV?$char_traits@D@_STL@@V?$allocator@D@2@@_STL@@V12@@_STL@@@2@Vci_cmp_pred@@V?$allocator@U?$pair@$$CBV?$basic_string@DV?$char_traits@D@_STL@@V?$allocator@D@2@@_STL@@V12@@_STL@@@2@@_STL@@KAAAPAU?$_Rb_tree_node@U?$pair@$$CBV?$basic_string@DV?$char_traits@D@_STL@@V?$allocator@D@2@@_STL@@V12@@_STL@@@2@PAU32@@Z 004097e0 f i clib:cfgfile.obj
 0001:000087f0       ?_S_left@?$_Rb_tree@V?$basic_string@DV?$char_traits@D@_STL@@V?$allocator@D@2@@_STL@@V12@U?$_Identity@V?$basic_string@DV?$char_traits@D@_STL@@V?$allocator@D@2@@_STL@@@2@Vci_cmp_pred@@V?$allocator@V?$basic_string@DV?$char_traits@D@_STL@@V?$allocator@D@2@@_STL@@@2@@_STL@@KAAAPAU?$_Rb_tree_node@V?$basic_string@DV?$char_traits@D@_STL@@V?$allocator@D@2@@_STL@@@2@PAU32@@Z 004097f0 f i clib:cfgfile.obj
 0001:00008800       ?_S_right@?$_Rb_tree@V?$basic_string@DV?$char_traits@D@_STL@@V?$allocator@D@2@@_STL@@V12@U?$_Identity@V?$basic_string@DV?$char_traits@D@_STL@@V?$allocator@D@2@@_STL@@@2@Vci_cmp_pred@@V?$allocator@V?$basic_string@DV?$char_traits@D@_STL@@V?$allocator@D@2@@_STL@@@2@@_STL@@KAAAPAU?$_Rb_tree_node@V?$basic_string@DV?$char_traits@D@_STL@@V?$allocator@D@2@@_STL@@@2@PAU32@@Z 00409800 f i clib:cfgfile.obj
 0001:00008810       ??0?$_Rb_tree_iterator@V?$basic_string@DV?$char_traits@D@_STL@@V?$allocator@D@2@@_STL@@U?$_Nonconst_traits@V?$basic_string@DV?$char_traits@D@_STL@@V?$allocator@D@2@@_STL@@@2@@_STL@@QAE@PAU?$_Rb_tree_node@V?$basic_string@DV?$char_traits@D@_STL@@V?$allocator@D@2@@_STL@@@1@@Z 00409810 f i clib:cfgfile.obj
 0001:00008820       ??F?$_Rb_tree_iterator@V?$basic_string@DV?$char_traits@D@_STL@@V?$allocator@D@2@@_STL@@U?$_Nonconst_traits@V?$basic_string@DV?$char_traits@D@_STL@@V?$allocator@D@2@@_STL@@@2@@_STL@@QAEAAU01@XZ 00409820 f i clib:cfgfile.obj
 0001:00008840       ??R?$_Select1st@U?$pair@$$CBV?$basic_string@DV?$char_traits@D@_STL@@V?$allocator@D@2@@_STL@@V12@@_STL@@@_STL@@QBEABV?$basic_string@DV?$char_traits@D@_STL@@V?$allocator@D@2@@1@ABU?$pair@$$CBV?$basic_string@DV?$char_traits@D@_STL@@V?$allocator@D@2@@_STL@@V12@@1@@Z 00409840 f i clib:cfgfile.obj
 0001:00008850       ??R?$_Identity@V?$basic_string@DV?$char_traits@D@_STL@@V?$allocator@D@2@@_STL@@@_STL@@QBEABV?$basic_string@DV?$char_traits@D@_STL@@V?$allocator@D@2@@1@ABV21@@Z 00409850 f i clib:cfgfile.obj
 0001:00008860       ??1sentry@?$basic_istream@DV?$char_traits@D@_STL@@@_STL@@QAE@XZ 00409860 f i clib:cfgfile.obj
 0001:00008870       ??Bsentry@?$basic_istream@DV?$char_traits@D@_STL@@@_STL@@QBE_NXZ 00409870 f i clib:cfgfile.obj
 0001:00008880       ?_M_null@?$basic_string@DV?$char_traits@D@_STL@@V?$allocator@D@2@@_STL@@SADXZ 00409880 f i clib:cfgfile.obj
 0001:00008890       ?_S_value@?$_Rb_tree@V?$basic_string@DV?$char_traits@D@_STL@@V?$allocator@D@2@@_STL@@U?$pair@$$CBV?$basic_string@DV?$char_traits@D@_STL@@V?$allocator@D@2@@_STL@@V12@@2@U?$_Select1st@U?$pair@$$CBV?$basic_string@DV?$char_traits@D@_STL@@V?$allocator@D@2@@_STL@@V12@@_STL@@@2@Vci_cmp_pred@@V?$allocator@U?$pair@$$CBV?$basic_string@DV?$char_traits@D@_STL@@V?$allocator@D@2@@_STL@@V12@@_STL@@@2@@_STL@@KAAAU?$pair@$$CBV?$basic_string@DV?$char_traits@D@_STL@@V?$allocator@D@2@@_STL@@V12@@2@PAU?$_Rb_tree_node@U?$pair@$$CBV?$basic_string@DV?$char_traits@D@_STL@@V?$allocator@D@2@@_STL@@V12@@_STL@@@2@@Z 00409890 f i clib:cfgfile.obj
 0001:000088a0       ?_S_value@?$_Rb_tree@V?$basic_string@DV?$char_traits@D@_STL@@V?$allocator@D@2@@_STL@@V12@U?$_Identity@V?$basic_string@DV?$char_traits@D@_STL@@V?$allocator@D@2@@_STL@@@2@Vci_cmp_pred@@V?$allocator@V?$basic_string@DV?$char_traits@D@_STL@@V?$allocator@D@2@@_STL@@@2@@_STL@@KAAAV?$basic_string@DV?$char_traits@D@_STL@@V?$allocator@D@2@@2@PAU?$_Rb_tree_node@V?$basic_string@DV?$char_traits@D@_STL@@V?$allocator@D@2@@_STL@@@2@@Z 004098a0 f i clib:cfgfile.obj
 0001:000088b0       ??0?$_Rb_tree_iterator@V?$basic_string@DV?$char_traits@D@_STL@@V?$allocator@D@2@@_STL@@U?$_Nonconst_traits@V?$basic_string@DV?$char_traits@D@_STL@@V?$allocator@D@2@@_STL@@@2@@_STL@@QAE@ABU01@@Z 004098b0 f i clib:cfgfile.obj
 0001:000088c0       ??0?$pair@U?$_Rb_tree_iterator@U?$pair@$$CBV?$basic_string@DV?$char_traits@D@_STL@@V?$allocator@D@2@@_STL@@V12@@_STL@@U?$_Const_traits@U?$pair@$$CBV?$basic_string@DV?$char_traits@D@_STL@@V?$allocator@D@2@@_STL@@V12@@_STL@@@2@@_STL@@U12@@_STL@@QAE@ABU?$_Rb_tree_iterator@U?$pair@$$CBV?$basic_string@DV?$char_traits@D@_STL@@V?$allocator@D@2@@_STL@@V12@@_STL@@U?$_Const_traits@U?$pair@$$CBV?$basic_string@DV?$char_traits@D@_STL@@V?$allocator@D@2@@_STL@@V12@@_STL@@@2@@1@0@Z 004098c0 f i clib:cfgfile.obj
 0001:000088e0       ?_S_parent@?$_Rb_tree@V?$basic_string@DV?$char_traits@D@_STL@@V?$allocator@D@2@@_STL@@U?$pair@$$CBV?$basic_string@DV?$char_traits@D@_STL@@V?$allocator@D@2@@_STL@@V12@@2@U?$_Select1st@U?$pair@$$CBV?$basic_string@DV?$char_traits@D@_STL@@V?$allocator@D@2@@_STL@@V12@@_STL@@@2@Vci_cmp_pred@@V?$allocator@U?$pair@$$CBV?$basic_string@DV?$char_traits@D@_STL@@V?$allocator@D@2@@_STL@@V12@@_STL@@@2@@_STL@@KAAAPAU?$_Rb_tree_node@U?$pair@$$CBV?$basic_string@DV?$char_traits@D@_STL@@V?$allocator@D@2@@_STL@@V12@@_STL@@@2@PAU32@@Z 004098e0 f i clib:cfgfile.obj
 0001:000088f0       ?_S_parent@?$_Rb_tree@V?$basic_string@DV?$char_traits@D@_STL@@V?$allocator@D@2@@_STL@@V12@U?$_Identity@V?$basic_string@DV?$char_traits@D@_STL@@V?$allocator@D@2@@_STL@@@2@Vci_cmp_pred@@V?$allocator@V?$basic_string@DV?$char_traits@D@_STL@@V?$allocator@D@2@@_STL@@@2@@_STL@@KAAAPAU?$_Rb_tree_node@V?$basic_string@DV?$char_traits@D@_STL@@V?$allocator@D@2@@_STL@@@2@PAU32@@Z 004098f0 f i clib:cfgfile.obj
 0001:00008900       ?_M_set_ptrs@?$basic_stringbuf@DV?$char_traits@D@_STL@@V?$allocator@D@2@@_STL@@AAEXXZ 00409900 f i clib:cfgfile.obj
 0001:00008960       ??$__destroy_aux@PAPAVConfigProperty@@@_STL@@YAXPAPAVConfigProperty@@0ABU__true_type@0@@Z 00409960 f i clib:cfgfile.obj
 0001:00008970       ??E?$_Rb_tree_iterator@U?$pair@$$CBV?$basic_string@DV?$char_traits@D@_STL@@V?$allocator@D@2@@_STL@@V12@@_STL@@U?$_Const_traits@U?$pair@$$CBV?$basic_string@DV?$char_traits@D@_STL@@V?$allocator@D@2@@_STL@@V12@@_STL@@@2@@_STL@@QAEAAU01@XZ 00409970 f i clib:cfgfile.obj
 0001:00008990       ??0?$_Is_not_wspace@V?$char_traits@D@_STL@@@_STL@@QAE@PBV?$ctype@D@1@@Z 00409990 f i clib:cfgfile.obj
 0001:000089a0       ??0?$_Scan_for_not_wspace@V?$char_traits@D@_STL@@@_STL@@QAE@PBV?$ctype@D@1@@Z 004099a0 f i clib:cfgfile.obj
 0001:000089b0       ??R?$_Is_not_wspace@V?$char_traits@D@_STL@@@_STL@@QBE_ND@Z 004099b0 f i clib:cfgfile.obj
 0001:000089d0       ??R?$_Scan_for_not_wspace@V?$char_traits@D@_STL@@@_STL@@QBEPBDPBD0@Z 004099d0 f i clib:cfgfile.obj
 0001:000089f0       ??Bios_base@_STL@@QBEPAXXZ 004099f0 f i clib:cfgfile.obj
 0001:00008a00       ??Rci_cmp_pred@@QBE_NABV?$basic_string@DV?$char_traits@D@_STL@@V?$allocator@D@2@@_STL@@0@Z 00409a00 f i clib:cfgfile.obj
 0001:00008a30       ?type@ConfigElemBase@@QBEPBDXZ 00409a30 f   clib:cfgfile.obj
 0001:00008a40       ?rest@ConfigElemBase@@QBEPBDXZ 00409a40 f   clib:cfgfile.obj
 0001:00008a50       ?type_is@ConfigElemBase@@QBE_NPBD@Z 00409a50 f   clib:cfgfile.obj
 0001:00008a70       ?has_prop@VectorConfigElem@@QBE_NPBD@Z 00409a70 f   clib:cfgfile.obj
 0001:00008ab0       ?empty@?$multimap@V?$basic_string@DV?$char_traits@D@_STL@@V?$allocator@D@2@@_STL@@V12@Vci_cmp_pred@@V?$allocator@U?$pair@$$CBV?$basic_string@DV?$char_traits@D@_STL@@V?$allocator@D@2@@_STL@@V12@@_STL@@@2@@_STL@@QBE_NXZ 00409ab0 f i clib:cfgfile.obj
 0001:00008ac0       ?pop_back@?$vector@PAVConfigProperty@@V?$allocator@PAVConfigProperty@@@_STL@@@_STL@@QAEXXZ 00409ac0 f i clib:cfgfile.obj
 0001:00008ad0       ?erase@?$vector@PAVConfigProperty@@V?$allocator@PAVConfigProperty@@@_STL@@@_STL@@QAEPAPAVConfigProperty@@PAPAV3@@Z 00409ad0 f i clib:cfgfile.obj
 0001:00008b00       ?empty@?$set@V?$basic_string@DV?$char_traits@D@_STL@@V?$allocator@D@2@@_STL@@Vci_cmp_pred@@V?$allocator@V?$basic_string@DV?$char_traits@D@_STL@@V?$allocator@D@2@@_STL@@@2@@_STL@@QBE_NXZ 00409b00 f i clib:cfgfile.obj
 0001:00008b10       ??_G?$basic_istream@DV?$char_traits@D@_STL@@@_STL@@UAEPAXI@Z 00409b10 f i clib:cfgfile.obj
 0001:00008b10       ??_E?$basic_istream@DV?$char_traits@D@_STL@@@_STL@@UAEPAXI@Z 00409b10 f i clib:cfgfile.obj
 0001:00008b40       ?_M_compare@?$basic_string@DV?$char_traits@D@_STL@@V?$allocator@D@2@@_STL@@SAHPBD000@Z 00409b40 f i clib:cfgfile.obj
 0001:00008ba0       ?begin@?$_Rb_tree@V?$basic_string@DV?$char_traits@D@_STL@@V?$allocator@D@2@@_STL@@U?$pair@$$CBV?$basic_string@DV?$char_traits@D@_STL@@V?$allocator@D@2@@_STL@@V12@@2@U?$_Select1st@U?$pair@$$CBV?$basic_string@DV?$char_traits@D@_STL@@V?$allocator@D@2@@_STL@@V12@@_STL@@@2@Vci_cmp_pred@@V?$allocator@U?$pair@$$CBV?$basic_string@DV?$char_traits@D@_STL@@V?$allocator@D@2@@_STL@@V12@@_STL@@@2@@_STL@@QAE?AU?$_Rb_tree_iterator@U?$pair@$$CBV?$basic_string@DV?$char_traits@D@_STL@@V?$allocator@D@2@@_STL@@V12@@_STL@@U?$_Nonconst_traits@U?$pair@$$CBV?$basic_string@DV?$char_traits@D@_STL@@V?$allocator@D@2@@_STL@@V12@@_STL@@@2@@2@XZ 00409ba0 f i clib:cfgfile.obj
 0001:00008bb0       ?end@?$_Rb_tree@V?$basic_string@DV?$char_traits@D@_STL@@V?$allocator@D@2@@_STL@@U?$pair@$$CBV?$basic_string@DV?$char_traits@D@_STL@@V?$allocator@D@2@@_STL@@V12@@2@U?$_Select1st@U?$pair@$$CBV?$basic_string@DV?$char_traits@D@_STL@@V?$allocator@D@2@@_STL@@V12@@_STL@@@2@Vci_cmp_pred@@V?$allocator@U?$pair@$$CBV?$basic_string@DV?$char_traits@D@_STL@@V?$allocator@D@2@@_STL@@V12@@_STL@@@2@@_STL@@QAE?AU?$_Rb_tree_iterator@U?$pair@$$CBV?$basic_string@DV?$char_traits@D@_STL@@V?$allocator@D@2@@_STL@@V12@@_STL@@U?$_Nonconst_traits@U?$pair@$$CBV?$basic_string@DV?$char_traits@D@_STL@@V?$allocator@D@2@@_STL@@V12@@_STL@@@2@@2@XZ 00409bb0 f i clib:cfgfile.obj
 0001:00008bc0       ?end@?$_Rb_tree@V?$basic_string@DV?$char_traits@D@_STL@@V?$allocator@D@2@@_STL@@U?$pair@$$CBV?$basic_string@DV?$char_traits@D@_STL@@V?$allocator@D@2@@_STL@@V12@@2@U?$_Select1st@U?$pair@$$CBV?$basic_string@DV?$char_traits@D@_STL@@V?$allocator@D@2@@_STL@@V12@@_STL@@@2@Vci_cmp_pred@@V?$allocator@U?$pair@$$CBV?$basic_string@DV?$char_traits@D@_STL@@V?$allocator@D@2@@_STL@@V12@@_STL@@@2@@_STL@@QBE?AU?$_Rb_tree_iterator@U?$pair@$$CBV?$basic_string@DV?$char_traits@D@_STL@@V?$allocator@D@2@@_STL@@V12@@_STL@@U?$_Const_traits@U?$pair@$$CBV?$basic_string@DV?$char_traits@D@_STL@@V?$allocator@D@2@@_STL@@V12@@_STL@@@2@@2@XZ 00409bc0 f i clib:cfgfile.obj
 0001:00008bd0       ?begin@?$_Rb_tree@V?$basic_string@DV?$char_traits@D@_STL@@V?$allocator@D@2@@_STL@@V12@U?$_Identity@V?$basic_string@DV?$char_traits@D@_STL@@V?$allocator@D@2@@_STL@@@2@Vci_cmp_pred@@V?$allocator@V?$basic_string@DV?$char_traits@D@_STL@@V?$allocator@D@2@@_STL@@@2@@_STL@@QBE?AU?$_Rb_tree_iterator@V?$basic_string@DV?$char_traits@D@_STL@@V?$allocator@D@2@@_STL@@U?$_Const_traits@V?$basic_string@DV?$char_traits@D@_STL@@V?$allocator@D@2@@_STL@@@2@@2@XZ 00409bd0 f i clib:cfgfile.obj
 0001:00008be0       ?end@?$_Rb_tree@V?$basic_string@DV?$char_traits@D@_STL@@V?$allocator@D@2@@_STL@@V12@U?$_Identity@V?$basic_string@DV?$char_traits@D@_STL@@V?$allocator@D@2@@_STL@@@2@Vci_cmp_pred@@V?$allocator@V?$basic_string@DV?$char_traits@D@_STL@@V?$allocator@D@2@@_STL@@@2@@_STL@@QBE?AU?$_Rb_tree_iterator@V?$basic_string@DV?$char_traits@D@_STL@@V?$allocator@D@2@@_STL@@U?$_Const_traits@V?$basic_string@DV?$char_traits@D@_STL@@V?$allocator@D@2@@_STL@@@2@@2@XZ 00409be0 f i clib:cfgfile.obj
 0001:00008bf0       ??1?$_STLP_alloc_proxy@PAU?$_Rb_tree_node@U?$pair@$$CBV?$basic_string@DV?$char_traits@D@_STL@@V?$allocator@D@2@@_STL@@V12@@_STL@@@_STL@@U12@V?$allocator@U?$_Rb_tree_node@U?$pair@$$CBV?$basic_string@DV?$char_traits@D@_STL@@V?$allocator@D@2@@_STL@@V12@@_STL@@@_STL@@@2@@_STL@@QAE@XZ 00409bf0 f i clib:cfgfile.obj
 0001:00008c00       ??1?$_STLP_alloc_proxy@PAU?$_Rb_tree_node@V?$basic_string@DV?$char_traits@D@_STL@@V?$allocator@D@2@@_STL@@@_STL@@U12@V?$allocator@U?$_Rb_tree_node@V?$basic_string@DV?$char_traits@D@_STL@@V?$allocator@D@2@@_STL@@@_STL@@@2@@_STL@@QAE@XZ 00409c00 f i clib:cfgfile.obj
 0001:00008c10       ?_M_empty_initialize@?$_Rb_tree@V?$basic_string@DV?$char_traits@D@_STL@@V?$allocator@D@2@@_STL@@U?$pair@$$CBV?$basic_string@DV?$char_traits@D@_STL@@V?$allocator@D@2@@_STL@@V12@@2@U?$_Select1st@U?$pair@$$CBV?$basic_string@DV?$char_traits@D@_STL@@V?$allocator@D@2@@_STL@@V12@@_STL@@@2@Vci_cmp_pred@@V?$allocator@U?$pair@$$CBV?$basic_string@DV?$char_traits@D@_STL@@V?$allocator@D@2@@_STL@@V12@@_STL@@@2@@_STL@@AAEXXZ 00409c10 f i clib:cfgfile.obj
 0001:00008c30       ?deallocate@?$allocator@U?$_Rb_tree_node@U?$pair@$$CBV?$basic_string@DV?$char_traits@D@_STL@@V?$allocator@D@2@@_STL@@V12@@_STL@@@_STL@@@_STL@@QAEXPAU?$_Rb_tree_node@U?$pair@$$CBV?$basic_string@DV?$char_traits@D@_STL@@V?$allocator@D@2@@_STL@@V12@@_STL@@@2@I@Z 00409c30 f i clib:cfgfile.obj
 0001:00008c70       ?allocate@?$allocator@PAVConfigProperty@@@_STL@@QAEPAPAVConfigProperty@@IPBX@Z 00409c70 f i clib:cfgfile.obj
 0001:00008ca0       ?_M_empty_initialize@?$_Rb_tree@V?$basic_string@DV?$char_traits@D@_STL@@V?$allocator@D@2@@_STL@@V12@U?$_Identity@V?$basic_string@DV?$char_traits@D@_STL@@V?$allocator@D@2@@_STL@@@2@Vci_cmp_pred@@V?$allocator@V?$basic_string@DV?$char_traits@D@_STL@@V?$allocator@D@2@@_STL@@@2@@_STL@@AAEXXZ 00409ca0 f i clib:cfgfile.obj
 0001:00008cc0       ?deallocate@?$allocator@U?$_Rb_tree_node@V?$basic_string@DV?$char_traits@D@_STL@@V?$allocator@D@2@@_STL@@@_STL@@@_STL@@QAEXPAU?$_Rb_tree_node@V?$basic_string@DV?$char_traits@D@_STL@@V?$allocator@D@2@@_STL@@@2@I@Z 00409cc0 f i clib:cfgfile.obj
 0001:00008cf0       ??0?$_STLP_alloc_proxy@PAU?$_Rb_tree_node@U?$pair@$$CBV?$basic_string@DV?$char_traits@D@_STL@@V?$allocator@D@2@@_STL@@V12@@_STL@@@_STL@@U12@V?$allocator@U?$_Rb_tree_node@U?$pair@$$CBV?$basic_string@DV?$char_traits@D@_STL@@V?$allocator@D@2@@_STL@@V12@@_STL@@@_STL@@@2@@_STL@@QAE@ABV?$allocator@U?$_Rb_tree_node@U?$pair@$$CBV?$basic_string@DV?$char_traits@D@_STL@@V?$allocator@D@2@@_STL@@V12@@_STL@@@_STL@@@1@PAU?$_Rb_tree_node@U?$pair@$$CBV?$basic_string@DV?$char_traits@D@_STL@@V?$allocator@D@2@@_STL@@V12@@_STL@@@1@@Z 00409cf0 f i clib:cfgfile.obj
 0001:00008d00       ?allocate@?$allocator@U?$_Rb_tree_node@U?$pair@$$CBV?$basic_string@DV?$char_traits@D@_STL@@V?$allocator@D@2@@_STL@@V12@@_STL@@@_STL@@@_STL@@QAEPAU?$_Rb_tree_node@U?$pair@$$CBV?$basic_string@DV?$char_traits@D@_STL@@V?$allocator@D@2@@_STL@@V12@@_STL@@@2@IPBX@Z 00409d00 f i clib:cfgfile.obj
 0001:00008d40       ?deallocate@?$allocator@PAVConfigProperty@@@_STL@@QAEXPAPAVConfigProperty@@I@Z 00409d40 f i clib:cfgfile.obj
 0001:00008d70       ??0?$_STLP_alloc_proxy@PAU?$_Rb_tree_node@V?$basic_string@DV?$char_traits@D@_STL@@V?$allocator@D@2@@_STL@@@_STL@@U12@V?$allocator@U?$_Rb_tree_node@V?$basic_string@DV?$char_traits@D@_STL@@V?$allocator@D@2@@_STL@@@_STL@@@2@@_STL@@QAE@ABV?$allocator@U?$_Rb_tree_node@V?$basic_string@DV?$char_traits@D@_STL@@V?$allocator@D@2@@_STL@@@_STL@@@1@PAU?$_Rb_tree_node@V?$basic_string@DV?$char_traits@D@_STL@@V?$allocator@D@2@@_STL@@@1@@Z 00409d70 f i clib:cfgfile.obj
 0001:00008d80       ?allocate@?$allocator@U?$_Rb_tree_node@V?$basic_string@DV?$char_traits@D@_STL@@V?$allocator@D@2@@_STL@@@_STL@@@_STL@@QAEPAU?$_Rb_tree_node@V?$basic_string@DV?$char_traits@D@_STL@@V?$allocator@D@2@@_STL@@@2@IPBX@Z 00409d80 f i clib:cfgfile.obj
 0001:00008db0       ??0?$_STLP_alloc_proxy@PADDV?$allocator@D@_STL@@@_STL@@QAE@ABV01@@Z 00409db0 f i clib:cfgfile.obj
 0001:00008dc0       ?clear@?$basic_string@DV?$char_traits@D@_STL@@V?$allocator@D@2@@_STL@@QAEXXZ 00409dc0 f i clib:cfgfile.obj
 0001:00008dd0       ?_S_key@?$_Rb_tree@V?$basic_string@DV?$char_traits@D@_STL@@V?$allocator@D@2@@_STL@@U?$pair@$$CBV?$basic_string@DV?$char_traits@D@_STL@@V?$allocator@D@2@@_STL@@V12@@2@U?$_Select1st@U?$pair@$$CBV?$basic_string@DV?$char_traits@D@_STL@@V?$allocator@D@2@@_STL@@V12@@_STL@@@2@Vci_cmp_pred@@V?$allocator@U?$pair@$$CBV?$basic_string@DV?$char_traits@D@_STL@@V?$allocator@D@2@@_STL@@V12@@_STL@@@2@@_STL@@KAABV?$basic_string@DV?$char_traits@D@_STL@@V?$allocator@D@2@@2@PAU?$_Rb_tree_node@U?$pair@$$CBV?$basic_string@DV?$char_traits@D@_STL@@V?$allocator@D@2@@_STL@@V12@@_STL@@@2@@Z 00409dd0 f i clib:cfgfile.obj
 0001:00008de0       ?_S_key@?$_Rb_tree@V?$basic_string@DV?$char_traits@D@_STL@@V?$allocator@D@2@@_STL@@V12@U?$_Identity@V?$basic_string@DV?$char_traits@D@_STL@@V?$allocator@D@2@@_STL@@@2@Vci_cmp_pred@@V?$allocator@V?$basic_string@DV?$char_traits@D@_STL@@V?$allocator@D@2@@_STL@@@2@@_STL@@KAABV?$basic_string@DV?$char_traits@D@_STL@@V?$allocator@D@2@@2@PAU?$_Rb_tree_node@V?$basic_string@DV?$char_traits@D@_STL@@V?$allocator@D@2@@_STL@@@2@@Z 00409de0 f i clib:cfgfile.obj
 0001:00008df0       ?_S_key@?$_Rb_tree@V?$basic_string@DV?$char_traits@D@_STL@@V?$allocator@D@2@@_STL@@V12@U?$_Identity@V?$basic_string@DV?$char_traits@D@_STL@@V?$allocator@D@2@@_STL@@@2@Vci_cmp_pred@@V?$allocator@V?$basic_string@DV?$char_traits@D@_STL@@V?$allocator@D@2@@_STL@@@2@@_STL@@KAABV?$basic_string@DV?$char_traits@D@_STL@@V?$allocator@D@2@@2@PAU_Rb_tree_node_base@2@@Z 00409df0 f i clib:cfgfile.obj
 0001:00008e00       ?begin@?$_Rb_tree@V?$basic_string@DV?$char_traits@D@_STL@@V?$allocator@D@2@@_STL@@V12@U?$_Identity@V?$basic_string@DV?$char_traits@D@_STL@@V?$allocator@D@2@@_STL@@@2@Vci_cmp_pred@@V?$allocator@V?$basic_string@DV?$char_traits@D@_STL@@V?$allocator@D@2@@_STL@@@2@@_STL@@QAE?AU?$_Rb_tree_iterator@V?$basic_string@DV?$char_traits@D@_STL@@V?$allocator@D@2@@_STL@@U?$_Nonconst_traits@V?$basic_string@DV?$char_traits@D@_STL@@V?$allocator@D@2@@_STL@@@2@@2@XZ 00409e00 f i clib:cfgfile.obj
 0001:00008e10       ??0?$pair@U?$_Rb_tree_iterator@V?$basic_string@DV?$char_traits@D@_STL@@V?$allocator@D@2@@_STL@@U?$_Nonconst_traits@V?$basic_string@DV?$char_traits@D@_STL@@V?$allocator@D@2@@_STL@@@2@@_STL@@_N@_STL@@QAE@ABU?$_Rb_tree_iterator@V?$basic_string@DV?$char_traits@D@_STL@@V?$allocator@D@2@@_STL@@U?$_Nonconst_traits@V?$basic_string@DV?$char_traits@D@_STL@@V?$allocator@D@2@@_STL@@@2@@1@AB_N@Z 00409e10 f i clib:cfgfile.obj
 0001:00008e30       ?_M_lower_bound@?$_Rb_tree@V?$basic_string@DV?$char_traits@D@_STL@@V?$allocator@D@2@@_STL@@U?$pair@$$CBV?$basic_string@DV?$char_traits@D@_STL@@V?$allocator@D@2@@_STL@@V12@@2@U?$_Select1st@U?$pair@$$CBV?$basic_string@DV?$char_traits@D@_STL@@V?$allocator@D@2@@_STL@@V12@@_STL@@@2@Vci_cmp_pred@@V?$allocator@U?$pair@$$CBV?$basic_string@DV?$char_traits@D@_STL@@V?$allocator@D@2@@_STL@@V12@@_STL@@@2@@_STL@@ABEPAU?$_Rb_tree_node@U?$pair@$$CBV?$basic_string@DV?$char_traits@D@_STL@@V?$allocator@D@2@@_STL@@V12@@_STL@@@2@ABV?$basic_string@DV?$char_traits@D@_STL@@V?$allocator@D@2@@2@@Z 00409e30 f i clib:cfgfile.obj
 0001:00008e70       ?_M_upper_bound@?$_Rb_tree@V?$basic_string@DV?$char_traits@D@_STL@@V?$allocator@D@2@@_STL@@U?$pair@$$CBV?$basic_string@DV?$char_traits@D@_STL@@V?$allocator@D@2@@_STL@@V12@@2@U?$_Select1st@U?$pair@$$CBV?$basic_string@DV?$char_traits@D@_STL@@V?$allocator@D@2@@_STL@@V12@@_STL@@@2@Vci_cmp_pred@@V?$allocator@U?$pair@$$CBV?$basic_string@DV?$char_traits@D@_STL@@V?$allocator@D@2@@_STL@@V12@@_STL@@@2@@_STL@@ABEPAU?$_Rb_tree_node@U?$pair@$$CBV?$basic_string@DV?$char_traits@D@_STL@@V?$allocator@D@2@@_STL@@V12@@_STL@@@2@ABV?$basic_string@DV?$char_traits@D@_STL@@V?$allocator@D@2@@2@@Z 00409e70 f i clib:cfgfile.obj
 0001:00008eb0       ??$_M_find@V?$basic_string@DV?$char_traits@D@_STL@@V?$allocator@D@2@@_STL@@@?$_Rb_tree@V?$basic_string@DV?$char_traits@D@_STL@@V?$allocator@D@2@@_STL@@U?$pair@$$CBV?$basic_string@DV?$char_traits@D@_STL@@V?$allocator@D@2@@_STL@@V12@@2@U?$_Select1st@U?$pair@$$CBV?$basic_string@DV?$char_traits@D@_STL@@V?$allocator@D@2@@_STL@@V12@@_STL@@@2@Vci_cmp_pred@@V?$allocator@U?$pair@$$CBV?$basic_string@DV?$char_traits@D@_STL@@V?$allocator@D@2@@_STL@@V12@@_STL@@@2@@_STL@@ABEPAU?$_Rb_tree_node@U?$pair@$$CBV?$basic_string@DV?$char_traits@D@_STL@@V?$allocator@D@2@@_STL@@V12@@_STL@@@1@ABV?$basic_string@DV?$char_traits@D@_STL@@V?$allocator@D@2@@1@@Z 00409eb0 f i clib:cfgfile.obj
 0001:00008f10       ??$__destroy@PAPAVConfigProperty@@PAV1@@_STL@@YAXPAPAVConfigProperty@@00@Z 00409f10 f i clib:cfgfile.obj
 0001:00008f20       ??$_M_init_noskip@DV?$char_traits@D@_STL@@@_STL@@YA_NAAV?$basic_istream@DV?$char_traits@D@_STL@@@0@@Z 00409f20 f i clib:cfgfile.obj
 0001:00008f90       ??$__distance@U?$_Rb_tree_iterator@U?$pair@$$CBV?$basic_string@DV?$char_traits@D@_STL@@V?$allocator@D@2@@_STL@@V12@@_STL@@U?$_Const_traits@U?$pair@$$CBV?$basic_string@DV?$char_traits@D@_STL@@V?$allocator@D@2@@_STL@@V12@@_STL@@@2@@_STL@@@_STL@@YAHABU?$_Rb_tree_iterator@U?$pair@$$CBV?$basic_string@DV?$char_traits@D@_STL@@V?$allocator@D@2@@_STL@@V12@@_STL@@U?$_Const_traits@U?$pair@$$CBV?$basic_string@DV?$char_traits@D@_STL@@V?$allocator@D@2@@_STL@@V12@@_STL@@@2@@0@0ABUinput_iterator_tag@0@@Z 00409f90 f i clib:cfgfile.obj
 0001:00008fc0       ??$_M_ignore_unbuffered@DV?$char_traits@D@_STL@@U?$_Is_not_wspace@V?$char_traits@D@_STL@@@2@@_STL@@YAXPAV?$basic_istream@DV?$char_traits@D@_STL@@@0@PAV?$basic_streambuf@DV?$char_traits@D@_STL@@@0@U?$_Is_not_wspace@V?$char_traits@D@_STL@@@0@_N3@Z 00409fc0 f i clib:cfgfile.obj
 0001:00009100       ?compare@?$basic_string@DV?$char_traits@D@_STL@@V?$allocator@D@2@@_STL@@QBEHIIPBD@Z 0040a100 f i clib:cfgfile.obj
 0001:000091a0       ?begin@?$multimap@V?$basic_string@DV?$char_traits@D@_STL@@V?$allocator@D@2@@_STL@@V12@Vci_cmp_pred@@V?$allocator@U?$pair@$$CBV?$basic_string@DV?$char_traits@D@_STL@@V?$allocator@D@2@@_STL@@V12@@_STL@@@2@@_STL@@QAE?AU?$_Rb_tree_iterator@U?$pair@$$CBV?$basic_string@DV?$char_traits@D@_STL@@V?$allocator@D@2@@_STL@@V12@@_STL@@U?$_Nonconst_traits@U?$pair@$$CBV?$basic_string@DV?$char_traits@D@_STL@@V?$allocator@D@2@@_STL@@V12@@_STL@@@2@@2@XZ 0040a1a0 f i clib:cfgfile.obj
 0001:000091b0       ?end@?$multimap@V?$basic_string@DV?$char_traits@D@_STL@@V?$allocator@D@2@@_STL@@V12@Vci_cmp_pred@@V?$allocator@U?$pair@$$CBV?$basic_string@DV?$char_traits@D@_STL@@V?$allocator@D@2@@_STL@@V12@@_STL@@@2@@_STL@@QAE?AU?$_Rb_tree_iterator@U?$pair@$$CBV?$basic_string@DV?$char_traits@D@_STL@@V?$allocator@D@2@@_STL@@V12@@_STL@@U?$_Nonconst_traits@U?$pair@$$CBV?$basic_string@DV?$char_traits@D@_STL@@V?$allocator@D@2@@_STL@@V12@@_STL@@@2@@2@XZ 0040a1b0 f i clib:cfgfile.obj
 0001:000091c0       ?end@?$multimap@V?$basic_string@DV?$char_traits@D@_STL@@V?$allocator@D@2@@_STL@@V12@Vci_cmp_pred@@V?$allocator@U?$pair@$$CBV?$basic_string@DV?$char_traits@D@_STL@@V?$allocator@D@2@@_STL@@V12@@_STL@@@2@@_STL@@QBE?AU?$_Rb_tree_iterator@U?$pair@$$CBV?$basic_string@DV?$char_traits@D@_STL@@V?$allocator@D@2@@_STL@@V12@@_STL@@U?$_Const_traits@U?$pair@$$CBV?$basic_string@DV?$char_traits@D@_STL@@V?$allocator@D@2@@_STL@@V12@@_STL@@@2@@2@XZ 0040a1c0 f i clib:cfgfile.obj
 0001:000091d0       ?begin@?$set@V?$basic_string@DV?$char_traits@D@_STL@@V?$allocator@D@2@@_STL@@Vci_cmp_pred@@V?$allocator@V?$basic_string@DV?$char_traits@D@_STL@@V?$allocator@D@2@@_STL@@@2@@_STL@@QBE?AU?$_Rb_tree_iterator@V?$basic_string@DV?$char_traits@D@_STL@@V?$allocator@D@2@@_STL@@U?$_Const_traits@V?$basic_string@DV?$char_traits@D@_STL@@V?$allocator@D@2@@_STL@@@2@@2@XZ 0040a1d0 f i clib:cfgfile.obj
 0001:000091e0       ?end@?$set@V?$basic_string@DV?$char_traits@D@_STL@@V?$allocator@D@2@@_STL@@Vci_cmp_pred@@V?$allocator@V?$basic_string@DV?$char_traits@D@_STL@@V?$allocator@D@2@@_STL@@@2@@_STL@@QBE?AU?$_Rb_tree_iterator@V?$basic_string@DV?$char_traits@D@_STL@@V?$allocator@D@2@@_STL@@U?$_Const_traits@V?$basic_string@DV?$char_traits@D@_STL@@V?$allocator@D@2@@_STL@@@2@@2@XZ 0040a1e0 f i clib:cfgfile.obj
 0001:000091f0       ??1?$_Rb_tree_base@U?$pair@$$CBV?$basic_string@DV?$char_traits@D@_STL@@V?$allocator@D@2@@_STL@@V12@@_STL@@V?$allocator@U?$pair@$$CBV?$basic_string@DV?$char_traits@D@_STL@@V?$allocator@D@2@@_STL@@V12@@_STL@@@2@@_STL@@QAE@XZ 0040a1f0 f i clib:cfgfile.obj
 0001:00009210       ??1?$_Rb_tree_base@V?$basic_string@DV?$char_traits@D@_STL@@V?$allocator@D@2@@_STL@@V?$allocator@V?$basic_string@DV?$char_traits@D@_STL@@V?$allocator@D@2@@_STL@@@2@@_STL@@QAE@XZ 0040a210 f i clib:cfgfile.obj
 0001:00009230       ??0?$_Rb_tree_base@U?$pair@$$CBV?$basic_string@DV?$char_traits@D@_STL@@V?$allocator@D@2@@_STL@@V12@@_STL@@V?$allocator@U?$pair@$$CBV?$basic_string@DV?$char_traits@D@_STL@@V?$allocator@D@2@@_STL@@V12@@_STL@@@2@@_STL@@QAE@ABV?$allocator@U?$pair@$$CBV?$basic_string@DV?$char_traits@D@_STL@@V?$allocator@D@2@@_STL@@V12@@_STL@@@1@@Z 0040a230 f i clib:cfgfile.obj
 0001:00009260       ??0?$_Rb_tree_base@V?$basic_string@DV?$char_traits@D@_STL@@V?$allocator@D@2@@_STL@@V?$allocator@V?$basic_string@DV?$char_traits@D@_STL@@V?$allocator@D@2@@_STL@@@2@@_STL@@QAE@ABV?$allocator@V?$basic_string@DV?$char_traits@D@_STL@@V?$allocator@D@2@@_STL@@@1@@Z 0040a260 f i clib:cfgfile.obj
 0001:00009290       ??$swap@V?$_STLP_alloc_proxy@PADDV?$allocator@D@_STL@@@_STL@@@_STL@@YAXAAV?$_STLP_alloc_proxy@PADDV?$allocator@D@_STL@@@0@0@Z 0040a290 f i clib:cfgfile.obj
 0001:000092b0       ??$find@V?$basic_string@DV?$char_traits@D@_STL@@V?$allocator@D@2@@_STL@@@?$_Rb_tree@V?$basic_string@DV?$char_traits@D@_STL@@V?$allocator@D@2@@_STL@@U?$pair@$$CBV?$basic_string@DV?$char_traits@D@_STL@@V?$allocator@D@2@@_STL@@V12@@2@U?$_Select1st@U?$pair@$$CBV?$basic_string@DV?$char_traits@D@_STL@@V?$allocator@D@2@@_STL@@V12@@_STL@@@2@Vci_cmp_pred@@V?$allocator@U?$pair@$$CBV?$basic_string@DV?$char_traits@D@_STL@@V?$allocator@D@2@@_STL@@V12@@_STL@@@2@@_STL@@QAE?AU?$_Rb_tree_iterator@U?$pair@$$CBV?$basic_string@DV?$char_traits@D@_STL@@V?$allocator@D@2@@_STL@@V12@@_STL@@U?$_Nonconst_traits@U?$pair@$$CBV?$basic_string@DV?$char_traits@D@_STL@@V?$allocator@D@2@@_STL@@V12@@_STL@@@2@@1@ABV?$basic_string@DV?$char_traits@D@_STL@@V?$allocator@D@2@@1@@Z 0040a2b0 f i clib:cfgfile.obj
 0001:000092d0       ??$find@V?$basic_string@DV?$char_traits@D@_STL@@V?$allocator@D@2@@_STL@@@?$_Rb_tree@V?$basic_string@DV?$char_traits@D@_STL@@V?$allocator@D@2@@_STL@@U?$pair@$$CBV?$basic_string@DV?$char_traits@D@_STL@@V?$allocator@D@2@@_STL@@V12@@2@U?$_Select1st@U?$pair@$$CBV?$basic_string@DV?$char_traits@D@_STL@@V?$allocator@D@2@@_STL@@V12@@_STL@@@2@Vci_cmp_pred@@V?$allocator@U?$pair@$$CBV?$basic_string@DV?$char_traits@D@_STL@@V?$allocator@D@2@@_STL@@V12@@_STL@@@2@@_STL@@QBE?AU?$_Rb_tree_iterator@U?$pair@$$CBV?$basic_string@DV?$char_traits@D@_STL@@V?$allocator@D@2@@_STL@@V12@@_STL@@U?$_Const_traits@U?$pair@$$CBV?$basic_string@DV?$char_traits@D@_STL@@V?$allocator@D@2@@_STL@@V12@@_STL@@@2@@1@ABV?$basic_string@DV?$char_traits@D@_STL@@V?$allocator@D@2@@1@@Z 0040a2d0 f i clib:cfgfile.obj
 0001:000092f0       ??$_Destroy@PAPAVConfigProperty@@@_STL@@YAXPAPAVConfigProperty@@0@Z 0040a2f0 f i clib:cfgfile.obj
 0001:00009300       ?lower_bound@?$_Rb_tree@V?$basic_string@DV?$char_traits@D@_STL@@V?$allocator@D@2@@_STL@@U?$pair@$$CBV?$basic_string@DV?$char_traits@D@_STL@@V?$allocator@D@2@@_STL@@V12@@2@U?$_Select1st@U?$pair@$$CBV?$basic_string@DV?$char_traits@D@_STL@@V?$allocator@D@2@@_STL@@V12@@_STL@@@2@Vci_cmp_pred@@V?$allocator@U?$pair@$$CBV?$basic_string@DV?$char_traits@D@_STL@@V?$allocator@D@2@@_STL@@V12@@_STL@@@2@@_STL@@QBE?AU?$_Rb_tree_iterator@U?$pair@$$CBV?$basic_string@DV?$char_traits@D@_STL@@V?$allocator@D@2@@_STL@@V12@@_STL@@U?$_Const_traits@U?$pair@$$CBV?$basic_string@DV?$char_traits@D@_STL@@V?$allocator@D@2@@_STL@@V12@@_STL@@@2@@2@ABV?$basic_string@DV?$char_traits@D@_STL@@V?$allocator@D@2@@2@@Z 0040a300 f i clib:cfgfile.obj
 0001:00009320       ?upper_bound@?$_Rb_tree@V?$basic_string@DV?$char_traits@D@_STL@@V?$allocator@D@2@@_STL@@U?$pair@$$CBV?$basic_string@DV?$char_traits@D@_STL@@V?$allocator@D@2@@_STL@@V12@@2@U?$_Select1st@U?$pair@$$CBV?$basic_string@DV?$char_traits@D@_STL@@V?$allocator@D@2@@_STL@@V12@@_STL@@@2@Vci_cmp_pred@@V?$allocator@U?$pair@$$CBV?$basic_string@DV?$char_traits@D@_STL@@V?$allocator@D@2@@_STL@@V12@@_STL@@@2@@_STL@@QBE?AU?$_Rb_tree_iterator@U?$pair@$$CBV?$basic_string@DV?$char_traits@D@_STL@@V?$allocator@D@2@@_STL@@V12@@_STL@@U?$_Const_traits@U?$pair@$$CBV?$basic_string@DV?$char_traits@D@_STL@@V?$allocator@D@2@@_STL@@V12@@_STL@@@2@@2@ABV?$basic_string@DV?$char_traits@D@_STL@@V?$allocator@D@2@@2@@Z 0040a320 f i clib:cfgfile.obj
 0001:00009340       ??$distance@U?$_Rb_tree_iterator@U?$pair@$$CBV?$basic_string@DV?$char_traits@D@_STL@@V?$allocator@D@2@@_STL@@V12@@_STL@@U?$_Const_traits@U?$pair@$$CBV?$basic_string@DV?$char_traits@D@_STL@@V?$allocator@D@2@@_STL@@V12@@_STL@@@2@@_STL@@@_STL@@YAHABU?$_Rb_tree_iterator@U?$pair@$$CBV?$basic_string@DV?$char_traits@D@_STL@@V?$allocator@D@2@@_STL@@V12@@_STL@@U?$_Const_traits@U?$pair@$$CBV?$basic_string@DV?$char_traits@D@_STL@@V?$allocator@D@2@@_STL@@V12@@_STL@@@2@@0@0@Z 0040a340 f i clib:cfgfile.obj
 0001:00009370       ??$_M_ignore_buffered@DV?$char_traits@D@_STL@@U?$_Is_not_wspace@V?$char_traits@D@_STL@@@2@U?$_Scan_for_not_wspace@V?$char_traits@D@_STL@@@2@@_STL@@YAXPAV?$basic_istream@DV?$char_traits@D@_STL@@@0@PAV?$basic_streambuf@DV?$char_traits@D@_STL@@@0@U?$_Is_not_wspace@V?$char_traits@D@_STL@@@0@U?$_Scan_for_not_wspace@V?$char_traits@D@_STL@@@0@_N4@Z 0040a370 f i clib:cfgfile.obj
 0001:000094e0       ?commentline@@YA_NABV?$basic_string@DV?$char_traits@D@_STL@@V?$allocator@D@2@@_STL@@@Z 0040a4e0 f   clib:cfgfile.obj
 0001:00009510       ?swap@?$basic_string@DV?$char_traits@D@_STL@@V?$allocator@D@2@@_STL@@QAEXAAV12@@Z 0040a510 f i clib:cfgfile.obj
 0001:00009540       ?find@?$multimap@V?$basic_string@DV?$char_traits@D@_STL@@V?$allocator@D@2@@_STL@@V12@Vci_cmp_pred@@V?$allocator@U?$pair@$$CBV?$basic_string@DV?$char_traits@D@_STL@@V?$allocator@D@2@@_STL@@V12@@_STL@@@2@@_STL@@QAE?AU?$_Rb_tree_iterator@U?$pair@$$CBV?$basic_string@DV?$char_traits@D@_STL@@V?$allocator@D@2@@_STL@@V12@@_STL@@U?$_Nonconst_traits@U?$pair@$$CBV?$basic_string@DV?$char_traits@D@_STL@@V?$allocator@D@2@@_STL@@V12@@_STL@@@2@@2@ABV?$basic_string@DV?$char_traits@D@_STL@@V?$allocator@D@2@@2@@Z 0040a540 f i clib:cfgfile.obj
 0001:00009560       ?find@?$multimap@V?$basic_string@DV?$char_traits@D@_STL@@V?$allocator@D@2@@_STL@@V12@Vci_cmp_pred@@V?$allocator@U?$pair@$$CBV?$basic_string@DV?$char_traits@D@_STL@@V?$allocator@D@2@@_STL@@V12@@_STL@@@2@@_STL@@QBE?AU?$_Rb_tree_iterator@U?$pair@$$CBV?$basic_string@DV?$char_traits@D@_STL@@V?$allocator@D@2@@_STL@@V12@@_STL@@U?$_Const_traits@U?$pair@$$CBV?$basic_string@DV?$char_traits@D@_STL@@V?$allocator@D@2@@_STL@@V12@@_STL@@@2@@2@ABV?$basic_string@DV?$char_traits@D@_STL@@V?$allocator@D@2@@2@@Z 0040a560 f i clib:cfgfile.obj
 0001:00009580       ??0?$_Rb_tree@V?$basic_string@DV?$char_traits@D@_STL@@V?$allocator@D@2@@_STL@@U?$pair@$$CBV?$basic_string@DV?$char_traits@D@_STL@@V?$allocator@D@2@@_STL@@V12@@2@U?$_Select1st@U?$pair@$$CBV?$basic_string@DV?$char_traits@D@_STL@@V?$allocator@D@2@@_STL@@V12@@_STL@@@2@Vci_cmp_pred@@V?$allocator@U?$pair@$$CBV?$basic_string@DV?$char_traits@D@_STL@@V?$allocator@D@2@@_STL@@V12@@_STL@@@2@@_STL@@QAE@ABVci_cmp_pred@@ABV?$allocator@U?$pair@$$CBV?$basic_string@DV?$char_traits@D@_STL@@V?$allocator@D@2@@_STL@@V12@@_STL@@@1@@Z 0040a580 f i clib:cfgfile.obj
 0001:000095c0       ??0?$_Rb_tree@V?$basic_string@DV?$char_traits@D@_STL@@V?$allocator@D@2@@_STL@@V12@U?$_Identity@V?$basic_string@DV?$char_traits@D@_STL@@V?$allocator@D@2@@_STL@@@2@Vci_cmp_pred@@V?$allocator@V?$basic_string@DV?$char_traits@D@_STL@@V?$allocator@D@2@@_STL@@@2@@_STL@@QAE@ABVci_cmp_pred@@ABV?$allocator@V?$basic_string@DV?$char_traits@D@_STL@@V?$allocator@D@2@@_STL@@@1@@Z 0040a5c0 f i clib:cfgfile.obj
 0001:00009600       ?_M_clear@?$vector@PAVConfigProperty@@V?$allocator@PAVConfigProperty@@@_STL@@@_STL@@IAEXXZ 0040a600 f i clib:cfgfile.obj
 0001:00009630       ?equal_range@?$_Rb_tree@V?$basic_string@DV?$char_traits@D@_STL@@V?$allocator@D@2@@_STL@@U?$pair@$$CBV?$basic_string@DV?$char_traits@D@_STL@@V?$allocator@D@2@@_STL@@V12@@2@U?$_Select1st@U?$pair@$$CBV?$basic_string@DV?$char_traits@D@_STL@@V?$allocator@D@2@@_STL@@V12@@_STL@@@2@Vci_cmp_pred@@V?$allocator@U?$pair@$$CBV?$basic_string@DV?$char_traits@D@_STL@@V?$allocator@D@2@@_STL@@V12@@_STL@@@2@@_STL@@QBE?AU?$pair@U?$_Rb_tree_iterator@U?$pair@$$CBV?$basic_string@DV?$char_traits@D@_STL@@V?$allocator@D@2@@_STL@@V12@@_STL@@U?$_Const_traits@U?$pair@$$CBV?$basic_string@DV?$char_traits@D@_STL@@V?$allocator@D@2@@_STL@@V12@@_STL@@@2@@_STL@@U12@@2@ABV?$basic_string@DV?$char_traits@D@_STL@@V?$allocator@D@2@@2@@Z 0040a630 f i clib:cfgfile.obj
 0001:00009660       ?_M_skip_whitespace@?$basic_istream@DV?$char_traits@D@_STL@@@_STL@@QAEX_N@Z 0040a660 f i clib:cfgfile.obj
 0001:000096e0       ?display_error@StubConfigSource@@UBEXABV?$basic_string@DV?$char_traits@D@_STL@@V?$allocator@D@2@@_STL@@_NPBVConfigElemBase@@1@Z 0040a6e0 f   clib:cfgfile.obj
 0001:00009740       ??6?$basic_ostream@DV?$char_traits@D@_STL@@@_STL@@QAEAAV01@G@Z 0040a740 f i clib:cfgfile.obj
 0001:00009760       ??6?$basic_ostream@DV?$char_traits@D@_STL@@@_STL@@QAEAAV01@K@Z 0040a760 f i clib:cfgfile.obj
 0001:00009780       ?_M_insert_overflow@?$vector@PAVConfigProperty@@V?$allocator@PAVConfigProperty@@@_STL@@@_STL@@IAEXPAPAVConfigProperty@@ABQAV3@ABU__true_type@2@I_N@Z 0040a780 f i clib:cfgfile.obj
 0001:00009890       ?count@?$_Rb_tree@V?$basic_string@DV?$char_traits@D@_STL@@V?$allocator@D@2@@_STL@@U?$pair@$$CBV?$basic_string@DV?$char_traits@D@_STL@@V?$allocator@D@2@@_STL@@V12@@2@U?$_Select1st@U?$pair@$$CBV?$basic_string@DV?$char_traits@D@_STL@@V?$allocator@D@2@@_STL@@V12@@_STL@@@2@Vci_cmp_pred@@V?$allocator@U?$pair@$$CBV?$basic_string@DV?$char_traits@D@_STL@@V?$allocator@D@2@@_STL@@V12@@_STL@@@2@@_STL@@QBEIABV?$basic_string@DV?$char_traits@D@_STL@@V?$allocator@D@2@@2@@Z 0040a890 f i clib:cfgfile.obj
 0001:000098d0       ??1?$basic_stringbuf@DV?$char_traits@D@_STL@@V?$allocator@D@2@@_STL@@UAE@XZ 0040a8d0 f i clib:cfgfile.obj
 0001:00009950       ?underflow@?$basic_stringbuf@DV?$char_traits@D@_STL@@V?$allocator@D@2@@_STL@@MAEHXZ 0040a950 f i clib:cfgfile.obj
 0001:00009970       ?uflow@?$basic_stringbuf@DV?$char_traits@D@_STL@@V?$allocator@D@2@@_STL@@MAEHXZ 0040a970 f i clib:cfgfile.obj
 0001:000099a0       ?pbackfail@?$basic_stringbuf@DV?$char_traits@D@_STL@@V?$allocator@D@2@@_STL@@MAEHH@Z 0040a9a0 f i clib:cfgfile.obj
 0001:00009a10       ??1?$basic_ostringstream@DV?$char_traits@D@_STL@@V?$allocator@D@2@@_STL@@UAE@XZ 0040aa10 f i clib:cfgfile.obj
 0001:00009a70       ??1?$basic_istringstream@DV?$char_traits@D@_STL@@V?$allocator@D@2@@_STL@@UAE@XZ 0040aa70 f i clib:cfgfile.obj
 0001:00009ad0       ??_G?$basic_stringbuf@DV?$char_traits@D@_STL@@V?$allocator@D@2@@_STL@@UAEPAXI@Z 0040aad0 f i clib:cfgfile.obj
 0001:00009ad0       ??_E?$basic_stringbuf@DV?$char_traits@D@_STL@@V?$allocator@D@2@@_STL@@UAEPAXI@Z 0040aad0 f i clib:cfgfile.obj
 0001:00009af0       ?reserve@?$basic_string@DV?$char_traits@D@_STL@@V?$allocator@D@2@@_STL@@QAEXI@Z 0040aaf0 f i clib:cfgfile.obj
 0001:00009bc0       ??0?$basic_stringbuf@DV?$char_traits@D@_STL@@V?$allocator@D@2@@_STL@@QAE@H@Z 0040abc0 f i clib:cfgfile.obj
 0001:00009c40       ??$_M_init_skip@DV?$char_traits@D@_STL@@@_STL@@YA_NAAV?$basic_istream@DV?$char_traits@D@_STL@@@0@@Z 0040ac40 f i clib:cfgfile.obj
 0001:00009ca0       ??_G?$basic_string@DV?$char_traits@D@_STL@@V?$allocator@D@2@@_STL@@QAEPAXI@Z 0040aca0 f i clib:cfgfile.obj
 0001:00009cc0       ??$_M_find@PBD@?$_Rb_tree@V?$basic_string@DV?$char_traits@D@_STL@@V?$allocator@D@2@@_STL@@V12@U?$_Identity@V?$basic_string@DV?$char_traits@D@_STL@@V?$allocator@D@2@@_STL@@@2@Vci_cmp_pred@@V?$allocator@V?$basic_string@DV?$char_traits@D@_STL@@V?$allocator@D@2@@_STL@@@2@@_STL@@ABEPAU?$_Rb_tree_node@V?$basic_string@DV?$char_traits@D@_STL@@V?$allocator@D@2@@_STL@@@1@ABQBD@Z 0040acc0 f i clib:cfgfile.obj
 0001:00009de0       ??0ConfigProperty@@QAE@PBD0@Z 0040ade0 f   clib:cfgfile.obj
 0001:00009e40       ??0ConfigProperty@@QAE@PAV?$basic_string@DV?$char_traits@D@_STL@@V?$allocator@D@2@@_STL@@0@Z 0040ae40 f   clib:cfgfile.obj
 0001:00009ee0       ??1ConfigProperty@@QAE@XZ  0040aee0 f   clib:cfgfile.obj
 0001:00009f80       ??0ConfigElemBase@@IAE@XZ  0040af80 f   clib:cfgfile.obj
 0001:00009ff0       ??1ConfigElemBase@@QAE@XZ  0040aff0 f i clib:cfgfile.obj
 0001:0000a090       ??_GConfigProperty@@QAEPAXI@Z 0040b090 f i clib:cfgfile.obj
 0001:0000a0b0       ?remove_prop@VectorConfigElem@@QAE_NPBDPAK@Z 0040b0b0 f   clib:cfgfile.obj
 0001:0000a140       ?throw_error@ConfigElem@@QBEXABV?$basic_string@DV?$char_traits@D@_STL@@V?$allocator@D@2@@_STL@@@Z 0040b140 f   clib:cfgfile.obj
 0001:0000a1c0       ?throw_error@VectorConfigElem@@QBEXABV?$basic_string@DV?$char_traits@D@_STL@@V?$allocator@D@2@@_STL@@@Z 0040b1c0 f   clib:cfgfile.obj
 0001:0000a240       ??1?$pair@V?$basic_string@DV?$char_traits@D@_STL@@V?$allocator@D@2@@_STL@@V12@@_STL@@QAE@XZ 0040b240 f i clib:cfgfile.obj
 0001:0000a2e0       ??1?$pair@$$CBV?$basic_string@DV?$char_traits@D@_STL@@V?$allocator@D@2@@_STL@@V12@@_STL@@QAE@XZ 0040b2e0 f i clib:cfgfile.obj
 0001:0000a380       ??_D?$basic_ostringstream@DV?$char_traits@D@_STL@@V?$allocator@D@2@@_STL@@QAEXXZ 0040b380 f i clib:cfgfile.obj
 0001:0000a3a0       ??_D?$basic_istringstream@DV?$char_traits@D@_STL@@V?$allocator@D@2@@_STL@@QAEXXZ 0040b3a0 f i clib:cfgfile.obj
 0001:0000a3c0       ?display_error@ConfigFile@@MBEXABV?$basic_string@DV?$char_traits@D@_STL@@V?$allocator@D@2@@_STL@@_NPBVConfigElemBase@@1@Z 0040b3c0 f   clib:cfgfile.obj
 0001:0000a530       ?display_and_rethrow_exception@ConfigFile@@IAEXXZ 0040b530 f   clib:cfgfile.obj
 0001:0000a670       ?count@?$multimap@V?$basic_string@DV?$char_traits@D@_STL@@V?$allocator@D@2@@_STL@@V12@Vci_cmp_pred@@V?$allocator@U?$pair@$$CBV?$basic_string@DV?$char_traits@D@_STL@@V?$allocator@D@2@@_STL@@V12@@_STL@@@2@@_STL@@QBEIABV?$basic_string@DV?$char_traits@D@_STL@@V?$allocator@D@2@@2@@Z 0040b670 f i clib:cfgfile.obj
 0001:0000a6b0       ?push_back@?$vector@PAVConfigProperty@@V?$allocator@PAVConfigProperty@@@_STL@@@_STL@@QAEXABQAVConfigProperty@@@Z 0040b6b0 f i clib:cfgfile.obj
 0001:0000a6f0       ??$?0V?$basic_string@DV?$char_traits@D@_STL@@V?$allocator@D@2@@_STL@@V01@@?$pair@$$CBV?$basic_string@DV?$char_traits@D@_STL@@V?$allocator@D@2@@_STL@@V12@@_STL@@QAE@ABU?$pair@V?$basic_string@DV?$char_traits@D@_STL@@V?$allocator@D@2@@_STL@@V12@@1@@Z 0040b6f0 f i clib:cfgfile.obj
 0001:0000a750       ??_G?$basic_ostringstream@DV?$char_traits@D@_STL@@V?$allocator@D@2@@_STL@@UAEPAXI@Z 0040b750 f i clib:cfgfile.obj
 0001:0000a750       ??_E?$basic_ostringstream@DV?$char_traits@D@_STL@@V?$allocator@D@2@@_STL@@UAEPAXI@Z 0040b750 f i clib:cfgfile.obj
 0001:0000a780       ??_G?$basic_istringstream@DV?$char_traits@D@_STL@@V?$allocator@D@2@@_STL@@UAEPAXI@Z 0040b780 f i clib:cfgfile.obj
 0001:0000a780       ??_E?$basic_istringstream@DV?$char_traits@D@_STL@@V?$allocator@D@2@@_STL@@UAEPAXI@Z 0040b780 f i clib:cfgfile.obj
 0001:0000a7b0       ??_G?$pair@$$CBV?$basic_string@DV?$char_traits@D@_STL@@V?$allocator@D@2@@_STL@@V12@@_STL@@QAEPAXI@Z 0040b7b0 f i clib:cfgfile.obj
 0001:0000a7d0       ?push_back@?$basic_string@DV?$char_traits@D@_STL@@V?$allocator@D@2@@_STL@@QAEXD@Z 0040b7d0 f i clib:cfgfile.obj
 0001:0000a830       ??0?$pair@V?$basic_string@DV?$char_traits@D@_STL@@V?$allocator@D@2@@_STL@@V12@@_STL@@QAE@ABV?$basic_string@DV?$char_traits@D@_STL@@V?$allocator@D@2@@1@0@Z 0040b830 f i clib:cfgfile.obj
 0001:0000a880       ??0sentry@?$basic_istream@DV?$char_traits@D@_STL@@@_STL@@QAE@AAV12@_N@Z 0040b880 f i clib:cfgfile.obj
 0001:0000a8c0       ??$_Destroy@V?$basic_string@DV?$char_traits@D@_STL@@V?$allocator@D@2@@_STL@@@_STL@@YAXPAV?$basic_string@DV?$char_traits@D@_STL@@V?$allocator@D@2@@0@@Z 0040b8c0 f i clib:cfgfile.obj
 0001:0000a8d0       ??0?$basic_stringbuf@DV?$char_traits@D@_STL@@V?$allocator@D@2@@_STL@@QAE@ABV?$basic_string@DV?$char_traits@D@_STL@@V?$allocator@D@2@@1@H@Z 0040b8d0 f i clib:cfgfile.obj
 0001:0000a960       ??$find@PBD@?$_Rb_tree@V?$basic_string@DV?$char_traits@D@_STL@@V?$allocator@D@2@@_STL@@V12@U?$_Identity@V?$basic_string@DV?$char_traits@D@_STL@@V?$allocator@D@2@@_STL@@@2@Vci_cmp_pred@@V?$allocator@V?$basic_string@DV?$char_traits@D@_STL@@V?$allocator@D@2@@_STL@@@2@@_STL@@QBE?AU?$_Rb_tree_iterator@V?$basic_string@DV?$char_traits@D@_STL@@V?$allocator@D@2@@_STL@@U?$_Const_traits@V?$basic_string@DV?$char_traits@D@_STL@@V?$allocator@D@2@@_STL@@@2@@1@ABQBD@Z 0040b960 f i clib:cfgfile.obj
 0001:0000a980       ??$_Construct@V?$basic_string@DV?$char_traits@D@_STL@@V?$allocator@D@2@@_STL@@V12@@_STL@@YAXPAV?$basic_string@DV?$char_traits@D@_STL@@V?$allocator@D@2@@0@ABV10@@Z 0040b980 f i clib:cfgfile.obj
 0001:0000a9d0       ??0?$pair@$$CBV?$basic_string@DV?$char_traits@D@_STL@@V?$allocator@D@2@@_STL@@V12@@_STL@@QAE@ABU01@@Z 0040b9d0 f i clib:cfgfile.obj
 0001:0000aa30       ??0ConfigProperty@@QAE@ABV?$basic_string@DV?$char_traits@D@_STL@@V?$allocator@D@2@@_STL@@0@Z 0040ba30 f   clib:cfgfile.obj
 0001:0000aa80       ?has_prop@ConfigElem@@QBE_NPBD@Z 0040ba80 f   clib:cfgfile.obj
 0001:0000ab40       ?get_prop@ConfigElem@@QBEXPBDPAK@Z 0040bb40 f   clib:cfgfile.obj
 0001:0000ac10       ?add_prop@VectorConfigElem@@QAEXPBD0@Z 0040bc10 f   clib:cfgfile.obj
 0001:0000acb0       ?assign@?$basic_string@DV?$char_traits@D@_STL@@V?$allocator@D@2@@_STL@@QAEAAV12@PBD0@Z 0040bcb0 f i clib:cfgfile.obj
 0001:0000ad50       ?_M_erase@?$_Rb_tree@V?$basic_string@DV?$char_traits@D@_STL@@V?$allocator@D@2@@_STL@@V12@U?$_Identity@V?$basic_string@DV?$char_traits@D@_STL@@V?$allocator@D@2@@_STL@@@2@Vci_cmp_pred@@V?$allocator@V?$basic_string@DV?$char_traits@D@_STL@@V?$allocator@D@2@@_STL@@@2@@_STL@@AAEXPAU?$_Rb_tree_node@V?$basic_string@DV?$char_traits@D@_STL@@V?$allocator@D@2@@_STL@@@2@@Z 0040bd50 f i clib:cfgfile.obj
 0001:0000ad90       ??$make_pair@V?$basic_string@DV?$char_traits@D@_STL@@V?$allocator@D@2@@_STL@@V12@@_STL@@YA?AU?$pair@V?$basic_string@DV?$char_traits@D@_STL@@V?$allocator@D@2@@_STL@@V12@@0@ABV?$basic_string@DV?$char_traits@D@_STL@@V?$allocator@D@2@@0@0@Z 0040bd90 f i clib:cfgfile.obj
 0001:0000adf0       ?_M_append_buffer@?$basic_stringbuf@DV?$char_traits@D@_STL@@V?$allocator@D@2@@_STL@@ABEXXZ 0040bdf0 f i clib:cfgfile.obj
 0001:0000ae50       ??$?5DV?$char_traits@D@_STL@@V?$allocator@D@1@@_STL@@YAAAV?$basic_istream@DV?$char_traits@D@_STL@@@0@AAV10@AAV?$basic_string@DV?$char_traits@D@_STL@@V?$allocator@D@2@@0@@Z 0040be50 f i clib:cfgfile.obj
 0001:0000b000       ??$find@PBD@?$set@V?$basic_string@DV?$char_traits@D@_STL@@V?$allocator@D@2@@_STL@@Vci_cmp_pred@@V?$allocator@V?$basic_string@DV?$char_traits@D@_STL@@V?$allocator@D@2@@_STL@@@2@@_STL@@QBE?AU?$_Rb_tree_iterator@V?$basic_string@DV?$char_traits@D@_STL@@V?$allocator@D@2@@_STL@@U?$_Const_traits@V?$basic_string@DV?$char_traits@D@_STL@@V?$allocator@D@2@@_STL@@@2@@1@ABQBD@Z 0040c000 f i clib:cfgfile.obj
 0001:0000b020       ??$_Destroy@U?$pair@$$CBV?$basic_string@DV?$char_traits@D@_STL@@V?$allocator@D@2@@_STL@@V12@@_STL@@@_STL@@YAXPAU?$pair@$$CBV?$basic_string@DV?$char_traits@D@_STL@@V?$allocator@D@2@@_STL@@V12@@0@@Z 0040c020 f i clib:cfgfile.obj
 0001:0000b030       ?_M_create_node@?$_Rb_tree@V?$basic_string@DV?$char_traits@D@_STL@@V?$allocator@D@2@@_STL@@V12@U?$_Identity@V?$basic_string@DV?$char_traits@D@_STL@@V?$allocator@D@2@@_STL@@@2@Vci_cmp_pred@@V?$allocator@V?$basic_string@DV?$char_traits@D@_STL@@V?$allocator@D@2@@_STL@@@2@@_STL@@IAEPAU?$_Rb_tree_node@V?$basic_string@DV?$char_traits@D@_STL@@V?$allocator@D@2@@_STL@@@2@ABV?$basic_string@DV?$char_traits@D@_STL@@V?$allocator@D@2@@2@@Z 0040c030 f i clib:cfgfile.obj
 0001:0000b0c0       ??$_Construct@U?$pair@$$CBV?$basic_string@DV?$char_traits@D@_STL@@V?$allocator@D@2@@_STL@@V12@@_STL@@U12@@_STL@@YAXPAU?$pair@$$CBV?$basic_string@DV?$char_traits@D@_STL@@V?$allocator@D@2@@_STL@@V12@@0@ABU10@@Z 0040c0c0 f i clib:cfgfile.obj
 0001:0000b110       ??4?$basic_string@DV?$char_traits@D@_STL@@V?$allocator@D@2@@_STL@@QAEAAV01@PBD@Z 0040c110 f i clib:cfgfile.obj
 0001:0000b140       ??Y?$basic_string@DV?$char_traits@D@_STL@@V?$allocator@D@2@@_STL@@QAEAAV01@ABV01@@Z 0040c140 f i clib:cfgfile.obj
 0001:0000b160       ?erase@?$_Rb_tree@V?$basic_string@DV?$char_traits@D@_STL@@V?$allocator@D@2@@_STL@@U?$pair@$$CBV?$basic_string@DV?$char_traits@D@_STL@@V?$allocator@D@2@@_STL@@V12@@2@U?$_Select1st@U?$pair@$$CBV?$basic_string@DV?$char_traits@D@_STL@@V?$allocator@D@2@@_STL@@V12@@_STL@@@2@Vci_cmp_pred@@V?$allocator@U?$pair@$$CBV?$basic_string@DV?$char_traits@D@_STL@@V?$allocator@D@2@@_STL@@V12@@_STL@@@2@@_STL@@QAEXU?$_Rb_tree_iterator@U?$pair@$$CBV?$basic_string@DV?$char_traits@D@_STL@@V?$allocator@D@2@@_STL@@V12@@_STL@@U?$_Nonconst_traits@U?$pair@$$CBV?$basic_string@DV?$char_traits@D@_STL@@V?$allocator@D@2@@_STL@@V12@@_STL@@@2@@2@@Z 0040c160 f i clib:cfgfile.obj
 0001:0000b1b0       ?clear@?$_Rb_tree@V?$basic_string@DV?$char_traits@D@_STL@@V?$allocator@D@2@@_STL@@V12@U?$_Identity@V?$basic_string@DV?$char_traits@D@_STL@@V?$allocator@D@2@@_STL@@@2@Vci_cmp_pred@@V?$allocator@V?$basic_string@DV?$char_traits@D@_STL@@V?$allocator@D@2@@_STL@@@2@@_STL@@QAEXXZ 0040c1b0 f i clib:cfgfile.obj
 0001:0000b1f0       ?str@?$basic_stringbuf@DV?$char_traits@D@_STL@@V?$allocator@D@2@@_STL@@QBE?AV?$basic_string@DV?$char_traits@D@_STL@@V?$allocator@D@2@@2@XZ 0040c1f0 f i clib:cfgfile.obj
 0001:0000b220       ?_M_erase@?$_Rb_tree@V?$basic_string@DV?$char_traits@D@_STL@@V?$allocator@D@2@@_STL@@U?$pair@$$CBV?$basic_string@DV?$char_traits@D@_STL@@V?$allocator@D@2@@_STL@@V12@@2@U?$_Select1st@U?$pair@$$CBV?$basic_string@DV?$char_traits@D@_STL@@V?$allocator@D@2@@_STL@@V12@@_STL@@@2@Vci_cmp_pred@@V?$allocator@U?$pair@$$CBV?$basic_string@DV?$char_traits@D@_STL@@V?$allocator@D@2@@_STL@@V12@@_STL@@@2@@_STL@@AAEXPAU?$_Rb_tree_node@U?$pair@$$CBV?$basic_string@DV?$char_traits@D@_STL@@V?$allocator@D@2@@_STL@@V12@@_STL@@@2@@Z 0040c220 f i clib:cfgfile.obj
 0001:0000b260       ?overflow@?$basic_stringbuf@DV?$char_traits@D@_STL@@V?$allocator@D@2@@_STL@@MAEHH@Z 0040c260 f i clib:cfgfile.obj
 0001:0000b350       ?xsputn@?$basic_stringbuf@DV?$char_traits@D@_STL@@V?$allocator@D@2@@_STL@@MAEHPBDH@Z 0040c350 f i clib:cfgfile.obj
 0001:0000b4a0       ?_M_xsputnc@?$basic_stringbuf@DV?$char_traits@D@_STL@@V?$allocator@D@2@@_STL@@MAEHDH@Z 0040c4a0 f i clib:cfgfile.obj
 0001:0000b600       ?append@?$basic_string@DV?$char_traits@D@_STL@@V?$allocator@D@2@@_STL@@QAEAAV12@ID@Z 0040c600 f i clib:cfgfile.obj
 0001:0000b6b0       ?setbuf@?$basic_stringbuf@DV?$char_traits@D@_STL@@V?$allocator@D@2@@_STL@@MAEPAV?$basic_streambuf@DV?$char_traits@D@_STL@@@2@PADH@Z 0040c6b0 f i clib:cfgfile.obj
 0001:0000b780       ?seekoff@?$basic_stringbuf@DV?$char_traits@D@_STL@@V?$allocator@D@2@@_STL@@MAE?AV?$fpos@H@2@JHH@Z 0040c780 f i clib:cfgfile.obj
 0001:0000b900       ?seekpos@?$basic_stringbuf@DV?$char_traits@D@_STL@@V?$allocator@D@2@@_STL@@MAE?AV?$fpos@H@2@V32@H@Z 0040c900 f i clib:cfgfile.obj
 0001:0000ba30       ?_M_insert@?$_Rb_tree@V?$basic_string@DV?$char_traits@D@_STL@@V?$allocator@D@2@@_STL@@V12@U?$_Identity@V?$basic_string@DV?$char_traits@D@_STL@@V?$allocator@D@2@@_STL@@@2@Vci_cmp_pred@@V?$allocator@V?$basic_string@DV?$char_traits@D@_STL@@V?$allocator@D@2@@_STL@@@2@@_STL@@AAE?AU?$_Rb_tree_iterator@V?$basic_string@DV?$char_traits@D@_STL@@V?$allocator@D@2@@_STL@@U?$_Nonconst_traits@V?$basic_string@DV?$char_traits@D@_STL@@V?$allocator@D@2@@_STL@@@2@@2@PAU_Rb_tree_node_base@2@0ABV?$basic_string@DV?$char_traits@D@_STL@@V?$allocator@D@2@@2@0@Z 0040ca30 f i clib:cfgfile.obj
 0001:0000bae0       ?_M_create_node@?$_Rb_tree@V?$basic_string@DV?$char_traits@D@_STL@@V?$allocator@D@2@@_STL@@U?$pair@$$CBV?$basic_string@DV?$char_traits@D@_STL@@V?$allocator@D@2@@_STL@@V12@@2@U?$_Select1st@U?$pair@$$CBV?$basic_string@DV?$char_traits@D@_STL@@V?$allocator@D@2@@_STL@@V12@@_STL@@@2@Vci_cmp_pred@@V?$allocator@U?$pair@$$CBV?$basic_string@DV?$char_traits@D@_STL@@V?$allocator@D@2@@_STL@@V12@@_STL@@@2@@_STL@@IAEPAU?$_Rb_tree_node@U?$pair@$$CBV?$basic_string@DV?$char_traits@D@_STL@@V?$allocator@D@2@@_STL@@V12@@_STL@@@2@ABU?$pair@$$CBV?$basic_string@DV?$char_traits@D@_STL@@V?$allocator@D@2@@_STL@@V12@@2@@Z 0040cae0 f i clib:cfgfile.obj
 0001:0000bb70       ?set_rest@ConfigElem@@QAEXPBD@Z 0040cb70 f   clib:cfgfile.obj
 0001:0000bba0       ?set_type@ConfigElem@@QAEXPBD@Z 0040cba0 f   clib:cfgfile.obj
 0001:0000bbd0       ?remove_prop@VectorConfigElem@@QAE_NPBDPAV?$basic_string@DV?$char_traits@D@_STL@@V?$allocator@D@2@@_STL@@@Z 0040cbd0 f   clib:cfgfile.obj
 0001:0000bc60       ?read_prop@ConfigElem@@QBE_NPBDPAV?$basic_string@DV?$char_traits@D@_STL@@V?$allocator@D@2@@_STL@@@Z 0040cc60 f   clib:cfgfile.obj
 0001:0000bcf0       ?read_prop@VectorConfigElem@@QBE_NPBDPAV?$basic_string@DV?$char_traits@D@_STL@@V?$allocator@D@2@@_STL@@@Z 0040ccf0 f   clib:cfgfile.obj
 0001:0000bd50       ?remove_prop@VectorConfigElem@@QAE_NPBDPAG@Z 0040cd50 f   clib:cfgfile.obj
 0001:0000bf00       ?prop_not_found@ConfigElem@@IBEXPBD@Z 0040cf00 f   clib:cfgfile.obj
 0001:0000bf90       ?read_string@ConfigElem@@QBE?AV?$basic_string@DV?$char_traits@D@_STL@@V?$allocator@D@2@@_STL@@PBD@Z 0040cf90 f   clib:cfgfile.obj
 0001:0000c060       ?read_string@ConfigElem@@QBE?AV?$basic_string@DV?$char_traits@D@_STL@@V?$allocator@D@2@@_STL@@PBD0@Z 0040d060 f   clib:cfgfile.obj
 0001:0000c130       ?remove_first_prop@VectorConfigElem@@QAE_NPAV?$basic_string@DV?$char_traits@D@_STL@@V?$allocator@D@2@@_STL@@0@Z 0040d130 f   clib:cfgfile.obj
 0001:0000c1c0       ?open@ConfigFile@@QAEXPBD@Z 0040d1c0 f   clib:cfgfile.obj
 0001:0000c2d0       ?readline@ConfigFile@@IAE_NAAV?$basic_string@DV?$char_traits@D@_STL@@V?$allocator@D@2@@_STL@@@Z 0040d2d0 f   clib:cfgfile.obj
 0001:0000c3c0       ?erase@?$multimap@V?$basic_string@DV?$char_traits@D@_STL@@V?$allocator@D@2@@_STL@@V12@Vci_cmp_pred@@V?$allocator@U?$pair@$$CBV?$basic_string@DV?$char_traits@D@_STL@@V?$allocator@D@2@@_STL@@V12@@_STL@@@2@@_STL@@QAEXU?$_Rb_tree_iterator@U?$pair@$$CBV?$basic_string@DV?$char_traits@D@_STL@@V?$allocator@D@2@@_STL@@V12@@_STL@@U?$_Nonconst_traits@U?$pair@$$CBV?$basic_string@DV?$char_traits@D@_STL@@V?$allocator@D@2@@_STL@@V12@@_STL@@@2@@2@@Z 0040d3c0 f i clib:cfgfile.obj
 0001:0000c410       ??1?$_Rb_tree@V?$basic_string@DV?$char_traits@D@_STL@@V?$allocator@D@2@@_STL@@V12@U?$_Identity@V?$basic_string@DV?$char_traits@D@_STL@@V?$allocator@D@2@@_STL@@@2@Vci_cmp_pred@@V?$allocator@V?$basic_string@DV?$char_traits@D@_STL@@V?$allocator@D@2@@_STL@@@2@@_STL@@QAE@XZ 0040d410 f i clib:cfgfile.obj
 0001:0000c490       ?str@?$basic_ostringstream@DV?$char_traits@D@_STL@@V?$allocator@D@2@@_STL@@QBE?AV?$basic_string@DV?$char_traits@D@_STL@@V?$allocator@D@2@@2@XZ 0040d490 f i clib:cfgfile.obj
 0001:0000c4b0       ?clear@?$_Rb_tree@V?$basic_string@DV?$char_traits@D@_STL@@V?$allocator@D@2@@_STL@@U?$pair@$$CBV?$basic_string@DV?$char_traits@D@_STL@@V?$allocator@D@2@@_STL@@V12@@2@U?$_Select1st@U?$pair@$$CBV?$basic_string@DV?$char_traits@D@_STL@@V?$allocator@D@2@@_STL@@V12@@_STL@@@2@Vci_cmp_pred@@V?$allocator@U?$pair@$$CBV?$basic_string@DV?$char_traits@D@_STL@@V?$allocator@D@2@@_STL@@V12@@_STL@@@2@@_STL@@QAEXXZ 0040d4b0 f i clib:cfgfile.obj
 0001:0000c4f0       ?insert_unique@?$_Rb_tree@V?$basic_string@DV?$char_traits@D@_STL@@V?$allocator@D@2@@_STL@@V12@U?$_Identity@V?$basic_string@DV?$char_traits@D@_STL@@V?$allocator@D@2@@_STL@@@2@Vci_cmp_pred@@V?$allocator@V?$basic_string@DV?$char_traits@D@_STL@@V?$allocator@D@2@@_STL@@@2@@_STL@@QAE?AU?$pair@U?$_Rb_tree_iterator@V?$basic_string@DV?$char_traits@D@_STL@@V?$allocator@D@2@@_STL@@U?$_Nonconst_traits@V?$basic_string@DV?$char_traits@D@_STL@@V?$allocator@D@2@@_STL@@@2@@_STL@@_N@2@ABV?$basic_string@DV?$char_traits@D@_STL@@V?$allocator@D@2@@2@@Z 0040d4f0 f i clib:cfgfile.obj
 0001:0000c5c0       ?_M_insert@?$_Rb_tree@V?$basic_string@DV?$char_traits@D@_STL@@V?$allocator@D@2@@_STL@@U?$pair@$$CBV?$basic_string@DV?$char_traits@D@_STL@@V?$allocator@D@2@@_STL@@V12@@2@U?$_Select1st@U?$pair@$$CBV?$basic_string@DV?$char_traits@D@_STL@@V?$allocator@D@2@@_STL@@V12@@_STL@@@2@Vci_cmp_pred@@V?$allocator@U?$pair@$$CBV?$basic_string@DV?$char_traits@D@_STL@@V?$allocator@D@2@@_STL@@V12@@_STL@@@2@@_STL@@AAE?AU?$_Rb_tree_iterator@U?$pair@$$CBV?$basic_string@DV?$char_traits@D@_STL@@V?$allocator@D@2@@_STL@@V12@@_STL@@U?$_Nonconst_traits@U?$pair@$$CBV?$basic_string@DV?$char_traits@D@_STL@@V?$allocator@D@2@@_STL@@V12@@_STL@@@2@@2@PAU_Rb_tree_node_base@2@0ABU?$pair@$$CBV?$basic_string@DV?$char_traits@D@_STL@@V?$allocator@D@2@@_STL@@V12@@2@0@Z 0040d5c0 f i clib:cfgfile.obj
 0001:0000c670       ?remove_first_prop@ConfigElem@@QAE_NPAV?$basic_string@DV?$char_traits@D@_STL@@V?$allocator@D@2@@_STL@@0@Z 0040d670 f   clib:cfgfile.obj
 0001:0000c700       ?remove_prop@ConfigElem@@QAE_NPBDPAV?$basic_string@DV?$char_traits@D@_STL@@V?$allocator@D@2@@_STL@@@Z 0040d700 f   clib:cfgfile.obj
 0001:0000c7c0       ?remove_prop@ConfigElem@@QAE_NPBDPAK@Z 0040d7c0 f   clib:cfgfile.obj
 0001:0000c880       ?remove_prop@ConfigElem@@QAE_NPBDPAG@Z 0040d880 f   clib:cfgfile.obj
 0001:0000ca40       ?remove_ushort@ConfigElem@@QAEGPBD@Z 0040da40 f   clib:cfgfile.obj
 0001:0000ca70       ?remove_ushort@ConfigElem@@QAEGPBDG@Z 0040da70 f   clib:cfgfile.obj
 0001:0000ca90       ?remove_int@ConfigElem@@QAEHPBDH@Z 0040da90 f   clib:cfgfile.obj
 0001:0000cba0       ?remove_unsigned@ConfigElem@@QAEIPBDH@Z 0040dba0 f   clib:cfgfile.obj
 0001:0000ccb0       ?remove_string@ConfigElem@@QAE?AV?$basic_string@DV?$char_traits@D@_STL@@V?$allocator@D@2@@_STL@@PBD@Z 0040dcb0 f   clib:cfgfile.obj
 0001:0000cd80       ?remove_string@ConfigElem@@QAE?AV?$basic_string@DV?$char_traits@D@_STL@@V?$allocator@D@2@@_STL@@PBD0@Z 0040dd80 f   clib:cfgfile.obj
 0001:0000ce50       ?remove_bool@ConfigElem@@QAE_NPBD@Z 0040de50 f   clib:cfgfile.obj
 0001:0000ce80       ?remove_bool@ConfigElem@@QAE_NPBD_N@Z 0040de80 f   clib:cfgfile.obj
 0001:0000ceb0       ?remove_float@ConfigElem@@QAEMPBDM@Z 0040deb0 f   clib:cfgfile.obj
 0001:0000cfc0       ?remove_double@ConfigElem@@QAENPBDN@Z 0040dfc0 f   clib:cfgfile.obj
 0001:0000d070       ?remove_ulong@ConfigElem@@QAEKPBD@Z 0040e070 f   clib:cfgfile.obj
 0001:0000d0a0       ?remove_ulong@ConfigElem@@QAEKPBDK@Z 0040e0a0 f   clib:cfgfile.obj
 0001:0000d0c0       ?clear_prop@ConfigElem@@QAEXPBD@Z 0040e0c0 f   clib:cfgfile.obj
 0001:0000d0e0       ??1?$set@V?$basic_string@DV?$char_traits@D@_STL@@V?$allocator@D@2@@_STL@@Vci_cmp_pred@@V?$allocator@V?$basic_string@DV?$char_traits@D@_STL@@V?$allocator@D@2@@_STL@@@2@@_STL@@QAE@XZ 0040e0e0 f i clib:cfgfile.obj
 0001:0000d0f0       ??1ConfigFile@@UAE@XZ      0040e0f0 f   clib:cfgfile.obj
 0001:0000d180       ?clear@?$multimap@V?$basic_string@DV?$char_traits@D@_STL@@V?$allocator@D@2@@_STL@@V12@Vci_cmp_pred@@V?$allocator@U?$pair@$$CBV?$basic_string@DV?$char_traits@D@_STL@@V?$allocator@D@2@@_STL@@V12@@_STL@@@2@@_STL@@QAEXXZ 0040e180 f i clib:cfgfile.obj
 0001:0000d1c0       ??1?$_Rb_tree@V?$basic_string@DV?$char_traits@D@_STL@@V?$allocator@D@2@@_STL@@U?$pair@$$CBV?$basic_string@DV?$char_traits@D@_STL@@V?$allocator@D@2@@_STL@@V12@@2@U?$_Select1st@U?$pair@$$CBV?$basic_string@DV?$char_traits@D@_STL@@V?$allocator@D@2@@_STL@@V12@@_STL@@@2@Vci_cmp_pred@@V?$allocator@U?$pair@$$CBV?$basic_string@DV?$char_traits@D@_STL@@V?$allocator@D@2@@_STL@@V12@@_STL@@@2@@_STL@@QAE@XZ 0040e1c0 f i clib:cfgfile.obj
 0001:0000d240       ??0?$set@V?$basic_string@DV?$char_traits@D@_STL@@V?$allocator@D@2@@_STL@@Vci_cmp_pred@@V?$allocator@V?$basic_string@DV?$char_traits@D@_STL@@V?$allocator@D@2@@_STL@@@2@@_STL@@QAE@XZ 0040e240 f i clib:cfgfile.obj
 0001:0000d280       ?insert@?$set@V?$basic_string@DV?$char_traits@D@_STL@@V?$allocator@D@2@@_STL@@Vci_cmp_pred@@V?$allocator@V?$basic_string@DV?$char_traits@D@_STL@@V?$allocator@D@2@@_STL@@@2@@_STL@@QAE?AU?$pair@U?$_Rb_tree_iterator@V?$basic_string@DV?$char_traits@D@_STL@@V?$allocator@D@2@@_STL@@U?$_Const_traits@V?$basic_string@DV?$char_traits@D@_STL@@V?$allocator@D@2@@_STL@@@2@@_STL@@_N@2@ABV?$basic_string@DV?$char_traits@D@_STL@@V?$allocator@D@2@@2@@Z 0040e280 f i clib:cfgfile.obj
 0001:0000d2b0       ?insert_equal@?$_Rb_tree@V?$basic_string@DV?$char_traits@D@_STL@@V?$allocator@D@2@@_STL@@U?$pair@$$CBV?$basic_string@DV?$char_traits@D@_STL@@V?$allocator@D@2@@_STL@@V12@@2@U?$_Select1st@U?$pair@$$CBV?$basic_string@DV?$char_traits@D@_STL@@V?$allocator@D@2@@_STL@@V12@@_STL@@@2@Vci_cmp_pred@@V?$allocator@U?$pair@$$CBV?$basic_string@DV?$char_traits@D@_STL@@V?$allocator@D@2@@_STL@@V12@@_STL@@@2@@_STL@@QAE?AU?$_Rb_tree_iterator@U?$pair@$$CBV?$basic_string@DV?$char_traits@D@_STL@@V?$allocator@D@2@@_STL@@V12@@_STL@@U?$_Nonconst_traits@U?$pair@$$CBV?$basic_string@DV?$char_traits@D@_STL@@V?$allocator@D@2@@_STL@@V12@@_STL@@@2@@2@ABU?$pair@$$CBV?$basic_string@DV?$char_traits@D@_STL@@V?$allocator@D@2@@_STL@@V12@@2@@Z 0040e2b0 f i clib:cfgfile.obj
 0001:0000d300       ??0?$basic_istream@DV?$char_traits@D@_STL@@@_STL@@QAE@PAV?$basic_streambuf@DV?$char_traits@D@_STL@@@1@@Z 0040e300 f i clib:cfgfile.obj
 0001:0000d390       ??1?$multimap@V?$basic_string@DV?$char_traits@D@_STL@@V?$allocator@D@2@@_STL@@V12@Vci_cmp_pred@@V?$allocator@U?$pair@$$CBV?$basic_string@DV?$char_traits@D@_STL@@V?$allocator@D@2@@_STL@@V12@@_STL@@@2@@_STL@@QAE@XZ 0040e390 f i clib:cfgfile.obj
 0001:0000d3a0       ??1ConfigElem@@QAE@XZ      0040e3a0 f   clib:cfgfile.obj
 0001:0000d3f0       ?remove_int@ConfigElem@@QAEHPBD@Z 0040e3f0 f   clib:cfgfile.obj
 0001:0000d450       ?remove_unsigned@ConfigElem@@QAEIPBD@Z 0040e450 f   clib:cfgfile.obj
 0001:0000d4b0       ??_GConfigFile@@UAEPAXI@Z  0040e4b0 f i clib:cfgfile.obj
 0001:0000d4b0       ??_EConfigFile@@UAEPAXI@Z  0040e4b0 f i clib:cfgfile.obj
 0001:0000d4d0       ??0?$multimap@V?$basic_string@DV?$char_traits@D@_STL@@V?$allocator@D@2@@_STL@@V12@Vci_cmp_pred@@V?$allocator@U?$pair@$$CBV?$basic_string@DV?$char_traits@D@_STL@@V?$allocator@D@2@@_STL@@V12@@_STL@@@2@@_STL@@QAE@XZ 0040e4d0 f i clib:cfgfile.obj
 0001:0000d510       ?insert@?$multimap@V?$basic_string@DV?$char_traits@D@_STL@@V?$allocator@D@2@@_STL@@V12@Vci_cmp_pred@@V?$allocator@U?$pair@$$CBV?$basic_string@DV?$char_traits@D@_STL@@V?$allocator@D@2@@_STL@@V12@@_STL@@@2@@_STL@@QAE?AU?$_Rb_tree_iterator@U?$pair@$$CBV?$basic_string@DV?$char_traits@D@_STL@@V?$allocator@D@2@@_STL@@V12@@_STL@@U?$_Nonconst_traits@U?$pair@$$CBV?$basic_string@DV?$char_traits@D@_STL@@V?$allocator@D@2@@_STL@@V12@@_STL@@@2@@2@ABU?$pair@$$CBV?$basic_string@DV?$char_traits@D@_STL@@V?$allocator@D@2@@_STL@@V12@@2@@Z 0040e510 f i clib:cfgfile.obj
 0001:0000d530       ??0?$basic_ostringstream@DV?$char_traits@D@_STL@@V?$allocator@D@2@@_STL@@QAE@H@Z 0040e530 f i clib:cfgfile.obj
 0001:0000d600       ??0?$basic_istringstream@DV?$char_traits@D@_STL@@V?$allocator@D@2@@_STL@@QAE@ABV?$basic_string@DV?$char_traits@D@_STL@@V?$allocator@D@2@@1@H@Z 0040e600 f i clib:cfgfile.obj
 0001:0000d6d0       ??0ConfigElem@@QAE@XZ      0040e6d0 f   clib:cfgfile.obj
 0001:0000d740       ?add_prop@ConfigElem@@QAEXPBD0@Z 0040e740 f   clib:cfgfile.obj
 0001:0000d880       ?add_prop@ConfigElem@@QAEXPBDG@Z 0040e880 f   clib:cfgfile.obj
 0001:0000da30       ?add_prop@VectorConfigElem@@QAEXPBDG@Z 0040ea30 f   clib:cfgfile.obj
 0001:0000dbf0       ?add_prop@ConfigElem@@QAEXPBDK@Z 0040ebf0 f   clib:cfgfile.obj
 0001:0000dda0       ?add_prop@VectorConfigElem@@QAEXPBDK@Z 0040eda0 f   clib:cfgfile.obj
 0001:0000df60       ?init@ConfigFile@@IAEXPBD0@Z 0040ef60 f   clib:cfgfile.obj
 0001:0000e120       ?read_properties@ConfigFile@@IAE_NAAVConfigElem@@@Z 0040f120 f   clib:cfgfile.obj
 0001:0000e460       ?read_properties@ConfigFile@@IAE_NAAVVectorConfigElem@@@Z 0040f460 f   clib:cfgfile.obj
 0001:0000e760       ?_read@ConfigFile@@IAE_NAAVConfigElem@@@Z 0040f760 f   clib:cfgfile.obj
 0001:0000ec60       ?_read@ConfigFile@@IAE_NAAVVectorConfigElem@@@Z 0040fc60 f   clib:cfgfile.obj
 0001:0000f160       ?read@ConfigFile@@QAE_NAAVConfigElem@@@Z 00410160 f   clib:cfgfile.obj
 0001:0000f1c0       ?readraw@ConfigFile@@QAEXAAVConfigElem@@@Z 004101c0 f   clib:cfgfile.obj
 0001:0000f260       ??0ConfigFile@@QAE@PBD0@Z  00410260 f   clib:cfgfile.obj
 0001:0000f300       ??0ConfigFile@@QAE@ABV?$basic_string@DV?$char_traits@D@_STL@@V?$allocator@D@2@@_STL@@PBD@Z 00410300 f   clib:cfgfile.obj
 0001:0000f3b0       ?eof@ios_base@_STL@@QBE_NXZ 004103b0 f i clib:binaryfile.obj
 0001:0000f3c0       ?pubseekoff@?$basic_streambuf@DV?$char_traits@D@_STL@@@_STL@@QAE?AV?$fpos@H@2@JHH@Z 004103c0 f i clib:binaryfile.obj
 0001:0000f3e0       ?pubseekpos@?$basic_streambuf@DV?$char_traits@D@_STL@@@_STL@@QAE?AV?$fpos@H@2@V32@H@Z 004103e0 f i clib:binaryfile.obj
 0001:0000f400       ??8?$fpos@H@_STL@@QBA_NABV01@@Z 00410400 f i clib:binaryfile.obj
 0001:0000f420       ?rdbuf@?$basic_fstream@DV?$char_traits@D@_STL@@@_STL@@QBEPAV?$basic_filebuf@DV?$char_traits@D@_STL@@@2@XZ 00410420 f i clib:binaryfile.obj
 0001:0000f430       ?tellg@?$basic_istream@DV?$char_traits@D@_STL@@@_STL@@QAE?AV?$fpos@H@2@XZ 00410430 f i clib:binaryfile.obj
 0001:0000f490       ??1?$basic_iostream@DV?$char_traits@D@_STL@@@_STL@@UAE@XZ 00410490 f i clib:binaryfile.obj
 0001:0000f4d0       ??0?$_Constant_unary_fun@_NH@_STL@@QAE@AB_N@Z 004104d0 f i clib:binaryfile.obj
 0001:0000f4e0       ??R?$_Constant_unary_fun@_NH@_STL@@QBEAB_NABH@Z 004104e0 f i clib:binaryfile.obj
 0001:0000f4f0       ??R?$_Project2nd@PBDPBD@_STL@@QBEPBDABQBD0@Z 004104f0 f i clib:binaryfile.obj
 0001:0000f500       ??7ios_base@_STL@@QBE_NXZ  00410500 f i clib:binaryfile.obj
 0001:0000f510       ?is_open@?$basic_fstream@DV?$char_traits@D@_STL@@@_STL@@QAE_NXZ 00410510 f i clib:binaryfile.obj
 0001:0000f520       ??_E?$basic_iostream@DV?$char_traits@D@_STL@@@_STL@@UAEPAXI@Z 00410520 f i clib:binaryfile.obj
 0001:0000f520       ??_G?$basic_iostream@DV?$char_traits@D@_STL@@@_STL@@UAEPAXI@Z 00410520 f i clib:binaryfile.obj
 0001:0000f550       ??$_M_read_unbuffered@DV?$char_traits@D@_STL@@U?$_Constant_unary_fun@_NH@2@@_STL@@YAHPAV?$basic_istream@DV?$char_traits@D@_STL@@@0@PAV?$basic_streambuf@DV?$char_traits@D@_STL@@@0@HPADU?$_Constant_unary_fun@_NH@0@_N44@Z 00410550 f i clib:binaryfile.obj
 0001:0000f670       ??1?$basic_fstream@DV?$char_traits@D@_STL@@@_STL@@UAE@XZ 00410670 f i clib:binaryfile.obj
 0001:0000f700       ?open@?$basic_fstream@DV?$char_traits@D@_STL@@@_STL@@QAEXPBDH@Z 00410700 f i clib:binaryfile.obj
 0001:0000f750       ?close@?$basic_fstream@DV?$char_traits@D@_STL@@@_STL@@QAEXXZ 00410750 f i clib:binaryfile.obj
 0001:0000f790       ??$_M_read_buffered@DV?$char_traits@D@_STL@@U?$_Constant_unary_fun@_NH@2@U?$_Project2nd@PBDPBD@2@@_STL@@YAHPAV?$basic_istream@DV?$char_traits@D@_STL@@@0@PAV?$basic_streambuf@DV?$char_traits@D@_STL@@@0@HPADU?$_Constant_unary_fun@_NH@0@U?$_Project2nd@PBDPBD@0@_N55@Z 00410790 f i clib:binaryfile.obj
 0001:0000f970       ??_D?$basic_fstream@DV?$char_traits@D@_STL@@@_STL@@QAEXXZ 00410970 f i clib:binaryfile.obj
 0001:0000f990       ??_E?$basic_fstream@DV?$char_traits@D@_STL@@@_STL@@UAEPAXI@Z 00410990 f i clib:binaryfile.obj
 0001:0000f990       ??_G?$basic_fstream@DV?$char_traits@D@_STL@@@_STL@@UAEPAXI@Z 00410990 f i clib:binaryfile.obj
 0001:0000f9d0       ??0sentry@?$basic_istream@DV?$char_traits@D@_STL@@@_STL@@QAE@AAV12@U_No_Skip_WS@2@@Z 004109d0 f i clib:binaryfile.obj
 0001:0000f9f0       ??1BinaryFile@@QAE@XZ      004109f0 f   clib:binaryfile.obj
 0001:0000fa80       ?read@?$basic_istream@DV?$char_traits@D@_STL@@@_STL@@QAEAAV12@PADH@Z 00410a80 f i clib:binaryfile.obj
 0001:0000fb70       ?seekg@?$basic_istream@DV?$char_traits@D@_STL@@@_STL@@QAEAAV12@JH@Z 00410b70 f i clib:binaryfile.obj
 0001:0000fbc0       ?seekg@?$basic_istream@DV?$char_traits@D@_STL@@@_STL@@QAEAAV12@V?$fpos@H@2@@Z 00410bc0 f i clib:binaryfile.obj
 0001:0000fc00       ?Seek@BinaryFile@@QAEXV?$fpos@H@_STL@@@Z 00410c00 f   clib:binaryfile.obj
 0001:0000fd50       ?ReadBuffer@BinaryFile@@AAEXPAXH@Z 00410d50 f   clib:binaryfile.obj
 0001:0000fe50       ?FileSize@BinaryFile@@QAE?AV?$fpos@H@_STL@@XZ 00410e50 f   clib:binaryfile.obj
 0001:000100c0       ?GetElementCount@BinaryFile@@AAEII@Z 004110c0 f   clib:binaryfile.obj
 0001:00010190       ?Open@BinaryFile@@QAEXABV?$basic_string@DV?$char_traits@D@_STL@@V?$allocator@D@2@@_STL@@H@Z 00411190 f   clib:binaryfile.obj
 0001:00010300       ?Close@BinaryFile@@QAEXXZ  00411300 f   clib:binaryfile.obj
 0001:00010370       ??0?$basic_iostream@DV?$char_traits@D@_STL@@@_STL@@QAE@PAV?$basic_streambuf@DV?$char_traits@D@_STL@@@1@@Z 00411370 f i clib:binaryfile.obj
 0001:00010450       ??0?$basic_fstream@DV?$char_traits@D@_STL@@@_STL@@QAE@XZ 00411450 f i clib:binaryfile.obj
 0001:00010510       ??0BinaryFile@@QAE@XZ      00411510 f   clib:binaryfile.obj
 0001:00010560       ??0BinaryFile@@QAE@ABV?$basic_string@DV?$char_traits@D@_STL@@V?$allocator@D@2@@_STL@@H@Z 00411560 f   clib:binaryfile.obj
 0001:000105d0       ?force_backtrace@@YAXXZ    004115d0 f   clib:passert.obj
 0001:00010630       ??$tostring@I@@YA?AV?$basic_string@DV?$char_traits@D@_STL@@V?$allocator@D@2@@_STL@@ABI@Z 00411630 f i clib:passert.obj
 0001:000106e0       ?passert_failed@@YAXPBD0I@Z 004116e0 f   clib:passert.obj
 0001:00010920       ?passert_failed@@YAXPBDABV?$basic_string@DV?$char_traits@D@_STL@@V?$allocator@D@2@@_STL@@0I@Z 00411920 f   clib:passert.obj
 0001:00010bd0       ??0UnitTest@@QAE@P6AXXZ@Z  00411bd0 f i clib:strutil.obj
 0001:00010be0       ?eq@?$__char_traits_base@DH@_STL@@SA_NABD0@Z 00411be0 f i clib:strutil.obj
 0001:00010c00       ?begin@?$basic_string@DV?$char_traits@D@_STL@@V?$allocator@D@2@@_STL@@QBEPBDXZ 00411c00 f i clib:strutil.obj
 0001:00010c10       ?end@?$basic_string@DV?$char_traits@D@_STL@@V?$allocator@D@2@@_STL@@QBEPBDXZ 00411c10 f i clib:strutil.obj
 0001:00010c20       ??0?$_Not_within_traits@V?$char_traits@D@_STL@@@_STL@@QAE@PBD0@Z 00411c20 f i clib:strutil.obj
 0001:00010c40       ??0?$reverse_iterator@PBD@_STL@@QAE@PBD@Z 00411c40 f i clib:strutil.obj
 0001:00010c50       ??0?$reverse_iterator@PBD@_STL@@QAE@ABV01@@Z 00411c50 f i clib:strutil.obj
 0001:00010c60       ?base@?$reverse_iterator@PBD@_STL@@QBEPBDXZ 00411c60 f i clib:strutil.obj
 0001:00010c70       ??$?8DV?$char_traits@D@_STL@@V?$allocator@D@1@@_STL@@YA_NABV?$basic_string@DV?$char_traits@D@_STL@@V?$allocator@D@2@@0@0@Z 00411c70 f i clib:strutil.obj
 0001:00010ca0       ??R?$_Eq_traits@V?$char_traits@D@_STL@@@_STL@@QBE_NABD0@Z 00411ca0 f i clib:strutil.obj
 0001:00010cc0       ??$?8PBD@_STL@@YA_NABV?$reverse_iterator@PBD@0@0@Z 00411cc0 f i clib:strutil.obj
 0001:00010ce0       ??D?$reverse_iterator@PBD@_STL@@QBEABDXZ 00411ce0 f i clib:strutil.obj
 0001:00010cf0       ??E?$reverse_iterator@PBD@_STL@@QAEAAV01@XZ 00411cf0 f i clib:strutil.obj
 0001:00010d00       ??0?$_Eq_char_bound@V?$char_traits@D@_STL@@@_STL@@QAE@D@Z 00411d00 f i clib:strutil.obj
 0001:00010d10       ??$?GPBD@_STL@@YAHABV?$reverse_iterator@PBD@0@0@Z 00411d10 f i clib:strutil.obj
 0001:00010d20       ??R?$_Eq_char_bound@V?$char_traits@D@_STL@@@_STL@@QBE_NABD@Z 00411d20 f i clib:strutil.obj
 0001:00010d30       ?mklower@@YAXAAV?$basic_string@DV?$char_traits@D@_STL@@V?$allocator@D@2@@_STL@@@Z 00411d30 f   clib:strutil.obj
 0001:00010d60       ?mkupper@@YAXAAV?$basic_string@DV?$char_traits@D@_STL@@V?$allocator@D@2@@_STL@@@Z 00411d60 f   clib:strutil.obj
 0001:00010d90       ??$?9DV?$char_traits@D@_STL@@V?$allocator@D@1@@_STL@@YA_NABV?$basic_string@DV?$char_traits@D@_STL@@V?$allocator@D@2@@0@0@Z 00411d90 f i clib:strutil.obj
 0001:00010de0       ?rend@?$basic_string@DV?$char_traits@D@_STL@@V?$allocator@D@2@@_STL@@QBE?AV?$reverse_iterator@PBD@2@XZ 00411de0 f i clib:strutil.obj
 0001:00010df0       ??$__find_first_of@PBDPBDU?$_Eq_traits@V?$char_traits@D@_STL@@@_STL@@@_STL@@YAPBDPBD000U?$_Eq_traits@V?$char_traits@D@_STL@@@0@@Z 00411df0 f i clib:strutil.obj
 0001:00010e30       ??$?9PBD@_STL@@YA_NABV?$reverse_iterator@PBD@0@0@Z 00411e30 f i clib:strutil.obj
 0001:00010e50       ??$__find_if@PBDU?$_Eq_char_bound@V?$char_traits@D@_STL@@@_STL@@@_STL@@YAPBDPBD0U?$_Eq_char_bound@V?$char_traits@D@_STL@@@0@ABUrandom_access_iterator_tag@0@@Z 00411e50 f i clib:strutil.obj
 0001:00010ec0       ?find_first_of@?$basic_string@DV?$char_traits@D@_STL@@V?$allocator@D@2@@_STL@@QBEIPBDII@Z 00411ec0 f i clib:strutil.obj
 0001:00010f10       ??$find_if@PBDU?$_Eq_char_bound@V?$char_traits@D@_STL@@@_STL@@@_STL@@YAPBDPBD0U?$_Eq_char_bound@V?$char_traits@D@_STL@@@0@@Z 00411f10 f i clib:strutil.obj
 0001:00010f30       ?find_first_of@?$basic_string@DV?$char_traits@D@_STL@@V?$allocator@D@2@@_STL@@QBEIPBDI@Z 00411f30 f i clib:strutil.obj
 0001:00010f90       ??R?$_Not_within_traits@V?$char_traits@D@_STL@@@_STL@@QBE_NABD@Z 00411f90 f i clib:strutil.obj
 0001:00010fc0       ??6?$basic_ostream@DV?$char_traits@D@_STL@@@_STL@@QAEAAV01@J@Z 00411fc0 f i clib:strutil.obj
 0001:00010fe0       ??$_M_initialize_dispatch@PAD@?$basic_string@DV?$char_traits@D@_STL@@V?$allocator@D@2@@_STL@@AAEXPAD0ABU__false_type@1@@Z 00411fe0 f i clib:strutil.obj
 0001:00011020       ??$__find_if@PBDU?$_Not_within_traits@V?$char_traits@D@_STL@@@_STL@@@_STL@@YAPBDPBD0U?$_Not_within_traits@V?$char_traits@D@_STL@@@0@ABUrandom_access_iterator_tag@0@@Z 00412020 f i clib:strutil.obj
 0001:00011160       ??$__find_if@V?$reverse_iterator@PBD@_STL@@U?$_Not_within_traits@V?$char_traits@D@_STL@@@2@@_STL@@YA?AV?$reverse_iterator@PBD@0@V10@0U?$_Not_within_traits@V?$char_traits@D@_STL@@@0@ABUrandom_access_iterator_tag@0@@Z 00412160 f i clib:strutil.obj
 0001:000112f0       ??$?0PAD@?$basic_string@DV?$char_traits@D@_STL@@V?$allocator@D@2@@_STL@@QAE@PAD0ABV?$allocator@D@1@@Z 004122f0 f i clib:strutil.obj
 0001:00011370       ??$find_if@PBDU?$_Not_within_traits@V?$char_traits@D@_STL@@@_STL@@@_STL@@YAPBDPBD0U?$_Not_within_traits@V?$char_traits@D@_STL@@@0@@Z 00412370 f i clib:strutil.obj
 0001:000113a0       ??$find_if@V?$reverse_iterator@PBD@_STL@@U?$_Not_within_traits@V?$char_traits@D@_STL@@@2@@_STL@@YA?AV?$reverse_iterator@PBD@0@V10@0U?$_Not_within_traits@V?$char_traits@D@_STL@@@0@@Z 004123a0 f i clib:strutil.obj
 0001:000113e0       ?strlower@@YA?AV?$basic_string@DV?$char_traits@D@_STL@@V?$allocator@D@2@@_STL@@ABV12@@Z 004123e0 f   clib:strutil.obj
 0001:000114b0       ?strupper@@YA?AV?$basic_string@DV?$char_traits@D@_STL@@V?$allocator@D@2@@_STL@@ABV12@@Z 004124b0 f   clib:strutil.obj
 0001:00011580       ??Y?$basic_string@DV?$char_traits@D@_STL@@V?$allocator@D@2@@_STL@@QAEAAV01@D@Z 00412580 f i clib:strutil.obj
 0001:000115a0       ?substr@?$basic_string@DV?$char_traits@D@_STL@@V?$allocator@D@2@@_STL@@QBE?AV12@II@Z 004125a0 f i clib:strutil.obj
 0001:00011610       ?find_first_not_of@?$basic_string@DV?$char_traits@D@_STL@@V?$allocator@D@2@@_STL@@QBEIPBDII@Z 00412610 f i clib:strutil.obj
 0001:00011660       ?find_last_not_of@?$basic_string@DV?$char_traits@D@_STL@@V?$allocator@D@2@@_STL@@QBEIPBDII@Z 00412660 f i clib:strutil.obj
 0001:000116e0       ?find_first_not_of@?$basic_string@DV?$char_traits@D@_STL@@V?$allocator@D@2@@_STL@@QBEIPBDI@Z 004126e0 f i clib:strutil.obj
 0001:00011740       ?find_last_not_of@?$basic_string@DV?$char_traits@D@_STL@@V?$allocator@D@2@@_STL@@QBEIPBDI@Z 00412740 f i clib:strutil.obj
 0001:00011770       ?decodequotedstring@@YAXAAV?$basic_string@DV?$char_traits@D@_STL@@V?$allocator@D@2@@_STL@@@Z 00412770 f   clib:strutil.obj
 0001:00011900       ?encodequotedstring@@YAXAAV?$basic_string@DV?$char_traits@D@_STL@@V?$allocator@D@2@@_STL@@@Z 00412900 f   clib:strutil.obj
 0001:00011a50       ?getencodedquotedstring@@YA?AV?$basic_string@DV?$char_traits@D@_STL@@V?$allocator@D@2@@_STL@@ABV12@@Z 00412a50 f   clib:strutil.obj
 0001:00011b00       ?test_dqs@@YAXABV?$basic_string@DV?$char_traits@D@_STL@@V?$allocator@D@2@@_STL@@0@Z 00412b00 f   clib:strutil.obj
 0001:00011c50       ?test_convertquotedstring@@YAXXZ 00412c50 f   clib:strutil.obj
 0001:00011f20       ?splitnamevalue@@YAXABV?$basic_string@DV?$char_traits@D@_STL@@V?$allocator@D@2@@_STL@@AAV12@1@Z 00412f20 f   clib:strutil.obj
 0001:00012130       ?test_splitnamevalue@@YAXABV?$basic_string@DV?$char_traits@D@_STL@@V?$allocator@D@2@@_STL@@00@Z 00413130 f   clib:strutil.obj
 0001:00012280       ?test_splitnamevalue@@YAXXZ 00413280 f   clib:strutil.obj
 0001:00012d00       ?hexint@@YA?AV?$basic_string@DV?$char_traits@D@_STL@@V?$allocator@D@2@@_STL@@G@Z 00413d00 f   clib:strutil.obj
 0001:00012dd0       ?hexint@@YA?AV?$basic_string@DV?$char_traits@D@_STL@@V?$allocator@D@2@@_STL@@H@Z 00413dd0 f   clib:strutil.obj
 0001:00012ea0       ?hexint@@YA?AV?$basic_string@DV?$char_traits@D@_STL@@V?$allocator@D@2@@_STL@@I@Z 00413ea0 f   clib:strutil.obj
 0001:00012f70       ?hexint@@YA?AV?$basic_string@DV?$char_traits@D@_STL@@V?$allocator@D@2@@_STL@@J@Z 00413f70 f   clib:strutil.obj
 0001:00013040       ?hexint@@YA?AV?$basic_string@DV?$char_traits@D@_STL@@V?$allocator@D@2@@_STL@@K@Z 00414040 f   clib:strutil.obj
 0001:00013110       ?decint@@YA?AV?$basic_string@DV?$char_traits@D@_STL@@V?$allocator@D@2@@_STL@@G@Z 00414110 f   clib:strutil.obj
 0001:000131c0       ?decint@@YA?AV?$basic_string@DV?$char_traits@D@_STL@@V?$allocator@D@2@@_STL@@I@Z 004141c0 f   clib:strutil.obj
 0001:00013270       ?decint@@YA?AV?$basic_string@DV?$char_traits@D@_STL@@V?$allocator@D@2@@_STL@@H@Z 00414270 f   clib:strutil.obj
 0001:00013320       ?decint@@YA?AV?$basic_string@DV?$char_traits@D@_STL@@V?$allocator@D@2@@_STL@@J@Z 00414320 f   clib:strutil.obj
 0001:000133d0       ?decint@@YA?AV?$basic_string@DV?$char_traits@D@_STL@@V?$allocator@D@2@@_STL@@K@Z 004143d0 f   clib:strutil.obj
 0001:00013480       ?TopLevelFilter@HiddenMiniDumper@@SGJPAU_EXCEPTION_POINTERS@@@Z 00414480 f   clib:mdump.obj
 0001:00013780       ?Initialize@HiddenMiniDumper@@SAHXZ 00414780 f   clib:mdump.obj
 0001:00013880       ?Initialize@MiniDumper@@SAXXZ 00414880 f   clib:mdump.obj
 0001:00013890       ?SetMiniDumpType@MiniDumper@@SAXABV?$basic_string@DV?$char_traits@D@_STL@@V?$allocator@D@2@@_STL@@@Z 00414890 f   clib:mdump.obj
 0001:000138c0       ?control_handler@@YGHK@Z   004148c0 f   clib:esignal.obj
 0001:00013900       ?enable_exit_signaller@@YAXXZ 00414900 f   clib:esignal.obj
 0001:00013910       ?Log@@YAXPADZZ             00414910 f   clib:logfile.obj
 0001:00013ae0       ?Log2@@YAXPADZZ            00414ae0 f   clib:logfile.obj
 0001:00013cd0       ?OpenLogFileName@@YAHPBD_N@Z 00414cd0 f   clib:logfile.obj
 0001:00013e00       ?OpenLogFile@@YAHXZ        00414e00 f   clib:logfile.obj
 0001:00013e10       ?CloseLogFile@@YAXXZ       00414e10 f   clib:logfile.obj
 0001:00013e40       ??1structured_exception@@UAE@XZ 00414e40 f i clib:strexcpt.obj
 0001:00013e50       ?InstallStructuredExceptionHandler@@YAXXZ 00414e50 f   clib:strexcpt.obj
 0001:00013e70       ??0structured_exception@@QAE@IPBD@Z 00414e70 f i clib:strexcpt.obj
 0001:00013f10       ??_Gstructured_exception@@UAEPAXI@Z 00414f10 f i clib:strexcpt.obj
 0001:00013f10       ??_Estructured_exception@@UAEPAXI@Z 00414f10 f i clib:strexcpt.obj
 0001:00013f30       ??0access_violation@@QAE@XZ 00414f30 f i clib:strexcpt.obj
 0001:00013f50       ??_Gaccess_violation@@UAEPAXI@Z 00414f50 f i clib:strexcpt.obj
 0001:00013f50       ??_Eaccess_violation@@UAEPAXI@Z 00414f50 f i clib:strexcpt.obj
 0001:00013f70       ??1access_violation@@UAE@XZ 00414f70 f i clib:strexcpt.obj
 0001:00013f80       ?se_trans_func@@YAXIPAU_EXCEPTION_POINTERS@@@Z 00414f80 f   clib:strexcpt.obj
 0001:00014680       ??0structured_exception@@QAE@ABV0@@Z 00415680 f i clib:strexcpt.obj
 0001:000146c0       ??0access_violation@@QAE@ABV0@@Z 004156c0 f i clib:strexcpt.obj
 0001:00014710       ?alt_se_trans_func@@YAXIPAU_EXCEPTION_POINTERS@@@Z 00415710 f   clib:strexcpt.obj
 0001:000147b0       ?InstallOldStructuredExceptionHandler@@YAXXZ 004157b0 f   clib:strexcpt.obj
 0001:000147d0       __tcsrchr                  004157d0 f i clib:msjexhnd.obj
 0001:000147e0       ??0MSJExceptionHandler@@QAE@XZ 004157e0 f   clib:msjexhnd.obj
 0001:00014830       ??1MSJExceptionHandler@@QAE@XZ 00415830 f   clib:msjexhnd.obj
 0001:00014840       ?SetLogFileName@MSJExceptionHandler@@QAEXPAD@Z 00415840 f   clib:msjexhnd.obj
 0001:00014860       ?GetExceptionString@MSJExceptionHandler@@CAPADK@Z 00415860 f   clib:msjexhnd.obj
 0001:00014ad0       ?printf@MSJExceptionHandler@@CAHPBDZZ 00415ad0 f   clib:msjexhnd.obj
 0001:00014b40       ?InitImagehlpFunctions@MSJExceptionHandler@@CAHXZ 00415b40 f   clib:msjexhnd.obj
 0001:00014be0       ??$max@K@_STL@@YAABKABK0@Z 00415be0 f i clib:msjexhnd.obj
 0001:00014c00       ?GetLogicalAddress@MSJExceptionHandler@@CAHPAXPADKAAK2@Z 00415c00 f   clib:msjexhnd.obj
 0001:00014cb0       ?IntelStackWalk@MSJExceptionHandler@@CAXPAU_CONTEXT@@@Z 00415cb0 f   clib:msjexhnd.obj
 0001:00014dc0       ?ImagehlpStackWalk@MSJExceptionHandler@@CAXPAU_CONTEXT@@@Z 00415dc0 f   clib:msjexhnd.obj
 0001:00014f80       ?GenerateExceptionReport@MSJExceptionHandler@@SAXPAU_EXCEPTION_POINTERS@@@Z 00415f80 f   clib:msjexhnd.obj
 0001:00015100       ?MSJUnhandledExceptionFilter@MSJExceptionHandler@@SGJPAU_EXCEPTION_POINTERS@@@Z 00416100 f   clib:msjexhnd.obj
 0001:00015170       ?_M_release_lock@_STLP_mutex_base@_STL@@QAEXXZ 00416170 f i stlport_vc71_static:locale_impl.obj
 0001:00015180       ??0_Refcount_Base@_STL@@QAE@J@Z 00416180 f i stlport_vc71_static:locale_impl.obj
 0001:00015190       ?_Atomic_swap@_STL@@YAJPCJJ@Z 00416190 f i stlport_vc71_static:locale_impl.obj
 0001:000151b0       ??1_STLP_auto_lock@_STL@@QAE@XZ 004161b0 f i stlport_vc71_static:locale_impl.obj
 0001:000151c0       ?__stlp_chunk_malloc@@YAPAXI@Z 004161c0 f i stlport_vc71_static:locale_impl.obj
 0001:000151d0       ??0facet@locale@_STL@@IAE@I@Z 004161d0 f i stlport_vc71_static:locale_impl.obj
 0001:000151f0       ?size@_Locale_impl@_STL@@QBEIXZ 004161f0 f i stlport_vc71_static:locale_impl.obj
 0001:00015200       ?_S_copy_impl@_STL@@YAPAV_Locale_impl@1@PAV21@@Z 00416200 f i stlport_vc71_static:locale_impl.obj
 0001:00015210       ?incr@_Locale_impl@_STL@@UAEXXZ 00416210 f   stlport_vc71_static:locale_impl.obj
 0001:00015220       ?decr@_Locale_impl@_STL@@UAEXXZ 00416220 f   stlport_vc71_static:locale_impl.obj
 0001:00015230       ?_M_throw_bad_cast@_Locale_impl@_STL@@SAXXZ 00416230 f   stlport_vc71_static:locale_impl.obj
 0001:00015360       ??1facet@locale@_STL@@MAE@XZ 00416360 f   stlport_vc71_static:locale_impl.obj
 0001:00015370       ?_S_uninitialize@locale@_STL@@SAXXZ 00416370 f   stlport_vc71_static:locale_impl.obj
 0001:00015390       ??0locale@_STL@@QAE@XZ     00416390 f   stlport_vc71_static:locale_impl.obj
 0001:000153b0       ??0locale@_STL@@QAE@PAV_Locale_impl@1@@Z 004163b0 f   stlport_vc71_static:locale_impl.obj
 0001:000153c0       ??0locale@_STL@@QAE@ABV01@@Z 004163c0 f   stlport_vc71_static:locale_impl.obj
 0001:000153e0       ??1locale@_STL@@QAE@XZ     004163e0 f   stlport_vc71_static:locale_impl.obj
 0001:00015400       ??4locale@_STL@@QAEABV01@ABV01@@Z 00416400 f   stlport_vc71_static:locale_impl.obj
 0001:00015430       ?_M_get_facet@locale@_STL@@QBEPAVfacet@12@ABVid@12@@Z 00416430 f   stlport_vc71_static:locale_impl.obj
 0001:00015450       ?_M_use_facet@locale@_STL@@QBEPAVfacet@12@ABVid@12@@Z 00416450 f   stlport_vc71_static:locale_impl.obj
 0001:00015470       ?classic@locale@_STL@@SAABV12@XZ 00416470 f   stlport_vc71_static:locale_impl.obj
 0001:00015480       ??0?$money_get@DV?$istreambuf_iterator@DV?$char_traits@D@_STL@@@_STL@@@_STL@@QAE@I@Z 00416480 f i stlport_vc71_static:locale_impl.obj
 0001:000154a0       ??0?$money_put@DV?$ostreambuf_iterator@DV?$char_traits@D@_STL@@@_STL@@@_STL@@QAE@I@Z 004164a0 f i stlport_vc71_static:locale_impl.obj
 0001:000154c0       ??0?$num_get@DV?$istreambuf_iterator@DV?$char_traits@D@_STL@@@_STL@@@_STL@@QAE@I@Z 004164c0 f i stlport_vc71_static:locale_impl.obj
 0001:000154e0       ??0?$num_put@DV?$ostreambuf_iterator@DV?$char_traits@D@_STL@@@_STL@@@_STL@@QAE@I@Z 004164e0 f i stlport_vc71_static:locale_impl.obj
 0001:00015500       ??0?$money_get@GV?$istreambuf_iterator@GV?$char_traits@G@_STL@@@_STL@@@_STL@@QAE@I@Z 00416500 f i stlport_vc71_static:locale_impl.obj
 0001:00015520       ??0?$money_put@GV?$ostreambuf_iterator@GV?$char_traits@G@_STL@@@_STL@@@_STL@@QAE@I@Z 00416520 f i stlport_vc71_static:locale_impl.obj
 0001:00015540       ??0?$num_get@GV?$istreambuf_iterator@GV?$char_traits@G@_STL@@@_STL@@@_STL@@QAE@I@Z 00416540 f i stlport_vc71_static:locale_impl.obj
 0001:00015560       ??0?$num_put@GV?$ostreambuf_iterator@GV?$char_traits@G@_STL@@@_STL@@@_STL@@QAE@I@Z 00416560 f i stlport_vc71_static:locale_impl.obj
 0001:00015580       ??_G?$money_get@DV?$istreambuf_iterator@DV?$char_traits@D@_STL@@@_STL@@@_STL@@MAEPAXI@Z 00416580 f i stlport_vc71_static:locale_impl.obj
 0001:00015580       ??_E?$money_get@DV?$istreambuf_iterator@DV?$char_traits@D@_STL@@@_STL@@@_STL@@MAEPAXI@Z 00416580 f i stlport_vc71_static:locale_impl.obj
 0001:000155a0       ??1?$money_get@DV?$istreambuf_iterator@DV?$char_traits@D@_STL@@@_STL@@@_STL@@MAE@XZ 004165a0 f i stlport_vc71_static:locale_impl.obj
 0001:000155b0       ??_G?$money_put@DV?$ostreambuf_iterator@DV?$char_traits@D@_STL@@@_STL@@@_STL@@MAEPAXI@Z 004165b0 f i stlport_vc71_static:locale_impl.obj
 0001:000155b0       ??_E?$money_put@DV?$ostreambuf_iterator@DV?$char_traits@D@_STL@@@_STL@@@_STL@@MAEPAXI@Z 004165b0 f i stlport_vc71_static:locale_impl.obj
 0001:000155d0       ??1?$money_put@DV?$ostreambuf_iterator@DV?$char_traits@D@_STL@@@_STL@@@_STL@@MAE@XZ 004165d0 f i stlport_vc71_static:locale_impl.obj
 0001:000155e0       ??_G?$num_get@DV?$istreambuf_iterator@DV?$char_traits@D@_STL@@@_STL@@@_STL@@MAEPAXI@Z 004165e0 f i stlport_vc71_static:locale_impl.obj
 0001:000155e0       ??_E?$num_get@DV?$istreambuf_iterator@DV?$char_traits@D@_STL@@@_STL@@@_STL@@MAEPAXI@Z 004165e0 f i stlport_vc71_static:locale_impl.obj
 0001:00015600       ??1?$num_get@DV?$istreambuf_iterator@DV?$char_traits@D@_STL@@@_STL@@@_STL@@MAE@XZ 00416600 f i stlport_vc71_static:locale_impl.obj
 0001:00015610       ??_E?$num_put@DV?$ostreambuf_iterator@DV?$char_traits@D@_STL@@@_STL@@@_STL@@MAEPAXI@Z 00416610 f i stlport_vc71_static:locale_impl.obj
 0001:00015610       ??_G?$num_put@DV?$ostreambuf_iterator@DV?$char_traits@D@_STL@@@_STL@@@_STL@@MAEPAXI@Z 00416610 f i stlport_vc71_static:locale_impl.obj
 0001:00015630       ??1?$num_put@DV?$ostreambuf_iterator@DV?$char_traits@D@_STL@@@_STL@@@_STL@@MAE@XZ 00416630 f i stlport_vc71_static:locale_impl.obj
 0001:00015640       ??_E?$money_get@GV?$istreambuf_iterator@GV?$char_traits@G@_STL@@@_STL@@@_STL@@MAEPAXI@Z 00416640 f i stlport_vc71_static:locale_impl.obj
 0001:00015640       ??_G?$money_get@GV?$istreambuf_iterator@GV?$char_traits@G@_STL@@@_STL@@@_STL@@MAEPAXI@Z 00416640 f i stlport_vc71_static:locale_impl.obj
 0001:00015660       ??1?$money_get@GV?$istreambuf_iterator@GV?$char_traits@G@_STL@@@_STL@@@_STL@@MAE@XZ 00416660 f i stlport_vc71_static:locale_impl.obj
 0001:00015670       ??_G?$money_put@GV?$ostreambuf_iterator@GV?$char_traits@G@_STL@@@_STL@@@_STL@@MAEPAXI@Z 00416670 f i stlport_vc71_static:locale_impl.obj
 0001:00015670       ??_E?$money_put@GV?$ostreambuf_iterator@GV?$char_traits@G@_STL@@@_STL@@@_STL@@MAEPAXI@Z 00416670 f i stlport_vc71_static:locale_impl.obj
 0001:00015690       ??1?$money_put@GV?$ostreambuf_iterator@GV?$char_traits@G@_STL@@@_STL@@@_STL@@MAE@XZ 00416690 f i stlport_vc71_static:locale_impl.obj
 0001:000156a0       ??_G?$num_get@GV?$istreambuf_iterator@GV?$char_traits@G@_STL@@@_STL@@@_STL@@MAEPAXI@Z 004166a0 f i stlport_vc71_static:locale_impl.obj
 0001:000156a0       ??_E?$num_get@GV?$istreambuf_iterator@GV?$char_traits@G@_STL@@@_STL@@@_STL@@MAEPAXI@Z 004166a0 f i stlport_vc71_static:locale_impl.obj
 0001:000156c0       ??1?$num_get@GV?$istreambuf_iterator@GV?$char_traits@G@_STL@@@_STL@@@_STL@@MAE@XZ 004166c0 f i stlport_vc71_static:locale_impl.obj
 0001:000156d0       ??_E?$num_put@GV?$ostreambuf_iterator@GV?$char_traits@G@_STL@@@_STL@@@_STL@@MAEPAXI@Z 004166d0 f i stlport_vc71_static:locale_impl.obj
 0001:000156d0       ??_G?$num_put@GV?$ostreambuf_iterator@GV?$char_traits@G@_STL@@@_STL@@@_STL@@MAEPAXI@Z 004166d0 f i stlport_vc71_static:locale_impl.obj
 0001:000156f0       ??1?$num_put@GV?$ostreambuf_iterator@GV?$char_traits@G@_STL@@@_STL@@@_STL@@MAE@XZ 004166f0 f i stlport_vc71_static:locale_impl.obj
 0001:00015700       ?do_put@?$num_put@DV?$ostreambuf_iterator@DV?$char_traits@D@_STL@@@_STL@@@_STL@@MBE?AV?$ostreambuf_iterator@DV?$char_traits@D@_STL@@@2@V32@AAVios_base@2@DPBX@Z 00416700 f i stlport_vc71_static:locale_impl.obj
 0001:00015770       ?do_put@?$num_put@GV?$ostreambuf_iterator@GV?$char_traits@G@_STL@@@_STL@@@_STL@@MBE?AV?$ostreambuf_iterator@GV?$char_traits@G@_STL@@@2@V32@AAVios_base@2@GPBX@Z 00416770 f i stlport_vc71_static:locale_impl.obj
 0001:000157e0       ??1?$_Node_Alloc_Lock@$00$0A@@_STL@@QAE@XZ 004167e0 f i stlport_vc71_static:locale_impl.obj
 0001:000157f0       ?_S_nsec_sleep@?$_STLP_mutex_spin@$0A@@_STL@@SAXH@Z 004167f0 f i stlport_vc71_static:locale_impl.obj
 0001:00015820       ?_S_round_up@?$__node_alloc@$00$0A@@_STL@@SAII@Z 00416820 f i stlport_vc71_static:locale_impl.obj
 0001:00015830       ?_S_chunk_alloc@?$__node_alloc@$00$0A@@_STL@@CAPADIAAH@Z 00416830 f i stlport_vc71_static:locale_impl.obj
 0001:00015960       ??_Gfacet@locale@_STL@@MAEPAXI@Z 00416960 f i stlport_vc71_static:locale_impl.obj
 0001:00015960       ??_Efacet@locale@_STL@@MAEPAXI@Z 00416960 f i stlport_vc71_static:locale_impl.obj
 0001:00015980       ??0?$ctype@G@_STL@@QAE@I@Z 00416980 f i stlport_vc71_static:locale_impl.obj
 0001:000159a0       ??_E?$ctype@G@_STL@@MAEPAXI@Z 004169a0 f i stlport_vc71_static:locale_impl.obj
 0001:000159a0       ??_G?$ctype@G@_STL@@MAEPAXI@Z 004169a0 f i stlport_vc71_static:locale_impl.obj
 0001:000159c0       ??0?$codecvt@DDH@_STL@@QAE@I@Z 004169c0 f i stlport_vc71_static:locale_impl.obj
 0001:000159e0       ??_E?$codecvt@DDH@_STL@@MAEPAXI@Z 004169e0 f i stlport_vc71_static:locale_impl.obj
 0001:000159e0       ??_G?$codecvt@DDH@_STL@@MAEPAXI@Z 004169e0 f i stlport_vc71_static:locale_impl.obj
 0001:00015a00       ??0?$codecvt@GDH@_STL@@QAE@I@Z 00416a00 f i stlport_vc71_static:locale_impl.obj
 0001:00015a20       ??_G?$codecvt@GDH@_STL@@MAEPAXI@Z 00416a20 f i stlport_vc71_static:locale_impl.obj
 0001:00015a20       ??_E?$codecvt@GDH@_STL@@MAEPAXI@Z 00416a20 f i stlport_vc71_static:locale_impl.obj
 0001:00015a40       ??0?$collate@D@_STL@@QAE@I@Z 00416a40 f i stlport_vc71_static:locale_impl.obj
 0001:00015a60       ??_E?$collate@D@_STL@@MAEPAXI@Z 00416a60 f i stlport_vc71_static:locale_impl.obj
 0001:00015a60       ??_G?$collate@D@_STL@@MAEPAXI@Z 00416a60 f i stlport_vc71_static:locale_impl.obj
 0001:00015a80       ??0?$collate@G@_STL@@QAE@I@Z 00416a80 f i stlport_vc71_static:locale_impl.obj
 0001:00015aa0       ??_E?$collate@G@_STL@@MAEPAXI@Z 00416aa0 f i stlport_vc71_static:locale_impl.obj
 0001:00015aa0       ??_G?$collate@G@_STL@@MAEPAXI@Z 00416aa0 f i stlport_vc71_static:locale_impl.obj
 0001:00015ac0       ??0?$numpunct@D@_STL@@QAE@I@Z 00416ac0 f i stlport_vc71_static:locale_impl.obj
 0001:00015ae0       ??_E?$numpunct@D@_STL@@MAEPAXI@Z 00416ae0 f i stlport_vc71_static:locale_impl.obj
 0001:00015ae0       ??_G?$numpunct@D@_STL@@MAEPAXI@Z 00416ae0 f i stlport_vc71_static:locale_impl.obj
 0001:00015b00       ??0?$numpunct@G@_STL@@QAE@I@Z 00416b00 f i stlport_vc71_static:locale_impl.obj
 0001:00015b20       ??_E?$numpunct@G@_STL@@MAEPAXI@Z 00416b20 f i stlport_vc71_static:locale_impl.obj
 0001:00015b20       ??_G?$numpunct@G@_STL@@MAEPAXI@Z 00416b20 f i stlport_vc71_static:locale_impl.obj
 0001:00015b40       ??1_Loc_init@ios_base@_STL@@QAE@XZ 00416b40 f   stlport_vc71_static:locale_impl.obj
 0001:00015b60       ?_M_do_lock@?$_STLP_mutex_spin@$0A@@_STL@@SAXPCJ@Z 00416b60 f i stlport_vc71_static:locale_impl.obj
 0001:00015c50       ?_S_refill@?$__node_alloc@$00$0A@@_STL@@CAPAXI@Z 00416c50 f i stlport_vc71_static:locale_impl.obj
 0001:00015cc0       ?_M_acquire_lock@_STLP_mutex_base@_STL@@QAEXXZ 00416cc0 f i stlport_vc71_static:locale_impl.obj
 0001:00015cd0       ??0_STLP_auto_lock@_STL@@QAE@AAU_STLP_mutex_base@1@@Z 00416cd0 f i stlport_vc71_static:locale_impl.obj
 0001:00015cf0       ??0?$_Node_Alloc_Lock@$00$0A@@_STL@@QAE@XZ 00416cf0 f i stlport_vc71_static:locale_impl.obj
 0001:00015d10       ?_M_allocate@?$__node_alloc@$00$0A@@_STL@@CAPAXI@Z 00416d10 f i stlport_vc71_static:locale_impl.obj
 0001:00015d80       ?do_get@?$num_get@DV?$istreambuf_iterator@DV?$char_traits@D@_STL@@@_STL@@@_STL@@MBE?AV?$istreambuf_iterator@DV?$char_traits@D@_STL@@@2@V32@0AAVios_base@2@AAHAA_K@Z 00416d80 f i stlport_vc71_static:locale_impl.obj
 0001:00015db0       ??$_M_do_get_integer@V?$istreambuf_iterator@DV?$char_traits@D@_STL@@@_STL@@_KD@_STL@@YA?AV?$istreambuf_iterator@DV?$char_traits@D@_STL@@@0@AAV10@0AAVios_base@0@AAHAA_KPAD@Z 00416db0 f i stlport_vc71_static:locale_impl.obj
 0001:00015ec0       ?_M_getc@?$istreambuf_iterator@DV?$char_traits@D@_STL@@@_STL@@ABEXXZ 00416ec0 f i stlport_vc71_static:locale_impl.obj
 0001:00015ef0       ??$_M_get_base_or_zero@V?$istreambuf_iterator@DV?$char_traits@D@_STL@@@_STL@@D@_STL@@YAHAAV?$istreambuf_iterator@DV?$char_traits@D@_STL@@@0@0AAVios_base@0@PAD@Z 00416ef0 f i stlport_vc71_static:locale_impl.obj
 0001:00016120       ??$__get_integer@V?$istreambuf_iterator@DV?$char_traits@D@_STL@@@_STL@@_K@_STL@@YA_NAAV?$istreambuf_iterator@DV?$char_traits@D@_STL@@@0@0HAA_KH_NDABV?$basic_string@DV?$char_traits@D@_STL@@V?$allocator@D@2@@0@ABU__false_type@0@@Z 00417120 f i stlport_vc71_static:locale_impl.obj
 0001:00016330       ?do_get@?$num_get@DV?$istreambuf_iterator@DV?$char_traits@D@_STL@@@_STL@@@_STL@@MBE?AV?$istreambuf_iterator@DV?$char_traits@D@_STL@@@2@V32@0AAVios_base@2@AAHAA_J@Z 00417330 f i stlport_vc71_static:locale_impl.obj
 0001:00016360       ??$_M_do_get_integer@V?$istreambuf_iterator@DV?$char_traits@D@_STL@@@_STL@@_JD@_STL@@YA?AV?$istreambuf_iterator@DV?$char_traits@D@_STL@@@0@AAV10@0AAVios_base@0@AAHAA_JPAD@Z 00417360 f i stlport_vc71_static:locale_impl.obj
 0001:00016470       ??$__get_integer@V?$istreambuf_iterator@DV?$char_traits@D@_STL@@@_STL@@_J@_STL@@YA_NAAV?$istreambuf_iterator@DV?$char_traits@D@_STL@@@0@0HAA_JH_NDABV?$basic_string@DV?$char_traits@D@_STL@@V?$allocator@D@2@@0@ABU__true_type@0@@Z 00417470 f i stlport_vc71_static:locale_impl.obj
 0001:00016690       ?do_get@?$num_get@DV?$istreambuf_iterator@DV?$char_traits@D@_STL@@@_STL@@@_STL@@MBE?AV?$istreambuf_iterator@DV?$char_traits@D@_STL@@@2@V32@0AAVios_base@2@AAHAAPAX@Z 00417690 f i stlport_vc71_static:locale_impl.obj
 0001:000166f0       ?do_get@?$num_get@DV?$istreambuf_iterator@DV?$char_traits@D@_STL@@@_STL@@@_STL@@MBE?AV?$istreambuf_iterator@DV?$char_traits@D@_STL@@@2@V32@0AAVios_base@2@AAHAAK@Z 004176f0 f i stlport_vc71_static:locale_impl.obj
 0001:00016720       ??$_M_do_get_integer@V?$istreambuf_iterator@DV?$char_traits@D@_STL@@@_STL@@KD@_STL@@YA?AV?$istreambuf_iterator@DV?$char_traits@D@_STL@@@0@AAV10@0AAVios_base@0@AAHAAKPAD@Z 00417720 f i stlport_vc71_static:locale_impl.obj
 0001:00016820       ??$__get_integer@V?$istreambuf_iterator@DV?$char_traits@D@_STL@@@_STL@@K@_STL@@YA_NAAV?$istreambuf_iterator@DV?$char_traits@D@_STL@@@0@0HAAKH_NDABV?$basic_string@DV?$char_traits@D@_STL@@V?$allocator@D@2@@0@ABU__false_type@0@@Z 00417820 f i stlport_vc71_static:locale_impl.obj
 0001:000169b0       ?do_get@?$num_get@DV?$istreambuf_iterator@DV?$char_traits@D@_STL@@@_STL@@@_STL@@MBE?AV?$istreambuf_iterator@DV?$char_traits@D@_STL@@@2@V32@0AAVios_base@2@AAHAAI@Z 004179b0 f i stlport_vc71_static:locale_impl.obj
 0001:000169e0       ??$_M_do_get_integer@V?$istreambuf_iterator@DV?$char_traits@D@_STL@@@_STL@@ID@_STL@@YA?AV?$istreambuf_iterator@DV?$char_traits@D@_STL@@@0@AAV10@0AAVios_base@0@AAHAAIPAD@Z 004179e0 f i stlport_vc71_static:locale_impl.obj
 0001:00016ae0       ??$__get_integer@V?$istreambuf_iterator@DV?$char_traits@D@_STL@@@_STL@@I@_STL@@YA_NAAV?$istreambuf_iterator@DV?$char_traits@D@_STL@@@0@0HAAIH_NDABV?$basic_string@DV?$char_traits@D@_STL@@V?$allocator@D@2@@0@ABU__false_type@0@@Z 00417ae0 f i stlport_vc71_static:locale_impl.obj
 0001:00016c70       ?do_get@?$num_get@DV?$istreambuf_iterator@DV?$char_traits@D@_STL@@@_STL@@@_STL@@MBE?AV?$istreambuf_iterator@DV?$char_traits@D@_STL@@@2@V32@0AAVios_base@2@AAHAAG@Z 00417c70 f i stlport_vc71_static:locale_impl.obj
 0001:00016ca0       ??$_M_do_get_integer@V?$istreambuf_iterator@DV?$char_traits@D@_STL@@@_STL@@GD@_STL@@YA?AV?$istreambuf_iterator@DV?$char_traits@D@_STL@@@0@AAV10@0AAVios_base@0@AAHAAGPAD@Z 00417ca0 f i stlport_vc71_static:locale_impl.obj
 0001:00016da0       ??$__get_integer@V?$istreambuf_iterator@DV?$char_traits@D@_STL@@@_STL@@G@_STL@@YA_NAAV?$istreambuf_iterator@DV?$char_traits@D@_STL@@@0@0HAAGH_NDABV?$basic_string@DV?$char_traits@D@_STL@@V?$allocator@D@2@@0@ABU__false_type@0@@Z 00417da0 f i stlport_vc71_static:locale_impl.obj
 0001:00016f30       ?do_get@?$num_get@DV?$istreambuf_iterator@DV?$char_traits@D@_STL@@@_STL@@@_STL@@MBE?AV?$istreambuf_iterator@DV?$char_traits@D@_STL@@@2@V32@0AAVios_base@2@AAHAAJ@Z 00417f30 f i stlport_vc71_static:locale_impl.obj
 0001:00016f60       ??$_M_do_get_integer@V?$istreambuf_iterator@DV?$char_traits@D@_STL@@@_STL@@JD@_STL@@YA?AV?$istreambuf_iterator@DV?$char_traits@D@_STL@@@0@AAV10@0AAVios_base@0@AAHAAJPAD@Z 00417f60 f i stlport_vc71_static:locale_impl.obj
 0001:00017060       ??$__get_integer@V?$istreambuf_iterator@DV?$char_traits@D@_STL@@@_STL@@J@_STL@@YA_NAAV?$istreambuf_iterator@DV?$char_traits@D@_STL@@@0@0HAAJH_NDABV?$basic_string@DV?$char_traits@D@_STL@@V?$allocator@D@2@@0@ABU__true_type@0@@Z 00418060 f i stlport_vc71_static:locale_impl.obj
 0001:00017200       ?_M_deallocate@?$__node_alloc@$00$0A@@_STL@@CAXPAXI@Z 00418200 f i stlport_vc71_static:locale_impl.obj
 0001:00017240       ?do_get@?$num_get@GV?$istreambuf_iterator@GV?$char_traits@G@_STL@@@_STL@@@_STL@@MBE?AV?$istreambuf_iterator@GV?$char_traits@G@_STL@@@2@V32@0AAVios_base@2@AAHAA_K@Z 00418240 f i stlport_vc71_static:locale_impl.obj
 0001:00017270       ??$_M_do_get_integer@V?$istreambuf_iterator@GV?$char_traits@G@_STL@@@_STL@@_KG@_STL@@YA?AV?$istreambuf_iterator@GV?$char_traits@G@_STL@@@0@AAV10@0AAVios_base@0@AAHAA_KPAG@Z 00418270 f i stlport_vc71_static:locale_impl.obj
 0001:00017380       ?_M_getc@?$istreambuf_iterator@GV?$char_traits@G@_STL@@@_STL@@ABEXXZ 00418380 f i stlport_vc71_static:locale_impl.obj
 0001:000173d0       ??$_M_get_base_or_zero@V?$istreambuf_iterator@GV?$char_traits@G@_STL@@@_STL@@G@_STL@@YAHAAV?$istreambuf_iterator@GV?$char_traits@G@_STL@@@0@0AAVios_base@0@PAG@Z 004183d0 f i stlport_vc71_static:locale_impl.obj
 0001:00017610       ?sbumpc@?$basic_streambuf@GV?$char_traits@G@_STL@@@_STL@@QAEGXZ 00418610 f i stlport_vc71_static:locale_impl.obj
 0001:00017630       ??$__get_integer@V?$istreambuf_iterator@GV?$char_traits@G@_STL@@@_STL@@_K@_STL@@YA_NAAV?$istreambuf_iterator@GV?$char_traits@G@_STL@@@0@0HAA_KH_NDABV?$basic_string@DV?$char_traits@D@_STL@@V?$allocator@D@2@@0@ABU__false_type@0@@Z 00418630 f i stlport_vc71_static:locale_impl.obj
 0001:00017840       ?do_get@?$num_get@GV?$istreambuf_iterator@GV?$char_traits@G@_STL@@@_STL@@@_STL@@MBE?AV?$istreambuf_iterator@GV?$char_traits@G@_STL@@@2@V32@0AAVios_base@2@AAHAA_J@Z 00418840 f i stlport_vc71_static:locale_impl.obj
 0001:00017870       ??$_M_do_get_integer@V?$istreambuf_iterator@GV?$char_traits@G@_STL@@@_STL@@_JG@_STL@@YA?AV?$istreambuf_iterator@GV?$char_traits@G@_STL@@@0@AAV10@0AAVios_base@0@AAHAA_JPAG@Z 00418870 f i stlport_vc71_static:locale_impl.obj
 0001:00017980       ??$__get_integer@V?$istreambuf_iterator@GV?$char_traits@G@_STL@@@_STL@@_J@_STL@@YA_NAAV?$istreambuf_iterator@GV?$char_traits@G@_STL@@@0@0HAA_JH_NDABV?$basic_string@DV?$char_traits@D@_STL@@V?$allocator@D@2@@0@ABU__true_type@0@@Z 00418980 f i stlport_vc71_static:locale_impl.obj
 0001:00017ba0       ?do_get@?$num_get@GV?$istreambuf_iterator@GV?$char_traits@G@_STL@@@_STL@@@_STL@@MBE?AV?$istreambuf_iterator@GV?$char_traits@G@_STL@@@2@V32@0AAVios_base@2@AAHAAPAX@Z 00418ba0 f i stlport_vc71_static:locale_impl.obj
 0001:00017c00       ?do_get@?$num_get@GV?$istreambuf_iterator@GV?$char_traits@G@_STL@@@_STL@@@_STL@@MBE?AV?$istreambuf_iterator@GV?$char_traits@G@_STL@@@2@V32@0AAVios_base@2@AAHAAK@Z 00418c00 f i stlport_vc71_static:locale_impl.obj
 0001:00017c30       ??$_M_do_get_integer@V?$istreambuf_iterator@GV?$char_traits@G@_STL@@@_STL@@KG@_STL@@YA?AV?$istreambuf_iterator@GV?$char_traits@G@_STL@@@0@AAV10@0AAVios_base@0@AAHAAKPAG@Z 00418c30 f i stlport_vc71_static:locale_impl.obj
 0001:00017d30       ??$__get_integer@V?$istreambuf_iterator@GV?$char_traits@G@_STL@@@_STL@@K@_STL@@YA_NAAV?$istreambuf_iterator@GV?$char_traits@G@_STL@@@0@0HAAKH_NDABV?$basic_string@DV?$char_traits@D@_STL@@V?$allocator@D@2@@0@ABU__false_type@0@@Z 00418d30 f i stlport_vc71_static:locale_impl.obj
 0001:00017ec0       ?do_get@?$num_get@GV?$istreambuf_iterator@GV?$char_traits@G@_STL@@@_STL@@@_STL@@MBE?AV?$istreambuf_iterator@GV?$char_traits@G@_STL@@@2@V32@0AAVios_base@2@AAHAAI@Z 00418ec0 f i stlport_vc71_static:locale_impl.obj
 0001:00017ef0       ??$_M_do_get_integer@V?$istreambuf_iterator@GV?$char_traits@G@_STL@@@_STL@@IG@_STL@@YA?AV?$istreambuf_iterator@GV?$char_traits@G@_STL@@@0@AAV10@0AAVios_base@0@AAHAAIPAG@Z 00418ef0 f i stlport_vc71_static:locale_impl.obj
 0001:00017ff0       ??$__get_integer@V?$istreambuf_iterator@GV?$char_traits@G@_STL@@@_STL@@I@_STL@@YA_NAAV?$istreambuf_iterator@GV?$char_traits@G@_STL@@@0@0HAAIH_NDABV?$basic_string@DV?$char_traits@D@_STL@@V?$allocator@D@2@@0@ABU__false_type@0@@Z 00418ff0 f i stlport_vc71_static:locale_impl.obj
 0001:00018180       ?do_get@?$num_get@GV?$istreambuf_iterator@GV?$char_traits@G@_STL@@@_STL@@@_STL@@MBE?AV?$istreambuf_iterator@GV?$char_traits@G@_STL@@@2@V32@0AAVios_base@2@AAHAAG@Z 00419180 f i stlport_vc71_static:locale_impl.obj
 0001:000181b0       ??$_M_do_get_integer@V?$istreambuf_iterator@GV?$char_traits@G@_STL@@@_STL@@GG@_STL@@YA?AV?$istreambuf_iterator@GV?$char_traits@G@_STL@@@0@AAV10@0AAVios_base@0@AAHAAGPAG@Z 004191b0 f i stlport_vc71_static:locale_impl.obj
 0001:000182b0       ??$__get_integer@V?$istreambuf_iterator@GV?$char_traits@G@_STL@@@_STL@@G@_STL@@YA_NAAV?$istreambuf_iterator@GV?$char_traits@G@_STL@@@0@0HAAGH_NDABV?$basic_string@DV?$char_traits@D@_STL@@V?$allocator@D@2@@0@ABU__false_type@0@@Z 004192b0 f i stlport_vc71_static:locale_impl.obj
 0001:00018440       ?do_get@?$num_get@GV?$istreambuf_iterator@GV?$char_traits@G@_STL@@@_STL@@@_STL@@MBE?AV?$istreambuf_iterator@GV?$char_traits@G@_STL@@@2@V32@0AAVios_base@2@AAHAAJ@Z 00419440 f i stlport_vc71_static:locale_impl.obj
 0001:00018470       ??$_M_do_get_integer@V?$istreambuf_iterator@GV?$char_traits@G@_STL@@@_STL@@JG@_STL@@YA?AV?$istreambuf_iterator@GV?$char_traits@G@_STL@@@0@AAV10@0AAVios_base@0@AAHAAJPAG@Z 00419470 f i stlport_vc71_static:locale_impl.obj
 0001:00018570       ??$__get_integer@V?$istreambuf_iterator@GV?$char_traits@G@_STL@@@_STL@@J@_STL@@YA_NAAV?$istreambuf_iterator@GV?$char_traits@G@_STL@@@0@0HAAJH_NDABV?$basic_string@DV?$char_traits@D@_STL@@V?$allocator@D@2@@0@ABU__true_type@0@@Z 00419570 f i stlport_vc71_static:locale_impl.obj
 0001:00018710       ?do_put@?$num_put@DV?$ostreambuf_iterator@DV?$char_traits@D@_STL@@@_STL@@@_STL@@MBE?AV?$ostreambuf_iterator@DV?$char_traits@D@_STL@@@2@V32@AAVios_base@2@D_K@Z 00419710 f i stlport_vc71_static:locale_impl.obj
 0001:00018760       ??$__write_integer_backward@_K@_STL@@YAPADPADH_K@Z 00419760 f i stlport_vc71_static:locale_impl.obj
 0001:00018850       ??$__put_integer@V?$ostreambuf_iterator@DV?$char_traits@D@_STL@@@_STL@@@_STL@@YA?AV?$ostreambuf_iterator@DV?$char_traits@D@_STL@@@0@PAD0V10@AAVios_base@0@HD@Z 00419850 f i stlport_vc71_static:locale_impl.obj
 0001:00018930       ??$__copy_integer_and_fill@DV?$ostreambuf_iterator@DV?$char_traits@D@_STL@@@_STL@@@_STL@@YA?AV?$ostreambuf_iterator@DV?$char_traits@D@_STL@@@0@PBDHV10@HHDDD@Z 00419930 f i stlport_vc71_static:locale_impl.obj
 0001:00018b70       ??4?$ostreambuf_iterator@DV?$char_traits@D@_STL@@@_STL@@QAEAAV01@D@Z 00419b70 f i stlport_vc71_static:locale_impl.obj
 0001:00018bb0       ??$__copy@PBDV?$ostreambuf_iterator@DV?$char_traits@D@_STL@@@_STL@@H@_STL@@YA?AV?$ostreambuf_iterator@DV?$char_traits@D@_STL@@@0@PBD0V10@ABUrandom_access_iterator_tag@0@PAH@Z 00419bb0 f i stlport_vc71_static:locale_impl.obj
 0001:00018c30       ?do_put@?$num_put@DV?$ostreambuf_iterator@DV?$char_traits@D@_STL@@@_STL@@@_STL@@MBE?AV?$ostreambuf_iterator@DV?$char_traits@D@_STL@@@2@V32@AAVios_base@2@D_J@Z 00419c30 f i stlport_vc71_static:locale_impl.obj
 0001:00018c80       ??$__write_integer_backward@_J@_STL@@YAPADPADH_J@Z 00419c80 f i stlport_vc71_static:locale_impl.obj
 0001:00018d50       ??$__write_decimal_backward@_J@_STL@@YAPADPAD_JHABU__true_type@0@@Z 00419d50 f i stlport_vc71_static:locale_impl.obj
 0001:00018dd0       ?do_put@?$num_put@DV?$ostreambuf_iterator@DV?$char_traits@D@_STL@@@_STL@@@_STL@@MBE?AV?$ostreambuf_iterator@DV?$char_traits@D@_STL@@@2@V32@AAVios_base@2@DK@Z 00419dd0 f i stlport_vc71_static:locale_impl.obj
 0001:00018e20       ??$__write_integer_backward@K@_STL@@YAPADPADHK@Z 00419e20 f i stlport_vc71_static:locale_impl.obj
 0001:00018f10       ?do_put@?$num_put@DV?$ostreambuf_iterator@DV?$char_traits@D@_STL@@@_STL@@@_STL@@MBE?AV?$ostreambuf_iterator@DV?$char_traits@D@_STL@@@2@V32@AAVios_base@2@DJ@Z 00419f10 f i stlport_vc71_static:locale_impl.obj
 0001:00018f60       ??$__write_integer_backward@J@_STL@@YAPADPADHJ@Z 00419f60 f i stlport_vc71_static:locale_impl.obj
 0001:00019040       ??$__write_decimal_backward@J@_STL@@YAPADPADJHABU__true_type@0@@Z 0041a040 f i stlport_vc71_static:locale_impl.obj
 0001:000190c0       ?do_put@?$num_put@GV?$ostreambuf_iterator@GV?$char_traits@G@_STL@@@_STL@@@_STL@@MBE?AV?$ostreambuf_iterator@GV?$char_traits@G@_STL@@@2@V32@AAVios_base@2@G_K@Z 0041a0c0 f i stlport_vc71_static:locale_impl.obj
 0001:00019110       ??$__put_integer@V?$ostreambuf_iterator@GV?$char_traits@G@_STL@@@_STL@@@_STL@@YA?AV?$ostreambuf_iterator@GV?$char_traits@G@_STL@@@0@PAD0V10@AAVios_base@0@HG@Z 0041a110 f i stlport_vc71_static:locale_impl.obj
 0001:00019260       ??$__copy_integer_and_fill@GV?$ostreambuf_iterator@GV?$char_traits@G@_STL@@@_STL@@@_STL@@YA?AV?$ostreambuf_iterator@GV?$char_traits@G@_STL@@@0@PBGHV10@HHGGG@Z 0041a260 f i stlport_vc71_static:locale_impl.obj
 0001:000194b0       ??4?$ostreambuf_iterator@GV?$char_traits@G@_STL@@@_STL@@QAEAAV01@G@Z 0041a4b0 f i stlport_vc71_static:locale_impl.obj
 0001:000194f0       ?sputc@?$basic_streambuf@GV?$char_traits@G@_STL@@@_STL@@QAEGG@Z 0041a4f0 f i stlport_vc71_static:locale_impl.obj
 0001:00019510       ??$__copy@PBGV?$ostreambuf_iterator@GV?$char_traits@G@_STL@@@_STL@@H@_STL@@YA?AV?$ostreambuf_iterator@GV?$char_traits@G@_STL@@@0@PBG0V10@ABUrandom_access_iterator_tag@0@PAH@Z 0041a510 f i stlport_vc71_static:locale_impl.obj
 0001:00019580       ?do_put@?$num_put@GV?$ostreambuf_iterator@GV?$char_traits@G@_STL@@@_STL@@@_STL@@MBE?AV?$ostreambuf_iterator@GV?$char_traits@G@_STL@@@2@V32@AAVios_base@2@G_J@Z 0041a580 f i stlport_vc71_static:locale_impl.obj
 0001:000195d0       ?do_put@?$num_put@GV?$ostreambuf_iterator@GV?$char_traits@G@_STL@@@_STL@@@_STL@@MBE?AV?$ostreambuf_iterator@GV?$char_traits@G@_STL@@@2@V32@AAVios_base@2@GK@Z 0041a5d0 f i stlport_vc71_static:locale_impl.obj
 0001:00019620       ?do_put@?$num_put@GV?$ostreambuf_iterator@GV?$char_traits@G@_STL@@@_STL@@@_STL@@MBE?AV?$ostreambuf_iterator@GV?$char_traits@G@_STL@@@2@V32@AAVios_base@2@GJ@Z 0041a620 f i stlport_vc71_static:locale_impl.obj
 0001:00019670       ?do_put@?$money_put@DV?$ostreambuf_iterator@DV?$char_traits@D@_STL@@@_STL@@@_STL@@MBE?AV?$ostreambuf_iterator@DV?$char_traits@D@_STL@@@2@V32@_NAAVios_base@2@DO@Z 0041a670 f i stlport_vc71_static:locale_impl.obj
 0001:00019760       ?do_put@?$money_put@GV?$ostreambuf_iterator@GV?$char_traits@G@_STL@@@_STL@@@_STL@@MBE?AV?$ostreambuf_iterator@GV?$char_traits@G@_STL@@@2@V32@_NAAVios_base@2@GO@Z 0041a760 f i stlport_vc71_static:locale_impl.obj
 0001:00019840       ??1?$allocator@G@_STL@@QAE@XZ 0041a840 f i stlport_vc71_static:locale_impl.obj
 0001:00019850       ??0?$basic_string@GV?$char_traits@G@_STL@@V?$allocator@G@2@@_STL@@QAE@PBGABV?$allocator@G@1@@Z 0041a850 f i stlport_vc71_static:locale_impl.obj
 0001:000198c0       ??$_M_range_initialize@PBG@?$basic_string@GV?$char_traits@G@_STL@@V?$allocator@G@2@@_STL@@AAEXPBG0ABUforward_iterator_tag@1@@Z 0041a8c0 f i stlport_vc71_static:locale_impl.obj
 0001:00019900       ?_M_allocate_block@?$_String_base@GV?$allocator@G@_STL@@@_STL@@QAEXI@Z 0041a900 f i stlport_vc71_static:locale_impl.obj
 0001:00019940       ??1?$_String_base@GV?$allocator@G@_STL@@@_STL@@QAE@XZ 0041a940 f i stlport_vc71_static:locale_impl.obj
 0001:00019960       ??1?$basic_string@GV?$char_traits@G@_STL@@V?$allocator@G@2@@_STL@@QAE@XZ 0041a960 f i stlport_vc71_static:locale_impl.obj
 0001:00019980       ??0_Time_Info@_STL@@QAE@XZ 0041a980 f i stlport_vc71_static:locale_impl.obj
 0001:00019a60       ??1_Time_Info@_STL@@QAE@XZ 0041aa60 f i stlport_vc71_static:locale_impl.obj
 0001:00019c50       ??0_Locale_impl@_STL@@QAE@PBD@Z 0041ac50 f   stlport_vc71_static:locale_impl.obj
 0001:00019c80       ??1_Locale_impl@_STL@@UAE@XZ 0041ac80 f   stlport_vc71_static:locale_impl.obj
 0001:00019ce0       ?_M_throw_runtime_error@locale@_STL@@SAXPBD@Z 0041ace0 f   stlport_vc71_static:locale_impl.obj
 0001:00019dd0       ?name@locale@_STL@@QBE?AV?$basic_string@DV?$char_traits@D@_STL@@V?$allocator@D@2@@2@XZ 0041add0 f   stlport_vc71_static:locale_impl.obj
 0001:00019e00       ??8locale@_STL@@QBE_NABV01@@Z 0041ae00 f   stlport_vc71_static:locale_impl.obj
 0001:00019f10       ??9locale@_STL@@QBE_NABV01@@Z 0041af10 f   stlport_vc71_static:locale_impl.obj
 0001:00019f30       ?global@locale@_STL@@SA?AV12@ABV12@@Z 0041af30 f   stlport_vc71_static:locale_impl.obj
 0001:0001a0a0       ??0?$time_get@DV?$istreambuf_iterator@DV?$char_traits@D@_STL@@@_STL@@@_STL@@QAE@I@Z 0041b0a0 f i stlport_vc71_static:locale_impl.obj
 0001:0001a110       ?do_date_order@?$time_get@DV?$istreambuf_iterator@DV?$char_traits@D@_STL@@@_STL@@@_STL@@MBE?AW4dateorder@time_base@2@XZ 0041b110 f i stlport_vc71_static:locale_impl.obj
 0001:0001a120       ?do_get_weekday@?$time_get@DV?$istreambuf_iterator@DV?$char_traits@D@_STL@@@_STL@@@_STL@@MBE?AV?$istreambuf_iterator@DV?$char_traits@D@_STL@@@2@V32@0AAVios_base@2@AAHPAUtm@@@Z 0041b120 f i stlport_vc71_static:locale_impl.obj
 0001:0001a1d0       ??$__match@V?$istreambuf_iterator@DV?$char_traits@D@_STL@@@_STL@@PBV?$basic_string@DV?$char_traits@D@_STL@@V?$allocator@D@2@@2@J@_STL@@YAPBV?$basic_string@DV?$char_traits@D@_STL@@V?$allocator@D@2@@0@AAV?$istreambuf_iterator@DV?$char_traits@D@_STL@@@0@0PBV10@1PAJ@Z 0041b1d0 f i stlport_vc71_static:locale_impl.obj
 0001:0001a350       ?do_get_monthname@?$time_get@DV?$istreambuf_iterator@DV?$char_traits@D@_STL@@@_STL@@@_STL@@MBE?AV?$istreambuf_iterator@DV?$char_traits@D@_STL@@@2@V32@0AAVios_base@2@AAHPAUtm@@@Z 0041b350 f i stlport_vc71_static:locale_impl.obj
 0001:0001a410       ??$__match@V?$istreambuf_iterator@DV?$char_traits@D@_STL@@@_STL@@PAV?$basic_string@DV?$char_traits@D@_STL@@V?$allocator@D@2@@2@J@_STL@@YAPAV?$basic_string@DV?$char_traits@D@_STL@@V?$allocator@D@2@@0@AAV?$istreambuf_iterator@DV?$char_traits@D@_STL@@@0@0PAV10@1PAJ@Z 0041b410 f i stlport_vc71_static:locale_impl.obj
 0001:0001a590       ??0?$time_put@DV?$ostreambuf_iterator@DV?$char_traits@D@_STL@@@_STL@@@_STL@@QAE@I@Z 0041b590 f i stlport_vc71_static:locale_impl.obj
 0001:0001a600       ?do_put@?$time_put@DV?$ostreambuf_iterator@DV?$char_traits@D@_STL@@@_STL@@@_STL@@MBE?AV?$ostreambuf_iterator@DV?$char_traits@D@_STL@@@2@V32@AAVios_base@2@DPBUtm@@DD@Z 0041b600 f i stlport_vc71_static:locale_impl.obj
 0001:0001a670       ??0?$time_get@GV?$istreambuf_iterator@GV?$char_traits@G@_STL@@@_STL@@@_STL@@QAE@I@Z 0041b670 f i stlport_vc71_static:locale_impl.obj
 0001:0001a6e0       ?do_date_order@?$time_get@GV?$istreambuf_iterator@GV?$char_traits@G@_STL@@@_STL@@@_STL@@MBE?AW4dateorder@time_base@2@XZ 0041b6e0 f i stlport_vc71_static:locale_impl.obj
 0001:0001a6f0       ?do_get_weekday@?$time_get@GV?$istreambuf_iterator@GV?$char_traits@G@_STL@@@_STL@@@_STL@@MBE?AV?$istreambuf_iterator@GV?$char_traits@G@_STL@@@2@V32@0AAVios_base@2@AAHPAUtm@@@Z 0041b6f0 f i stlport_vc71_static:locale_impl.obj
 0001:0001a7a0       ??$__match@V?$istreambuf_iterator@GV?$char_traits@G@_STL@@@_STL@@PBV?$basic_string@DV?$char_traits@D@_STL@@V?$allocator@D@2@@2@J@_STL@@YAPBV?$basic_string@DV?$char_traits@D@_STL@@V?$allocator@D@2@@0@AAV?$istreambuf_iterator@GV?$char_traits@G@_STL@@@0@0PBV10@1PAJ@Z 0041b7a0 f i stlport_vc71_static:locale_impl.obj
 0001:0001a920       ?do_get_monthname@?$time_get@GV?$istreambuf_iterator@GV?$char_traits@G@_STL@@@_STL@@@_STL@@MBE?AV?$istreambuf_iterator@GV?$char_traits@G@_STL@@@2@V32@0AAVios_base@2@AAHPAUtm@@@Z 0041b920 f i stlport_vc71_static:locale_impl.obj
 0001:0001a9e0       ??$__match@V?$istreambuf_iterator@GV?$char_traits@G@_STL@@@_STL@@PAV?$basic_string@DV?$char_traits@D@_STL@@V?$allocator@D@2@@2@J@_STL@@YAPAV?$basic_string@DV?$char_traits@D@_STL@@V?$allocator@D@2@@0@AAV?$istreambuf_iterator@GV?$char_traits@G@_STL@@@0@0PAV10@1PAJ@Z 0041b9e0 f i stlport_vc71_static:locale_impl.obj
 0001:0001ab60       ??0?$time_put@GV?$ostreambuf_iterator@GV?$char_traits@G@_STL@@@_STL@@@_STL@@QAE@I@Z 0041bb60 f i stlport_vc71_static:locale_impl.obj
 0001:0001abd0       ?do_put@?$time_put@GV?$ostreambuf_iterator@GV?$char_traits@G@_STL@@@_STL@@@_STL@@MBE?AV?$ostreambuf_iterator@GV?$char_traits@G@_STL@@@2@V32@AAVios_base@2@GPBUtm@@DD@Z 0041bbd0 f i stlport_vc71_static:locale_impl.obj
 0001:0001ac20       ??$__put_time@V?$ostreambuf_iterator@GV?$char_traits@G@_STL@@@_STL@@@_STL@@YA?AV?$ostreambuf_iterator@GV?$char_traits@G@_STL@@@0@PAD0V10@ABVios_base@0@G@Z 0041bc20 f i stlport_vc71_static:locale_impl.obj
 0001:0001acb0       ??_E?$time_get@DV?$istreambuf_iterator@DV?$char_traits@D@_STL@@@_STL@@@_STL@@MAEPAXI@Z 0041bcb0 f i stlport_vc71_static:locale_impl.obj
 0001:0001acb0       ??_G?$time_get@DV?$istreambuf_iterator@DV?$char_traits@D@_STL@@@_STL@@@_STL@@MAEPAXI@Z 0041bcb0 f i stlport_vc71_static:locale_impl.obj
 0001:0001acd0       ??1?$time_get@DV?$istreambuf_iterator@DV?$char_traits@D@_STL@@@_STL@@@_STL@@MAE@XZ 0041bcd0 f i stlport_vc71_static:locale_impl.obj
 0001:0001ad20       ??_G?$time_put@DV?$ostreambuf_iterator@DV?$char_traits@D@_STL@@@_STL@@@_STL@@MAEPAXI@Z 0041bd20 f i stlport_vc71_static:locale_impl.obj
 0001:0001ad20       ??_E?$time_put@DV?$ostreambuf_iterator@DV?$char_traits@D@_STL@@@_STL@@@_STL@@MAEPAXI@Z 0041bd20 f i stlport_vc71_static:locale_impl.obj
 0001:0001ad40       ??1?$time_put@DV?$ostreambuf_iterator@DV?$char_traits@D@_STL@@@_STL@@@_STL@@MAE@XZ 0041bd40 f i stlport_vc71_static:locale_impl.obj
 0001:0001ad90       ??_G?$time_get@GV?$istreambuf_iterator@GV?$char_traits@G@_STL@@@_STL@@@_STL@@MAEPAXI@Z 0041bd90 f i stlport_vc71_static:locale_impl.obj
 0001:0001ad90       ??_E?$time_get@GV?$istreambuf_iterator@GV?$char_traits@G@_STL@@@_STL@@@_STL@@MAEPAXI@Z 0041bd90 f i stlport_vc71_static:locale_impl.obj
 0001:0001adb0       ??1?$time_get@GV?$istreambuf_iterator@GV?$char_traits@G@_STL@@@_STL@@@_STL@@MAE@XZ 0041bdb0 f i stlport_vc71_static:locale_impl.obj
 0001:0001ae00       ??_G?$time_put@GV?$ostreambuf_iterator@GV?$char_traits@G@_STL@@@_STL@@@_STL@@MAEPAXI@Z 0041be00 f i stlport_vc71_static:locale_impl.obj
 0001:0001ae00       ??_E?$time_put@GV?$ostreambuf_iterator@GV?$char_traits@G@_STL@@@_STL@@@_STL@@MAEPAXI@Z 0041be00 f i stlport_vc71_static:locale_impl.obj
 0001:0001ae20       ??1?$time_put@GV?$ostreambuf_iterator@GV?$char_traits@G@_STL@@@_STL@@@_STL@@MAE@XZ 0041be20 f i stlport_vc71_static:locale_impl.obj
 0001:0001ae70       ?do_get@?$money_get@DV?$istreambuf_iterator@DV?$char_traits@D@_STL@@@_STL@@@_STL@@MBE?AV?$istreambuf_iterator@DV?$char_traits@D@_STL@@@2@V32@0_NAAVios_base@2@AAHAAO@Z 0041be70 f i stlport_vc71_static:locale_impl.obj
 0001:0001afc0       ??$__get_decimal_integer@PADO@_STL@@YA_NAAPAD0AAO@Z 0041bfc0 f i stlport_vc71_static:locale_impl.obj
 0001:0001b090       ??$__get_integer@PADO@_STL@@YA_NAAPAD0HAAOH_NDABV?$basic_string@DV?$char_traits@D@_STL@@V?$allocator@D@2@@0@ABU__false_type@0@@Z 0041c090 f i stlport_vc71_static:locale_impl.obj
 0001:0001b210       ?do_put@?$money_put@DV?$ostreambuf_iterator@DV?$char_traits@D@_STL@@@_STL@@@_STL@@MBE?AV?$ostreambuf_iterator@DV?$char_traits@D@_STL@@@2@V32@_NAAVios_base@2@DABV?$basic_string@DV?$char_traits@D@_STL@@V?$allocator@D@2@@2@@Z 0041c210 f i stlport_vc71_static:locale_impl.obj
 0001:0001bcb0       ?grouping@?$moneypunct@D$00@_STL@@QBE?AV?$basic_string@DV?$char_traits@D@_STL@@V?$allocator@D@2@@2@XZ 0041ccb0 f i stlport_vc71_static:locale_impl.obj
 0001:0001bcd0       ?curr_symbol@?$moneypunct@D$00@_STL@@QBE?AV?$basic_string@DV?$char_traits@D@_STL@@V?$allocator@D@2@@2@XZ 0041ccd0 f i stlport_vc71_static:locale_impl.obj
 0001:0001bcf0       ?positive_sign@?$moneypunct@D$00@_STL@@QBE?AV?$basic_string@DV?$char_traits@D@_STL@@V?$allocator@D@2@@2@XZ 0041ccf0 f i stlport_vc71_static:locale_impl.obj
 0001:0001bd10       ?negative_sign@?$moneypunct@D$00@_STL@@QBE?AV?$basic_string@DV?$char_traits@D@_STL@@V?$allocator@D@2@@2@XZ 0041cd10 f i stlport_vc71_static:locale_impl.obj
 0001:0001bd30       ?grouping@?$moneypunct@D$0A@@_STL@@QBE?AV?$basic_string@DV?$char_traits@D@_STL@@V?$allocator@D@2@@2@XZ 0041cd30 f i stlport_vc71_static:locale_impl.obj
 0001:0001bd50       ?curr_symbol@?$moneypunct@D$0A@@_STL@@QBE?AV?$basic_string@DV?$char_traits@D@_STL@@V?$allocator@D@2@@2@XZ 0041cd50 f i stlport_vc71_static:locale_impl.obj
 0001:0001bd70       ?positive_sign@?$moneypunct@D$0A@@_STL@@QBE?AV?$basic_string@DV?$char_traits@D@_STL@@V?$allocator@D@2@@2@XZ 0041cd70 f i stlport_vc71_static:locale_impl.obj
 0001:0001bd90       ?negative_sign@?$moneypunct@D$0A@@_STL@@QBE?AV?$basic_string@DV?$char_traits@D@_STL@@V?$allocator@D@2@@2@XZ 0041cd90 f i stlport_vc71_static:locale_impl.obj
 0001:0001bdb0       ?do_get@?$num_get@DV?$istreambuf_iterator@DV?$char_traits@D@_STL@@@_STL@@@_STL@@MBE?AV?$istreambuf_iterator@DV?$char_traits@D@_STL@@@2@V32@0AAVios_base@2@AAHAAO@Z 0041cdb0 f i stlport_vc71_static:locale_impl.obj
 0001:0001bec0       ??$_M_read_float@V?$istreambuf_iterator@DV?$char_traits@D@_STL@@@_STL@@D@_STL@@YA_NAAV?$basic_string@DV?$char_traits@D@_STL@@V?$allocator@D@2@@0@AAV?$istreambuf_iterator@DV?$char_traits@D@_STL@@@0@1AAVios_base@0@PAD@Z 0041cec0 f i stlport_vc71_static:locale_impl.obj
 0001:0001c0c0       ?equal@?$istreambuf_iterator@DV?$char_traits@D@_STL@@@_STL@@QBE_NABV12@@Z 0041d0c0 f i stlport_vc71_static:locale_impl.obj
 0001:0001c140       ??$__copy_sign@V?$istreambuf_iterator@DV?$char_traits@D@_STL@@@_STL@@D@_STL@@YA?AV?$istreambuf_iterator@DV?$char_traits@D@_STL@@@0@V10@0AAV?$basic_string@DV?$char_traits@D@_STL@@V?$allocator@D@2@@0@DD@Z 0041d140 f i stlport_vc71_static:locale_impl.obj
 0001:0001c1a0       ??$__copy_grouped_digits@V?$istreambuf_iterator@DV?$char_traits@D@_STL@@@_STL@@D@_STL@@YA_NAAV?$istreambuf_iterator@DV?$char_traits@D@_STL@@@0@0AAV?$basic_string@DV?$char_traits@D@_STL@@V?$allocator@D@2@@0@PBDDABV20@AA_N@Z 0041d1a0 f i stlport_vc71_static:locale_impl.obj
 0001:0001c2c0       ??$__copy_digits@V?$istreambuf_iterator@DV?$char_traits@D@_STL@@@_STL@@D@_STL@@YA_NAAV?$istreambuf_iterator@DV?$char_traits@D@_STL@@@0@0AAV?$basic_string@DV?$char_traits@D@_STL@@V?$allocator@D@2@@0@PBD@Z 0041d2c0 f i stlport_vc71_static:locale_impl.obj
 0001:0001c380       ?do_get@?$num_get@DV?$istreambuf_iterator@DV?$char_traits@D@_STL@@@_STL@@@_STL@@MBE?AV?$istreambuf_iterator@DV?$char_traits@D@_STL@@@2@V32@0AAVios_base@2@AAHAAN@Z 0041d380 f i stlport_vc71_static:locale_impl.obj
 0001:0001c480       ?do_get@?$num_get@DV?$istreambuf_iterator@DV?$char_traits@D@_STL@@@_STL@@@_STL@@MBE?AV?$istreambuf_iterator@DV?$char_traits@D@_STL@@@2@V32@0AAVios_base@2@AAHAAM@Z 0041d480 f i stlport_vc71_static:locale_impl.obj
 0001:0001c580       ?do_get@?$num_get@DV?$istreambuf_iterator@DV?$char_traits@D@_STL@@@_STL@@@_STL@@MBE?AV?$istreambuf_iterator@DV?$char_traits@D@_STL@@@2@V32@0AAVios_base@2@AAHAA_N@Z 0041d580 f i stlport_vc71_static:locale_impl.obj
 0001:0001c850       ?truename@?$numpunct@D@_STL@@QBE?AV?$basic_string@DV?$char_traits@D@_STL@@V?$allocator@D@2@@2@XZ 0041d850 f i stlport_vc71_static:locale_impl.obj
 0001:0001c870       ?falsename@?$numpunct@D@_STL@@QBE?AV?$basic_string@DV?$char_traits@D@_STL@@V?$allocator@D@2@@2@XZ 0041d870 f i stlport_vc71_static:locale_impl.obj
 0001:0001c890       ?do_put@?$num_put@DV?$ostreambuf_iterator@DV?$char_traits@D@_STL@@@_STL@@@_STL@@MBE?AV?$ostreambuf_iterator@DV?$char_traits@D@_STL@@@2@V32@AAVios_base@2@D_N@Z 0041d890 f i stlport_vc71_static:locale_impl.obj
 0001:0001c9f0       ?do_get_year@?$time_get@DV?$istreambuf_iterator@DV?$char_traits@D@_STL@@@_STL@@@_STL@@MBE?AV?$istreambuf_iterator@DV?$char_traits@D@_STL@@@2@V32@0AAVios_base@2@AAHPAUtm@@@Z 0041d9f0 f i stlport_vc71_static:locale_impl.obj
 0001:0001ca80       ??$__get_decimal_integer@V?$istreambuf_iterator@DV?$char_traits@D@_STL@@@_STL@@H@_STL@@YA_NAAV?$istreambuf_iterator@DV?$char_traits@D@_STL@@@0@0AAH@Z 0041da80 f i stlport_vc71_static:locale_impl.obj
 0001:0001cb50       ??$__get_integer@V?$istreambuf_iterator@DV?$char_traits@D@_STL@@@_STL@@H@_STL@@YA_NAAV?$istreambuf_iterator@DV?$char_traits@D@_STL@@@0@0HAAHH_NDABV?$basic_string@DV?$char_traits@D@_STL@@V?$allocator@D@2@@0@ABU__false_type@0@@Z 0041db50 f i stlport_vc71_static:locale_impl.obj
 0001:0001ccc0       ?do_get@?$money_get@GV?$istreambuf_iterator@GV?$char_traits@G@_STL@@@_STL@@@_STL@@MBE?AV?$istreambuf_iterator@GV?$char_traits@G@_STL@@@2@V32@0_NAAVios_base@2@AAHAAO@Z 0041dcc0 f i stlport_vc71_static:locale_impl.obj
 0001:0001cde0       ?push_back@?$basic_string@GV?$char_traits@G@_STL@@V?$allocator@G@2@@_STL@@QAEXG@Z 0041dde0 f i stlport_vc71_static:locale_impl.obj
 0001:0001ce40       ?reserve@?$basic_string@GV?$char_traits@G@_STL@@V?$allocator@G@2@@_STL@@QAEXI@Z 0041de40 f i stlport_vc71_static:locale_impl.obj
 0001:0001cf20       ??$uninitialized_copy@PAGPAG@_STL@@YAPAGPAG00@Z 0041df20 f i stlport_vc71_static:locale_impl.obj
 0001:0001cf30       ??0?$basic_string@GV?$char_traits@G@_STL@@V?$allocator@G@2@@_STL@@QAE@XZ 0041df30 f i stlport_vc71_static:locale_impl.obj
 0001:0001cfa0       ??$__get_decimal_integer@PAGO@_STL@@YA_NAAPAG0AAO@Z 0041dfa0 f i stlport_vc71_static:locale_impl.obj
 0001:0001d070       ??$__get_integer@PAGO@_STL@@YA_NAAPAG0HAAOH_NDABV?$basic_string@DV?$char_traits@D@_STL@@V?$allocator@D@2@@0@ABU__false_type@0@@Z 0041e070 f i stlport_vc71_static:locale_impl.obj
 0001:0001d1f0       ?do_put@?$money_put@GV?$ostreambuf_iterator@GV?$char_traits@G@_STL@@@_STL@@@_STL@@MBE?AV?$ostreambuf_iterator@GV?$char_traits@G@_STL@@@2@V32@_NAAVios_base@2@GABV?$basic_string@GV?$char_traits@G@_STL@@V?$allocator@G@2@@2@@Z 0041e1f0 f i stlport_vc71_static:locale_impl.obj
 0001:0001dc80       ??0?$_String_base@GV?$allocator@G@_STL@@@_STL@@QAE@ABV?$allocator@G@1@@Z 0041ec80 f i stlport_vc71_static:locale_impl.obj
 0001:0001dc90       ??$__copy@PAGV?$ostreambuf_iterator@GV?$char_traits@G@_STL@@@_STL@@H@_STL@@YA?AV?$ostreambuf_iterator@GV?$char_traits@G@_STL@@@0@PAG0V10@ABUrandom_access_iterator_tag@0@PAH@Z 0041ec90 f i stlport_vc71_static:locale_impl.obj
 0001:0001dd00       ?_M_deallocate_block@?$_String_base@GV?$allocator@G@_STL@@@_STL@@QAEXXZ 0041ed00 f i stlport_vc71_static:locale_impl.obj
 0001:0001dd20       ??0?$basic_string@GV?$char_traits@G@_STL@@V?$allocator@G@2@@_STL@@QAE@ABV01@@Z 0041ed20 f i stlport_vc71_static:locale_impl.obj
 0001:0001dd90       ?get_allocator@?$basic_string@GV?$char_traits@G@_STL@@V?$allocator@G@2@@_STL@@QBE?AV?$allocator@G@2@XZ 0041ed90 f i stlport_vc71_static:locale_impl.obj
 0001:0001dda0       ??$_M_range_initialize@PAG@?$basic_string@GV?$char_traits@G@_STL@@V?$allocator@G@2@@_STL@@AAEXPAG0ABUforward_iterator_tag@1@@Z 0041eda0 f i stlport_vc71_static:locale_impl.obj
 0001:0001de10       ?grouping@?$moneypunct@G$00@_STL@@QBE?AV?$basic_string@DV?$char_traits@D@_STL@@V?$allocator@D@2@@2@XZ 0041ee10 f i stlport_vc71_static:locale_impl.obj
 0001:0001de30       ?curr_symbol@?$moneypunct@G$00@_STL@@QBE?AV?$basic_string@GV?$char_traits@G@_STL@@V?$allocator@G@2@@2@XZ 0041ee30 f i stlport_vc71_static:locale_impl.obj
 0001:0001de50       ?positive_sign@?$moneypunct@G$00@_STL@@QBE?AV?$basic_string@GV?$char_traits@G@_STL@@V?$allocator@G@2@@2@XZ 0041ee50 f i stlport_vc71_static:locale_impl.obj
 0001:0001de70       ?negative_sign@?$moneypunct@G$00@_STL@@QBE?AV?$basic_string@GV?$char_traits@G@_STL@@V?$allocator@G@2@@2@XZ 0041ee70 f i stlport_vc71_static:locale_impl.obj
 0001:0001de90       ?grouping@?$moneypunct@G$0A@@_STL@@QBE?AV?$basic_string@DV?$char_traits@D@_STL@@V?$allocator@D@2@@2@XZ 0041ee90 f i stlport_vc71_static:locale_impl.obj
 0001:0001deb0       ?curr_symbol@?$moneypunct@G$0A@@_STL@@QBE?AV?$basic_string@GV?$char_traits@G@_STL@@V?$allocator@G@2@@2@XZ 0041eeb0 f i stlport_vc71_static:locale_impl.obj
 0001:0001ded0       ?positive_sign@?$moneypunct@G$0A@@_STL@@QBE?AV?$basic_string@GV?$char_traits@G@_STL@@V?$allocator@G@2@@2@XZ 0041eed0 f i stlport_vc71_static:locale_impl.obj
 0001:0001def0       ?negative_sign@?$moneypunct@G$0A@@_STL@@QBE?AV?$basic_string@GV?$char_traits@G@_STL@@V?$allocator@G@2@@2@XZ 0041eef0 f i stlport_vc71_static:locale_impl.obj
 0001:0001df10       ?do_get@?$num_get@GV?$istreambuf_iterator@GV?$char_traits@G@_STL@@@_STL@@@_STL@@MBE?AV?$istreambuf_iterator@GV?$char_traits@G@_STL@@@2@V32@0AAVios_base@2@AAHAAO@Z 0041ef10 f i stlport_vc71_static:locale_impl.obj
 0001:0001e030       ??$_M_read_float@V?$istreambuf_iterator@GV?$char_traits@G@_STL@@@_STL@@G@_STL@@YA_NAAV?$basic_string@DV?$char_traits@D@_STL@@V?$allocator@D@2@@0@AAV?$istreambuf_iterator@GV?$char_traits@G@_STL@@@0@1AAVios_base@0@PAG@Z 0041f030 f i stlport_vc71_static:locale_impl.obj
 0001:0001e270       ?equal@?$istreambuf_iterator@GV?$char_traits@G@_STL@@@_STL@@QBE_NABV12@@Z 0041f270 f i stlport_vc71_static:locale_impl.obj
 0001:0001e2a0       ??$__copy_sign@V?$istreambuf_iterator@GV?$char_traits@G@_STL@@@_STL@@G@_STL@@YA?AV?$istreambuf_iterator@GV?$char_traits@G@_STL@@@0@V10@0AAV?$basic_string@DV?$char_traits@D@_STL@@V?$allocator@D@2@@0@GG@Z 0041f2a0 f i stlport_vc71_static:locale_impl.obj
 0001:0001e300       ??$__copy_grouped_digits@V?$istreambuf_iterator@GV?$char_traits@G@_STL@@@_STL@@G@_STL@@YA_NAAV?$istreambuf_iterator@GV?$char_traits@G@_STL@@@0@0AAV?$basic_string@DV?$char_traits@D@_STL@@V?$allocator@D@2@@0@PBGGABV20@AA_N@Z 0041f300 f i stlport_vc71_static:locale_impl.obj
 0001:0001e430       ??$__copy_digits@V?$istreambuf_iterator@GV?$char_traits@G@_STL@@@_STL@@G@_STL@@YA_NAAV?$istreambuf_iterator@GV?$char_traits@G@_STL@@@0@0AAV?$basic_string@DV?$char_traits@D@_STL@@V?$allocator@D@2@@0@PBG@Z 0041f430 f i stlport_vc71_static:locale_impl.obj
 0001:0001e500       ?do_get@?$num_get@GV?$istreambuf_iterator@GV?$char_traits@G@_STL@@@_STL@@@_STL@@MBE?AV?$istreambuf_iterator@GV?$char_traits@G@_STL@@@2@V32@0AAVios_base@2@AAHAAN@Z 0041f500 f i stlport_vc71_static:locale_impl.obj
 0001:0001e600       ?do_get@?$num_get@GV?$istreambuf_iterator@GV?$char_traits@G@_STL@@@_STL@@@_STL@@MBE?AV?$istreambuf_iterator@GV?$char_traits@G@_STL@@@2@V32@0AAVios_base@2@AAHAAM@Z 0041f600 f i stlport_vc71_static:locale_impl.obj
 0001:0001e700       ?do_get@?$num_get@GV?$istreambuf_iterator@GV?$char_traits@G@_STL@@@_STL@@@_STL@@MBE?AV?$istreambuf_iterator@GV?$char_traits@G@_STL@@@2@V32@0AAVios_base@2@AAHAA_N@Z 0041f700 f i stlport_vc71_static:locale_impl.obj
 0001:0001e980       ?truename@?$numpunct@G@_STL@@QBE?AV?$basic_string@GV?$char_traits@G@_STL@@V?$allocator@G@2@@2@XZ 0041f980 f i stlport_vc71_static:locale_impl.obj
 0001:0001e9a0       ?falsename@?$numpunct@G@_STL@@QBE?AV?$basic_string@GV?$char_traits@G@_STL@@V?$allocator@G@2@@2@XZ 0041f9a0 f i stlport_vc71_static:locale_impl.obj
 0001:0001e9c0       ?do_put@?$num_put@GV?$ostreambuf_iterator@GV?$char_traits@G@_STL@@@_STL@@@_STL@@MBE?AV?$ostreambuf_iterator@GV?$char_traits@G@_STL@@@2@V32@AAVios_base@2@G_N@Z 0041f9c0 f i stlport_vc71_static:locale_impl.obj
 0001:0001eb60       ?do_get_year@?$time_get@GV?$istreambuf_iterator@GV?$char_traits@G@_STL@@@_STL@@@_STL@@MBE?AV?$istreambuf_iterator@GV?$char_traits@G@_STL@@@2@V32@0AAVios_base@2@AAHPAUtm@@@Z 0041fb60 f i stlport_vc71_static:locale_impl.obj
 0001:0001ebf0       ??$__get_decimal_integer@V?$istreambuf_iterator@GV?$char_traits@G@_STL@@@_STL@@H@_STL@@YA_NAAV?$istreambuf_iterator@GV?$char_traits@G@_STL@@@0@0AAH@Z 0041fbf0 f i stlport_vc71_static:locale_impl.obj
 0001:0001ecc0       ??$__get_integer@V?$istreambuf_iterator@GV?$char_traits@G@_STL@@@_STL@@H@_STL@@YA_NAAV?$istreambuf_iterator@GV?$char_traits@G@_STL@@@0@0HAAHH_NDABV?$basic_string@DV?$char_traits@D@_STL@@V?$allocator@D@2@@0@ABU__false_type@0@@Z 0041fcc0 f i stlport_vc71_static:locale_impl.obj
 0001:0001ee30       ??_E_Locale_impl@_STL@@UAEPAXI@Z 0041fe30 f i stlport_vc71_static:locale_impl.obj
 0001:0001ee30       ??_G_Locale_impl@_STL@@UAEPAXI@Z 0041fe30 f i stlport_vc71_static:locale_impl.obj
 0001:0001ee50       ?make_classic_locale@_Locale_impl@_STL@@SAPAV12@XZ 0041fe50 f   stlport_vc71_static:locale_impl.obj
 0001:0001f1e0       ?_S_initialize@locale@_STL@@SAXXZ 004201e0 f   stlport_vc71_static:locale_impl.obj
 0001:0001f210       ?do_put@?$num_put@DV?$ostreambuf_iterator@DV?$char_traits@D@_STL@@@_STL@@@_STL@@MBE?AV?$ostreambuf_iterator@DV?$char_traits@D@_STL@@@2@V32@AAVios_base@2@DO@Z 00420210 f i stlport_vc71_static:locale_impl.obj
 0001:0001f250       ??$_M_do_put_float@DV?$ostreambuf_iterator@DV?$char_traits@D@_STL@@@_STL@@O@_STL@@YA?AV?$ostreambuf_iterator@DV?$char_traits@D@_STL@@@0@V10@AAVios_base@0@DO@Z 00420250 f i stlport_vc71_static:locale_impl.obj
 0001:0001f360       ??$__put_float@V?$ostreambuf_iterator@DV?$char_traits@D@_STL@@@_STL@@@_STL@@YA?AV?$ostreambuf_iterator@DV?$char_traits@D@_STL@@@0@PAD0V10@AAVios_base@0@DDDABV?$basic_string@DV?$char_traits@D@_STL@@V?$allocator@D@2@@0@@Z 00420360 f i stlport_vc71_static:locale_impl.obj
 0001:0001f470       ??$__find@PADD@_STL@@YAPADPAD0ABDABUrandom_access_iterator_tag@0@@Z 00420470 f i stlport_vc71_static:locale_impl.obj
 0001:0001f4e0       ??$__copy_float_and_fill@DV?$ostreambuf_iterator@DV?$char_traits@D@_STL@@@_STL@@@_STL@@YA?AV?$ostreambuf_iterator@DV?$char_traits@D@_STL@@@0@PBD0V10@HHDDD@Z 004204e0 f i stlport_vc71_static:locale_impl.obj
 0001:0001f610       ?do_put@?$num_put@DV?$ostreambuf_iterator@DV?$char_traits@D@_STL@@@_STL@@@_STL@@MBE?AV?$ostreambuf_iterator@DV?$char_traits@D@_STL@@@2@V32@AAVios_base@2@DN@Z 00420610 f i stlport_vc71_static:locale_impl.obj
 0001:0001f650       ??$_M_do_put_float@DV?$ostreambuf_iterator@DV?$char_traits@D@_STL@@@_STL@@N@_STL@@YA?AV?$ostreambuf_iterator@DV?$char_traits@D@_STL@@@0@V10@AAVios_base@0@DN@Z 00420650 f i stlport_vc71_static:locale_impl.obj
 0001:0001f760       ?do_get_time@?$time_get@DV?$istreambuf_iterator@DV?$char_traits@D@_STL@@@_STL@@@_STL@@MBE?AV?$istreambuf_iterator@DV?$char_traits@D@_STL@@@2@V32@0AAVios_base@2@AAHPAUtm@@@Z 00420760 f i stlport_vc71_static:locale_impl.obj
 0001:0001f7d0       ??$__get_formatted_time@V?$istreambuf_iterator@DV?$char_traits@D@_STL@@@_STL@@PBD@_STL@@YAPBDV?$istreambuf_iterator@DV?$char_traits@D@_STL@@@0@0PBD1ABV_Time_Info@0@AAHPAUtm@@@Z 004207d0 f i stlport_vc71_static:locale_impl.obj
 0001:0001fb60       ?do_get_date@?$time_get@DV?$istreambuf_iterator@DV?$char_traits@D@_STL@@@_STL@@@_STL@@MBE?AV?$istreambuf_iterator@DV?$char_traits@D@_STL@@@2@V32@0AAVios_base@2@AAHPAUtm@@@Z 00420b60 f i stlport_vc71_static:locale_impl.obj
 0001:0001fbf0       ?do_put@?$num_put@GV?$ostreambuf_iterator@GV?$char_traits@G@_STL@@@_STL@@@_STL@@MBE?AV?$ostreambuf_iterator@GV?$char_traits@G@_STL@@@2@V32@AAVios_base@2@GO@Z 00420bf0 f i stlport_vc71_static:locale_impl.obj
 0001:0001fc30       ??$_M_do_put_float@GV?$ostreambuf_iterator@GV?$char_traits@G@_STL@@@_STL@@O@_STL@@YA?AV?$ostreambuf_iterator@GV?$char_traits@G@_STL@@@0@V10@AAVios_base@0@GO@Z 00420c30 f i stlport_vc71_static:locale_impl.obj
 0001:0001fd40       ??$__put_float@V?$ostreambuf_iterator@GV?$char_traits@G@_STL@@@_STL@@@_STL@@YA?AV?$ostreambuf_iterator@GV?$char_traits@G@_STL@@@0@PAD0V10@AAVios_base@0@GGGABV?$basic_string@DV?$char_traits@D@_STL@@V?$allocator@D@2@@0@@Z 00420d40 f i stlport_vc71_static:locale_impl.obj
 0001:0001fed0       ??$__find@PAGG@_STL@@YAPAGPAG0ABGABUrandom_access_iterator_tag@0@@Z 00420ed0 f i stlport_vc71_static:locale_impl.obj
 0001:0001ff50       ??$__copy_float_and_fill@GV?$ostreambuf_iterator@GV?$char_traits@G@_STL@@@_STL@@@_STL@@YA?AV?$ostreambuf_iterator@GV?$char_traits@G@_STL@@@0@PBG0V10@HHGGG@Z 00420f50 f i stlport_vc71_static:locale_impl.obj
 0001:00020080       ?do_put@?$num_put@GV?$ostreambuf_iterator@GV?$char_traits@G@_STL@@@_STL@@@_STL@@MBE?AV?$ostreambuf_iterator@GV?$char_traits@G@_STL@@@2@V32@AAVios_base@2@GN@Z 00421080 f i stlport_vc71_static:locale_impl.obj
 0001:000200c0       ??$_M_do_put_float@GV?$ostreambuf_iterator@GV?$char_traits@G@_STL@@@_STL@@N@_STL@@YA?AV?$ostreambuf_iterator@GV?$char_traits@G@_STL@@@0@V10@AAVios_base@0@GN@Z 004210c0 f i stlport_vc71_static:locale_impl.obj
 0001:000201d0       ?do_get_time@?$time_get@GV?$istreambuf_iterator@GV?$char_traits@G@_STL@@@_STL@@@_STL@@MBE?AV?$istreambuf_iterator@GV?$char_traits@G@_STL@@@2@V32@0AAVios_base@2@AAHPAUtm@@@Z 004211d0 f i stlport_vc71_static:locale_impl.obj
 0001:00020240       ??$__get_formatted_time@V?$istreambuf_iterator@GV?$char_traits@G@_STL@@@_STL@@PBD@_STL@@YAPBDV?$istreambuf_iterator@GV?$char_traits@G@_STL@@@0@0PBD1ABV_Time_Info@0@AAHPAUtm@@@Z 00421240 f i stlport_vc71_static:locale_impl.obj
 0001:000205d0       ?do_get_date@?$time_get@GV?$istreambuf_iterator@GV?$char_traits@G@_STL@@@_STL@@@_STL@@MBE?AV?$istreambuf_iterator@GV?$char_traits@G@_STL@@@2@V32@0AAVios_base@2@AAHPAUtm@@@Z 004215d0 f i stlport_vc71_static:locale_impl.obj
 0001:00020660       ??0_Loc_init@ios_base@_STL@@QAE@XZ 00421660 f   stlport_vc71_static:locale_impl.obj
 0001:00020670       ?do_get@?$money_get@DV?$istreambuf_iterator@DV?$char_traits@D@_STL@@@_STL@@@_STL@@MBE?AV?$istreambuf_iterator@DV?$char_traits@D@_STL@@@2@V32@0_NAAVios_base@2@AAHAAV?$basic_string@DV?$char_traits@D@_STL@@V?$allocator@D@2@@2@@Z 00421670 f i stlport_vc71_static:locale_impl.obj
 0001:000211d0       ??$mismatch@V?$istreambuf_iterator@DV?$char_traits@D@_STL@@@_STL@@PAD@_STL@@YA?AU?$pair@V?$istreambuf_iterator@DV?$char_traits@D@_STL@@@_STL@@PAD@0@V?$istreambuf_iterator@DV?$char_traits@D@_STL@@@0@0PAD@Z 004221d0 f i stlport_vc71_static:locale_impl.obj
 0001:00021230       ?_M_insert_aux@?$basic_string@DV?$char_traits@D@_STL@@V?$allocator@D@2@@_STL@@AAEPADPADD@Z 00422230 f i stlport_vc71_static:locale_impl.obj
 0001:00021380       ??$__get_monetary_value@V?$istreambuf_iterator@DV?$char_traits@D@_STL@@@_STL@@V?$back_insert_iterator@V?$basic_string@DV?$char_traits@D@_STL@@V?$allocator@D@2@@_STL@@@2@D@_STL@@YA_NAAV?$istreambuf_iterator@DV?$char_traits@D@_STL@@@0@V10@V?$back_insert_iterator@V?$basic_string@DV?$char_traits@D@_STL@@V?$allocator@D@2@@_STL@@@0@ABV?$ctype@D@0@DHDABV?$basic_string@DV?$char_traits@D@_STL@@V?$allocator@D@2@@0@AA_N@Z 00422380 f i stlport_vc71_static:locale_impl.obj
 0001:00021610       ?do_get@?$money_get@GV?$istreambuf_iterator@GV?$char_traits@G@_STL@@@_STL@@@_STL@@MBE?AV?$istreambuf_iterator@GV?$char_traits@G@_STL@@@2@V32@0_NAAVios_base@2@AAHAAV?$basic_string@GV?$char_traits@G@_STL@@V?$allocator@G@2@@2@@Z 00422610 f i stlport_vc71_static:locale_impl.obj
 0001:00022180       ??$mismatch@V?$istreambuf_iterator@GV?$char_traits@G@_STL@@@_STL@@PAG@_STL@@YA?AU?$pair@V?$istreambuf_iterator@GV?$char_traits@G@_STL@@@_STL@@PAG@0@V?$istreambuf_iterator@GV?$char_traits@G@_STL@@@0@0PAG@Z 00423180 f i stlport_vc71_static:locale_impl.obj
 0001:000221f0       ??$__get_string@V?$istreambuf_iterator@GV?$char_traits@G@_STL@@@_STL@@PAG@_STL@@YA?AU?$pair@V?$istreambuf_iterator@GV?$char_traits@G@_STL@@@_STL@@_N@0@V?$istreambuf_iterator@GV?$char_traits@G@_STL@@@0@0PAG1@Z 004231f0 f i stlport_vc71_static:locale_impl.obj
 0001:00022240       ?insert@?$basic_string@GV?$char_traits@G@_STL@@V?$allocator@G@2@@_STL@@QAEPAGPAGG@Z 00423240 f i stlport_vc71_static:locale_impl.obj
 0001:00022280       ?_M_insert_aux@?$basic_string@GV?$char_traits@G@_STL@@V?$allocator@G@2@@_STL@@AAEPAGPAGG@Z 00423280 f i stlport_vc71_static:locale_impl.obj
 0001:00022370       ??$__get_monetary_value@V?$istreambuf_iterator@GV?$char_traits@G@_STL@@@_STL@@V?$back_insert_iterator@V?$basic_string@GV?$char_traits@G@_STL@@V?$allocator@G@2@@_STL@@@2@G@_STL@@YA_NAAV?$istreambuf_iterator@GV?$char_traits@G@_STL@@@0@V10@V?$back_insert_iterator@V?$basic_string@GV?$char_traits@G@_STL@@V?$allocator@G@2@@_STL@@@0@ABV?$ctype@G@0@GHGABV?$basic_string@DV?$char_traits@D@_STL@@V?$allocator@D@2@@0@AA_N@Z 00423370 f i stlport_vc71_static:locale_impl.obj
 0001:00022610       ??4?$basic_string@GV?$char_traits@G@_STL@@V?$allocator@G@2@@_STL@@QAEAAV01@ABV01@@Z 00423610 f i stlport_vc71_static:locale_impl.obj
 0001:00022640       ??$_M_assign_dispatch@PAG@?$basic_string@GV?$char_traits@G@_STL@@V?$allocator@G@2@@_STL@@AAEAAV01@PAG0ABU__false_type@1@@Z 00423640 f i stlport_vc71_static:locale_impl.obj
 0001:000226b0       ?erase@?$basic_string@GV?$char_traits@G@_STL@@V?$allocator@G@2@@_STL@@QAEPAGPAG0@Z 004236b0 f i stlport_vc71_static:locale_impl.obj
 0001:000226f0       ??$append@PAG@?$basic_string@GV?$char_traits@G@_STL@@V?$allocator@G@2@@_STL@@AAEAAV01@PAG0ABUforward_iterator_tag@1@@Z 004236f0 f i stlport_vc71_static:locale_impl.obj
 0001:00022820       ?narrow@?$ctype@D@_STL@@QBEDDD@Z 00423820 f i stlport_vc71_static:ios.obj
 0001:00022830       ?widen@?$ctype@G@_STL@@QBEGD@Z 00423830 f i stlport_vc71_static:ios.obj
 0001:00022840       ?narrow@?$ctype@G@_STL@@QBEDGD@Z 00423840 f i stlport_vc71_static:ios.obj
 0001:00022850       ??0failure@ios_base@_STL@@QAE@ABV?$basic_string@DV?$char_traits@D@_STL@@V?$allocator@D@2@@2@@Z 00423850 f   stlport_vc71_static:ios.obj
 0001:00022870       ??1failure@ios_base@_STL@@UAE@XZ 00423870 f   stlport_vc71_static:ios.obj
 0001:00022880       ?_M_invoke_callbacks@ios_base@_STL@@IAEXW4event@12@@Z 00423880 f   stlport_vc71_static:ios.obj
 0001:000228b0       ?exceptions@?$basic_ios@DV?$char_traits@D@_STL@@@_STL@@QBEHXZ 004238b0 f i stlport_vc71_static:ios.obj
 0001:000228c0       ?tie@?$basic_ios@GV?$char_traits@G@_STL@@@_STL@@QBEPAV?$basic_ostream@GV?$char_traits@G@_STL@@@2@XZ 004238c0 f i stlport_vc71_static:ios.obj
 0001:000228d0       ?tie@?$basic_ios@GV?$char_traits@G@_STL@@@_STL@@QAEPAV?$basic_ostream@GV?$char_traits@G@_STL@@@2@PAV32@@Z 004238d0 f i stlport_vc71_static:ios.obj
 0001:000228e0       ?rdbuf@?$basic_ios@GV?$char_traits@G@_STL@@@_STL@@QBEPAV?$basic_streambuf@GV?$char_traits@G@_STL@@@2@XZ 004238e0 f i stlport_vc71_static:ios.obj
 0001:000228f0       ?fill@?$basic_ios@GV?$char_traits@G@_STL@@@_STL@@QBEGXZ 004238f0 f i stlport_vc71_static:ios.obj
 0001:00022900       ?fill@?$basic_ios@GV?$char_traits@G@_STL@@@_STL@@QAEGG@Z 00423900 f i stlport_vc71_static:ios.obj
 0001:00022910       ?exceptions@?$basic_ios@GV?$char_traits@G@_STL@@@_STL@@QBEHXZ 00423910 f i stlport_vc71_static:ios.obj
 0001:00022920       ?eq_int_type@?$__char_traits_base@GG@_STL@@SA_NABG0@Z 00423920 f i stlport_vc71_static:ios.obj
 0001:00022940       ?eof@?$__char_traits_base@GG@_STL@@SAGXZ 00423940 f i stlport_vc71_static:ios.obj
 0001:00022950       ?narrow@?$basic_ios@DV?$char_traits@D@_STL@@@_STL@@QBEDDD@Z 00423950 f i stlport_vc71_static:ios.obj
 0001:00022960       ?narrow@?$basic_ios@GV?$char_traits@G@_STL@@@_STL@@QBEDGD@Z 00423960 f i stlport_vc71_static:ios.obj
 0001:00022970       ?widen@?$basic_ios@GV?$char_traits@G@_STL@@@_STL@@QBEGD@Z 00423970 f i stlport_vc71_static:ios.obj
 0001:00022980       ?_M_handle_exception@?$basic_ios@GV?$char_traits@G@_STL@@@_STL@@QAEXH@Z 00423980 f i stlport_vc71_static:ios.obj
 0001:000229a0       ??0?$pair@PAJI@_STL@@QAE@ABQAJABI@Z 004239a0 f i stlport_vc71_static:ios.obj
 0001:000229c0       ??0?$pair@PAPAXI@_STL@@QAE@ABQAPAXABI@Z 004239c0 f i stlport_vc71_static:ios.obj
 0001:000229e0       ??0?$pair@PAU?$pair@P6AXW4event@ios_base@_STL@@AAV23@H@ZH@_STL@@I@_STL@@QAE@ABQAU?$pair@P6AXW4event@ios_base@_STL@@AAV23@H@ZH@1@ABI@Z 004239e0 f i stlport_vc71_static:ios.obj
 0001:00022a00       ??0?$pair@P6AXW4event@ios_base@_STL@@AAV23@H@ZH@_STL@@QAE@XZ 00423a00 f i stlport_vc71_static:ios.obj
 0001:00022a10       ??0?$pair@P6AXW4event@ios_base@_STL@@AAV23@H@ZH@_STL@@QAE@ABQ6AXW4event@ios_base@1@AAV31@H@ZABH@Z 00423a10 f i stlport_vc71_static:ios.obj
 0001:00022a30       ??$fill@PAJJ@_STL@@YAXPAJ0ABJ@Z 00423a30 f i stlport_vc71_static:ios.obj
 0001:00022a50       ??$fill@PAPAXPAX@_STL@@YAXPAPAX0ABQAX@Z 00423a50 f i stlport_vc71_static:ios.obj
 0001:00022a70       ??$fill@PAU?$pair@P6AXW4event@ios_base@_STL@@AAV23@H@ZH@_STL@@U12@@_STL@@YAXPAU?$pair@P6AXW4event@ios_base@_STL@@AAV23@H@ZH@0@0ABU10@@Z 00423a70 f i stlport_vc71_static:ios.obj
 0001:00022aa0       ?pubimbue@?$basic_streambuf@GV?$char_traits@G@_STL@@@_STL@@QAE?AVlocale@2@ABV32@@Z 00423aa0 f i stlport_vc71_static:ios.obj
 0001:00022b30       ?_Ret@?$_BothPtrType@PBU?$pair@P6AXW4event@ios_base@_STL@@AAV23@H@ZH@_STL@@PAU12@@_STL@@SA?AU__true_type@2@XZ 00423b30 f i stlport_vc71_static:ios.obj
 0001:00022b40       ?_Ret@?$_BothPtrType@PBJPAJ@_STL@@SA?AU__true_type@2@XZ 00423b40 f i stlport_vc71_static:ios.obj
 0001:00022b50       ?_Ret@?$_BothPtrType@PBQAXPAPAX@_STL@@SA?AU__true_type@2@XZ 00423b50 f i stlport_vc71_static:ios.obj
 0001:00022b60       ?_Ret@?$_OKToMemCpy@U?$pair@P6AXW4event@ios_base@_STL@@AAV23@H@ZH@_STL@@U12@@_STL@@SA?AU__false_type@2@XZ 00423b60 f i stlport_vc71_static:ios.obj
 0001:00022b70       ?_Ret@?$_OKToMemCpy@JJ@_STL@@SA?AU__true_type@2@XZ 00423b70 f i stlport_vc71_static:ios.obj
 0001:00022b80       ?_Ret@?$_OKToMemCpy@PAXPAX@_STL@@SA?AU__true_type@2@XZ 00423b80 f i stlport_vc71_static:ios.obj
 0001:00022b90       ??$_IsOKToMemCpy@U?$pair@P6AXW4event@ios_base@_STL@@AAV23@H@ZH@_STL@@U12@@_STL@@YA?AU?$_OKToMemCpy@U?$pair@P6AXW4event@ios_base@_STL@@AAV23@H@ZH@_STL@@U12@@0@PAU?$pair@P6AXW4event@ios_base@_STL@@AAV23@H@ZH@0@0@Z 00423b90 f i stlport_vc71_static:ios.obj
 0001:00022ba0       ??$_IsOKToMemCpy@JJ@_STL@@YA?AU?$_OKToMemCpy@JJ@0@PAJ0@Z 00423ba0 f i stlport_vc71_static:ios.obj
 0001:00022bb0       ??$__copy_ptrs@PBJPAJ@_STL@@YAPAJPBJ0PAJABU__true_type@0@@Z 00423bb0 f i stlport_vc71_static:ios.obj
 0001:00022be0       ??$_IsOKToMemCpy@PAXPAX@_STL@@YA?AU?$_OKToMemCpy@PAXPAX@0@PAPAX0@Z 00423be0 f i stlport_vc71_static:ios.obj
 0001:00022bf0       ??$__copy_ptrs@PBQAXPAPAX@_STL@@YAPAPAXPBQAX0PAPAXABU__true_type@0@@Z 00423bf0 f i stlport_vc71_static:ios.obj
 0001:00022c20       ??$__copy@PBU?$pair@P6AXW4event@ios_base@_STL@@AAV23@H@ZH@_STL@@PAU12@H@_STL@@YAPAU?$pair@P6AXW4event@ios_base@_STL@@AAV23@H@ZH@0@PBU10@0PAU10@ABUrandom_access_iterator_tag@0@PAH@Z 00423c20 f i stlport_vc71_static:ios.obj
 0001:00022c60       ??_Gfailure@ios_base@_STL@@UAEPAXI@Z 00423c60 f i stlport_vc71_static:ios.obj
 0001:00022c60       ??_Efailure@ios_base@_STL@@UAEPAXI@Z 00423c60 f i stlport_vc71_static:ios.obj
 0001:00022c80       ?imbue@ios_base@_STL@@QAE?AVlocale@2@ABV32@@Z 00423c80 f   stlport_vc71_static:ios.obj
 0001:00022d30       ?_S_eof@?$basic_ios@GV?$char_traits@G@_STL@@@_STL@@SA_NG@Z 00423d30 f i stlport_vc71_static:ios.obj
 0001:00022d40       ??$_Stl_expand_array@J@_STL@@YA?AU?$pair@PAJI@0@PAJIH@Z 00423d40 f i stlport_vc71_static:ios.obj
 0001:00022dd0       ??$_Stl_expand_array@PAX@_STL@@YA?AU?$pair@PAPAXI@0@PAPAXIH@Z 00423dd0 f i stlport_vc71_static:ios.obj
 0001:00022e60       ??$_Stl_expand_array@U?$pair@P6AXW4event@ios_base@_STL@@AAV23@H@ZH@_STL@@@_STL@@YA?AU?$pair@PAU?$pair@P6AXW4event@ios_base@_STL@@AAV23@H@ZH@_STL@@I@0@PAU?$pair@P6AXW4event@ios_base@_STL@@AAV23@H@ZH@0@IH@Z 00423e60 f i stlport_vc71_static:ios.obj
 0001:00022f00       ??$make_pair@P6AXW4event@ios_base@_STL@@AAV23@H@ZH@_STL@@YA?AU?$pair@P6AXW4event@ios_base@_STL@@AAV23@H@ZH@0@ABQ6AXW4event@ios_base@0@AAV30@H@ZABH@Z 00423f00 f i stlport_vc71_static:ios.obj
 0001:00022f20       ??$__copy_aux@PBJPAJ@_STL@@YAPAJPBJ0PAJABU__true_type@0@@Z 00423f20 f i stlport_vc71_static:ios.obj
 0001:00022f50       ??$__copy_aux@PBQAXPAPAX@_STL@@YAPAPAXPBQAX0PAPAXABU__true_type@0@@Z 00423f50 f i stlport_vc71_static:ios.obj
 0001:00022f80       ??$__copy_ptrs@PBU?$pair@P6AXW4event@ios_base@_STL@@AAV23@H@ZH@_STL@@PAU12@@_STL@@YAPAU?$pair@P6AXW4event@ios_base@_STL@@AAV23@H@ZH@0@PBU10@0PAU10@ABU__false_type@0@@Z 00423f80 f i stlport_vc71_static:ios.obj
 0001:00022fc0       ?xalloc@ios_base@_STL@@SAHXZ 00423fc0 f   stlport_vc71_static:ios.obj
 0001:00022ff0       ??$copy@PBJPAJ@_STL@@YAPAJPBJ0PAJ@Z 00423ff0 f i stlport_vc71_static:ios.obj
 0001:00023020       ??$copy@PBQAXPAPAX@_STL@@YAPAPAXPBQAX0PAPAX@Z 00424020 f i stlport_vc71_static:ios.obj
 0001:00023050       ??$__copy_aux@PBU?$pair@P6AXW4event@ios_base@_STL@@AAV23@H@ZH@_STL@@PAU12@@_STL@@YAPAU?$pair@P6AXW4event@ios_base@_STL@@AAV23@H@ZH@0@PBU10@0PAU10@ABU__true_type@0@@Z 00424050 f i stlport_vc71_static:ios.obj
 0001:00023090       ??$_Stl_copy_array@J@_STL@@YAPAJPBJI@Z 00424090 f i stlport_vc71_static:ios.obj
 0001:000230d0       ??$_Stl_copy_array@PAX@_STL@@YAPAPAXPBQAXI@Z 004240d0 f i stlport_vc71_static:ios.obj
 0001:00023110       ??$copy@PBU?$pair@P6AXW4event@ios_base@_STL@@AAV23@H@ZH@_STL@@PAU12@@_STL@@YAPAU?$pair@P6AXW4event@ios_base@_STL@@AAV23@H@ZH@0@PBU10@0PAU10@@Z 00424110 f i stlport_vc71_static:ios.obj
 0001:00023150       ??$_Stl_copy_array@U?$pair@P6AXW4event@ios_base@_STL@@AAV23@H@ZH@_STL@@@_STL@@YAPAU?$pair@P6AXW4event@ios_base@_STL@@AAV23@H@ZH@0@PBU10@I@Z 00424150 f i stlport_vc71_static:ios.obj
 0001:00023190       ?grouping@?$numpunct@G@_STL@@QBE?AV?$basic_string@DV?$char_traits@D@_STL@@V?$allocator@D@2@@2@XZ 00424190 f i stlport_vc71_static:ios.obj
 0001:000231b0       ?_M_throw_failure@ios_base@_STL@@IAEXXZ 004241b0 f   stlport_vc71_static:ios.obj
 0001:00023210       ??0failure@ios_base@_STL@@QAE@ABV012@@Z 00424210 f i stlport_vc71_static:ios.obj
 0001:00023240       ??0ios_base@_STL@@IAE@XZ   00424240 f   stlport_vc71_static:ios.obj
 0001:000232c0       ??1ios_base@_STL@@UAE@XZ   004242c0 f   stlport_vc71_static:ios.obj
 0001:000233a0       ??1?$basic_ios@GV?$char_traits@G@_STL@@@_STL@@UAE@XZ 004243a0 f i stlport_vc71_static:ios.obj
 0001:000233b0       ??_G?$basic_ios@GV?$char_traits@G@_STL@@@_STL@@UAEPAXI@Z 004243b0 f i stlport_vc71_static:ios.obj
 0001:000233b0       ??_E?$basic_ios@GV?$char_traits@G@_STL@@@_STL@@UAEPAXI@Z 004243b0 f i stlport_vc71_static:ios.obj
 0001:000233d0       ??0?$basic_ios@GV?$char_traits@G@_STL@@@_STL@@IAE@XZ 004243d0 f i stlport_vc71_static:ios.obj
 0001:000233f0       ?iword@ios_base@_STL@@QAEAAJH@Z 004243f0 f   stlport_vc71_static:ios.obj
 0001:00023460       ?pword@ios_base@_STL@@QAEAAPAXH@Z 00424460 f   stlport_vc71_static:ios.obj
 0001:000234d0       ?register_callback@ios_base@_STL@@QAEXP6AXW4event@12@AAV12@H@ZH@Z 004244d0 f   stlport_vc71_static:ios.obj
 0001:00023540       ?_M_copy_state@ios_base@_STL@@IAEXABV12@@Z 00424540 f   stlport_vc71_static:ios.obj
 0001:000236c0       ??_Eios_base@_STL@@UAEPAXI@Z 004246c0 f i stlport_vc71_static:ios.obj
 0001:000236c0       ??_Gios_base@_STL@@UAEPAXI@Z 004246c0 f i stlport_vc71_static:ios.obj
 0001:000236e0       ?exceptions@?$basic_ios@DV?$char_traits@D@_STL@@@_STL@@QAEXH@Z 004246e0 f i stlport_vc71_static:ios.obj
 0001:00023710       ?clear@?$basic_ios@GV?$char_traits@G@_STL@@@_STL@@QAEXH@Z 00424710 f i stlport_vc71_static:ios.obj
 0001:00023730       ?setstate@?$basic_ios@GV?$char_traits@G@_STL@@@_STL@@QAEXH@Z 00424730 f i stlport_vc71_static:ios.obj
 0001:00023760       ?exceptions@?$basic_ios@GV?$char_traits@G@_STL@@@_STL@@QAEXH@Z 00424760 f i stlport_vc71_static:ios.obj
 0001:00023790       ?copyfmt@?$basic_ios@DV?$char_traits@D@_STL@@@_STL@@QAEAAV12@ABV12@@Z 00424790 f i stlport_vc71_static:ios.obj
 0001:00023800       ?rdbuf@?$basic_ios@GV?$char_traits@G@_STL@@@_STL@@QAEPAV?$basic_streambuf@GV?$char_traits@G@_STL@@@2@PAV32@@Z 00424800 f i stlport_vc71_static:ios.obj
 0001:00023830       ?copyfmt@?$basic_ios@GV?$char_traits@G@_STL@@@_STL@@QAEAAV12@ABV12@@Z 00424830 f i stlport_vc71_static:ios.obj
 0001:000238b0       ?imbue@?$basic_ios@GV?$char_traits@G@_STL@@@_STL@@QAE?AVlocale@2@ABV32@@Z 004248b0 f i stlport_vc71_static:ios.obj
 0001:000239e0       ?init@?$basic_ios@GV?$char_traits@G@_STL@@@_STL@@IAEXPAV?$basic_streambuf@GV?$char_traits@G@_STL@@@2@@Z 004249e0 f i stlport_vc71_static:ios.obj
 0001:00023aa0       ??0?$basic_ios@DV?$char_traits@D@_STL@@@_STL@@QAE@PAV?$basic_streambuf@DV?$char_traits@D@_STL@@@1@@Z 00424aa0 f i stlport_vc71_static:ios.obj
 0001:00023b00       ??0?$basic_ios@GV?$char_traits@G@_STL@@@_STL@@QAE@PAV?$basic_streambuf@GV?$char_traits@G@_STL@@@1@@Z 00424b00 f i stlport_vc71_static:ios.obj
 0001:00023b60       ?assign@?$char_traits@D@_STL@@SAPADPADID@Z 00424b60 f i stlport_vc71_static:streambuf.obj
 0001:00023ba0       ?_FILE_O_bump@_STL@@YAXPAU_iobuf@@H@Z 00424ba0 f i stlport_vc71_static:streambuf.obj
 0001:00023bb0       ??1?$basic_streambuf@DV?$char_traits@D@_STL@@@_STL@@UAE@XZ 00424bb0 f   stlport_vc71_static:streambuf.obj
 0001:00023bc0       ??0?$basic_streambuf@DV?$char_traits@D@_STL@@@_STL@@IAE@PAU_iobuf@@0@Z 00424bc0 f   stlport_vc71_static:streambuf.obj
 0001:00023c30       ?imbue@?$basic_streambuf@DV?$char_traits@D@_STL@@@_STL@@MAEXABVlocale@2@@Z 00424c30 f   stlport_vc71_static:streambuf.obj
 0001:00023c40       ?setbuf@?$basic_streambuf@DV?$char_traits@D@_STL@@@_STL@@MAEPAV12@PADH@Z 00424c40 f   stlport_vc71_static:streambuf.obj
 0001:00023c50       ?sync@?$basic_streambuf@DV?$char_traits@D@_STL@@@_STL@@MAEHXZ 00424c50 f   stlport_vc71_static:streambuf.obj
 0001:00023c60       ?showmanyc@?$basic_streambuf@DV?$char_traits@D@_STL@@@_STL@@MAEHXZ 00424c60 f   stlport_vc71_static:streambuf.obj
 0001:00023c70       ?pubimbue@?$basic_streambuf@DV?$char_traits@D@_STL@@@_STL@@QAE?AVlocale@2@ABV32@@Z 00424c70 f   stlport_vc71_static:streambuf.obj
 0001:00023d00       ?eback@?$basic_streambuf@GV?$char_traits@G@_STL@@@_STL@@IBEPAGXZ 00424d00 f i stlport_vc71_static:streambuf.obj
 0001:00023d10       ?gptr@?$basic_streambuf@GV?$char_traits@G@_STL@@@_STL@@IBEPAGXZ 00424d10 f i stlport_vc71_static:streambuf.obj
 0001:00023d20       ?egptr@?$basic_streambuf@GV?$char_traits@G@_STL@@@_STL@@IBEPAGXZ 00424d20 f i stlport_vc71_static:streambuf.obj
 0001:00023d30       ?gbump@?$basic_streambuf@GV?$char_traits@G@_STL@@@_STL@@IAEXH@Z 00424d30 f i stlport_vc71_static:streambuf.obj
 0001:00023d40       ?setg@?$basic_streambuf@GV?$char_traits@G@_STL@@@_STL@@IAEXPAG00@Z 00424d40 f i stlport_vc71_static:streambuf.obj
 0001:00023d60       ?_M_eback@?$basic_streambuf@GV?$char_traits@G@_STL@@@_STL@@QBEPAGXZ 00424d60 f i stlport_vc71_static:streambuf.obj
 0001:00023d70       ?_M_gptr@?$basic_streambuf@GV?$char_traits@G@_STL@@@_STL@@QBEPAGXZ 00424d70 f i stlport_vc71_static:streambuf.obj
 0001:00023d80       ?_M_egptr@?$basic_streambuf@GV?$char_traits@G@_STL@@@_STL@@QBEPAGXZ 00424d80 f i stlport_vc71_static:streambuf.obj
 0001:00023d90       ?_M_gbump@?$basic_streambuf@GV?$char_traits@G@_STL@@@_STL@@QAEXH@Z 00424d90 f i stlport_vc71_static:streambuf.obj
 0001:00023da0       ?_M_setg@?$basic_streambuf@GV?$char_traits@G@_STL@@@_STL@@QAEXPAG00@Z 00424da0 f i stlport_vc71_static:streambuf.obj
 0001:00023dc0       ?pbase@?$basic_streambuf@GV?$char_traits@G@_STL@@@_STL@@IBEPAGXZ 00424dc0 f i stlport_vc71_static:streambuf.obj
 0001:00023dd0       ?pptr@?$basic_streambuf@GV?$char_traits@G@_STL@@@_STL@@IBEPAGXZ 00424dd0 f i stlport_vc71_static:streambuf.obj
 0001:00023de0       ?epptr@?$basic_streambuf@GV?$char_traits@G@_STL@@@_STL@@IBEPAGXZ 00424de0 f i stlport_vc71_static:streambuf.obj
 0001:00023df0       ?pbump@?$basic_streambuf@GV?$char_traits@G@_STL@@@_STL@@IAEXH@Z 00424df0 f i stlport_vc71_static:streambuf.obj
 0001:00023e00       ?setp@?$basic_streambuf@GV?$char_traits@G@_STL@@@_STL@@IAEXPAG0@Z 00424e00 f i stlport_vc71_static:streambuf.obj
 0001:00023e20       ?pubsetbuf@?$basic_streambuf@GV?$char_traits@G@_STL@@@_STL@@QAEPAV12@PAGH@Z 00424e20 f i stlport_vc71_static:streambuf.obj
 0001:00023e30       ?pubseekoff@?$basic_streambuf@GV?$char_traits@G@_STL@@@_STL@@QAE?AV?$fpos@H@2@JHH@Z 00424e30 f i stlport_vc71_static:streambuf.obj
 0001:00023e50       ?pubseekpos@?$basic_streambuf@GV?$char_traits@G@_STL@@@_STL@@QAE?AV?$fpos@H@2@V32@H@Z 00424e50 f i stlport_vc71_static:streambuf.obj
 0001:00023e70       ?pubsync@?$basic_streambuf@GV?$char_traits@G@_STL@@@_STL@@QAEHXZ 00424e70 f i stlport_vc71_static:streambuf.obj
 0001:00023e80       ?sputn@?$basic_streambuf@GV?$char_traits@G@_STL@@@_STL@@QAEHPBGH@Z 00424e80 f i stlport_vc71_static:streambuf.obj
 0001:00023e90       ?_M_sputnc@?$basic_streambuf@GV?$char_traits@G@_STL@@@_STL@@QAEHGH@Z 00424e90 f i stlport_vc71_static:streambuf.obj
 0001:00023ea0       ?in_avail@?$basic_streambuf@GV?$char_traits@G@_STL@@@_STL@@QAEHXZ 00424ea0 f i stlport_vc71_static:streambuf.obj
 0001:00023ec0       ?sgetn@?$basic_streambuf@GV?$char_traits@G@_STL@@@_STL@@QAEHPAGH@Z 00424ec0 f i stlport_vc71_static:streambuf.obj
 0001:00023ed0       ?getloc@?$basic_streambuf@GV?$char_traits@G@_STL@@@_STL@@QBE?AVlocale@2@XZ 00424ed0 f i stlport_vc71_static:streambuf.obj
 0001:00023ef0       ?eq@?$__char_traits_base@GG@_STL@@SA_NABG0@Z 00424ef0 f i stlport_vc71_static:streambuf.obj
 0001:00023f10       ?to_int_type@?$__char_traits_base@GG@_STL@@SAGABG@Z 00424f10 f i stlport_vc71_static:streambuf.obj
 0001:00023f20       ??1?$basic_streambuf@GV?$char_traits@G@_STL@@@_STL@@UAE@XZ 00424f20 f i stlport_vc71_static:streambuf.obj
 0001:00023f30       ??0?$basic_streambuf@GV?$char_traits@G@_STL@@@_STL@@IAE@XZ 00424f30 f i stlport_vc71_static:streambuf.obj
 0001:00023f60       ?setbuf@?$basic_streambuf@GV?$char_traits@G@_STL@@@_STL@@MAEPAV12@PAGH@Z 00424f60 f i stlport_vc71_static:streambuf.obj
 0001:00023f70       ?seekoff@?$basic_streambuf@GV?$char_traits@G@_STL@@@_STL@@MAE?AV?$fpos@H@2@JHH@Z 00424f70 f i stlport_vc71_static:streambuf.obj
 0001:00023f90       ?seekpos@?$basic_streambuf@GV?$char_traits@G@_STL@@@_STL@@MAE?AV?$fpos@H@2@V32@H@Z 00424f90 f i stlport_vc71_static:streambuf.obj
 0001:00023fb0       ?sync@?$basic_streambuf@GV?$char_traits@G@_STL@@@_STL@@MAEHXZ 00424fb0 f i stlport_vc71_static:streambuf.obj
 0001:00023fc0       ?showmanyc@?$basic_streambuf@GV?$char_traits@G@_STL@@@_STL@@MAEHXZ 00424fc0 f i stlport_vc71_static:streambuf.obj
 0001:00023fd0       ?underflow@?$basic_streambuf@GV?$char_traits@G@_STL@@@_STL@@MAEGXZ 00424fd0 f i stlport_vc71_static:streambuf.obj
 0001:00023fe0       ?pbackfail@?$basic_streambuf@GV?$char_traits@G@_STL@@@_STL@@MAEGG@Z 00424fe0 f i stlport_vc71_static:streambuf.obj
 0001:00023ff0       ?overflow@?$basic_streambuf@GV?$char_traits@G@_STL@@@_STL@@MAEGG@Z 00424ff0 f i stlport_vc71_static:streambuf.obj
 0001:00024000       ?imbue@?$basic_streambuf@GV?$char_traits@G@_STL@@@_STL@@MAEXABVlocale@2@@Z 00425000 f i stlport_vc71_static:streambuf.obj
 0001:00024010       ??_E?$basic_streambuf@GV?$char_traits@G@_STL@@@_STL@@UAEPAXI@Z 00425010 f i stlport_vc71_static:streambuf.obj
 0001:00024010       ??_G?$basic_streambuf@GV?$char_traits@G@_STL@@@_STL@@UAEPAXI@Z 00425010 f i stlport_vc71_static:streambuf.obj
 0001:00024030       ?copy@?$__char_traits_base@GG@_STL@@SAPAGPAGPBGI@Z 00425030 f i stlport_vc71_static:streambuf.obj
 0001:00024060       ?assign@?$__char_traits_base@GG@_STL@@SAPAGPAGIG@Z 00425060 f i stlport_vc71_static:streambuf.obj
 0001:000240a0       ?seekoff@?$basic_streambuf@DV?$char_traits@D@_STL@@@_STL@@MAE?AV?$fpos@H@2@JHH@Z 004250a0 f   stlport_vc71_static:streambuf.obj
 0001:000240c0       ?seekpos@?$basic_streambuf@DV?$char_traits@D@_STL@@@_STL@@MAE?AV?$fpos@H@2@V32@H@Z 004250c0 f   stlport_vc71_static:streambuf.obj
 0001:000240e0       ?xsgetn@?$basic_streambuf@DV?$char_traits@D@_STL@@@_STL@@MAEHPADH@Z 004250e0 f   stlport_vc71_static:streambuf.obj
 0001:00024190       ?underflow@?$basic_streambuf@DV?$char_traits@D@_STL@@@_STL@@MAEHXZ 00425190 f   stlport_vc71_static:streambuf.obj
 0001:000241a0       ?uflow@?$basic_streambuf@DV?$char_traits@D@_STL@@@_STL@@MAEHXZ 004251a0 f   stlport_vc71_static:streambuf.obj
 0001:000241d0       ?pbackfail@?$basic_streambuf@DV?$char_traits@D@_STL@@@_STL@@MAEHH@Z 004251d0 f   stlport_vc71_static:streambuf.obj
 0001:000241e0       ?xsputn@?$basic_streambuf@DV?$char_traits@D@_STL@@@_STL@@MAEHPBDH@Z 004251e0 f   stlport_vc71_static:streambuf.obj
 0001:00024290       ?_M_xsputnc@?$basic_streambuf@DV?$char_traits@D@_STL@@@_STL@@MAEHDH@Z 00425290 f   stlport_vc71_static:streambuf.obj
 0001:00024350       ?overflow@?$basic_streambuf@DV?$char_traits@D@_STL@@@_STL@@MAEHH@Z 00425350 f   stlport_vc71_static:streambuf.obj
 0001:00024360       ?_M_snextc_aux@?$basic_streambuf@DV?$char_traits@D@_STL@@@_STL@@AAEHXZ 00425360 f   stlport_vc71_static:streambuf.obj
 0001:000243c0       ?sgetc@?$basic_streambuf@GV?$char_traits@G@_STL@@@_STL@@QAEGXZ 004253c0 f i stlport_vc71_static:streambuf.obj
 0001:000243e0       ?sputbackc@?$basic_streambuf@GV?$char_traits@G@_STL@@@_STL@@QAEGG@Z 004253e0 f i stlport_vc71_static:streambuf.obj
 0001:00024410       ?sungetc@?$basic_streambuf@GV?$char_traits@G@_STL@@@_STL@@QAEGXZ 00425410 f i stlport_vc71_static:streambuf.obj
 0001:00024430       ?stossc@?$basic_streambuf@GV?$char_traits@G@_STL@@@_STL@@QAEXXZ 00425430 f i stlport_vc71_static:streambuf.obj
 0001:00024450       ?xsgetn@?$basic_streambuf@GV?$char_traits@G@_STL@@@_STL@@MAEHPAGH@Z 00425450 f i stlport_vc71_static:streambuf.obj
 0001:00024500       ?uflow@?$basic_streambuf@GV?$char_traits@G@_STL@@@_STL@@MAEGXZ 00425500 f i stlport_vc71_static:streambuf.obj
 0001:00024530       ?xsputn@?$basic_streambuf@GV?$char_traits@G@_STL@@@_STL@@MAEHPBGH@Z 00425530 f i stlport_vc71_static:streambuf.obj
 0001:000245f0       ?_M_xsputnc@?$basic_streambuf@GV?$char_traits@G@_STL@@@_STL@@MAEHGH@Z 004255f0 f i stlport_vc71_static:streambuf.obj
 0001:00024690       ?_M_snextc_aux@?$basic_streambuf@GV?$char_traits@G@_STL@@@_STL@@AAEGXZ 00425690 f i stlport_vc71_static:streambuf.obj
 0001:000246d0       ?snextc@?$basic_streambuf@GV?$char_traits@G@_STL@@@_STL@@QAEGXZ 004256d0 f i stlport_vc71_static:streambuf.obj
 0001:00024730       ?eback@?$basic_streambuf@DV?$char_traits@D@_STL@@@_STL@@IBEPADXZ 00425730 f i stlport_vc71_static:fstream.obj
 0001:00024740       ?gbump@?$basic_streambuf@DV?$char_traits@D@_STL@@@_STL@@IAEXH@Z 00425740 f i stlport_vc71_static:fstream.obj
 0001:00024750       ?out@?$codecvt@DDH@_STL@@QBE?AW4result@codecvt_base@2@AAHPBD1AAPBDPAD3AAPAD@Z 00425750 f i stlport_vc71_static:fstream.obj
 0001:00024760       ?in@?$codecvt@DDH@_STL@@QBE?AW4result@codecvt_base@2@AAHPBD1AAPBDPAD3AAPAD@Z 00425760 f i stlport_vc71_static:fstream.obj
 0001:00024770       ?length@?$codecvt@DDH@_STL@@QBEHABHPBD1I@Z 00425770 f i stlport_vc71_static:fstream.obj
 0001:00024780       ?out@?$codecvt@GDH@_STL@@QBE?AW4result@codecvt_base@2@HPBG0AAPBGPAD2AAPAD@Z 00425780 f i stlport_vc71_static:fstream.obj
 0001:000247b0       ?unshift@?$codecvt@GDH@_STL@@QBE?AW4result@codecvt_base@2@AAHPAD1AAPAD@Z 004257b0 f i stlport_vc71_static:fstream.obj
 0001:000247c0       ?in@?$codecvt@GDH@_STL@@QBE?AW4result@codecvt_base@2@HPBD0AAPBDPAG2AAPAG@Z 004257c0 f i stlport_vc71_static:fstream.obj
 0001:000247f0       ?encoding@?$codecvt@GDH@_STL@@QBEHXZ 004257f0 f i stlport_vc71_static:fstream.obj
 0001:00024800       ?always_noconv@?$codecvt@GDH@_STL@@QBE_NXZ 00425800 f i stlport_vc71_static:fstream.obj
 0001:00024810       ?length@?$codecvt@GDH@_STL@@QBEHABHPBD1I@Z 00425810 f i stlport_vc71_static:fstream.obj
 0001:00024820       ?max_length@?$codecvt@GDH@_STL@@QBEHXZ 00425820 f i stlport_vc71_static:fstream.obj
 0001:00024830       ?_M_in_binary_mode@_Filebuf_base@_STL@@QBE_NXZ 00425830 f i stlport_vc71_static:fstream.obj
 0001:00024840       ?__page_size@_Filebuf_base@_STL@@SAIXZ 00425840 f i stlport_vc71_static:fstream.obj
 0001:00024850       ?__o_mode@_Filebuf_base@_STL@@QBEHXZ 00425850 f i stlport_vc71_static:fstream.obj
 0001:00024860       ?__regular_file@_Filebuf_base@_STL@@QBE_NXZ 00425860 f i stlport_vc71_static:fstream.obj
 0001:00024870       ?__get_fd@_Filebuf_base@_STL@@QBEPAXXZ 00425870 f i stlport_vc71_static:fstream.obj
 0001:00024880       ?flag_to_openmode@_SgI@@YAHH@Z 00425880 f   stlport_vc71_static:fstream.obj
 0001:000248c0       ?__is_regular_file@_SgI@@YA_NPAX@Z 004258c0 f   stlport_vc71_static:fstream.obj
 0001:000248e0       ?__file_size@_SgI@@YAJPAX@Z 004258e0 f   stlport_vc71_static:fstream.obj
 0001:00024920       ?_get_osfflags@_SgI@@YAHHPAX@Z 00425920 f   stlport_vc71_static:fstream.obj
 0001:000249a0       ??0_Filebuf_base@_STL@@QAE@XZ 004259a0 f   stlport_vc71_static:fstream.obj
 0001:00024a00       ?_M_file_size@_Filebuf_base@_STL@@QAEJXZ 00425a00 f   stlport_vc71_static:fstream.obj
 0001:00024a30       ?_M_open@_Filebuf_base@_STL@@QAE_NPBDHJ@Z 00425a30 f   stlport_vc71_static:fstream.obj
 0001:00024b80       ?_M_open@_Filebuf_base@_STL@@QAE_NPBDH@Z 00425b80 f   stlport_vc71_static:fstream.obj
 0001:00024ba0       ?_M_open@_Filebuf_base@_STL@@QAE_NHH@Z 00425ba0 f   stlport_vc71_static:fstream.obj
 0001:00024c10       ?_M_close@_Filebuf_base@_STL@@QAE_NXZ 00425c10 f   stlport_vc71_static:fstream.obj
 0001:00024c70       ?_M_read@_Filebuf_base@_STL@@QAEHPADH@Z 00425c70 f   stlport_vc71_static:fstream.obj
 0001:00024d70       ?_M_seek@_Filebuf_base@_STL@@QAEJJH@Z 00425d70 f   stlport_vc71_static:fstream.obj
 0001:00024e20       ?_M_unmap@_Filebuf_base@_STL@@QAEXPAXJ@Z 00425e20 f   stlport_vc71_static:fstream.obj
 0001:00024e50       ?open@?$basic_filebuf@DV?$char_traits@D@_STL@@@_STL@@QAEPAV12@PBDHJ@Z 00425e50 f i stlport_vc71_static:fstream.obj
 0001:00024e80       ?fd@?$basic_filebuf@DV?$char_traits@D@_STL@@@_STL@@QBEPAXXZ 00425e80 f i stlport_vc71_static:fstream.obj
 0001:00024e90       ?_M_open@?$basic_filebuf@DV?$char_traits@D@_STL@@@_STL@@QAEPAV12@HH@Z 00425e90 f i stlport_vc71_static:fstream.obj
 0001:00024eb0       ?_M_do_noconv_input@?$basic_filebuf@DV?$char_traits@D@_STL@@@_STL@@QAEHXZ 00425eb0 f i stlport_vc71_static:fstream.obj
 0001:00024ee0       ?rdbuf@?$basic_ifstream@DV?$char_traits@D@_STL@@@_STL@@QBEPAV?$basic_filebuf@DV?$char_traits@D@_STL@@@2@XZ 00425ee0 f i stlport_vc71_static:fstream.obj
 0001:00024ef0       ?is_open@?$basic_ifstream@DV?$char_traits@D@_STL@@@_STL@@QAE_NXZ 00425ef0 f i stlport_vc71_static:fstream.obj
 0001:00024f00       ?rdbuf@?$basic_ofstream@DV?$char_traits@D@_STL@@@_STL@@QBEPAV?$basic_filebuf@DV?$char_traits@D@_STL@@@2@XZ 00425f00 f i stlport_vc71_static:fstream.obj
 0001:00024f10       ?is_open@?$basic_ofstream@DV?$char_traits@D@_STL@@@_STL@@QAE_NXZ 00425f10 f i stlport_vc71_static:fstream.obj
 0001:00024f20       ?is_open@?$basic_filebuf@GV?$char_traits@G@_STL@@@_STL@@QBE_NXZ 00425f20 f i stlport_vc71_static:fstream.obj
 0001:00024f30       ?open@?$basic_filebuf@GV?$char_traits@G@_STL@@@_STL@@QAEPAV12@PBDH@Z 00425f30 f i stlport_vc71_static:fstream.obj
 0001:00024f60       ?open@?$basic_filebuf@GV?$char_traits@G@_STL@@@_STL@@QAEPAV12@PBDHJ@Z 00425f60 f i stlport_vc71_static:fstream.obj
 0001:00024f90       ?fd@?$basic_filebuf@GV?$char_traits@G@_STL@@@_STL@@QBEPAXXZ 00425f90 f i stlport_vc71_static:fstream.obj
 0001:00024fa0       ?_M_open@?$basic_filebuf@GV?$char_traits@G@_STL@@@_STL@@QAEPAV12@HH@Z 00425fa0 f i stlport_vc71_static:fstream.obj
 0001:00024fc0       ?rdbuf@?$basic_ifstream@GV?$char_traits@G@_STL@@@_STL@@QBEPAV?$basic_filebuf@GV?$char_traits@G@_STL@@@2@XZ 00425fc0 f i stlport_vc71_static:fstream.obj
 0001:00024fd0       ?is_open@?$basic_ifstream@GV?$char_traits@G@_STL@@@_STL@@QAE_NXZ 00425fd0 f i stlport_vc71_static:fstream.obj
 0001:00024fe0       ??1?$basic_istream@GV?$char_traits@G@_STL@@@_STL@@UAE@XZ 00425fe0 f i stlport_vc71_static:fstream.obj
 0001:00024ff0       ?rdbuf@?$basic_ofstream@GV?$char_traits@G@_STL@@@_STL@@QBEPAV?$basic_filebuf@GV?$char_traits@G@_STL@@@2@XZ 00425ff0 f i stlport_vc71_static:fstream.obj
 0001:00025000       ?is_open@?$basic_ofstream@GV?$char_traits@G@_STL@@@_STL@@QAE_NXZ 00426000 f i stlport_vc71_static:fstream.obj
 0001:00025010       ?rdbuf@?$basic_fstream@GV?$char_traits@G@_STL@@@_STL@@QBEPAV?$basic_filebuf@GV?$char_traits@G@_STL@@@2@XZ 00426010 f i stlport_vc71_static:fstream.obj
 0001:00025020       ?is_open@?$basic_fstream@GV?$char_traits@G@_STL@@@_STL@@QAE_NXZ 00426020 f i stlport_vc71_static:fstream.obj
 0001:00025030       ?state@?$fpos@H@_STL@@QAEXH@Z 00426030 f i stlport_vc71_static:fstream.obj
 0001:00025040       ?_M_input_error@?$basic_filebuf@DV?$char_traits@D@_STL@@@_STL@@AAEHXZ 00426040 f i stlport_vc71_static:fstream.obj
 0001:00025090       ?_M_exit_input_mode@?$basic_filebuf@GV?$char_traits@G@_STL@@@_STL@@AAEXXZ 00426090 f i stlport_vc71_static:fstream.obj
 0001:000250c0       ?_M_deallocate_buffers@?$basic_filebuf@GV?$char_traits@G@_STL@@@_STL@@AAEXXZ 004260c0 f i stlport_vc71_static:fstream.obj
 0001:00025100       ??1?$basic_ostream@GV?$char_traits@G@_STL@@@_STL@@UAE@XZ 00426100 f i stlport_vc71_static:fstream.obj
 0001:00025110       ??1?$basic_iostream@GV?$char_traits@G@_STL@@@_STL@@UAE@XZ 00426110 f i stlport_vc71_static:fstream.obj
 0001:00025150       ?to_char_type@?$__char_traits_base@GG@_STL@@SAGABG@Z 00426150 f i stlport_vc71_static:fstream.obj
 0001:00025160       ?state@?$fpos@H@_STL@@QBEHXZ 00426160 f i stlport_vc71_static:fstream.obj
 0001:00025170       ??0?$_Filebuf_Tmp_Buf@D@_STL@@QAE@H@Z 00426170 f i stlport_vc71_static:fstream.obj
 0001:00025190       ?_M_doit@?$_Noconv_output@V?$char_traits@G@_STL@@@_STL@@SA_NPAV?$basic_filebuf@GV?$char_traits@G@_STL@@@2@PAG1@Z 00426190 f i stlport_vc71_static:fstream.obj
 0001:000251a0       ??0?$_Filebuf_Tmp_Buf@G@_STL@@QAE@H@Z 004261a0 f i stlport_vc71_static:fstream.obj
 0001:000251d0       ??1?$_Filebuf_Tmp_Buf@G@_STL@@QAE@XZ 004261d0 f i stlport_vc71_static:fstream.obj
 0001:000251e0       ?_M_doit@?$_Noconv_input@V?$char_traits@G@_STL@@@_STL@@SAGPAV?$basic_filebuf@GV?$char_traits@G@_STL@@@2@@Z 004261e0 f i stlport_vc71_static:fstream.obj
 0001:000251f0       ??$use_facet@V?$codecvt@GDH@_STL@@@_STL@@YAABV?$codecvt@GDH@0@ABVlocale@0@@Z 004261f0 f i stlport_vc71_static:fstream.obj
 0001:00025200       ??R?$_Eq_traits@V?$char_traits@G@_STL@@@_STL@@QBE_NABG0@Z 00426200 f i stlport_vc71_static:fstream.obj
 0001:00025220       ?_M_get_offset@_Filebuf_base@_STL@@QAEJPAD0@Z 00426220 f i stlport_vc71_static:fstream.obj
 0001:00025260       ?_M_doit@?$_Noconv_input@V?$char_traits@D@_STL@@@_STL@@SAHPAV?$basic_filebuf@DV?$char_traits@D@_STL@@@2@@Z 00426260 f i stlport_vc71_static:fstream.obj
 0001:00025290       ?_M_write@_Filebuf_base@_STL@@QAE_NPADH@Z 00426290 f   stlport_vc71_static:fstream.obj
 0001:000254a0       ?_M_mmap@_Filebuf_base@_STL@@QAEPAXJJ@Z 004264a0 f   stlport_vc71_static:fstream.obj
 0001:00025560       ?open@?$basic_filebuf@DV?$char_traits@D@_STL@@@_STL@@QAEPAV12@HH@Z 00426560 f i stlport_vc71_static:fstream.obj
 0001:00025580       ?open@?$basic_filebuf@GV?$char_traits@G@_STL@@@_STL@@QAEPAV12@HH@Z 00426580 f i stlport_vc71_static:fstream.obj
 0001:000255a0       ?_M_exit_putback_mode@?$basic_filebuf@GV?$char_traits@G@_STL@@@_STL@@AAEXXZ 004265a0 f i stlport_vc71_static:fstream.obj
 0001:000255c0       ?_M_seek_return@?$basic_filebuf@GV?$char_traits@G@_STL@@@_STL@@AAE?AV?$fpos@H@2@JH@Z 004265c0 f i stlport_vc71_static:fstream.obj
 0001:00025630       ?_M_write@?$basic_filebuf@GV?$char_traits@G@_STL@@@_STL@@QAE_NPADH@Z 00426630 f i stlport_vc71_static:fstream.obj
 0001:00025640       ?_M_do_noconv_input@?$basic_filebuf@GV?$char_traits@G@_STL@@@_STL@@QAEGXZ 00426640 f i stlport_vc71_static:fstream.obj
 0001:00025660       ??_E?$basic_istream@GV?$char_traits@G@_STL@@@_STL@@UAEPAXI@Z 00426660 f i stlport_vc71_static:fstream.obj
 0001:00025660       ??_G?$basic_istream@GV?$char_traits@G@_STL@@@_STL@@UAEPAXI@Z 00426660 f i stlport_vc71_static:fstream.obj
 0001:00025690       ?showmanyc@?$basic_filebuf@GV?$char_traits@G@_STL@@@_STL@@MAEHXZ 00426690 f i stlport_vc71_static:fstream.obj
 0001:00025740       ?pbackfail@?$basic_filebuf@GV?$char_traits@G@_STL@@@_STL@@MAEGG@Z 00426740 f i stlport_vc71_static:fstream.obj
 0001:000257f0       ?sync@?$basic_filebuf@GV?$char_traits@G@_STL@@@_STL@@MAEHXZ 004267f0 f i stlport_vc71_static:fstream.obj
 0001:00025820       ?_M_input_error@?$basic_filebuf@GV?$char_traits@G@_STL@@@_STL@@AAEGXZ 00426820 f i stlport_vc71_static:fstream.obj
 0001:00025870       ?_M_output_error@?$basic_filebuf@GV?$char_traits@G@_STL@@@_STL@@AAEGXZ 00426870 f i stlport_vc71_static:fstream.obj
 0001:00025890       ?_M_unshift@?$basic_filebuf@GV?$char_traits@G@_STL@@@_STL@@AAE_NXZ 00426890 f i stlport_vc71_static:fstream.obj
 0001:00025910       ?_M_allocate_buffers@?$basic_filebuf@GV?$char_traits@G@_STL@@@_STL@@AAE_NPAGH@Z 00426910 f i stlport_vc71_static:fstream.obj
 0001:000259f0       ?_M_seek_init@?$basic_filebuf@GV?$char_traits@G@_STL@@@_STL@@AAE_N_N@Z 004269f0 f i stlport_vc71_static:fstream.obj
 0001:00025a70       ?_M_setup_codecvt@?$basic_filebuf@GV?$char_traits@G@_STL@@@_STL@@AAEXABVlocale@2@@Z 00426a70 f i stlport_vc71_static:fstream.obj
 0001:00025ae0       ??_G?$basic_ostream@GV?$char_traits@G@_STL@@@_STL@@UAEPAXI@Z 00426ae0 f i stlport_vc71_static:fstream.obj
 0001:00025ae0       ??_E?$basic_ostream@GV?$char_traits@G@_STL@@@_STL@@UAEPAXI@Z 00426ae0 f i stlport_vc71_static:fstream.obj
 0001:00025b10       ??_E?$basic_iostream@GV?$char_traits@G@_STL@@@_STL@@UAEPAXI@Z 00426b10 f i stlport_vc71_static:fstream.obj
 0001:00025b10       ??_G?$basic_iostream@GV?$char_traits@G@_STL@@@_STL@@UAEPAXI@Z 00426b10 f i stlport_vc71_static:fstream.obj
 0001:00025b40       ?not_eof@?$__char_traits_base@DH@_STL@@SAHABH@Z 00426b40 f i stlport_vc71_static:fstream.obj
 0001:00025b60       ?not_eof@?$__char_traits_base@GG@_STL@@SAGABG@Z 00426b60 f i stlport_vc71_static:fstream.obj
 0001:00025b80       ??$equal@PADPADU?$_Eq_traits@V?$char_traits@D@_STL@@@_STL@@@_STL@@YA_NPAD00U?$_Eq_traits@V?$char_traits@D@_STL@@@0@@Z 00426b80 f i stlport_vc71_static:fstream.obj
 0001:00025bb0       ??$equal@PAGPAGU?$_Eq_traits@V?$char_traits@G@_STL@@@_STL@@@_STL@@YA_NPAG00U?$_Eq_traits@V?$char_traits@G@_STL@@@0@@Z 00426bb0 f i stlport_vc71_static:fstream.obj
 0001:00025be0       ?_M_doit@?$_Noconv_output@V?$char_traits@D@_STL@@@_STL@@SA_NPAV?$basic_filebuf@DV?$char_traits@D@_STL@@@2@PAD1@Z 00426be0 f i stlport_vc71_static:fstream.obj
 0001:00025c00       ?_M_allocate_buffers@?$basic_filebuf@DV?$char_traits@D@_STL@@@_STL@@AAE_NXZ 00426c00 f i stlport_vc71_static:fstream.obj
 0001:00025c20       ??0?$basic_filebuf@GV?$char_traits@G@_STL@@@_STL@@QAE@XZ 00426c20 f i stlport_vc71_static:fstream.obj
 0001:00025d00       ?close@?$basic_filebuf@GV?$char_traits@G@_STL@@@_STL@@QAEPAV12@XZ 00426d00 f i stlport_vc71_static:fstream.obj
 0001:00025dd0       ?setbuf@?$basic_filebuf@GV?$char_traits@G@_STL@@@_STL@@MAEPAV?$basic_streambuf@GV?$char_traits@G@_STL@@@2@PAGH@Z 00426dd0 f i stlport_vc71_static:fstream.obj
 0001:00025e30       ?seekoff@?$basic_filebuf@GV?$char_traits@G@_STL@@@_STL@@MAE?AV?$fpos@H@2@JHH@Z 00426e30 f i stlport_vc71_static:fstream.obj
 0001:000262f0       ?seekpos@?$basic_filebuf@GV?$char_traits@G@_STL@@@_STL@@MAE?AV?$fpos@H@2@V32@H@Z 004272f0 f i stlport_vc71_static:fstream.obj
 0001:00026370       ?imbue@?$basic_filebuf@GV?$char_traits@G@_STL@@@_STL@@MAEXABVlocale@2@@Z 00427370 f i stlport_vc71_static:fstream.obj
 0001:00026390       ?_M_allocate_buffers@?$basic_filebuf@GV?$char_traits@G@_STL@@@_STL@@AAE_NXZ 00427390 f i stlport_vc71_static:fstream.obj
 0001:000263b0       ??$copy@PADPAD@_STL@@YAPADPAD00@Z 004273b0 f i stlport_vc71_static:fstream.obj
 0001:000263e0       ?open@?$basic_ifstream@DV?$char_traits@D@_STL@@@_STL@@QAEXPBDH@Z 004273e0 f i stlport_vc71_static:fstream.obj
 0001:00026440       ?close@?$basic_ifstream@DV?$char_traits@D@_STL@@@_STL@@QAEXXZ 00427440 f i stlport_vc71_static:fstream.obj
 0001:00026480       ?open@?$basic_ofstream@DV?$char_traits@D@_STL@@@_STL@@QAEXPBDH@Z 00427480 f i stlport_vc71_static:fstream.obj
 0001:000264e0       ?close@?$basic_ofstream@DV?$char_traits@D@_STL@@@_STL@@QAEXXZ 004274e0 f i stlport_vc71_static:fstream.obj
 0001:00026520       ?open@?$basic_ifstream@GV?$char_traits@G@_STL@@@_STL@@QAEXPBDH@Z 00427520 f i stlport_vc71_static:fstream.obj
 0001:00026580       ?close@?$basic_ifstream@GV?$char_traits@G@_STL@@@_STL@@QAEXXZ 00427580 f i stlport_vc71_static:fstream.obj
 0001:000265c0       ?open@?$basic_ofstream@GV?$char_traits@G@_STL@@@_STL@@QAEXPBDH@Z 004275c0 f i stlport_vc71_static:fstream.obj
 0001:00026620       ?close@?$basic_ofstream@GV?$char_traits@G@_STL@@@_STL@@QAEXXZ 00427620 f i stlport_vc71_static:fstream.obj
 0001:00026660       ?open@?$basic_fstream@GV?$char_traits@G@_STL@@@_STL@@QAEXPBDH@Z 00427660 f i stlport_vc71_static:fstream.obj
 0001:000266c0       ?close@?$basic_fstream@GV?$char_traits@G@_STL@@@_STL@@QAEXXZ 004276c0 f i stlport_vc71_static:fstream.obj
 0001:00026700       ?_M_switch_to_input_mode@?$basic_filebuf@DV?$char_traits@D@_STL@@@_STL@@AAE_NXZ 00427700 f i stlport_vc71_static:fstream.obj
 0001:00026760       ?_M_underflow_aux@?$basic_filebuf@DV?$char_traits@D@_STL@@@_STL@@AAEHXZ 00427760 f i stlport_vc71_static:fstream.obj
 0001:000268f0       ??1?$basic_filebuf@GV?$char_traits@G@_STL@@@_STL@@UAE@XZ 004278f0 f i stlport_vc71_static:fstream.obj
 0001:00026970       ?_M_switch_to_input_mode@?$basic_filebuf@GV?$char_traits@G@_STL@@@_STL@@AAE_NXZ 00427970 f i stlport_vc71_static:fstream.obj
 0001:000269c0       ?_M_switch_to_output_mode@?$basic_filebuf@GV?$char_traits@G@_STL@@@_STL@@AAE_NXZ 004279c0 f i stlport_vc71_static:fstream.obj
 0001:00026a20       ?_M_underflow_aux@?$basic_filebuf@GV?$char_traits@G@_STL@@@_STL@@AAEGXZ 00427a20 f i stlport_vc71_static:fstream.obj
 0001:00026b90       ??_G?$basic_filebuf@GV?$char_traits@G@_STL@@@_STL@@UAEPAXI@Z 00427b90 f i stlport_vc71_static:fstream.obj
 0001:00026b90       ??_E?$basic_filebuf@GV?$char_traits@G@_STL@@@_STL@@UAEPAXI@Z 00427b90 f i stlport_vc71_static:fstream.obj
 0001:00026bb0       ?_M_doit@?$_Underflow@DV?$char_traits@D@_STL@@@_STL@@SAHPAV?$basic_filebuf@DV?$char_traits@D@_STL@@@2@@Z 00427bb0 f   stlport_vc71_static:fstream.obj
 0001:00026d40       ??1?$basic_ifstream@DV?$char_traits@D@_STL@@@_STL@@UAE@XZ 00427d40 f i stlport_vc71_static:fstream.obj
 0001:00026db0       ??1?$basic_ifstream@GV?$char_traits@G@_STL@@@_STL@@UAE@XZ 00427db0 f i stlport_vc71_static:fstream.obj
 0001:00026e20       ??1?$basic_ofstream@GV?$char_traits@G@_STL@@@_STL@@UAE@XZ 00427e20 f i stlport_vc71_static:fstream.obj
 0001:00026e90       ??1?$basic_fstream@GV?$char_traits@G@_STL@@@_STL@@UAE@XZ 00427e90 f i stlport_vc71_static:fstream.obj
 0001:00026f20       ??_D?$basic_ifstream@DV?$char_traits@D@_STL@@@_STL@@QAEXXZ 00427f20 f i stlport_vc71_static:fstream.obj
 0001:00026f40       ??_D?$basic_ifstream@GV?$char_traits@G@_STL@@@_STL@@QAEXXZ 00427f40 f i stlport_vc71_static:fstream.obj
 0001:00026f60       ??_D?$basic_ofstream@GV?$char_traits@G@_STL@@@_STL@@QAEXXZ 00427f60 f i stlport_vc71_static:fstream.obj
 0001:00026f80       ??_D?$basic_fstream@GV?$char_traits@G@_STL@@@_STL@@QAEXXZ 00427f80 f i stlport_vc71_static:fstream.obj
 0001:00026fa0       ?_M_doit@?$_Underflow@GV?$char_traits@G@_STL@@@_STL@@SAGPAV?$basic_filebuf@GV?$char_traits@G@_STL@@@2@@Z 00427fa0 f i stlport_vc71_static:fstream.obj
 0001:00026ff0       ?underflow@?$basic_filebuf@GV?$char_traits@G@_STL@@@_STL@@MAEGXZ 00427ff0 f i stlport_vc71_static:fstream.obj
 0001:00027040       ?overflow@?$basic_filebuf@GV?$char_traits@G@_STL@@@_STL@@MAEGG@Z 00428040 f i stlport_vc71_static:fstream.obj
 0001:00027190       ??_G?$basic_ifstream@DV?$char_traits@D@_STL@@@_STL@@UAEPAXI@Z 00428190 f i stlport_vc71_static:fstream.obj
 0001:00027190       ??_E?$basic_ifstream@DV?$char_traits@D@_STL@@@_STL@@UAEPAXI@Z 00428190 f i stlport_vc71_static:fstream.obj
 0001:000271d0       ??_G?$basic_ifstream@GV?$char_traits@G@_STL@@@_STL@@UAEPAXI@Z 004281d0 f i stlport_vc71_static:fstream.obj
 0001:000271d0       ??_E?$basic_ifstream@GV?$char_traits@G@_STL@@@_STL@@UAEPAXI@Z 004281d0 f i stlport_vc71_static:fstream.obj
 0001:00027210       ??_G?$basic_ofstream@GV?$char_traits@G@_STL@@@_STL@@UAEPAXI@Z 00428210 f i stlport_vc71_static:fstream.obj
 0001:00027210       ??_E?$basic_ofstream@GV?$char_traits@G@_STL@@@_STL@@UAEPAXI@Z 00428210 f i stlport_vc71_static:fstream.obj
 0001:00027250       ??_E?$basic_fstream@GV?$char_traits@G@_STL@@@_STL@@UAEPAXI@Z 00428250 f i stlport_vc71_static:fstream.obj
 0001:00027250       ??_G?$basic_fstream@GV?$char_traits@G@_STL@@@_STL@@UAEPAXI@Z 00428250 f i stlport_vc71_static:fstream.obj
 0001:00027290       ??0?$basic_ostream@GV?$char_traits@G@_STL@@@_STL@@QAE@PAV?$basic_streambuf@GV?$char_traits@G@_STL@@@1@@Z 00428290 f i stlport_vc71_static:fstream.obj
 0001:00027320       ??0?$basic_ofstream@DV?$char_traits@D@_STL@@@_STL@@QAE@XZ 00428320 f i stlport_vc71_static:fstream.obj
 0001:000273e0       ??0?$basic_ofstream@DV?$char_traits@D@_STL@@@_STL@@QAE@HH@Z 004283e0 f i stlport_vc71_static:fstream.obj
 0001:000274e0       ??0?$basic_ofstream@DV?$char_traits@D@_STL@@@_STL@@QAE@PBDHJ@Z 004284e0 f i stlport_vc71_static:fstream.obj
 0001:000275f0       ??0?$basic_ofstream@GV?$char_traits@G@_STL@@@_STL@@QAE@XZ 004285f0 f i stlport_vc71_static:fstream.obj
 0001:000276b0       ??0?$basic_ofstream@GV?$char_traits@G@_STL@@@_STL@@QAE@PBDH@Z 004286b0 f i stlport_vc71_static:fstream.obj
 0001:000277c0       ??0?$basic_ofstream@GV?$char_traits@G@_STL@@@_STL@@QAE@HH@Z 004287c0 f i stlport_vc71_static:fstream.obj
 0001:000278c0       ??0?$basic_ofstream@GV?$char_traits@G@_STL@@@_STL@@QAE@PBDHJ@Z 004288c0 f i stlport_vc71_static:fstream.obj
 0001:000279d0       ??0?$basic_istream@GV?$char_traits@G@_STL@@@_STL@@QAE@PAV?$basic_streambuf@GV?$char_traits@G@_STL@@@1@@Z 004289d0 f i stlport_vc71_static:fstream.obj
 0001:00027a70       ??0?$basic_iostream@GV?$char_traits@G@_STL@@@_STL@@QAE@PAV?$basic_streambuf@GV?$char_traits@G@_STL@@@1@@Z 00428a70 f i stlport_vc71_static:fstream.obj
 0001:00027b50       ??0?$basic_ifstream@DV?$char_traits@D@_STL@@@_STL@@QAE@XZ 00428b50 f i stlport_vc71_static:fstream.obj
 0001:00027c10       ??0?$basic_ifstream@DV?$char_traits@D@_STL@@@_STL@@QAE@PBDH@Z 00428c10 f i stlport_vc71_static:fstream.obj
 0001:00027d20       ??0?$basic_ifstream@DV?$char_traits@D@_STL@@@_STL@@QAE@HH@Z 00428d20 f i stlport_vc71_static:fstream.obj
 0001:00027e30       ??0?$basic_ifstream@DV?$char_traits@D@_STL@@@_STL@@QAE@PBDHJ@Z 00428e30 f i stlport_vc71_static:fstream.obj
 0001:00027f40       ??0?$basic_fstream@DV?$char_traits@D@_STL@@@_STL@@QAE@PBDH@Z 00428f40 f i stlport_vc71_static:fstream.obj
 0001:00028040       ??0?$basic_fstream@DV?$char_traits@D@_STL@@@_STL@@QAE@HH@Z 00429040 f i stlport_vc71_static:fstream.obj
 0001:00028140       ??0?$basic_fstream@DV?$char_traits@D@_STL@@@_STL@@QAE@PBDHJ@Z 00429140 f i stlport_vc71_static:fstream.obj
 0001:00028240       ??0?$basic_ifstream@GV?$char_traits@G@_STL@@@_STL@@QAE@XZ 00429240 f i stlport_vc71_static:fstream.obj
 0001:00028300       ??0?$basic_ifstream@GV?$char_traits@G@_STL@@@_STL@@QAE@PBDH@Z 00429300 f i stlport_vc71_static:fstream.obj
 0001:00028410       ??0?$basic_ifstream@GV?$char_traits@G@_STL@@@_STL@@QAE@HH@Z 00429410 f i stlport_vc71_static:fstream.obj
 0001:00028520       ??0?$basic_ifstream@GV?$char_traits@G@_STL@@@_STL@@QAE@PBDHJ@Z 00429520 f i stlport_vc71_static:fstream.obj
 0001:00028630       ??0?$basic_fstream@GV?$char_traits@G@_STL@@@_STL@@QAE@XZ 00429630 f i stlport_vc71_static:fstream.obj
 0001:000286f0       ??0?$basic_fstream@GV?$char_traits@G@_STL@@@_STL@@QAE@PBDH@Z 004296f0 f i stlport_vc71_static:fstream.obj
 0001:000287f0       ??0?$basic_fstream@GV?$char_traits@G@_STL@@@_STL@@QAE@HH@Z 004297f0 f i stlport_vc71_static:fstream.obj
 0001:000288f0       ??0?$basic_fstream@GV?$char_traits@G@_STL@@@_STL@@QAE@PBDHJ@Z 004298f0 f i stlport_vc71_static:fstream.obj
 0001:000289f0       ??0bad_alloc@std@@QAE@PBD@Z 004299f0 f i stlport_vc71_static:dll_main.obj
 0001:00028a10       ??_Ebad_alloc@std@@UAEPAXI@Z 00429a10 f i stlport_vc71_static:dll_main.obj
 0001:00028a10       ??_Gbad_alloc@std@@UAEPAXI@Z 00429a10 f i stlport_vc71_static:dll_main.obj
 0001:00028a30       ??1bad_alloc@std@@UAE@XZ   00429a30 f i stlport_vc71_static:dll_main.obj
 0001:00028a40       ?allocate@__new_alloc@_STL@@SAPAXI@Z 00429a40 f i stlport_vc71_static:dll_main.obj
 0001:00028a50       ?deallocate@__new_alloc@_STL@@SAXPAXI@Z 00429a50 f i stlport_vc71_static:dll_main.obj
 0001:00028a60       ?fill@_STL@@YAXPAD0ABD@Z   00429a60 f i stlport_vc71_static:dll_main.obj
 0001:00028a90       ?_S_minimum@_Rb_tree_node_base@_STL@@SAPAU12@PAU12@@Z 00429a90 f i stlport_vc71_static:dll_main.obj
 0001:00028ab0       ?_S_maximum@_Rb_tree_node_base@_STL@@SAPAU12@PAU12@@Z 00429ab0 f i stlport_vc71_static:dll_main.obj
 0001:00028ad0       ?what@__Named_exception@_STL@@UBEPBDXZ 00429ad0 f   stlport_vc71_static:dll_main.obj
 0001:00028af0       ??1__Named_exception@_STL@@UAE@XZ 00429af0 f   stlport_vc71_static:dll_main.obj
 0001:00028b10       ??1logic_error@_STL@@UAE@XZ 00429b10 f   stlport_vc71_static:dll_main.obj
 0001:00028b30       ??1runtime_error@_STL@@UAE@XZ 00429b30 f   stlport_vc71_static:dll_main.obj
 0001:00028b50       ??1domain_error@_STL@@UAE@XZ 00429b50 f   stlport_vc71_static:dll_main.obj
 0001:00028b70       ??1invalid_argument@_STL@@UAE@XZ 00429b70 f   stlport_vc71_static:dll_main.obj
 0001:00028b90       ??1length_error@_STL@@UAE@XZ 00429b90 f   stlport_vc71_static:dll_main.obj
 0001:00028bb0       ??1out_of_range@_STL@@UAE@XZ 00429bb0 f   stlport_vc71_static:dll_main.obj
 0001:00028bd0       ??1range_error@_STL@@UAE@XZ 00429bd0 f   stlport_vc71_static:dll_main.obj
 0001:00028bf0       ??1overflow_error@_STL@@UAE@XZ 00429bf0 f   stlport_vc71_static:dll_main.obj
 0001:00028c10       ??1underflow_error@_STL@@UAE@XZ 00429c10 f   stlport_vc71_static:dll_main.obj
 0001:00028c30       ?_M_terminate_string_aux@?$basic_string@DV?$char_traits@D@_STL@@V?$allocator@D@2@@_STL@@AAEXABU__false_type@2@@Z 00429c30 f i stlport_vc71_static:dll_main.obj
 0001:00028cb0       ?length@?$basic_string@DV?$char_traits@D@_STL@@V?$allocator@D@2@@_STL@@QBEIXZ 00429cb0 f i stlport_vc71_static:dll_main.obj
 0001:00028cd0       ?address@?$allocator@D@_STL@@QBEPADAAD@Z 00429cd0 f i stlport_vc71_static:dll_main.obj
 0001:00028ce0       ?address@?$allocator@D@_STL@@QBEPBDABD@Z 00429ce0 f i stlport_vc71_static:dll_main.obj
 0001:00028cf0       ?max_size@?$allocator@D@_STL@@QBEIXZ 00429cf0 f i stlport_vc71_static:dll_main.obj
 0001:00028d00       ?_S_round_up@?$__node_alloc@$0A@$0A@@_STL@@SAII@Z 00429d00 f i stlport_vc71_static:dll_main.obj
 0001:00028d10       ?__extra_before_chunk@?$__debug_alloc@V?$__node_alloc@$00$0A@@_STL@@@_STL@@CAIXZ 00429d10 f i stlport_vc71_static:dll_main.obj
 0001:00028d20       ?__extra_after_chunk@?$__debug_alloc@V?$__node_alloc@$00$0A@@_STL@@@_STL@@CAIXZ 00429d20 f i stlport_vc71_static:dll_main.obj
 0001:00028d30       ??0?$__debug_alloc@V?$__node_alloc@$00$0A@@_STL@@@_STL@@QAE@XZ 00429d30 f i stlport_vc71_static:dll_main.obj
 0001:00028d40       ??1?$__debug_alloc@V?$__node_alloc@$00$0A@@_STL@@@_STL@@QAE@XZ 00429d40 f i stlport_vc71_static:dll_main.obj
 0001:00028d50       ?__extra_before_chunk@?$__debug_alloc@V?$__node_alloc@$0A@$0A@@_STL@@@_STL@@CAIXZ 00429d50 f i stlport_vc71_static:dll_main.obj
 0001:00028d60       ?__extra_after_chunk@?$__debug_alloc@V?$__node_alloc@$0A@$0A@@_STL@@@_STL@@CAIXZ 00429d60 f i stlport_vc71_static:dll_main.obj
 0001:00028d70       ??0?$__debug_alloc@V?$__node_alloc@$0A@$0A@@_STL@@@_STL@@QAE@XZ 00429d70 f i stlport_vc71_static:dll_main.obj
 0001:00028d80       ??1?$__debug_alloc@V?$__node_alloc@$0A@$0A@@_STL@@@_STL@@QAE@XZ 00429d80 f i stlport_vc71_static:dll_main.obj
 0001:00028d90       ?__extra_before_chunk@?$__debug_alloc@V__new_alloc@_STL@@@_STL@@CAIXZ 00429d90 f i stlport_vc71_static:dll_main.obj
 0001:00028da0       ?__extra_after_chunk@?$__debug_alloc@V__new_alloc@_STL@@@_STL@@CAIXZ 00429da0 f i stlport_vc71_static:dll_main.obj
 0001:00028db0       ??0?$__debug_alloc@V__new_alloc@_STL@@@_STL@@QAE@XZ 00429db0 f i stlport_vc71_static:dll_main.obj
 0001:00028dc0       ??1?$__debug_alloc@V__new_alloc@_STL@@@_STL@@QAE@XZ 00429dc0 f i stlport_vc71_static:dll_main.obj
 0001:00028dd0       ?deallocate@?$__malloc_alloc@$0A@@_STL@@SAXPAXI@Z 00429dd0 f i stlport_vc71_static:dll_main.obj
 0001:00028df0       ?set_malloc_handler@?$__malloc_alloc@$0A@@_STL@@SAP6AXXZP6AXXZ@Z 00429df0 f i stlport_vc71_static:dll_main.obj
 0001:00028e10       ??0?$allocator@PAX@_STL@@QAE@XZ 00429e10 f i stlport_vc71_static:dll_main.obj
 0001:00028e20       ??0?$allocator@PAX@_STL@@QAE@ABV01@@Z 00429e20 f i stlport_vc71_static:dll_main.obj
 0001:00028e30       ??1?$allocator@PAX@_STL@@QAE@XZ 00429e30 f i stlport_vc71_static:dll_main.obj
 0001:00028e40       ?address@?$allocator@PAX@_STL@@QBEPAPAXAAPAX@Z 00429e40 f i stlport_vc71_static:dll_main.obj
 0001:00028e50       ?address@?$allocator@PAX@_STL@@QBEPBQAXABQAX@Z 00429e50 f i stlport_vc71_static:dll_main.obj
 0001:00028e60       ?max_size@?$allocator@PAX@_STL@@QBEIXZ 00429e60 f i stlport_vc71_static:dll_main.obj
 0001:00028e70       ??0?$_STLP_alloc_proxy@PAPAXPAXV?$allocator@PAX@_STL@@@_STL@@QAE@ABV?$allocator@PAX@1@PAPAX@Z 00429e70 f i stlport_vc71_static:dll_main.obj
 0001:00028e90       ?get_allocator@?$vector@PAXV?$allocator@PAX@_STL@@@_STL@@QBE?AV?$allocator@PAX@2@XZ 00429e90 f i stlport_vc71_static:dll_main.obj
 0001:00028ec0       ?begin@?$vector@PAXV?$allocator@PAX@_STL@@@_STL@@QAEPAPAXXZ 00429ec0 f i stlport_vc71_static:dll_main.obj
 0001:00028ed0       ?begin@?$vector@PAXV?$allocator@PAX@_STL@@@_STL@@QBEPBQAXXZ 00429ed0 f i stlport_vc71_static:dll_main.obj
 0001:00028ee0       ?end@?$vector@PAXV?$allocator@PAX@_STL@@@_STL@@QAEPAPAXXZ 00429ee0 f i stlport_vc71_static:dll_main.obj
 0001:00028f00       ?end@?$vector@PAXV?$allocator@PAX@_STL@@@_STL@@QBEPBQAXXZ 00429f00 f i stlport_vc71_static:dll_main.obj
 0001:00028f20       ?size@?$vector@PAXV?$allocator@PAX@_STL@@@_STL@@QBEIXZ 00429f20 f i stlport_vc71_static:dll_main.obj
 0001:00028f40       ?max_size@?$vector@PAXV?$allocator@PAX@_STL@@@_STL@@QBEIXZ 00429f40 f i stlport_vc71_static:dll_main.obj
 0001:00028f50       ?capacity@?$vector@PAXV?$allocator@PAX@_STL@@@_STL@@QBEIXZ 00429f50 f i stlport_vc71_static:dll_main.obj
 0001:00028f70       ?empty@?$vector@PAXV?$allocator@PAX@_STL@@@_STL@@QBE_NXZ 00429f70 f i stlport_vc71_static:dll_main.obj
 0001:00028f90       ??A?$vector@PAXV?$allocator@PAX@_STL@@@_STL@@QAEAAPAXI@Z 00429f90 f i stlport_vc71_static:dll_main.obj
 0001:00028fb0       ??A?$vector@PAXV?$allocator@PAX@_STL@@@_STL@@QBEABQAXI@Z 00429fb0 f i stlport_vc71_static:dll_main.obj
 0001:00028fd0       ?front@?$vector@PAXV?$allocator@PAX@_STL@@@_STL@@QAEAAPAXXZ 00429fd0 f i stlport_vc71_static:dll_main.obj
 0001:00028ff0       ?front@?$vector@PAXV?$allocator@PAX@_STL@@@_STL@@QBEABQAXXZ 00429ff0 f i stlport_vc71_static:dll_main.obj
 0001:00029010       ?back@?$vector@PAXV?$allocator@PAX@_STL@@@_STL@@QAEAAPAXXZ 0042a010 f i stlport_vc71_static:dll_main.obj
 0001:00029030       ?back@?$vector@PAXV?$allocator@PAX@_STL@@@_STL@@QBEABQAXXZ 0042a030 f i stlport_vc71_static:dll_main.obj
 0001:00029050       ?_M_set@?$vector@PAXV?$allocator@PAX@_STL@@@_STL@@IAEXPAPAX00@Z 0042a050 f i stlport_vc71_static:dll_main.obj
 0001:00029080       ??1?$_STLP_alloc_proxy@PAPAXPAXV?$allocator@PAX@_STL@@@_STL@@QAE@XZ 0042a080 f i stlport_vc71_static:dll_main.obj
 0001:00029090       ??0?$reverse_iterator@PAD@_STL@@QAE@PAD@Z 0042a090 f i stlport_vc71_static:dll_main.obj
 0001:000290b0       ??0?$reverse_iterator@PAPAX@_STL@@QAE@PAPAX@Z 0042a0b0 f i stlport_vc71_static:dll_main.obj
 0001:000290d0       ??0?$reverse_iterator@PBQAX@_STL@@QAE@PBQAX@Z 0042a0d0 f i stlport_vc71_static:dll_main.obj
 0001:000290f0       ?_Message@?$__stl_debug_engine@_N@_STL@@SAXPBDZZ 0042a0f0 f i stlport_vc71_static:dll_main.obj
 0001:00029140       ?_IndexedError@?$__stl_debug_engine@_N@_STL@@SAXHPBDH@Z 0042a140 f i stlport_vc71_static:dll_main.obj
 0001:00029170       ?_Terminate@?$__stl_debug_engine@_N@_STL@@SAXXZ 0042a170 f i stlport_vc71_static:dll_main.obj
 0001:00029180       ?_S_chunk_alloc@?$__node_alloc@$0A@$0A@@_STL@@CAPADIAAH@Z 0042a180 f i stlport_vc71_static:dll_main.obj
 0001:00029330       ?allocate@?$__debug_alloc@V__new_alloc@_STL@@@_STL@@SAPAXI@Z 0042a330 f i stlport_vc71_static:dll_main.obj
 0001:000293b0       ?deallocate@?$__debug_alloc@V__new_alloc@_STL@@@_STL@@SAXPAXI@Z 0042a3b0 f i stlport_vc71_static:dll_main.obj
 0001:00029450       ?_S_oom_malloc@?$__malloc_alloc@$0A@@_STL@@CAPAXI@Z 0042a450 f i stlport_vc71_static:dll_main.obj
 0001:000294b0       ?_M_increment@?$_Rb_global@_N@_STL@@SAPAU_Rb_tree_node_base@2@PAU32@@Z 0042a4b0 f i stlport_vc71_static:dll_main.obj
 0001:00029520       ?_M_decrement@?$_Rb_global@_N@_STL@@SAPAU_Rb_tree_node_base@2@PAU32@@Z 0042a520 f i stlport_vc71_static:dll_main.obj
 0001:000295b0       ?_Rotate_left@?$_Rb_global@_N@_STL@@SAXPAU_Rb_tree_node_base@2@AAPAU32@@Z 0042a5b0 f i stlport_vc71_static:dll_main.obj
 0001:00029640       ?_Rotate_right@?$_Rb_global@_N@_STL@@SAXPAU_Rb_tree_node_base@2@AAPAU32@@Z 0042a640 f i stlport_vc71_static:dll_main.obj
 0001:000296d0       ?_Transfer@?$_List_global@_N@_STL@@SAXPAU_List_node_base@2@00@Z 0042a6d0 f i stlport_vc71_static:dll_main.obj
 0001:00029730       ?size@?$_Sl_global@_N@_STL@@SAIPAU_Slist_node_base@2@@Z 0042a730 f i stlport_vc71_static:dll_main.obj
 0001:00029760       ?__reverse@?$_Sl_global@_N@_STL@@SAPAU_Slist_node_base@2@PAU32@@Z 0042a760 f i stlport_vc71_static:dll_main.obj
 0001:000297b0       ?__splice_after@?$_Sl_global@_N@_STL@@SAXPAU_Slist_node_base@2@00@Z 0042a7b0 f i stlport_vc71_static:dll_main.obj
 0001:00029800       ?__previous@?$_Sl_global@_N@_STL@@SAPAU_Slist_node_base@2@PAU32@PBU32@@Z 0042a800 f i stlport_vc71_static:dll_main.obj
 0001:00029830       ??$_Construct@D@_STL@@YAXPAD@Z 0042a830 f i stlport_vc71_static:dll_main.obj
 0001:00029870       ??$_Destroy@D@_STL@@YAXPAD@Z 0042a870 f i stlport_vc71_static:dll_main.obj
 0001:00029880       ??$_Construct@DD@_STL@@YAXPADABD@Z 0042a880 f i stlport_vc71_static:dll_main.obj
 0001:000298c0       ??$_Construct@PAXPAX@_STL@@YAXPAPAXABQAX@Z 0042a8c0 f i stlport_vc71_static:dll_main.obj
 0001:00029900       ??$_Destroy@PAX@_STL@@YAXPAPAX@Z 0042a900 f i stlport_vc71_static:dll_main.obj
 0001:00029910       ??$fill_n@PAPAXIPAX@_STL@@YAPAPAXPAPAXIABQAX@Z 0042a910 f i stlport_vc71_static:dll_main.obj
 0001:00029940       ??$swap@PAPAX@_STL@@YAXAAPAPAX0@Z 0042a940 f i stlport_vc71_static:dll_main.obj
 0001:00029970       ??$__copy_backward_ptrs@PAPAXPAPAX@_STL@@YAPAPAXPAPAX00ABU__true_type@0@@Z 0042a970 f i stlport_vc71_static:dll_main.obj
 0001:00029990       ??$__copy_ptrs@PAPAXPAPAX@_STL@@YAPAPAXPAPAX00ABU__true_type@0@@Z 0042a990 f i stlport_vc71_static:dll_main.obj
 0001:000299b0       ??0bad_alloc@std@@QAE@ABV01@@Z 0042a9b0 f i stlport_vc71_static:dll_main.obj
 0001:000299e0       ??0?$_STLP_alloc_proxy@PAPAXPAXV?$allocator@PAX@_STL@@@_STL@@QAE@ABV01@@Z 0042a9e0 f i stlport_vc71_static:dll_main.obj
 0001:00029a00       ??0?$_Neq_char_bound@V?$char_traits@D@_STL@@@_STL@@QAE@D@Z 0042aa00 f i stlport_vc71_static:dll_main.obj
 0001:00029a20       ??1?$_Node_Alloc_Lock@$0A@$0A@@_STL@@QAE@XZ 0042aa20 f i stlport_vc71_static:dll_main.obj
 0001:00029a40       ??$swap@_N@_STL@@YAXAA_N0@Z 0042aa40 f i stlport_vc71_static:dll_main.obj
 0001:00029a70       ??$__uninitialized_fill_n@PAPAXIPAX@_STL@@YAPAPAXPAPAXIABQAXABU__true_type@0@@Z 0042aa70 f i stlport_vc71_static:dll_main.obj
 0001:00029ab0       ?_Ret@?$_BothPtrType@PAPAXPAPAX@_STL@@SA?AU__true_type@2@XZ 0042aab0 f i stlport_vc71_static:dll_main.obj
 0001:00029ac0       ??$fill_n@I@_STL@@YAPADPADIABD@Z 0042aac0 f i stlport_vc71_static:dll_main.obj
 0001:00029af0       ??$__destroy_aux@PAPAX@_STL@@YAXPAPAX0ABU__true_type@0@@Z 0042aaf0 f i stlport_vc71_static:dll_main.obj
 0001:00029b00       ??R?$_Neq_char_bound@V?$char_traits@D@_STL@@@_STL@@QBE_NABD@Z 0042ab00 f i stlport_vc71_static:dll_main.obj
 0001:00029b30       ??$_M_move@PAD@?$basic_string@DV?$char_traits@D@_STL@@V?$allocator@D@2@@_STL@@AAEXPAD00@Z 0042ab30 f i stlport_vc71_static:dll_main.obj
 0001:00029b70       ??$_M_inside@PAD@?$basic_string@DV?$char_traits@D@_STL@@V?$allocator@D@2@@_STL@@ABE_NPAD@Z 0042ab70 f i stlport_vc71_static:dll_main.obj
 0001:00029bb0       ??$_M_copy@PAD@?$basic_string@DV?$char_traits@D@_STL@@V?$allocator@D@2@@_STL@@AAEXPAD00@Z 0042abb0 f i stlport_vc71_static:dll_main.obj
 0001:00029bf0       ??$_M_inside@PBD@?$basic_string@DV?$char_traits@D@_STL@@V?$allocator@D@2@@_STL@@ABE_NPBD@Z 0042abf0 f i stlport_vc71_static:dll_main.obj
 0001:00029c30       ??0?$reverse_iterator@PBD@_STL@@QAE@XZ 0042ac30 f i stlport_vc71_static:dll_main.obj
 0001:00029c40       ??4?$reverse_iterator@PBD@_STL@@QAEAAV01@ABV01@@Z 0042ac40 f i stlport_vc71_static:dll_main.obj
 0001:00029c70       ??$__advance@PBDH@_STL@@YAXAAPBDHABUrandom_access_iterator_tag@0@@Z 0042ac70 f i stlport_vc71_static:dll_main.obj
 0001:00029c90       ??$__advance@PADH@_STL@@YAXAAPADHABUrandom_access_iterator_tag@0@@Z 0042ac90 f i stlport_vc71_static:dll_main.obj
 0001:00029cb0       ??_Elogic_error@_STL@@UAEPAXI@Z 0042acb0 f i stlport_vc71_static:dll_main.obj
 0001:00029cb0       ??_Glogic_error@_STL@@UAEPAXI@Z 0042acb0 f i stlport_vc71_static:dll_main.obj
 0001:00029cd0       ??_Edomain_error@_STL@@UAEPAXI@Z 0042acd0 f i stlport_vc71_static:dll_main.obj
 0001:00029cd0       ??_Gdomain_error@_STL@@UAEPAXI@Z 0042acd0 f i stlport_vc71_static:dll_main.obj
 0001:00029cf0       ??_Einvalid_argument@_STL@@UAEPAXI@Z 0042acf0 f i stlport_vc71_static:dll_main.obj
 0001:00029cf0       ??_Ginvalid_argument@_STL@@UAEPAXI@Z 0042acf0 f i stlport_vc71_static:dll_main.obj
 0001:00029d10       ??_Glength_error@_STL@@UAEPAXI@Z 0042ad10 f i stlport_vc71_static:dll_main.obj
 0001:00029d10       ??_Elength_error@_STL@@UAEPAXI@Z 0042ad10 f i stlport_vc71_static:dll_main.obj
 0001:00029d30       ??_Eout_of_range@_STL@@UAEPAXI@Z 0042ad30 f i stlport_vc71_static:dll_main.obj
 0001:00029d30       ??_Gout_of_range@_STL@@UAEPAXI@Z 0042ad30 f i stlport_vc71_static:dll_main.obj
 0001:00029d50       ??_Grange_error@_STL@@UAEPAXI@Z 0042ad50 f i stlport_vc71_static:dll_main.obj
 0001:00029d50       ??_Erange_error@_STL@@UAEPAXI@Z 0042ad50 f i stlport_vc71_static:dll_main.obj
 0001:00029d70       ??_Goverflow_error@_STL@@UAEPAXI@Z 0042ad70 f i stlport_vc71_static:dll_main.obj
 0001:00029d70       ??_Eoverflow_error@_STL@@UAEPAXI@Z 0042ad70 f i stlport_vc71_static:dll_main.obj
 0001:00029d90       ??_Eunderflow_error@_STL@@UAEPAXI@Z 0042ad90 f i stlport_vc71_static:dll_main.obj
 0001:00029d90       ??_Gunderflow_error@_STL@@UAEPAXI@Z 0042ad90 f i stlport_vc71_static:dll_main.obj
 0001:00029db0       ?__get_c_string@_STL@@YAPBDABV?$basic_string@DV?$char_traits@D@_STL@@V?$allocator@D@2@@1@@Z 0042adb0 f   stlport_vc71_static:dll_main.obj
 0001:00029dd0       ??0__Named_exception@_STL@@QAE@ABV?$basic_string@DV?$char_traits@D@_STL@@V?$allocator@D@2@@1@@Z 0042add0 f   stlport_vc71_static:dll_main.obj
 0001:00029e50       ?_M_construct_null_aux@?$basic_string@DV?$char_traits@D@_STL@@V?$allocator@D@2@@_STL@@AAEXPADABU__false_type@2@@Z 0042ae50 f i stlport_vc71_static:dll_main.obj
 0001:00029e90       ?rbegin@?$basic_string@DV?$char_traits@D@_STL@@V?$allocator@D@2@@_STL@@QAE?AV?$reverse_iterator@PAD@2@XZ 0042ae90 f i stlport_vc71_static:dll_main.obj
 0001:00029ec0       ?rend@?$basic_string@DV?$char_traits@D@_STL@@V?$allocator@D@2@@_STL@@QAE?AV?$reverse_iterator@PAD@2@XZ 0042aec0 f i stlport_vc71_static:dll_main.obj
 0001:00029ef0       ?rbegin@?$basic_string@DV?$char_traits@D@_STL@@V?$allocator@D@2@@_STL@@QBE?AV?$reverse_iterator@PBD@2@XZ 0042aef0 f i stlport_vc71_static:dll_main.obj
 0001:00029f20       ?pop_back@?$basic_string@DV?$char_traits@D@_STL@@V?$allocator@D@2@@_STL@@QAEXXZ 0042af20 f i stlport_vc71_static:dll_main.obj
 0001:00029f60       ?_M_copy@?$basic_string@DV?$char_traits@D@_STL@@V?$allocator@D@2@@_STL@@AAEXPBD0PAD@Z 0042af60 f i stlport_vc71_static:dll_main.obj
 0001:00029fb0       ?_M_move@?$basic_string@DV?$char_traits@D@_STL@@V?$allocator@D@2@@_STL@@AAEXPBD0PAD@Z 0042afb0 f i stlport_vc71_static:dll_main.obj
 0001:00029ff0       ?erase@?$basic_string@DV?$char_traits@D@_STL@@V?$allocator@D@2@@_STL@@QAEPADPAD@Z 0042aff0 f i stlport_vc71_static:dll_main.obj
 0001:0002a050       ?construct@?$allocator@D@_STL@@QAEXPADABD@Z 0042b050 f i stlport_vc71_static:dll_main.obj
 0001:0002a090       ?destroy@?$allocator@D@_STL@@QAEXPAD@Z 0042b090 f i stlport_vc71_static:dll_main.obj
 0001:0002a0a0       ?allocate@?$__malloc_alloc@$0A@@_STL@@SAPAXI@Z 0042b0a0 f i stlport_vc71_static:dll_main.obj
 0001:0002a0d0       ?construct@?$allocator@PAX@_STL@@QAEXPAPAXABQAX@Z 0042b0d0 f i stlport_vc71_static:dll_main.obj
 0001:0002a110       ?destroy@?$allocator@PAX@_STL@@QAEXPAPAX@Z 0042b110 f i stlport_vc71_static:dll_main.obj
 0001:0002a120       ??0?$_Vector_base@PAXV?$allocator@PAX@_STL@@@_STL@@QAE@ABV?$allocator@PAX@1@@Z 0042b120 f i stlport_vc71_static:dll_main.obj
 0001:0002a160       ?rbegin@?$vector@PAXV?$allocator@PAX@_STL@@@_STL@@QAE?AV?$reverse_iterator@PAPAX@2@XZ 0042b160 f i stlport_vc71_static:dll_main.obj
 0001:0002a190       ?rbegin@?$vector@PAXV?$allocator@PAX@_STL@@@_STL@@QBE?AV?$reverse_iterator@PBQAX@2@XZ 0042b190 f i stlport_vc71_static:dll_main.obj
 0001:0002a1c0       ?rend@?$vector@PAXV?$allocator@PAX@_STL@@@_STL@@QAE?AV?$reverse_iterator@PAPAX@2@XZ 0042b1c0 f i stlport_vc71_static:dll_main.obj
 0001:0002a1f0       ?rend@?$vector@PAXV?$allocator@PAX@_STL@@@_STL@@QBE?AV?$reverse_iterator@PBQAX@2@XZ 0042b1f0 f i stlport_vc71_static:dll_main.obj
 0001:0002a220       ?pop_back@?$vector@PAXV?$allocator@PAX@_STL@@@_STL@@QAEXXZ 0042b220 f i stlport_vc71_static:dll_main.obj
 0001:0002a240       ?erase@?$vector@PAXV?$allocator@PAX@_STL@@@_STL@@QAEPAPAXPAPAX@Z 0042b240 f i stlport_vc71_static:dll_main.obj
 0001:0002a2a0       ?__previous@?$_Sl_global@_N@_STL@@SAPBU_Slist_node_base@2@PBU32@0@Z 0042b2a0 f i stlport_vc71_static:dll_main.obj
 0001:0002a2c0       ?_Assert@?$__stl_debug_engine@_N@_STL@@SAXPBD0H@Z 0042b2c0 f i stlport_vc71_static:dll_main.obj
 0001:0002a2f0       ?_VerboseAssert@?$__stl_debug_engine@_N@_STL@@SAXPBDH0H@Z 0042b2f0 f i stlport_vc71_static:dll_main.obj
 0001:0002a330       ?_S_refill@?$__node_alloc@$0A@$0A@@_STL@@CAPAXI@Z 0042b330 f i stlport_vc71_static:dll_main.obj
 0001:0002a3e0       ?_Rebalance@?$_Rb_global@_N@_STL@@SAXPAU_Rb_tree_node_base@2@AAPAU32@@Z 0042b3e0 f i stlport_vc71_static:dll_main.obj
 0001:0002a570       ?_Rebalance_for_erase@?$_Rb_global@_N@_STL@@SAPAU_Rb_tree_node_base@2@PAU32@AAPAU32@11@Z 0042b570 f i stlport_vc71_static:dll_main.obj
 0001:0002a9d0       ?__splice_after@?$_Sl_global@_N@_STL@@SAXPAU_Slist_node_base@2@0@Z 0042b9d0 f i stlport_vc71_static:dll_main.obj
 0001:0002aa20       ??$uninitialized_fill_n@PAPAXIPAX@_STL@@YAPAPAXPAPAXIABQAX@Z 0042ba20 f i stlport_vc71_static:dll_main.obj
 0001:0002aa70       ??$swap@V?$_STLP_alloc_proxy@PAPAXPAXV?$allocator@PAX@_STL@@@_STL@@@_STL@@YAXAAV?$_STLP_alloc_proxy@PAPAXPAXV?$allocator@PAX@_STL@@@0@0@Z 0042ba70 f i stlport_vc71_static:dll_main.obj
 0001:0002aaa0       ??$__uninitialized_fill_n@PADID@_STL@@YAPADPADIABDABU__true_type@0@@Z 0042baa0 f i stlport_vc71_static:dll_main.obj
 0001:0002aad0       ??$__destroy@PAPAXPAX@_STL@@YAXPAPAX00@Z 0042bad0 f i stlport_vc71_static:dll_main.obj
 0001:0002aae0       ??$__find_if@V?$reverse_iterator@PBD@_STL@@U?$_Eq_char_bound@V?$char_traits@D@_STL@@@2@@_STL@@YA?AV?$reverse_iterator@PBD@0@V10@0U?$_Eq_char_bound@V?$char_traits@D@_STL@@@0@ABUrandom_access_iterator_tag@0@@Z 0042bae0 f i stlport_vc71_static:dll_main.obj
 0001:0002ad00       ??$__find_if@PBDU?$_Neq_char_bound@V?$char_traits@D@_STL@@@_STL@@@_STL@@YAPBDPBD0U?$_Neq_char_bound@V?$char_traits@D@_STL@@@0@ABUrandom_access_iterator_tag@0@@Z 0042bd00 f i stlport_vc71_static:dll_main.obj
 0001:0002aea0       ??$__find_if@V?$reverse_iterator@PBD@_STL@@U?$_Neq_char_bound@V?$char_traits@D@_STL@@@2@@_STL@@YA?AV?$reverse_iterator@PBD@0@V10@0U?$_Neq_char_bound@V?$char_traits@D@_STL@@@0@ABUrandom_access_iterator_tag@0@@Z 0042bea0 f i stlport_vc71_static:dll_main.obj
 0001:0002b100       ??$__copy_aux@PAPAXPAPAX@_STL@@YAPAPAXPAPAX00ABU__true_type@0@@Z 0042c100 f i stlport_vc71_static:dll_main.obj
 0001:0002b140       ??$search@V?$reverse_iterator@PBD@_STL@@V12@U?$_Eq_traits@V?$char_traits@D@_STL@@@2@@_STL@@YA?AV?$reverse_iterator@PBD@0@V10@000U?$_Eq_traits@V?$char_traits@D@_STL@@@0@@Z 0042c140 f i stlport_vc71_static:dll_main.obj
 0001:0002b440       ??$advance@PBDH@_STL@@YAXAAPBDH@Z 0042c440 f i stlport_vc71_static:dll_main.obj
 0001:0002b460       ??$advance@PADH@_STL@@YAXAAPADH@Z 0042c460 f i stlport_vc71_static:dll_main.obj
 0001:0002b480       ??0logic_error@_STL@@QAE@ABV?$basic_string@DV?$char_traits@D@_STL@@V?$allocator@D@2@@1@@Z 0042c480 f i stlport_vc71_static:dll_main.obj
 0001:0002b4a0       ??0invalid_argument@_STL@@QAE@ABV?$basic_string@DV?$char_traits@D@_STL@@V?$allocator@D@2@@1@@Z 0042c4a0 f i stlport_vc71_static:dll_main.obj
 0001:0002b4c0       ??0length_error@_STL@@QAE@ABV?$basic_string@DV?$char_traits@D@_STL@@V?$allocator@D@2@@1@@Z 0042c4c0 f i stlport_vc71_static:dll_main.obj
 0001:0002b4e0       ??0out_of_range@_STL@@QAE@ABV?$basic_string@DV?$char_traits@D@_STL@@V?$allocator@D@2@@1@@Z 0042c4e0 f i stlport_vc71_static:dll_main.obj
 0001:0002b500       ??0range_error@_STL@@QAE@ABV?$basic_string@DV?$char_traits@D@_STL@@V?$allocator@D@2@@1@@Z 0042c500 f i stlport_vc71_static:dll_main.obj
 0001:0002b520       ??0overflow_error@_STL@@QAE@ABV?$basic_string@DV?$char_traits@D@_STL@@V?$allocator@D@2@@1@@Z 0042c520 f i stlport_vc71_static:dll_main.obj
 0001:0002b540       ?compare@?$basic_string@DV?$char_traits@D@_STL@@V?$allocator@D@2@@_STL@@QBEHABV12@@Z 0042c540 f i stlport_vc71_static:dll_main.obj
 0001:0002b580       ?compare@?$basic_string@DV?$char_traits@D@_STL@@V?$allocator@D@2@@_STL@@QBEHPBD@Z 0042c580 f i stlport_vc71_static:dll_main.obj
 0001:0002b5c0       ?swap@?$vector@PAXV?$allocator@PAX@_STL@@@_STL@@QAEXAAV12@@Z 0042c5c0 f i stlport_vc71_static:dll_main.obj
 0001:0002b630       ??$uninitialized_fill_n@PADID@_STL@@YAPADPADIABD@Z 0042c630 f i stlport_vc71_static:dll_main.obj
 0001:0002b660       ??$_Destroy@PAPAX@_STL@@YAXPAPAX0@Z 0042c660 f i stlport_vc71_static:dll_main.obj
 0001:0002b670       ??$__uninitialized_copy@PBQAXPAPAX@_STL@@YAPAPAXPBQAX0PAPAXABU__true_type@0@@Z 0042c670 f i stlport_vc71_static:dll_main.obj
 0001:0002b6b0       ??0?$_Node_Alloc_Lock@$0A@$0A@@_STL@@QAE@XZ 0042c6b0 f i stlport_vc71_static:dll_main.obj
 0001:0002b6d0       ??$search@PBDPBDU?$_Eq_traits@V?$char_traits@D@_STL@@@_STL@@@_STL@@YAPBDPBD000U?$_Eq_traits@V?$char_traits@D@_STL@@@0@@Z 0042c6d0 f i stlport_vc71_static:dll_main.obj
 0001:0002b840       ??$find_if@V?$reverse_iterator@PBD@_STL@@U?$_Eq_char_bound@V?$char_traits@D@_STL@@@2@@_STL@@YA?AV?$reverse_iterator@PBD@0@V10@0U?$_Eq_char_bound@V?$char_traits@D@_STL@@@0@@Z 0042c840 f i stlport_vc71_static:dll_main.obj
 0001:0002b880       ??$__find_first_of@V?$reverse_iterator@PBD@_STL@@PBDU?$_Eq_traits@V?$char_traits@D@_STL@@@2@@_STL@@YA?AV?$reverse_iterator@PBD@0@V10@0PBD1U?$_Eq_traits@V?$char_traits@D@_STL@@@0@@Z 0042c880 f i stlport_vc71_static:dll_main.obj
 0001:0002b920       ??$find_if@PBDU?$_Neq_char_bound@V?$char_traits@D@_STL@@@_STL@@@_STL@@YAPBDPBD0U?$_Neq_char_bound@V?$char_traits@D@_STL@@@0@@Z 0042c920 f i stlport_vc71_static:dll_main.obj
 0001:0002b950       ??$find_if@V?$reverse_iterator@PBD@_STL@@U?$_Neq_char_bound@V?$char_traits@D@_STL@@@2@@_STL@@YA?AV?$reverse_iterator@PBD@0@V10@0U?$_Neq_char_bound@V?$char_traits@D@_STL@@@0@@Z 0042c950 f i stlport_vc71_static:dll_main.obj
 0001:0002b990       ??$__uninitialized_copy@PAPAXPAPAX@_STL@@YAPAPAXPAPAX00ABU__true_type@0@@Z 0042c990 f i stlport_vc71_static:dll_main.obj
 0001:0002b9d0       ??$__find_end@PBDPBDU?$_Eq_traits@V?$char_traits@D@_STL@@@_STL@@@_STL@@YAPBDPBD000ABUbidirectional_iterator_tag@0@1U?$_Eq_traits@V?$char_traits@D@_STL@@@0@@Z 0042c9d0 f i stlport_vc71_static:dll_main.obj
 0001:0002ba60       ?erase@?$vector@PAXV?$allocator@PAX@_STL@@@_STL@@QAEPAPAXPAPAX0@Z 0042ca60 f i stlport_vc71_static:dll_main.obj
 0001:0002bab0       ?clear@?$vector@PAXV?$allocator@PAX@_STL@@@_STL@@QAEXXZ 0042cab0 f i stlport_vc71_static:dll_main.obj
 0001:0002bae0       ?find@?$basic_string@DV?$char_traits@D@_STL@@V?$allocator@D@2@@_STL@@QBEIDI@Z 0042cae0 f i stlport_vc71_static:dll_main.obj
 0001:0002bb50       ?find@?$basic_string@DV?$char_traits@D@_STL@@V?$allocator@D@2@@_STL@@QBEIPBDII@Z 0042cb50 f i stlport_vc71_static:dll_main.obj
 0001:0002bbd0       ?rfind@?$basic_string@DV?$char_traits@D@_STL@@V?$allocator@D@2@@_STL@@QBEIDI@Z 0042cbd0 f i stlport_vc71_static:dll_main.obj
 0001:0002bcc0       ?find_last_of@?$basic_string@DV?$char_traits@D@_STL@@V?$allocator@D@2@@_STL@@QBEIPBDII@Z 0042ccc0 f i stlport_vc71_static:dll_main.obj
 0001:0002bdb0       ?find_first_not_of@?$basic_string@DV?$char_traits@D@_STL@@V?$allocator@D@2@@_STL@@QBEIDI@Z 0042cdb0 f i stlport_vc71_static:dll_main.obj
 0001:0002be20       ?find_last_not_of@?$basic_string@DV?$char_traits@D@_STL@@V?$allocator@D@2@@_STL@@QBEIDI@Z 0042ce20 f i stlport_vc71_static:dll_main.obj
 0001:0002bf20       ?_M_allocate@?$__node_alloc@$0A@$0A@@_STL@@CAPAXI@Z 0042cf20 f i stlport_vc71_static:dll_main.obj
 0001:0002bfc0       ?_M_deallocate@?$__node_alloc@$0A@$0A@@_STL@@CAXPAXI@Z 0042cfc0 f i stlport_vc71_static:dll_main.obj
 0001:0002c010       ??$__uninitialized_copy@PAPAXPAPAX@_STL@@YAPAPAXPAPAX00ABU__false_type@0@@Z 0042d010 f i stlport_vc71_static:dll_main.obj
 0001:0002c0c0       ??$__uninitialized_fill_n@PAPAXIPAX@_STL@@YAPAPAXPAPAXIABQAXABU__false_type@0@@Z 0042d0c0 f i stlport_vc71_static:dll_main.obj
 0001:0002c170       ??$find_end@PBDPBDU?$_Eq_traits@V?$char_traits@D@_STL@@@_STL@@@_STL@@YAPBDPBD000U?$_Eq_traits@V?$char_traits@D@_STL@@@0@@Z 0042d170 f i stlport_vc71_static:dll_main.obj
 0001:0002c1a0       ?find@?$basic_string@DV?$char_traits@D@_STL@@V?$allocator@D@2@@_STL@@QBEIABV12@I@Z 0042d1a0 f i stlport_vc71_static:dll_main.obj
 0001:0002c1d0       ?find@?$basic_string@DV?$char_traits@D@_STL@@V?$allocator@D@2@@_STL@@QBEIPBDI@Z 0042d1d0 f i stlport_vc71_static:dll_main.obj
 0001:0002c200       ?find@?$basic_string@DV?$char_traits@D@_STL@@V?$allocator@D@2@@_STL@@QBEID@Z 0042d200 f i stlport_vc71_static:dll_main.obj
 0001:0002c220       ?find_first_of@?$basic_string@DV?$char_traits@D@_STL@@V?$allocator@D@2@@_STL@@QBEIABV12@I@Z 0042d220 f i stlport_vc71_static:dll_main.obj
 0001:0002c250       ?find_first_of@?$basic_string@DV?$char_traits@D@_STL@@V?$allocator@D@2@@_STL@@QBEIDI@Z 0042d250 f i stlport_vc71_static:dll_main.obj
 0001:0002c270       ?find_last_of@?$basic_string@DV?$char_traits@D@_STL@@V?$allocator@D@2@@_STL@@QBEIABV12@I@Z 0042d270 f i stlport_vc71_static:dll_main.obj
 0001:0002c2a0       ?find_last_of@?$basic_string@DV?$char_traits@D@_STL@@V?$allocator@D@2@@_STL@@QBEIPBDI@Z 0042d2a0 f i stlport_vc71_static:dll_main.obj
 0001:0002c2d0       ?find_last_of@?$basic_string@DV?$char_traits@D@_STL@@V?$allocator@D@2@@_STL@@QBEIDI@Z 0042d2d0 f i stlport_vc71_static:dll_main.obj
 0001:0002c2f0       ?allocate@?$__node_alloc@$0A@$0A@@_STL@@SAPAXI@Z 0042d2f0 f i stlport_vc71_static:dll_main.obj
 0001:0002c330       ?deallocate@?$__node_alloc@$0A@$0A@@_STL@@SAXPAXI@Z 0042d330 f i stlport_vc71_static:dll_main.obj
 0001:0002c360       ?allocate@?$allocator@PAX@_STL@@QAEPAPAXIPBX@Z 0042d360 f i stlport_vc71_static:dll_main.obj
 0001:0002c3c0       ?deallocate@?$allocator@PAX@_STL@@QAEXPAPAXI@Z 0042d3c0 f i stlport_vc71_static:dll_main.obj
 0001:0002c410       ?deallocate@?$allocator@PAX@_STL@@QBEXPAPAX@Z 0042d410 f i stlport_vc71_static:dll_main.obj
 0001:0002c450       ??0?$_Vector_base@PAXV?$allocator@PAX@_STL@@@_STL@@QAE@IABV?$allocator@PAX@1@@Z 0042d450 f i stlport_vc71_static:dll_main.obj
 0001:0002c520       ??1?$_Vector_base@PAXV?$allocator@PAX@_STL@@@_STL@@QAE@XZ 0042d520 f i stlport_vc71_static:dll_main.obj
 0001:0002c5c0       ??0?$vector@PAXV?$allocator@PAX@_STL@@@_STL@@QAE@ABV?$allocator@PAX@1@@Z 0042d5c0 f i stlport_vc71_static:dll_main.obj
 0001:0002c600       ??0?$vector@PAXV?$allocator@PAX@_STL@@@_STL@@QAE@IABQAXABV?$allocator@PAX@1@@Z 0042d600 f i stlport_vc71_static:dll_main.obj
 0001:0002c670       ??0?$vector@PAXV?$allocator@PAX@_STL@@@_STL@@QAE@I@Z 0042d670 f i stlport_vc71_static:dll_main.obj
 0001:0002c720       ??0?$vector@PAXV?$allocator@PAX@_STL@@@_STL@@QAE@ABV01@@Z 0042d720 f i stlport_vc71_static:dll_main.obj
 0001:0002c7f0       ??1?$vector@PAXV?$allocator@PAX@_STL@@@_STL@@QAE@XZ 0042d7f0 f i stlport_vc71_static:dll_main.obj
 0001:0002c820       ?_M_clear@?$vector@PAXV?$allocator@PAX@_STL@@@_STL@@IAEXXZ 0042d820 f i stlport_vc71_static:dll_main.obj
 0001:0002c8a0       ?rfind@?$basic_string@DV?$char_traits@D@_STL@@V?$allocator@D@2@@_STL@@QBEIPBDII@Z 0042d8a0 f i stlport_vc71_static:dll_main.obj
 0001:0002c970       ?allocate@?$__debug_alloc@V?$__node_alloc@$00$0A@@_STL@@@_STL@@SAPAXI@Z 0042d970 f i stlport_vc71_static:dll_main.obj
 0001:0002ca10       ?deallocate@?$__debug_alloc@V?$__node_alloc@$00$0A@@_STL@@@_STL@@SAXPAXI@Z 0042da10 f i stlport_vc71_static:dll_main.obj
 0001:0002cad0       ?allocate@?$__debug_alloc@V?$__node_alloc@$0A@$0A@@_STL@@@_STL@@SAPAXI@Z 0042dad0 f i stlport_vc71_static:dll_main.obj
 0001:0002cb70       ?deallocate@?$__debug_alloc@V?$__node_alloc@$0A@$0A@@_STL@@@_STL@@SAXPAXI@Z 0042db70 f i stlport_vc71_static:dll_main.obj
 0001:0002cc30       ?_M_fill_assign@?$vector@PAXV?$allocator@PAX@_STL@@@_STL@@QAEXIABQAX@Z 0042dc30 f i stlport_vc71_static:dll_main.obj
 0001:0002ce40       ??$_M_allocate_and_copy@PBQAX@?$vector@PAXV?$allocator@PAX@_STL@@@_STL@@IAEPAPAXIPBQAX0@Z 0042de40 f i stlport_vc71_static:dll_main.obj
 0001:0002cf60       ??$_M_allocate_and_copy@PAPAX@?$vector@PAXV?$allocator@PAX@_STL@@@_STL@@IAEPAPAXIPAPAX0@Z 0042df60 f i stlport_vc71_static:dll_main.obj
 0001:0002d080       ?rfind@?$basic_string@DV?$char_traits@D@_STL@@V?$allocator@D@2@@_STL@@QBEIABV12@I@Z 0042e080 f i stlport_vc71_static:dll_main.obj
 0001:0002d0b0       ?rfind@?$basic_string@DV?$char_traits@D@_STL@@V?$allocator@D@2@@_STL@@QBEIPBDI@Z 0042e0b0 f i stlport_vc71_static:dll_main.obj
 0001:0002d0e0       ?deallocate@?$allocator@D@_STL@@QBEXPAD@Z 0042e0e0 f i stlport_vc71_static:dll_main.obj
 0001:0002d120       ?_M_insert_overflow@?$vector@PAXV?$allocator@PAX@_STL@@@_STL@@IAEXPAPAXABQAXABU__false_type@2@I_N@Z 0042e120 f i stlport_vc71_static:dll_main.obj
 0001:0002d320       ?_M_insert_overflow@?$vector@PAXV?$allocator@PAX@_STL@@@_STL@@IAEXPAPAXABQAXABU__true_type@2@I_N@Z 0042e320 f i stlport_vc71_static:dll_main.obj
 0001:0002d450       ?assign@?$vector@PAXV?$allocator@PAX@_STL@@@_STL@@QAEXIABQAX@Z 0042e450 f i stlport_vc71_static:dll_main.obj
 0001:0002d470       ?push_back@?$vector@PAXV?$allocator@PAX@_STL@@@_STL@@QAEXABQAX@Z 0042e470 f i stlport_vc71_static:dll_main.obj
 0001:0002d500       ?insert@?$vector@PAXV?$allocator@PAX@_STL@@@_STL@@QAEPAPAXPAPAXABQAX@Z 0042e500 f i stlport_vc71_static:dll_main.obj
 0001:0002d660       ?push_back@?$vector@PAXV?$allocator@PAX@_STL@@@_STL@@QAEXXZ 0042e660 f i stlport_vc71_static:dll_main.obj
 0001:0002d680       ?insert@?$vector@PAXV?$allocator@PAX@_STL@@@_STL@@QAEPAPAXPAPAX@Z 0042e680 f i stlport_vc71_static:dll_main.obj
 0001:0002d6b0       ??4?$vector@PAXV?$allocator@PAX@_STL@@@_STL@@QAEAAV01@ABV01@@Z 0042e6b0 f i stlport_vc71_static:dll_main.obj
 0001:0002d850       ?reserve@?$vector@PAXV?$allocator@PAX@_STL@@@_STL@@QAEXI@Z 0042e850 f i stlport_vc71_static:dll_main.obj
 0001:0002d930       ?_M_fill_insert@?$vector@PAXV?$allocator@PAX@_STL@@@_STL@@QAEXPAPAXIABQAX@Z 0042e930 f i stlport_vc71_static:dll_main.obj
 0001:0002db70       ?find_first_not_of@?$basic_string@DV?$char_traits@D@_STL@@V?$allocator@D@2@@_STL@@QBEIABV12@I@Z 0042eb70 f i stlport_vc71_static:dll_main.obj
 0001:0002dba0       ?find_last_not_of@?$basic_string@DV?$char_traits@D@_STL@@V?$allocator@D@2@@_STL@@QBEIABV12@I@Z 0042eba0 f i stlport_vc71_static:dll_main.obj
 0001:0002dbd0       ?insert@?$vector@PAXV?$allocator@PAX@_STL@@@_STL@@QAEXPAPAXIABQAX@Z 0042ebd0 f i stlport_vc71_static:dll_main.obj
 0001:0002dc00       ?resize@?$vector@PAXV?$allocator@PAX@_STL@@@_STL@@QAEXIPAX@Z 0042ec00 f i stlport_vc71_static:dll_main.obj
 0001:0002dc80       ?resize@?$vector@PAXV?$allocator@PAX@_STL@@@_STL@@QAEXI@Z 0042ec80 f i stlport_vc71_static:dll_main.obj
 0001:0002dca0       ?insert@?$basic_string@DV?$char_traits@D@_STL@@V?$allocator@D@2@@_STL@@QAEXPADID@Z 0042eca0 f i stlport_vc71_static:dll_main.obj
 0001:0002e010       ?replace@?$basic_string@DV?$char_traits@D@_STL@@V?$allocator@D@2@@_STL@@QAEAAV12@PAD0ID@Z 0042f010 f i stlport_vc71_static:dll_main.obj
 0001:0002e090       ??$insert@PAD@?$basic_string@DV?$char_traits@D@_STL@@V?$allocator@D@2@@_STL@@AAEXPAD00ABUforward_iterator_tag@1@@Z 0042f090 f i stlport_vc71_static:dll_main.obj
 0001:0002e4d0       ??$insert@PBD@?$basic_string@DV?$char_traits@D@_STL@@V?$allocator@D@2@@_STL@@AAEXPADPBD1ABUforward_iterator_tag@1@@Z 0042f4d0 f i stlport_vc71_static:dll_main.obj
 0001:0002e8f0       ??0?$basic_string@DV?$char_traits@D@_STL@@V?$allocator@D@2@@_STL@@QAE@ABV?$allocator@D@1@@Z 0042f8f0 f i stlport_vc71_static:dll_main.obj
 0001:0002e970       ??0?$basic_string@DV?$char_traits@D@_STL@@V?$allocator@D@2@@_STL@@QAE@PBDIABV?$allocator@D@1@@Z 0042f970 f i stlport_vc71_static:dll_main.obj
 0001:0002e9f0       ??0?$basic_string@DV?$char_traits@D@_STL@@V?$allocator@D@2@@_STL@@QAE@IDABV?$allocator@D@1@@Z 0042f9f0 f i stlport_vc71_static:dll_main.obj
 0001:0002eab0       ??$_M_insert_dispatch@PAD@?$basic_string@DV?$char_traits@D@_STL@@V?$allocator@D@2@@_STL@@AAEXPAD00ABU__false_type@1@@Z 0042fab0 f i stlport_vc71_static:dll_main.obj
 0001:0002eae0       ??$_M_insert_dispatch@PBD@?$basic_string@DV?$char_traits@D@_STL@@V?$allocator@D@2@@_STL@@AAEXPADPBD1ABU__false_type@1@@Z 0042fae0 f i stlport_vc71_static:dll_main.obj
 0001:0002eb10       ?__stl_throw_range_error@_STL@@YAXPBD@Z 0042fb10 f   stlport_vc71_static:dll_main.obj
 0001:0002eba0       ??0range_error@_STL@@QAE@ABV01@@Z 0042fba0 f i stlport_vc71_static:dll_main.obj
 0001:0002ebf0       ?__stl_throw_out_of_range@_STL@@YAXPBD@Z 0042fbf0 f   stlport_vc71_static:dll_main.obj
 0001:0002ec80       ??0logic_error@_STL@@QAE@ABV01@@Z 0042fc80 f i stlport_vc71_static:dll_main.obj
 0001:0002ecd0       ??0out_of_range@_STL@@QAE@ABV01@@Z 0042fcd0 f i stlport_vc71_static:dll_main.obj
 0001:0002ed20       ?__stl_throw_length_error@_STL@@YAXPBD@Z 0042fd20 f   stlport_vc71_static:dll_main.obj
 0001:0002edb0       ??0length_error@_STL@@QAE@ABV01@@Z 0042fdb0 f i stlport_vc71_static:dll_main.obj
 0001:0002ee00       ?__stl_throw_invalid_argument@_STL@@YAXPBD@Z 0042fe00 f   stlport_vc71_static:dll_main.obj
 0001:0002ee90       ??0invalid_argument@_STL@@QAE@ABV01@@Z 0042fe90 f i stlport_vc71_static:dll_main.obj
 0001:0002eee0       ?__stl_throw_overflow_error@_STL@@YAXPBD@Z 0042fee0 f   stlport_vc71_static:dll_main.obj
 0001:0002ef70       ??0overflow_error@_STL@@QAE@ABV01@@Z 0042ff70 f i stlport_vc71_static:dll_main.obj
 0001:0002efc0       ?_M_range_check@?$vector@PAXV?$allocator@PAX@_STL@@@_STL@@IBEXI@Z 0042ffc0 f i stlport_vc71_static:dll_main.obj
 0001:0002eff0       ?at@?$vector@PAXV?$allocator@PAX@_STL@@@_STL@@QAEAAPAXI@Z 0042fff0 f i stlport_vc71_static:dll_main.obj
 0001:0002f030       ?at@?$vector@PAXV?$allocator@PAX@_STL@@@_STL@@QBEABQAXI@Z 00430030 f i stlport_vc71_static:dll_main.obj
 0001:0002f070       ?assign@?$basic_string@DV?$char_traits@D@_STL@@V?$allocator@D@2@@_STL@@QAEAAV12@ID@Z 00430070 f i stlport_vc71_static:dll_main.obj
 0001:0002f110       ??$insert@PAD@?$basic_string@DV?$char_traits@D@_STL@@V?$allocator@D@2@@_STL@@QAEXPAD00@Z 00430110 f i stlport_vc71_static:dll_main.obj
 0001:0002f140       ??$insert@PBD@?$basic_string@DV?$char_traits@D@_STL@@V?$allocator@D@2@@_STL@@QAEXPADPBD1@Z 00430140 f i stlport_vc71_static:dll_main.obj
 0001:0002f170       ??$replace@PAD@?$basic_string@DV?$char_traits@D@_STL@@V?$allocator@D@2@@_STL@@AAEAAV01@PAD000ABUforward_iterator_tag@1@@Z 00430170 f i stlport_vc71_static:dll_main.obj
 0001:0002f270       ??$replace@PBD@?$basic_string@DV?$char_traits@D@_STL@@V?$allocator@D@2@@_STL@@AAEAAV01@PAD0PBD1ABUforward_iterator_tag@1@@Z 00430270 f i stlport_vc71_static:dll_main.obj
 0001:0002f370       ??0?$basic_string@DV?$char_traits@D@_STL@@V?$allocator@D@2@@_STL@@QAE@ABV01@IIABV?$allocator@D@1@@Z 00430370 f i stlport_vc71_static:dll_main.obj
 0001:0002f450       ??4?$basic_string@DV?$char_traits@D@_STL@@V?$allocator@D@2@@_STL@@QAEAAV01@D@Z 00430450 f i stlport_vc71_static:dll_main.obj
 0001:0002f470       ?resize@?$basic_string@DV?$char_traits@D@_STL@@V?$allocator@D@2@@_STL@@QAEXID@Z 00430470 f i stlport_vc71_static:dll_main.obj
 0001:0002f4e0       ?resize@?$basic_string@DV?$char_traits@D@_STL@@V?$allocator@D@2@@_STL@@QAEXI@Z 004304e0 f i stlport_vc71_static:dll_main.obj
 0001:0002f500       ?at@?$basic_string@DV?$char_traits@D@_STL@@V?$allocator@D@2@@_STL@@QBEABDI@Z 00430500 f i stlport_vc71_static:dll_main.obj
 0001:0002f530       ?at@?$basic_string@DV?$char_traits@D@_STL@@V?$allocator@D@2@@_STL@@QAEAADI@Z 00430530 f i stlport_vc71_static:dll_main.obj
 0001:0002f560       ?insert@?$basic_string@DV?$char_traits@D@_STL@@V?$allocator@D@2@@_STL@@QAEAAV12@IABV12@@Z 00430560 f i stlport_vc71_static:dll_main.obj
 0001:0002f5f0       ?insert@?$basic_string@DV?$char_traits@D@_STL@@V?$allocator@D@2@@_STL@@QAEAAV12@IABV12@II@Z 004305f0 f i stlport_vc71_static:dll_main.obj
 0001:0002f6c0       ?insert@?$basic_string@DV?$char_traits@D@_STL@@V?$allocator@D@2@@_STL@@QAEAAV12@IPBDI@Z 004306c0 f i stlport_vc71_static:dll_main.obj
 0001:0002f740       ?insert@?$basic_string@DV?$char_traits@D@_STL@@V?$allocator@D@2@@_STL@@QAEAAV12@IPBD@Z 00430740 f i stlport_vc71_static:dll_main.obj
 0001:0002f7d0       ?insert@?$basic_string@DV?$char_traits@D@_STL@@V?$allocator@D@2@@_STL@@QAEAAV12@IID@Z 004307d0 f i stlport_vc71_static:dll_main.obj
 0001:0002f840       ?insert@?$basic_string@DV?$char_traits@D@_STL@@V?$allocator@D@2@@_STL@@QAEPADPADD@Z 00430840 f i stlport_vc71_static:dll_main.obj
 0001:0002f890       ?erase@?$basic_string@DV?$char_traits@D@_STL@@V?$allocator@D@2@@_STL@@QAEAAV12@II@Z 00430890 f i stlport_vc71_static:dll_main.obj
 0001:0002f920       ?replace@?$basic_string@DV?$char_traits@D@_STL@@V?$allocator@D@2@@_STL@@QAEAAV12@IIID@Z 00430920 f i stlport_vc71_static:dll_main.obj
 0001:0002f9e0       ?copy@?$basic_string@DV?$char_traits@D@_STL@@V?$allocator@D@2@@_STL@@QBEIPADII@Z 004309e0 f i stlport_vc71_static:dll_main.obj
 0001:0002fa80       ?compare@?$basic_string@DV?$char_traits@D@_STL@@V?$allocator@D@2@@_STL@@QBEHIIABV12@@Z 00430a80 f i stlport_vc71_static:dll_main.obj
 0001:0002fb00       ?compare@?$basic_string@DV?$char_traits@D@_STL@@V?$allocator@D@2@@_STL@@QBEHIIABV12@II@Z 00430b00 f i stlport_vc71_static:dll_main.obj
 0001:0002fbd0       ?compare@?$basic_string@DV?$char_traits@D@_STL@@V?$allocator@D@2@@_STL@@QBEHIIPBDI@Z 00430bd0 f i stlport_vc71_static:dll_main.obj
 0001:0002fc50       ??$replace@PAD@?$basic_string@DV?$char_traits@D@_STL@@V?$allocator@D@2@@_STL@@AAEAAV01@PAD000ABUrandom_access_iterator_tag@1@@Z 00430c50 f i stlport_vc71_static:dll_main.obj
 0001:0002fe50       ??$replace@PBD@?$basic_string@DV?$char_traits@D@_STL@@V?$allocator@D@2@@_STL@@AAEAAV01@PAD0PBD1ABUrandom_access_iterator_tag@1@@Z 00430e50 f i stlport_vc71_static:dll_main.obj
 0001:00030050       ??$_M_replace_dispatch@PAD@?$basic_string@DV?$char_traits@D@_STL@@V?$allocator@D@2@@_STL@@AAEAAV01@PAD000ABU__false_type@1@@Z 00431050 f i stlport_vc71_static:dll_main.obj
 0001:00030090       ??$_M_replace_dispatch@PBD@?$basic_string@DV?$char_traits@D@_STL@@V?$allocator@D@2@@_STL@@AAEAAV01@PAD0PBD1ABU__false_type@1@@Z 00431090 f i stlport_vc71_static:dll_main.obj
 0001:000300d0       ?append@?$basic_string@DV?$char_traits@D@_STL@@V?$allocator@D@2@@_STL@@QAEAAV12@ABV12@II@Z 004310d0 f i stlport_vc71_static:dll_main.obj
 0001:00030160       ?append@?$basic_string@DV?$char_traits@D@_STL@@V?$allocator@D@2@@_STL@@QAEAAV12@PBDI@Z 00431160 f i stlport_vc71_static:dll_main.obj
 0001:00030190       ??$replace@PAD@?$basic_string@DV?$char_traits@D@_STL@@V?$allocator@D@2@@_STL@@QAEAAV01@PAD000@Z 00431190 f i stlport_vc71_static:dll_main.obj
 0001:000301d0       ??$replace@PBD@?$basic_string@DV?$char_traits@D@_STL@@V?$allocator@D@2@@_STL@@QAEAAV01@PAD0PBD1@Z 004311d0 f i stlport_vc71_static:dll_main.obj
 0001:00030210       ?assign@?$basic_string@DV?$char_traits@D@_STL@@V?$allocator@D@2@@_STL@@QAEAAV12@ABV12@@Z 00431210 f i stlport_vc71_static:dll_main.obj
 0001:00030250       ?assign@?$basic_string@DV?$char_traits@D@_STL@@V?$allocator@D@2@@_STL@@QAEAAV12@ABV12@II@Z 00431250 f i stlport_vc71_static:dll_main.obj
 0001:000302e0       ?assign@?$basic_string@DV?$char_traits@D@_STL@@V?$allocator@D@2@@_STL@@QAEAAV12@PBDI@Z 004312e0 f i stlport_vc71_static:dll_main.obj
 0001:00030310       ?assign@?$basic_string@DV?$char_traits@D@_STL@@V?$allocator@D@2@@_STL@@QAEAAV12@PBD@Z 00431310 f i stlport_vc71_static:dll_main.obj
 0001:00030340       ?replace@?$basic_string@DV?$char_traits@D@_STL@@V?$allocator@D@2@@_STL@@QAEAAV12@IIABV12@@Z 00431340 f i stlport_vc71_static:dll_main.obj
 0001:00030450       ?replace@?$basic_string@DV?$char_traits@D@_STL@@V?$allocator@D@2@@_STL@@QAEAAV12@IIABV12@II@Z 00431450 f i stlport_vc71_static:dll_main.obj
 0001:000305b0       ?replace@?$basic_string@DV?$char_traits@D@_STL@@V?$allocator@D@2@@_STL@@QAEAAV12@IIPBDI@Z 004315b0 f i stlport_vc71_static:dll_main.obj
 0001:000306b0       ?replace@?$basic_string@DV?$char_traits@D@_STL@@V?$allocator@D@2@@_STL@@QAEAAV12@IIPBD@Z 004316b0 f i stlport_vc71_static:dll_main.obj
 0001:000307d0       ?replace@?$basic_string@DV?$char_traits@D@_STL@@V?$allocator@D@2@@_STL@@QAEAAV12@PAD0ABV12@@Z 004317d0 f i stlport_vc71_static:dll_main.obj
 0001:00030830       ?replace@?$basic_string@DV?$char_traits@D@_STL@@V?$allocator@D@2@@_STL@@QAEAAV12@PAD0PBDI@Z 00431830 f i stlport_vc71_static:dll_main.obj
 0001:00030870       ?replace@?$basic_string@DV?$char_traits@D@_STL@@V?$allocator@D@2@@_STL@@QAEAAV12@PAD0PBD@Z 00431870 f i stlport_vc71_static:dll_main.obj
 0001:000308d0       ?setf@ios_base@_STL@@QAEHH@Z 004318d0 f i stlport_vc71_static:iostream.obj
 0001:000308f0       ?_FILE_fd@_STL@@YAHPBU_iobuf@@@Z 004318f0 f i stlport_vc71_static:iostream.obj
 0001:00030900       ??0stdio_istreambuf@_SgI@@QAE@PAU_iobuf@@@Z 00431900 f i stlport_vc71_static:iostream.obj
 0001:00030920       ??_Estdio_istreambuf@_SgI@@UAEPAXI@Z 00431920 f i stlport_vc71_static:iostream.obj
 0001:00030920       ??_Gstdio_istreambuf@_SgI@@UAEPAXI@Z 00431920 f i stlport_vc71_static:iostream.obj
 0001:00030940       ??0stdio_ostreambuf@_SgI@@QAE@PAU_iobuf@@@Z 00431940 f i stlport_vc71_static:iostream.obj
 0001:00030960       ??_Gstdio_ostreambuf@_SgI@@UAEPAXI@Z 00431960 f i stlport_vc71_static:iostream.obj
 0001:00030960       ??_Estdio_ostreambuf@_SgI@@UAEPAXI@Z 00431960 f i stlport_vc71_static:iostream.obj
 0001:00030980       ??$_Destroy@V?$basic_istream@DV?$char_traits@D@_STL@@@_STL@@@_STL@@YAXPAV?$basic_istream@DV?$char_traits@D@_STL@@@0@@Z 00431980 f i stlport_vc71_static:iostream.obj
 0001:000309a0       ??$_Destroy@V?$basic_ostream@DV?$char_traits@D@_STL@@@_STL@@@_STL@@YAXPAV?$basic_ostream@DV?$char_traits@D@_STL@@@0@@Z 004319a0 f i stlport_vc71_static:iostream.obj
 0001:000309c0       ??$_Destroy@V?$basic_istream@GV?$char_traits@G@_STL@@@_STL@@@_STL@@YAXPAV?$basic_istream@GV?$char_traits@G@_STL@@@0@@Z 004319c0 f i stlport_vc71_static:iostream.obj
 0001:000309e0       ??$_Destroy@V?$basic_ostream@GV?$char_traits@G@_STL@@@_STL@@@_STL@@YAXPAV?$basic_ostream@GV?$char_traits@G@_STL@@@0@@Z 004319e0 f i stlport_vc71_static:iostream.obj
 0001:00030a00       ??_D?$basic_istream@DV?$char_traits@D@_STL@@@_STL@@QAEXXZ 00431a00 f i stlport_vc71_static:iostream.obj
 0001:00030a20       ??_D?$basic_ostream@DV?$char_traits@D@_STL@@@_STL@@QAEXXZ 00431a20 f i stlport_vc71_static:iostream.obj
 0001:00030a40       ??_D?$basic_istream@GV?$char_traits@G@_STL@@@_STL@@QAEXXZ 00431a40 f i stlport_vc71_static:iostream.obj
 0001:00030a60       ??_D?$basic_ostream@GV?$char_traits@G@_STL@@@_STL@@QAEXXZ 00431a60 f i stlport_vc71_static:iostream.obj
 0001:00030a80       ?_Stl_create_filebuf@_STL@@YAPAV?$basic_filebuf@DV?$char_traits@D@_STL@@@1@PAU_iobuf@@H@Z 00431a80 f   stlport_vc71_static:iostream.obj
 0001:00030b30       ?_Stl_create_wfilebuf@_STL@@YAPAV?$basic_filebuf@GV?$char_traits@G@_STL@@@1@PAU_iobuf@@H@Z 00431b30 f   stlport_vc71_static:iostream.obj
 0001:00030be0       ?_S_uninitialize@ios_base@_STL@@KAXXZ 00431be0 f   stlport_vc71_static:iostream.obj
 0001:00030f60       ?sync_with_stdio@ios_base@_STL@@SA_N_N@Z 00431f60 f   stlport_vc71_static:iostream.obj
 0001:00031240       ??1Init@ios_base@_STL@@QAE@XZ 00432240 f   stlport_vc71_static:iostream.obj
 0001:00031250       ?_S_initialize@ios_base@_STL@@KAXXZ 00432250 f   stlport_vc71_static:iostream.obj
 0001:000315c0       ??0Init@ios_base@_STL@@QAE@XZ 004325c0 f   stlport_vc71_static:iostream.obj
 0001:000315d0       ?classic_table@?$ctype@D@_STL@@KAPBW4mask@ctype_base@2@XZ 004325d0 f i stlport_vc71_static:ctype.obj
 0001:000315e0       ??0_Ctype_is_mask@_STL@@QAE@W4mask@ctype_base@1@PBW4231@@Z 004325e0 f i stlport_vc71_static:ctype.obj
 0001:00031600       ??R_Ctype_is_mask@_STL@@QBE_ND@Z 00432600 f i stlport_vc71_static:ctype.obj
 0001:00031620       ??0_Ctype_not_mask@_STL@@QAE@W4mask@ctype_base@1@PBW4231@@Z 00432620 f i stlport_vc71_static:ctype.obj
 0001:00031640       ??R_Ctype_not_mask@_STL@@QBE_ND@Z 00432640 f i stlport_vc71_static:ctype.obj
 0001:00031660       ??0?$ctype@D@_STL@@QAE@PBW4mask@ctype_base@1@_NI@Z 00432660 f   stlport_vc71_static:ctype.obj
 0001:000316b0       ??1?$ctype@D@_STL@@MAE@XZ  004326b0 f   stlport_vc71_static:ctype.obj
 0001:000316e0       ?do_toupper@?$ctype@D@_STL@@MBEDD@Z 004326e0 f   stlport_vc71_static:ctype.obj
 0001:000316f0       ?do_tolower@?$ctype@D@_STL@@MBEDD@Z 004326f0 f   stlport_vc71_static:ctype.obj
 0001:00031700       ?do_toupper@?$ctype@D@_STL@@MBEPBDPADPBD@Z 00432700 f   stlport_vc71_static:ctype.obj
 0001:00031730       ?do_tolower@?$ctype@D@_STL@@MBEPBDPADPBD@Z 00432730 f   stlport_vc71_static:ctype.obj
 0001:00031760       ?do_widen@?$ctype@D@_STL@@MBEDD@Z 00432760 f   stlport_vc71_static:ctype.obj
 0001:00031770       ?do_widen@?$ctype@D@_STL@@MBEPBDPBD0PAD@Z 00432770 f   stlport_vc71_static:ctype.obj
 0001:000317a0       ?do_narrow@?$ctype@D@_STL@@MBEDDD@Z 004327a0 f   stlport_vc71_static:ctype.obj
 0001:000317b0       ?do_narrow@?$ctype@D@_STL@@MBEPBDPBD0DPAD@Z 004327b0 f   stlport_vc71_static:ctype.obj
 0001:000317e0       ??0_Ctype_w_is_mask@_STL@@QAE@W4mask@ctype_base@1@PBW4231@@Z 004327e0 f i stlport_vc71_static:ctype.obj
 0001:00031800       ??R_Ctype_w_is_mask@_STL@@QBE_NG@Z 00432800 f i stlport_vc71_static:ctype.obj
 0001:00031830       ??1?$ctype@G@_STL@@MAE@XZ  00432830 f   stlport_vc71_static:ctype.obj
 0001:00031840       ?do_is@?$ctype@G@_STL@@MBE_NW4mask@ctype_base@2@G@Z 00432840 f   stlport_vc71_static:ctype.obj
 0001:00031870       ?do_is@?$ctype@G@_STL@@MBEPBGPBG0PAW4mask@ctype_base@2@@Z 00432870 f   stlport_vc71_static:ctype.obj
 0001:000318b0       ?do_toupper@?$ctype@G@_STL@@MBEGG@Z 004328b0 f   stlport_vc71_static:ctype.obj
 0001:000318d0       ?do_toupper@?$ctype@G@_STL@@MBEPBGPAGPBG@Z 004328d0 f   stlport_vc71_static:ctype.obj
 0001:00031910       ?do_tolower@?$ctype@G@_STL@@MBEGG@Z 00432910 f   stlport_vc71_static:ctype.obj
 0001:00031930       ?do_tolower@?$ctype@G@_STL@@MBEPBGPAGPBG@Z 00432930 f   stlport_vc71_static:ctype.obj
 0001:00031970       ?do_widen@?$ctype@G@_STL@@MBEGD@Z 00432970 f   stlport_vc71_static:ctype.obj
 0001:00031980       ?do_widen@?$ctype@G@_STL@@MBEPBDPBD0PAG@Z 00432980 f   stlport_vc71_static:ctype.obj
 0001:000319b0       ?do_narrow@?$ctype@G@_STL@@MBEDGD@Z 004329b0 f   stlport_vc71_static:ctype.obj
 0001:000319d0       ?do_narrow@?$ctype@G@_STL@@MBEPBGPBG0DPAD@Z 004329d0 f   stlport_vc71_static:ctype.obj
 0001:00031a10       ??0?$unary_negate@U_Ctype_w_is_mask@_STL@@@_STL@@QAE@ABU_Ctype_w_is_mask@1@@Z 00432a10 f i stlport_vc71_static:ctype.obj
 0001:00031a30       ??$__find_if@PBDU_Ctype_is_mask@_STL@@@_STL@@YAPBDPBD0U_Ctype_is_mask@0@ABUrandom_access_iterator_tag@0@@Z 00432a30 f i stlport_vc71_static:ctype.obj
 0001:00031ab0       ??$__find_if@PBDU_Ctype_not_mask@_STL@@@_STL@@YAPBDPBD0U_Ctype_not_mask@0@ABUrandom_access_iterator_tag@0@@Z 00432ab0 f i stlport_vc71_static:ctype.obj
 0001:00031b30       ??$__find_if@PBGU_Ctype_w_is_mask@_STL@@@_STL@@YAPBGPBG0U_Ctype_w_is_mask@0@ABUrandom_access_iterator_tag@0@@Z 00432b30 f i stlport_vc71_static:ctype.obj
 0001:00031c10       ??R?$unary_negate@U_Ctype_w_is_mask@_STL@@@_STL@@QBE_NABG@Z 00432c10 f i stlport_vc71_static:ctype.obj
 0001:00031c50       ??_G?$ctype@D@_STL@@MAEPAXI@Z 00432c50 f i stlport_vc71_static:ctype.obj
 0001:00031c50       ??_E?$ctype@D@_STL@@MAEPAXI@Z 00432c50 f i stlport_vc71_static:ctype.obj
 0001:00031c70       ??$find_if@PBDU_Ctype_is_mask@_STL@@@_STL@@YAPBDPBD0U_Ctype_is_mask@0@@Z 00432c70 f i stlport_vc71_static:ctype.obj
 0001:00031ca0       ??$find_if@PBDU_Ctype_not_mask@_STL@@@_STL@@YAPBDPBD0U_Ctype_not_mask@0@@Z 00432ca0 f i stlport_vc71_static:ctype.obj
 0001:00031cd0       ??$find_if@PBGU_Ctype_w_is_mask@_STL@@@_STL@@YAPBGPBG0U_Ctype_w_is_mask@0@@Z 00432cd0 f i stlport_vc71_static:ctype.obj
 0001:00031d00       ??$not1@U_Ctype_w_is_mask@_STL@@@_STL@@YA?AV?$unary_negate@U_Ctype_w_is_mask@_STL@@@0@ABU_Ctype_w_is_mask@0@@Z 00432d00 f i stlport_vc71_static:ctype.obj
 0001:00031d20       ??$__find_if@PBGV?$unary_negate@U_Ctype_w_is_mask@_STL@@@_STL@@@_STL@@YAPBGPBG0V?$unary_negate@U_Ctype_w_is_mask@_STL@@@0@ABUrandom_access_iterator_tag@0@@Z 00432d20 f i stlport_vc71_static:ctype.obj
 0001:00031e00       ?scan_is@?$ctype@D@_STL@@QBEPBDW4mask@ctype_base@2@PBD1@Z 00432e00 f   stlport_vc71_static:ctype.obj
 0001:00031e30       ?scan_not@?$ctype@D@_STL@@QBEPBDW4mask@ctype_base@2@PBD1@Z 00432e30 f   stlport_vc71_static:ctype.obj
 0001:00031e60       ?do_scan_is@?$ctype@G@_STL@@MBEPBGW4mask@ctype_base@2@PBG1@Z 00432e60 f   stlport_vc71_static:ctype.obj
 0001:00031e90       ??$find_if@PBGV?$unary_negate@U_Ctype_w_is_mask@_STL@@@_STL@@@_STL@@YAPBGPBG0V?$unary_negate@U_Ctype_w_is_mask@_STL@@@0@@Z 00432e90 f i stlport_vc71_static:ctype.obj
 0001:00031ec0       ?do_scan_not@?$ctype@G@_STL@@MBEPBGW4mask@ctype_base@2@PBG1@Z 00432ec0 f   stlport_vc71_static:ctype.obj
 0001:00031ef0       ??1?$codecvt@DDH@_STL@@MAE@XZ 00432ef0 f   stlport_vc71_static:codecvt.obj
 0001:00031f00       ?do_max_length@?$codecvt@DDH@_STL@@MBEHXZ 00432f00 f   stlport_vc71_static:codecvt.obj
 0001:00031f10       ?do_always_noconv@?$codecvt@DDH@_STL@@MBE_NXZ 00432f10 f   stlport_vc71_static:codecvt.obj
 0001:00031f20       ?do_encoding@?$codecvt@DDH@_STL@@MBEHXZ 00432f20 f   stlport_vc71_static:codecvt.obj
 0001:00031f30       ?do_unshift@?$codecvt@DDH@_STL@@MBE?AW4result@codecvt_base@2@AAHPAD1AAPAD@Z 00432f30 f   stlport_vc71_static:codecvt.obj
 0001:00031f50       ?do_in@?$codecvt@DDH@_STL@@MBE?AW4result@codecvt_base@2@AAHPBD1AAPBDPAD3AAPAD@Z 00432f50 f   stlport_vc71_static:codecvt.obj
 0001:00031f70       ?do_out@?$codecvt@DDH@_STL@@MBE?AW4result@codecvt_base@2@AAHPBD1AAPBDPAD3AAPAD@Z 00432f70 f   stlport_vc71_static:codecvt.obj
 0001:00031f90       ??1?$codecvt@GDH@_STL@@MAE@XZ 00432f90 f   stlport_vc71_static:codecvt.obj
 0001:00031fa0       ?do_unshift@?$codecvt@GDH@_STL@@MBE?AW4result@codecvt_base@2@AAHPAD1AAPAD@Z 00432fa0 f   stlport_vc71_static:codecvt.obj
 0001:00031fc0       ?do_encoding@?$codecvt@GDH@_STL@@MBEHXZ 00432fc0 f   stlport_vc71_static:codecvt.obj
 0001:00031fd0       ?do_always_noconv@?$codecvt@GDH@_STL@@MBE_NXZ 00432fd0 f   stlport_vc71_static:codecvt.obj
 0001:00031fe0       ?do_max_length@?$codecvt@GDH@_STL@@MBEHXZ 00432fe0 f   stlport_vc71_static:codecvt.obj
 0001:00031ff0       ?_Ret@?$_BothPtrType@PBGPAD@_STL@@SA?AU__true_type@2@XZ 00432ff0 f i stlport_vc71_static:codecvt.obj
 0001:00032000       ?_Ret@?$_BothPtrType@PBDPAG@_STL@@SA?AU__true_type@2@XZ 00433000 f i stlport_vc71_static:codecvt.obj
 0001:00032010       ?_Ret@?$_OKToMemCpy@GD@_STL@@SA?AU__false_type@2@XZ 00433010 f i stlport_vc71_static:codecvt.obj
 0001:00032020       ?_Ret@?$_OKToMemCpy@DG@_STL@@SA?AU__false_type@2@XZ 00433020 f i stlport_vc71_static:codecvt.obj
 0001:00032030       ??$_IsOKToMemCpy@GD@_STL@@YA?AU?$_OKToMemCpy@GD@0@PAGPAD@Z 00433030 f i stlport_vc71_static:codecvt.obj
 0001:00032040       ??$_IsOKToMemCpy@DG@_STL@@YA?AU?$_OKToMemCpy@DG@0@PADPAG@Z 00433040 f i stlport_vc71_static:codecvt.obj
 0001:00032050       ??$__copy@PBGPADH@_STL@@YAPADPBG0PADABUrandom_access_iterator_tag@0@PAH@Z 00433050 f i stlport_vc71_static:codecvt.obj
 0001:00032080       ??$__copy@PBDPAGH@_STL@@YAPAGPBD0PAGABUrandom_access_iterator_tag@0@PAH@Z 00433080 f i stlport_vc71_static:codecvt.obj
 0001:000320b0       ?do_length@?$codecvt@DDH@_STL@@MBEHABHPBD1I@Z 004330b0 f   stlport_vc71_static:codecvt.obj
 0001:000320e0       ?do_length@?$codecvt@GDH@_STL@@MBEHABHPBD1I@Z 004330e0 f   stlport_vc71_static:codecvt.obj
 0001:00032110       ??$__copy_ptrs@PBGPAD@_STL@@YAPADPBG0PADABU__false_type@0@@Z 00433110 f i stlport_vc71_static:codecvt.obj
 0001:00032140       ??$__copy_ptrs@PBDPAG@_STL@@YAPAGPBD0PAGABU__false_type@0@@Z 00433140 f i stlport_vc71_static:codecvt.obj
 0001:00032170       ??$__copy_aux@PBGPAD@_STL@@YAPADPBG0PADABU__true_type@0@@Z 00433170 f i stlport_vc71_static:codecvt.obj
 0001:000321a0       ??$__copy_aux@PBDPAG@_STL@@YAPAGPBD0PAGABU__true_type@0@@Z 004331a0 f i stlport_vc71_static:codecvt.obj
 0001:000321d0       ??$copy@PBGPAD@_STL@@YAPADPBG0PAD@Z 004331d0 f i stlport_vc71_static:codecvt.obj
 0001:00032200       ??$copy@PBDPAG@_STL@@YAPAGPBD0PAG@Z 00433200 f i stlport_vc71_static:codecvt.obj
 0001:00032230       ?do_out@?$codecvt@GDH@_STL@@MBE?AW4result@codecvt_base@2@AAHPBG1AAPBGPAD3AAPAD@Z 00433230 f   stlport_vc71_static:codecvt.obj
 0001:000322a0       ?do_in@?$codecvt@GDH@_STL@@MBE?AW4result@codecvt_base@2@AAHPBD1AAPBDPAG3AAPAG@Z 004332a0 f   stlport_vc71_static:codecvt.obj
 0001:00032310       ?_Destroy@_STL@@YAXPAG0@Z  00433310 f i stlport_vc71_static:collate.obj
 0001:00032320       ?uninitialized_copy@_STL@@YAPAGPBG0PAG@Z 00433320 f i stlport_vc71_static:collate.obj
 0001:00032350       ??1?$collate@D@_STL@@MAE@XZ 00433350 f   stlport_vc71_static:collate.obj
 0001:00032360       ?do_hash@?$collate@D@_STL@@MBEJPBD0@Z 00433360 f   stlport_vc71_static:collate.obj
 0001:00032390       ??1?$collate@G@_STL@@MAE@XZ 00433390 f   stlport_vc71_static:collate.obj
 0001:000323a0       ?do_hash@?$collate@G@_STL@@MBEJPBG0@Z 004333a0 f   stlport_vc71_static:collate.obj
 0001:000323d0       ??0?$allocator@G@_STL@@QAE@XZ 004333d0 f i stlport_vc71_static:collate.obj
 0001:000323e0       ??1?$_STLP_alloc_proxy@PAGGV?$allocator@G@_STL@@@_STL@@QAE@XZ 004333e0 f i stlport_vc71_static:collate.obj
 0001:000323f0       ??$__lexicographical_compare_3way@PBDPBD@_STL@@YAHPBD000@Z 004333f0 f i stlport_vc71_static:collate.obj
 0001:00032440       ??$__lexicographical_compare_3way@PBGPBG@_STL@@YAHPBG000@Z 00433440 f i stlport_vc71_static:collate.obj
 0001:000324a0       ??0?$allocator@G@_STL@@QAE@ABV01@@Z 004334a0 f i stlport_vc71_static:collate.obj
 0001:000324b0       ?_M_terminate_string_aux@?$basic_string@GV?$char_traits@G@_STL@@V?$allocator@G@2@@_STL@@AAEXABU__true_type@2@@Z 004334b0 f i stlport_vc71_static:collate.obj
 0001:000324c0       ?max_size@?$_String_base@GV?$allocator@G@_STL@@@_STL@@QBEIXZ 004334c0 f i stlport_vc71_static:collate.obj
 0001:000324d0       ??$__distance@PBG@_STL@@YAHABQBG0ABUrandom_access_iterator_tag@0@@Z 004334d0 f i stlport_vc71_static:collate.obj
 0001:000324e0       ?_M_throw_length_error@?$_String_base@GV?$allocator@G@_STL@@@_STL@@QBEXXZ 004334e0 f i stlport_vc71_static:collate.obj
 0001:000324f0       ?do_compare@?$collate@D@_STL@@MBEHPBD000@Z 004334f0 f   stlport_vc71_static:collate.obj
 0001:00032510       ?do_compare@?$collate@G@_STL@@MBEHPBG000@Z 00433510 f   stlport_vc71_static:collate.obj
 0001:00032530       ??0?$_STLP_alloc_proxy@PAGGV?$allocator@G@_STL@@@_STL@@QAE@ABV?$allocator@G@1@PAG@Z 00433530 f i stlport_vc71_static:collate.obj
 0001:00032540       ?_M_terminate_string@?$basic_string@GV?$char_traits@G@_STL@@V?$allocator@G@2@@_STL@@AAEXXZ 00433540 f i stlport_vc71_static:collate.obj
 0001:00032550       ??$distance@PBG@_STL@@YAHABQBG0@Z 00433550 f i stlport_vc71_static:collate.obj
 0001:00032560       ?allocate@?$allocator@G@_STL@@QAEPAGIPBX@Z 00433560 f i stlport_vc71_static:collate.obj
 0001:00032590       ?deallocate@?$allocator@G@_STL@@QAEXPAGI@Z 00433590 f i stlport_vc71_static:collate.obj
 0001:000325c0       ??$_M_range_initialize@PBG@?$basic_string@GV?$char_traits@G@_STL@@V?$allocator@G@2@@_STL@@AAEXPBG0@Z 004335c0 f i stlport_vc71_static:collate.obj
 0001:00032600       ??$_M_initialize_dispatch@PBD@?$basic_string@DV?$char_traits@D@_STL@@V?$allocator@D@2@@_STL@@AAEXPBD0ABU__false_type@1@@Z 00433600 f i stlport_vc71_static:collate.obj
 0001:00032640       ??$_M_initialize_dispatch@PBG@?$basic_string@GV?$char_traits@G@_STL@@V?$allocator@G@2@@_STL@@AAEXPBG0ABU__false_type@1@@Z 00433640 f i stlport_vc71_static:collate.obj
 0001:00032680       ??$?0PBD@?$basic_string@DV?$char_traits@D@_STL@@V?$allocator@D@2@@_STL@@QAE@PBD0ABV?$allocator@D@1@@Z 00433680 f i stlport_vc71_static:collate.obj
 0001:00032700       ??$?0PBG@?$basic_string@GV?$char_traits@G@_STL@@V?$allocator@G@2@@_STL@@QAE@PBG0ABV?$allocator@G@1@@Z 00433700 f i stlport_vc71_static:collate.obj
 0001:00032780       ?do_transform@?$collate@D@_STL@@MBE?AV?$basic_string@DV?$char_traits@D@_STL@@V?$allocator@D@2@@2@PBD0@Z 00433780 f   stlport_vc71_static:collate.obj
 0001:000327b0       ?do_transform@?$collate@G@_STL@@MBE?AV?$basic_string@GV?$char_traits@G@_STL@@V?$allocator@G@2@@2@PBG0@Z 004337b0 f   stlport_vc71_static:collate.obj
 0001:000327e0       ?do_decimal_point@?$numpunct@D@_STL@@MBEDXZ 004337e0 f   stlport_vc71_static:numpunct.obj
 0001:000327f0       ?do_thousands_sep@?$numpunct@D@_STL@@MBEDXZ 004337f0 f   stlport_vc71_static:numpunct.obj
 0001:00032800       ??1?$numpunct@D@_STL@@MAE@XZ 00433800 f   stlport_vc71_static:numpunct.obj
 0001:00032810       ??1?$numpunct@G@_STL@@MAE@XZ 00433810 f   stlport_vc71_static:numpunct.obj
 0001:00032820       ?do_decimal_point@?$numpunct@G@_STL@@MBEGXZ 00433820 f   stlport_vc71_static:numpunct.obj
 0001:00032830       ?do_thousands_sep@?$numpunct@G@_STL@@MBEGXZ 00433830 f   stlport_vc71_static:numpunct.obj
 0001:00032840       ??$__distance@PAG@_STL@@YAHABQAG0ABUrandom_access_iterator_tag@0@@Z 00433840 f i stlport_vc71_static:numpunct.obj
 0001:00032850       ?_Ret@?$_BothPtrType@PAGPAG@_STL@@SA?AU__true_type@2@XZ 00433850 f i stlport_vc71_static:numpunct.obj
 0001:00032860       ?_Ret@?$_OKToMemCpy@GG@_STL@@SA?AU__true_type@2@XZ 00433860 f i stlport_vc71_static:numpunct.obj
 0001:00032870       ??$_IsOKToMemCpy@GG@_STL@@YA?AU?$_OKToMemCpy@GG@0@PAG0@Z 00433870 f i stlport_vc71_static:numpunct.obj
 0001:00032880       ??$__copy_ptrs@PAGPAG@_STL@@YAPAGPAG00ABU__true_type@0@@Z 00433880 f i stlport_vc71_static:numpunct.obj
 0001:000328b0       ?length@?$__char_traits_base@GG@_STL@@SAIPBG@Z 004338b0 f i stlport_vc71_static:numpunct.obj
 0001:000328d0       ??$distance@PAG@_STL@@YAHABQAG0@Z 004338d0 f i stlport_vc71_static:numpunct.obj
 0001:000328e0       ??$__copy_aux@PAGPAG@_STL@@YAPAGPAG00ABU__true_type@0@@Z 004338e0 f i stlport_vc71_static:numpunct.obj
 0001:00032910       ??$__uninitialized_copy@PAGPAG@_STL@@YAPAGPAG00ABU__true_type@0@@Z 00433910 f i stlport_vc71_static:numpunct.obj
 0001:00032940       ??$_M_range_initialize@PAG@?$basic_string@GV?$char_traits@G@_STL@@V?$allocator@G@2@@_STL@@AAEXPAG0@Z 00433940 f i stlport_vc71_static:numpunct.obj
 0001:00032980       ?do_grouping@?$numpunct@D@_STL@@MBE?AV?$basic_string@DV?$char_traits@D@_STL@@V?$allocator@D@2@@2@XZ 00433980 f   stlport_vc71_static:numpunct.obj
 0001:000329a0       ?do_truename@?$numpunct@D@_STL@@MBE?AV?$basic_string@DV?$char_traits@D@_STL@@V?$allocator@D@2@@2@XZ 004339a0 f   stlport_vc71_static:numpunct.obj
 0001:000329d0       ?do_falsename@?$numpunct@D@_STL@@MBE?AV?$basic_string@DV?$char_traits@D@_STL@@V?$allocator@D@2@@2@XZ 004339d0 f   stlport_vc71_static:numpunct.obj
 0001:00032a00       ?do_grouping@?$numpunct@G@_STL@@MBE?AV?$basic_string@DV?$char_traits@D@_STL@@V?$allocator@D@2@@2@XZ 00433a00 f   stlport_vc71_static:numpunct.obj
 0001:00032a20       ?do_truename@?$numpunct@G@_STL@@MBE?AV?$basic_string@GV?$char_traits@G@_STL@@V?$allocator@G@2@@2@XZ 00433a20 f   stlport_vc71_static:numpunct.obj
 0001:00032a50       ?do_falsename@?$numpunct@G@_STL@@MBE?AV?$basic_string@GV?$char_traits@G@_STL@@V?$allocator@G@2@@2@XZ 00433a50 f   stlport_vc71_static:numpunct.obj
 0001:00032a80       ?widen@?$ctype@D@_STL@@QBEPBDPBD0PAD@Z 00433a80 f i stlport_vc71_static:num_get.obj
 0001:00032a90       ?widen@?$ctype@G@_STL@@QBEPBDPBD0PAG@Z 00433a90 f i stlport_vc71_static:num_get.obj
 0001:00032aa0       ?_M_numpunct_facet@ios_base@_STL@@QBEPBVfacet@locale@2@XZ 00433aa0 f i stlport_vc71_static:num_get.obj
 0001:00032ab0       ?_M_grouping@ios_base@_STL@@QBEABV?$basic_string@DV?$char_traits@D@_STL@@V?$allocator@D@2@@2@XZ 00433ab0 f i stlport_vc71_static:num_get.obj
 0001:00032ac0       ?decimal_point@?$numpunct@D@_STL@@QBEDXZ 00433ac0 f i stlport_vc71_static:num_get.obj
 0001:00032ad0       ?thousands_sep@?$numpunct@D@_STL@@QBEDXZ 00433ad0 f i stlport_vc71_static:num_get.obj
 0001:00032ae0       ?decimal_point@?$numpunct@G@_STL@@QBEGXZ 00433ae0 f i stlport_vc71_static:num_get.obj
 0001:00032af0       ?thousands_sep@?$numpunct@G@_STL@@QBEGXZ 00433af0 f i stlport_vc71_static:num_get.obj
 0001:00032b00       ?_Initialize_get_float@_STL@@YAXABV?$ctype@D@1@AAD111PAD@Z 00433b00 f i stlport_vc71_static:num_get.obj
 0001:00032b20       ?__get_fdigit@_STL@@YA_NAADPBD@Z 00433b20 f i stlport_vc71_static:num_get.obj
 0001:00032b40       ?__get_fdigit_or_sep@_STL@@YA_NAADDPBD@Z 00433b40 f i stlport_vc71_static:num_get.obj
 0001:00032b70       ?__get_digit_from_table@_STL@@YAHI@Z 00433b70 f i stlport_vc71_static:num_get.obj
 0001:00032b90       ?_Initialize_get_digit@_STL@@YAXPAG0ABV?$ctype@G@1@@Z 00433b90 f   stlport_vc71_static:num_get.obj
 0001:00032bd0       ?__valid_grouping@_STL@@YA_NPBD000@Z 00433bd0 f   stlport_vc71_static:num_get.obj
 0001:00032c20       ?_M_init@?$istreambuf_iterator@GV?$char_traits@G@_STL@@@_STL@@AAEXPAV?$basic_streambuf@GV?$char_traits@G@_STL@@@2@@Z 00433c20 f i stlport_vc71_static:num_get.obj
 0001:00032c40       ?get@?$num_get@GV?$istreambuf_iterator@GV?$char_traits@G@_STL@@@_STL@@@_STL@@QBE?AV?$istreambuf_iterator@GV?$char_traits@G@_STL@@@2@V32@0AAVios_base@2@AAHAA_N@Z 00433c40 f i stlport_vc71_static:num_get.obj
 0001:00032c80       ?get@?$num_get@GV?$istreambuf_iterator@GV?$char_traits@G@_STL@@@_STL@@@_STL@@QBE?AV?$istreambuf_iterator@GV?$char_traits@G@_STL@@@2@V32@0AAVios_base@2@AAHAAJ@Z 00433c80 f i stlport_vc71_static:num_get.obj
 0001:00032cc0       ?get@?$num_get@GV?$istreambuf_iterator@GV?$char_traits@G@_STL@@@_STL@@@_STL@@QBE?AV?$istreambuf_iterator@GV?$char_traits@G@_STL@@@2@V32@0AAVios_base@2@AAHAAG@Z 00433cc0 f i stlport_vc71_static:num_get.obj
 0001:00032d00       ?get@?$num_get@GV?$istreambuf_iterator@GV?$char_traits@G@_STL@@@_STL@@@_STL@@QBE?AV?$istreambuf_iterator@GV?$char_traits@G@_STL@@@2@V32@0AAVios_base@2@AAHAAI@Z 00433d00 f i stlport_vc71_static:num_get.obj
 0001:00032d40       ?get@?$num_get@GV?$istreambuf_iterator@GV?$char_traits@G@_STL@@@_STL@@@_STL@@QBE?AV?$istreambuf_iterator@GV?$char_traits@G@_STL@@@2@V32@0AAVios_base@2@AAHAAK@Z 00433d40 f i stlport_vc71_static:num_get.obj
 0001:00032d80       ?get@?$num_get@GV?$istreambuf_iterator@GV?$char_traits@G@_STL@@@_STL@@@_STL@@QBE?AV?$istreambuf_iterator@GV?$char_traits@G@_STL@@@2@V32@0AAVios_base@2@AAHAA_J@Z 00433d80 f i stlport_vc71_static:num_get.obj
 0001:00032dc0       ?get@?$num_get@GV?$istreambuf_iterator@GV?$char_traits@G@_STL@@@_STL@@@_STL@@QBE?AV?$istreambuf_iterator@GV?$char_traits@G@_STL@@@2@V32@0AAVios_base@2@AAHAA_K@Z 00433dc0 f i stlport_vc71_static:num_get.obj
 0001:00032e00       ?get@?$num_get@GV?$istreambuf_iterator@GV?$char_traits@G@_STL@@@_STL@@@_STL@@QBE?AV?$istreambuf_iterator@GV?$char_traits@G@_STL@@@2@V32@0AAVios_base@2@AAHAAM@Z 00433e00 f i stlport_vc71_static:num_get.obj
 0001:00032e40       ?get@?$num_get@GV?$istreambuf_iterator@GV?$char_traits@G@_STL@@@_STL@@@_STL@@QBE?AV?$istreambuf_iterator@GV?$char_traits@G@_STL@@@2@V32@0AAVios_base@2@AAHAAN@Z 00433e40 f i stlport_vc71_static:num_get.obj
 0001:00032e80       ?get@?$num_get@GV?$istreambuf_iterator@GV?$char_traits@G@_STL@@@_STL@@@_STL@@QBE?AV?$istreambuf_iterator@GV?$char_traits@G@_STL@@@2@V32@0AAVios_base@2@AAHAAO@Z 00433e80 f i stlport_vc71_static:num_get.obj
 0001:00032ec0       ?get@?$num_get@GV?$istreambuf_iterator@GV?$char_traits@G@_STL@@@_STL@@@_STL@@QBE?AV?$istreambuf_iterator@GV?$char_traits@G@_STL@@@2@V32@0AAVios_base@2@AAHAAPAX@Z 00433ec0 f i stlport_vc71_static:num_get.obj
 0001:00032f00       ?_M_init@?$istreambuf_iterator@DV?$char_traits@D@_STL@@@_STL@@AAEXPAV?$basic_streambuf@DV?$char_traits@D@_STL@@@2@@Z 00433f00 f i stlport_vc71_static:num_get.obj
 0001:00032f20       ?_M_bumpc@?$istreambuf_iterator@DV?$char_traits@D@_STL@@@_STL@@AAEXXZ 00433f20 f i stlport_vc71_static:num_get.obj
 0001:00032f50       ?get@?$num_get@DV?$istreambuf_iterator@DV?$char_traits@D@_STL@@@_STL@@@_STL@@QBE?AV?$istreambuf_iterator@DV?$char_traits@D@_STL@@@2@V32@0AAVios_base@2@AAHAA_N@Z 00433f50 f i stlport_vc71_static:num_get.obj
 0001:00032f90       ?get@?$num_get@DV?$istreambuf_iterator@DV?$char_traits@D@_STL@@@_STL@@@_STL@@QBE?AV?$istreambuf_iterator@DV?$char_traits@D@_STL@@@2@V32@0AAVios_base@2@AAHAAJ@Z 00433f90 f i stlport_vc71_static:num_get.obj
 0001:00032fd0       ?get@?$num_get@DV?$istreambuf_iterator@DV?$char_traits@D@_STL@@@_STL@@@_STL@@QBE?AV?$istreambuf_iterator@DV?$char_traits@D@_STL@@@2@V32@0AAVios_base@2@AAHAAG@Z 00433fd0 f i stlport_vc71_static:num_get.obj
 0001:00033010       ?get@?$num_get@DV?$istreambuf_iterator@DV?$char_traits@D@_STL@@@_STL@@@_STL@@QBE?AV?$istreambuf_iterator@DV?$char_traits@D@_STL@@@2@V32@0AAVios_base@2@AAHAAI@Z 00434010 f i stlport_vc71_static:num_get.obj
 0001:00033050       ?get@?$num_get@DV?$istreambuf_iterator@DV?$char_traits@D@_STL@@@_STL@@@_STL@@QBE?AV?$istreambuf_iterator@DV?$char_traits@D@_STL@@@2@V32@0AAVios_base@2@AAHAAK@Z 00434050 f i stlport_vc71_static:num_get.obj
 0001:00033090       ?get@?$num_get@DV?$istreambuf_iterator@DV?$char_traits@D@_STL@@@_STL@@@_STL@@QBE?AV?$istreambuf_iterator@DV?$char_traits@D@_STL@@@2@V32@0AAVios_base@2@AAHAA_J@Z 00434090 f i stlport_vc71_static:num_get.obj
 0001:000330d0       ?get@?$num_get@DV?$istreambuf_iterator@DV?$char_traits@D@_STL@@@_STL@@@_STL@@QBE?AV?$istreambuf_iterator@DV?$char_traits@D@_STL@@@2@V32@0AAVios_base@2@AAHAA_K@Z 004340d0 f i stlport_vc71_static:num_get.obj
 0001:00033110       ?get@?$num_get@DV?$istreambuf_iterator@DV?$char_traits@D@_STL@@@_STL@@@_STL@@QBE?AV?$istreambuf_iterator@DV?$char_traits@D@_STL@@@2@V32@0AAVios_base@2@AAHAAM@Z 00434110 f i stlport_vc71_static:num_get.obj
 0001:00033150       ?get@?$num_get@DV?$istreambuf_iterator@DV?$char_traits@D@_STL@@@_STL@@@_STL@@QBE?AV?$istreambuf_iterator@DV?$char_traits@D@_STL@@@2@V32@0AAVios_base@2@AAHAAN@Z 00434150 f i stlport_vc71_static:num_get.obj
 0001:00033190       ?get@?$num_get@DV?$istreambuf_iterator@DV?$char_traits@D@_STL@@@_STL@@@_STL@@QBE?AV?$istreambuf_iterator@DV?$char_traits@D@_STL@@@2@V32@0AAVios_base@2@AAHAAO@Z 00434190 f i stlport_vc71_static:num_get.obj
 0001:000331d0       ?get@?$num_get@DV?$istreambuf_iterator@DV?$char_traits@D@_STL@@@_STL@@@_STL@@QBE?AV?$istreambuf_iterator@DV?$char_traits@D@_STL@@@2@V32@0AAVios_base@2@AAHAAPAX@Z 004341d0 f i stlport_vc71_static:num_get.obj
 0001:00033210       ??E?$istreambuf_iterator@DV?$char_traits@D@_STL@@@_STL@@QAE?AV01@H@Z 00434210 f i stlport_vc71_static:num_get.obj
 0001:00033260       ?size@?$basic_string@GV?$char_traits@G@_STL@@V?$allocator@G@2@@_STL@@QBEIXZ 00434260 f i stlport_vc71_static:num_get.obj
 0001:00033270       ??A?$basic_string@GV?$char_traits@G@_STL@@V?$allocator@G@2@@_STL@@QBEABGI@Z 00434270 f i stlport_vc71_static:num_get.obj
 0001:00033280       ??$__find@PBGG@_STL@@YAPBGPBG0ABGABUrandom_access_iterator_tag@0@@Z 00434280 f i stlport_vc71_static:num_get.obj
 0001:00033300       ??$use_facet@V?$ctype@G@_STL@@@_STL@@YAABV?$ctype@G@0@ABVlocale@0@@Z 00434300 f i stlport_vc71_static:num_get.obj
 0001:00033310       ??$use_facet@V?$ctype@D@_STL@@@_STL@@YAABV?$ctype@D@0@ABVlocale@0@@Z 00434310 f i stlport_vc71_static:num_get.obj
 0001:00033320       ?max@?$_Integer_limits@G$0A@$0PPPP@$0?0$00@_STL@@SAGXZ 00434320 f i stlport_vc71_static:num_get.obj
 0001:00033330       ?max@?$_Integer_limits@I$0A@$0PPPPPPPP@$0?0$00@_STL@@SAIXZ 00434330 f i stlport_vc71_static:num_get.obj
 0001:00033340       ?min@?$_Integer_limits@J$0?IAAAAAAA@$0HPPPPPPP@$0?0$00@_STL@@SAJXZ 00434340 f i stlport_vc71_static:num_get.obj
 0001:00033350       ?max@?$_Integer_limits@J$0?IAAAAAAA@$0HPPPPPPP@$0?0$00@_STL@@SAJXZ 00434350 f i stlport_vc71_static:num_get.obj
 0001:00033360       ?max@?$_Integer_limits@K$0A@$0PPPPPPPP@$0?0$00@_STL@@SAKXZ 00434360 f i stlport_vc71_static:num_get.obj
 0001:00033370       ?min@?$_Integer_limits@_J$0?IAAAAAAAAAAAAAAA@$0HPPPPPPPPPPPPPPP@$0?0$00@_STL@@SA_JXZ 00434370 f i stlport_vc71_static:num_get.obj
 0001:00033380       ?max@?$_Integer_limits@_J$0?IAAAAAAAAAAAAAAA@$0HPPPPPPPPPPPPPPP@$0?0$00@_STL@@SA_JXZ 00434380 f i stlport_vc71_static:num_get.obj
 0001:00033390       ?max@?$_Integer_limits@_K$0A@$0?0$0?0$00@_STL@@SA_KXZ 00434390 f i stlport_vc71_static:num_get.obj
 0001:000333a0       ??0?$istreambuf_iterator@GV?$char_traits@G@_STL@@@_STL@@QAE@PAV?$basic_streambuf@GV?$char_traits@G@_STL@@@1@@Z 004343a0 f i stlport_vc71_static:num_get.obj
 0001:000333c0       ??0?$istreambuf_iterator@DV?$char_traits@D@_STL@@@_STL@@QAE@PAV?$basic_streambuf@DV?$char_traits@D@_STL@@@1@@Z 004343c0 f i stlport_vc71_static:num_get.obj
 0001:000333e0       ??E?$istreambuf_iterator@DV?$char_traits@D@_STL@@@_STL@@QAEAAV01@XZ 004343e0 f i stlport_vc71_static:num_get.obj
 0001:00033410       ??$find@PBGG@_STL@@YAPBGPBG0ABG@Z 00434410 f i stlport_vc71_static:num_get.obj
 0001:00033430       ??$_M_get_istreambuf@GV?$char_traits@G@_STL@@@_STL@@YAPAV?$basic_streambuf@GV?$char_traits@G@_STL@@@0@AAV?$basic_istream@GV?$char_traits@G@_STL@@@0@@Z 00434430 f i stlport_vc71_static:num_get.obj
 0001:00033440       ??$_M_get_istreambuf@DV?$char_traits@D@_STL@@@_STL@@YAPAV?$basic_streambuf@DV?$char_traits@D@_STL@@@0@AAV?$basic_istream@DV?$char_traits@D@_STL@@@0@@Z 00434440 f i stlport_vc71_static:num_get.obj
 0001:00033450       ?__get_digit@_STL@@YAHGPBG0G@Z 00434450 f   stlport_vc71_static:num_get.obj
 0001:000334d0       ?__get_fdigit@_STL@@YA_NAAGPBG@Z 004344d0 f   stlport_vc71_static:num_get.obj
 0001:00033510       ?__get_fdigit_or_sep@_STL@@YA_NAAGGPBG@Z 00434510 f   stlport_vc71_static:num_get.obj
 0001:00033560       ?_M_bumpc@?$istreambuf_iterator@GV?$char_traits@G@_STL@@@_STL@@AAEXXZ 00434560 f i stlport_vc71_static:num_get.obj
 0001:00033590       ??D?$istreambuf_iterator@DV?$char_traits@D@_STL@@@_STL@@QBEDXZ 00434590 f i stlport_vc71_static:num_get.obj
 0001:000335d0       ??0?$istreambuf_iterator@GV?$char_traits@G@_STL@@@_STL@@QAE@AAV?$basic_istream@GV?$char_traits@G@_STL@@@1@@Z 004345d0 f i stlport_vc71_static:num_get.obj
 0001:000335f0       ??E?$istreambuf_iterator@GV?$char_traits@G@_STL@@@_STL@@QAE?AV01@H@Z 004345f0 f i stlport_vc71_static:num_get.obj
 0001:00033640       ??0?$istreambuf_iterator@DV?$char_traits@D@_STL@@@_STL@@QAE@AAV?$basic_istream@DV?$char_traits@D@_STL@@@1@@Z 00434640 f i stlport_vc71_static:num_get.obj
 0001:00033660       ??$?8DV?$char_traits@D@_STL@@@_STL@@YA_NABV?$istreambuf_iterator@DV?$char_traits@D@_STL@@@0@0@Z 00434660 f i stlport_vc71_static:num_get.obj
 0001:00033690       ??$?9DV?$char_traits@D@_STL@@@_STL@@YA_NABV?$istreambuf_iterator@DV?$char_traits@D@_STL@@@0@0@Z 00434690 f i stlport_vc71_static:num_get.obj
 0001:000336d0       ??D?$istreambuf_iterator@GV?$char_traits@G@_STL@@@_STL@@QBEGXZ 004346d0 f i stlport_vc71_static:num_get.obj
 0001:00033710       ??E?$istreambuf_iterator@GV?$char_traits@G@_STL@@@_STL@@QAEAAV01@XZ 00434710 f i stlport_vc71_static:num_get.obj
 0001:00033740       ??$?8GV?$char_traits@G@_STL@@@_STL@@YA_NABV?$istreambuf_iterator@GV?$char_traits@G@_STL@@@0@0@Z 00434740 f i stlport_vc71_static:num_get.obj
 0001:00033770       ??$?9GV?$char_traits@G@_STL@@@_STL@@YA_NABV?$istreambuf_iterator@GV?$char_traits@G@_STL@@@0@0@Z 00434770 f i stlport_vc71_static:num_get.obj
 0001:000337b0       ?precision@ios_base@_STL@@QBEHXZ 004347b0 f i stlport_vc71_static:num_put.obj
 0001:000337c0       ??D?$ostreambuf_iterator@DV?$char_traits@D@_STL@@@_STL@@QAEAAV01@XZ 004347c0 f i stlport_vc71_static:num_put.obj
 0001:000337d0       ??E?$ostreambuf_iterator@DV?$char_traits@D@_STL@@@_STL@@QAEAAV01@XZ 004347d0 f i stlport_vc71_static:num_put.obj
 0001:000337e0       ??E?$ostreambuf_iterator@DV?$char_traits@D@_STL@@@_STL@@QAEAAV01@H@Z 004347e0 f i stlport_vc71_static:num_put.obj
 0001:000337f0       ?put@?$num_put@DV?$ostreambuf_iterator@DV?$char_traits@D@_STL@@@_STL@@@_STL@@QBE?AV?$ostreambuf_iterator@DV?$char_traits@D@_STL@@@2@V32@AAVios_base@2@D_N@Z 004347f0 f i stlport_vc71_static:num_put.obj
 0001:00033820       ?put@?$num_put@DV?$ostreambuf_iterator@DV?$char_traits@D@_STL@@@_STL@@@_STL@@QBE?AV?$ostreambuf_iterator@DV?$char_traits@D@_STL@@@2@V32@AAVios_base@2@D_J@Z 00434820 f i stlport_vc71_static:num_put.obj
 0001:00033850       ?put@?$num_put@DV?$ostreambuf_iterator@DV?$char_traits@D@_STL@@@_STL@@@_STL@@QBE?AV?$ostreambuf_iterator@DV?$char_traits@D@_STL@@@2@V32@AAVios_base@2@D_K@Z 00434850 f i stlport_vc71_static:num_put.obj
 0001:00033880       ?put@?$num_put@DV?$ostreambuf_iterator@DV?$char_traits@D@_STL@@@_STL@@@_STL@@QBE?AV?$ostreambuf_iterator@DV?$char_traits@D@_STL@@@2@V32@AAVios_base@2@DN@Z 00434880 f i stlport_vc71_static:num_put.obj
 0001:000338b0       ?put@?$num_put@DV?$ostreambuf_iterator@DV?$char_traits@D@_STL@@@_STL@@@_STL@@QBE?AV?$ostreambuf_iterator@DV?$char_traits@D@_STL@@@2@V32@AAVios_base@2@DO@Z 004348b0 f i stlport_vc71_static:num_put.obj
 0001:000338e0       ?put@?$num_put@DV?$ostreambuf_iterator@DV?$char_traits@D@_STL@@@_STL@@@_STL@@QBE?AV?$ostreambuf_iterator@DV?$char_traits@D@_STL@@@2@V32@AAVios_base@2@DPBX@Z 004348e0 f i stlport_vc71_static:num_put.obj
 0001:00033910       ??0?$ostreambuf_iterator@GV?$char_traits@G@_STL@@@_STL@@QAE@PAV?$basic_streambuf@GV?$char_traits@G@_STL@@@1@@Z 00434910 f i stlport_vc71_static:num_put.obj
 0001:00033930       ??D?$ostreambuf_iterator@GV?$char_traits@G@_STL@@@_STL@@QAEAAV01@XZ 00434930 f i stlport_vc71_static:num_put.obj
 0001:00033940       ??E?$ostreambuf_iterator@GV?$char_traits@G@_STL@@@_STL@@QAEAAV01@XZ 00434940 f i stlport_vc71_static:num_put.obj
 0001:00033950       ??E?$ostreambuf_iterator@GV?$char_traits@G@_STL@@@_STL@@QAEAAV01@H@Z 00434950 f i stlport_vc71_static:num_put.obj
 0001:00033960       ?failed@?$ostreambuf_iterator@GV?$char_traits@G@_STL@@@_STL@@QBE_NXZ 00434960 f i stlport_vc71_static:num_put.obj
 0001:00033970       ?put@?$num_put@GV?$ostreambuf_iterator@GV?$char_traits@G@_STL@@@_STL@@@_STL@@QBE?AV?$ostreambuf_iterator@GV?$char_traits@G@_STL@@@2@V32@AAVios_base@2@G_N@Z 00434970 f i stlport_vc71_static:num_put.obj
 0001:000339a0       ?put@?$num_put@GV?$ostreambuf_iterator@GV?$char_traits@G@_STL@@@_STL@@@_STL@@QBE?AV?$ostreambuf_iterator@GV?$char_traits@G@_STL@@@2@V32@AAVios_base@2@GJ@Z 004349a0 f i stlport_vc71_static:num_put.obj
 0001:000339d0       ?put@?$num_put@GV?$ostreambuf_iterator@GV?$char_traits@G@_STL@@@_STL@@@_STL@@QBE?AV?$ostreambuf_iterator@GV?$char_traits@G@_STL@@@2@V32@AAVios_base@2@GK@Z 004349d0 f i stlport_vc71_static:num_put.obj
 0001:00033a00       ?put@?$num_put@GV?$ostreambuf_iterator@GV?$char_traits@G@_STL@@@_STL@@@_STL@@QBE?AV?$ostreambuf_iterator@GV?$char_traits@G@_STL@@@2@V32@AAVios_base@2@G_J@Z 00434a00 f i stlport_vc71_static:num_put.obj
 0001:00033a30       ?put@?$num_put@GV?$ostreambuf_iterator@GV?$char_traits@G@_STL@@@_STL@@@_STL@@QBE?AV?$ostreambuf_iterator@GV?$char_traits@G@_STL@@@2@V32@AAVios_base@2@G_K@Z 00434a30 f i stlport_vc71_static:num_put.obj
 0001:00033a60       ?put@?$num_put@GV?$ostreambuf_iterator@GV?$char_traits@G@_STL@@@_STL@@@_STL@@QBE?AV?$ostreambuf_iterator@GV?$char_traits@G@_STL@@@2@V32@AAVios_base@2@GN@Z 00434a60 f i stlport_vc71_static:num_put.obj
 0001:00033a90       ?put@?$num_put@GV?$ostreambuf_iterator@GV?$char_traits@G@_STL@@@_STL@@@_STL@@QBE?AV?$ostreambuf_iterator@GV?$char_traits@G@_STL@@@2@V32@AAVios_base@2@GO@Z 00434a90 f i stlport_vc71_static:num_put.obj
 0001:00033ac0       ?put@?$num_put@GV?$ostreambuf_iterator@GV?$char_traits@G@_STL@@@_STL@@@_STL@@QBE?AV?$ostreambuf_iterator@GV?$char_traits@G@_STL@@@2@V32@AAVios_base@2@GPBX@Z 00434ac0 f i stlport_vc71_static:num_put.obj
 0001:00033af0       ?c_str@?$basic_string@GV?$char_traits@G@_STL@@V?$allocator@G@2@@_STL@@QBEPBGXZ 00434af0 f i stlport_vc71_static:num_put.obj
 0001:00033b00       ??$__write_decimal_backward@_K@_STL@@YAPADPAD_KHABU__false_type@0@@Z 00434b00 f i stlport_vc71_static:num_put.obj
 0001:00033b50       ??$__write_decimal_backward@K@_STL@@YAPADPADKHABU__false_type@0@@Z 00434b50 f i stlport_vc71_static:num_put.obj
 0001:00033b90       ?_Ret@?$_BothPtrType@PBDV?$ostreambuf_iterator@DV?$char_traits@D@_STL@@@_STL@@@_STL@@SA?AU__false_type@2@XZ 00434b90 f i stlport_vc71_static:num_put.obj
 0001:00033ba0       ?_Ret@?$_BothPtrType@PBGV?$ostreambuf_iterator@GV?$char_traits@G@_STL@@@_STL@@@_STL@@SA?AU__false_type@2@XZ 00434ba0 f i stlport_vc71_static:num_put.obj
 0001:00033bb0       ??$__copy_backward_ptrs@PADPAD@_STL@@YAPADPAD00ABU__true_type@0@@Z 00434bb0 f i stlport_vc71_static:num_put.obj
 0001:00033be0       ??$__copy_backward_ptrs@PAGPAG@_STL@@YAPAGPAG00ABU__true_type@0@@Z 00434be0 f i stlport_vc71_static:num_put.obj
 0001:00033c10       ??$_M_get_ostreambuf@DV?$char_traits@D@_STL@@@_STL@@YAPAV?$basic_streambuf@DV?$char_traits@D@_STL@@@0@AAV?$basic_ostream@DV?$char_traits@D@_STL@@@0@@Z 00434c10 f i stlport_vc71_static:num_put.obj
 0001:00033c20       ??$_M_get_ostreambuf@GV?$char_traits@G@_STL@@@_STL@@YAPAV?$basic_streambuf@GV?$char_traits@G@_STL@@@0@AAV?$basic_ostream@GV?$char_traits@G@_STL@@@0@@Z 00434c20 f i stlport_vc71_static:num_put.obj
 0001:00033c30       ??$__copy_backward_aux@PADPAD@_STL@@YAPADPAD00ABU__true_type@0@@Z 00434c30 f i stlport_vc71_static:num_put.obj
 0001:00033c60       ??$__copy_backward_aux@PAGPAG@_STL@@YAPAGPAG00ABU__true_type@0@@Z 00434c60 f i stlport_vc71_static:num_put.obj
 0001:00033c90       ??$fill_n@V?$ostreambuf_iterator@DV?$char_traits@D@_STL@@@_STL@@HD@_STL@@YA?AV?$ostreambuf_iterator@DV?$char_traits@D@_STL@@@0@V10@HABD@Z 00434c90 f i stlport_vc71_static:num_put.obj
 0001:00033d10       ??$find@PADD@_STL@@YAPADPAD0ABD@Z 00434d10 f i stlport_vc71_static:num_put.obj
 0001:00033d30       ??$find@PAGG@_STL@@YAPAGPAG0ABG@Z 00434d30 f i stlport_vc71_static:num_put.obj
 0001:00033d50       ??0?$ostreambuf_iterator@DV?$char_traits@D@_STL@@@_STL@@QAE@AAV?$basic_ostream@DV?$char_traits@D@_STL@@@1@@Z 00434d50 f i stlport_vc71_static:num_put.obj
 0001:00033d70       ??0?$ostreambuf_iterator@GV?$char_traits@G@_STL@@@_STL@@QAE@AAV?$basic_ostream@GV?$char_traits@G@_STL@@@1@@Z 00434d70 f i stlport_vc71_static:num_put.obj
 0001:00033d90       ??$copy_backward@PADPAD@_STL@@YAPADPAD00@Z 00434d90 f i stlport_vc71_static:num_put.obj
 0001:00033dc0       ??$copy_backward@PAGPAG@_STL@@YAPAGPAG00@Z 00434dc0 f i stlport_vc71_static:num_put.obj
 0001:00033df0       ??$fill_n@V?$ostreambuf_iterator@GV?$char_traits@G@_STL@@@_STL@@HG@_STL@@YA?AV?$ostreambuf_iterator@GV?$char_traits@G@_STL@@@0@V10@HABG@Z 00434df0 f i stlport_vc71_static:num_put.obj
 0001:00033e60       ??$__copy_aux@PBDV?$ostreambuf_iterator@DV?$char_traits@D@_STL@@@_STL@@@_STL@@YA?AV?$ostreambuf_iterator@DV?$char_traits@D@_STL@@@0@PBD0V10@ABU__false_type@0@@Z 00434e60 f i stlport_vc71_static:num_put.obj
 0001:00033e90       ?__write_integer@_STL@@YAPADPADHJ@Z 00434e90 f   stlport_vc71_static:num_put.obj
 0001:00033ee0       ??$__insert_grouping_aux@D@_STL@@YAHPAD0ABV?$basic_string@DV?$char_traits@D@_STL@@V?$allocator@D@2@@0@DDDH@Z 00434ee0 f i stlport_vc71_static:num_put.obj
 0001:00033f80       ??$__insert_grouping_aux@G@_STL@@YAHPAG0ABV?$basic_string@DV?$char_traits@D@_STL@@V?$allocator@D@2@@0@GGGH@Z 00434f80 f i stlport_vc71_static:num_put.obj
 0001:00034030       ??$copy@PBDV?$ostreambuf_iterator@DV?$char_traits@D@_STL@@@_STL@@@_STL@@YA?AV?$ostreambuf_iterator@DV?$char_traits@D@_STL@@@0@PBD0V10@@Z 00435030 f i stlport_vc71_static:num_put.obj
 0001:00034060       ??$__copy_aux@PBGV?$ostreambuf_iterator@GV?$char_traits@G@_STL@@@_STL@@@_STL@@YA?AV?$ostreambuf_iterator@GV?$char_traits@G@_STL@@@0@PBG0V10@ABU__false_type@0@@Z 00435060 f i stlport_vc71_static:num_put.obj
 0001:00034090       ?__insert_grouping@_STL@@YAHPAD0ABV?$basic_string@DV?$char_traits@D@_STL@@V?$allocator@D@2@@1@DDDH@Z 00435090 f   stlport_vc71_static:num_put.obj
 0001:000340a0       ?__insert_grouping@_STL@@YAHPAG0ABV?$basic_string@DV?$char_traits@D@_STL@@V?$allocator@D@2@@1@GGGH@Z 004350a0 f   stlport_vc71_static:num_put.obj
 0001:000340b0       ??$copy@PBGV?$ostreambuf_iterator@GV?$char_traits@G@_STL@@@_STL@@@_STL@@YA?AV?$ostreambuf_iterator@GV?$char_traits@G@_STL@@@0@PBG0V10@@Z 004350b0 f i stlport_vc71_static:num_put.obj
 0001:000340e0       ?__get_date_order@_STL@@YA?AW4dateorder@time_base@1@PAU_Locale_time@@@Z 004350e0 f   stlport_vc71_static:time_facets.obj
 0001:000341b0       ??0?$back_insert_iterator@V?$basic_string@DV?$char_traits@D@_STL@@V?$allocator@D@2@@_STL@@@_STL@@QAE@AAV?$basic_string@DV?$char_traits@D@_STL@@V?$allocator@D@2@@1@@Z 004351b0 f i stlport_vc71_static:time_facets.obj
 0001:000341c0       ?date_order@?$time_get@DV?$istreambuf_iterator@DV?$char_traits@D@_STL@@@_STL@@@_STL@@QBE?AW4dateorder@time_base@2@XZ 004351c0 f i stlport_vc71_static:time_facets.obj
 0001:000341d0       ?get_time@?$time_get@DV?$istreambuf_iterator@DV?$char_traits@D@_STL@@@_STL@@@_STL@@QBE?AV?$istreambuf_iterator@DV?$char_traits@D@_STL@@@2@V32@0AAVios_base@2@AAHPAUtm@@@Z 004351d0 f i stlport_vc71_static:time_facets.obj
 0001:00034210       ?get_date@?$time_get@DV?$istreambuf_iterator@DV?$char_traits@D@_STL@@@_STL@@@_STL@@QBE?AV?$istreambuf_iterator@DV?$char_traits@D@_STL@@@2@V32@0AAVios_base@2@AAHPAUtm@@@Z 00435210 f i stlport_vc71_static:time_facets.obj
 0001:00034250       ?get_weekday@?$time_get@DV?$istreambuf_iterator@DV?$char_traits@D@_STL@@@_STL@@@_STL@@QBE?AV?$istreambuf_iterator@DV?$char_traits@D@_STL@@@2@V32@0AAVios_base@2@AAHPAUtm@@@Z 00435250 f i stlport_vc71_static:time_facets.obj
 0001:00034290       ?get_monthname@?$time_get@DV?$istreambuf_iterator@DV?$char_traits@D@_STL@@@_STL@@@_STL@@QBE?AV?$istreambuf_iterator@DV?$char_traits@D@_STL@@@2@V32@0AAVios_base@2@AAHPAUtm@@@Z 00435290 f i stlport_vc71_static:time_facets.obj
 0001:000342d0       ?get_year@?$time_get@DV?$istreambuf_iterator@DV?$char_traits@D@_STL@@@_STL@@@_STL@@QBE?AV?$istreambuf_iterator@DV?$char_traits@D@_STL@@@2@V32@0AAVios_base@2@AAHPAUtm@@@Z 004352d0 f i stlport_vc71_static:time_facets.obj
 0001:00034310       ?put@?$time_put@DV?$ostreambuf_iterator@DV?$char_traits@D@_STL@@@_STL@@@_STL@@QBE?AV?$ostreambuf_iterator@DV?$char_traits@D@_STL@@@2@V32@AAVios_base@2@DPBUtm@@DD@Z 00435310 f i stlport_vc71_static:time_facets.obj
 0001:00034350       ?date_order@?$time_get@GV?$istreambuf_iterator@GV?$char_traits@G@_STL@@@_STL@@@_STL@@QBE?AW4dateorder@time_base@2@XZ 00435350 f i stlport_vc71_static:time_facets.obj
 0001:00034360       ?get_time@?$time_get@GV?$istreambuf_iterator@GV?$char_traits@G@_STL@@@_STL@@@_STL@@QBE?AV?$istreambuf_iterator@GV?$char_traits@G@_STL@@@2@V32@0AAVios_base@2@AAHPAUtm@@@Z 00435360 f i stlport_vc71_static:time_facets.obj
 0001:000343a0       ?get_date@?$time_get@GV?$istreambuf_iterator@GV?$char_traits@G@_STL@@@_STL@@@_STL@@QBE?AV?$istreambuf_iterator@GV?$char_traits@G@_STL@@@2@V32@0AAVios_base@2@AAHPAUtm@@@Z 004353a0 f i stlport_vc71_static:time_facets.obj
 0001:000343e0       ?get_weekday@?$time_get@GV?$istreambuf_iterator@GV?$char_traits@G@_STL@@@_STL@@@_STL@@QBE?AV?$istreambuf_iterator@GV?$char_traits@G@_STL@@@2@V32@0AAVios_base@2@AAHPAUtm@@@Z 004353e0 f i stlport_vc71_static:time_facets.obj
 0001:00034420       ?get_monthname@?$time_get@GV?$istreambuf_iterator@GV?$char_traits@G@_STL@@@_STL@@@_STL@@QBE?AV?$istreambuf_iterator@GV?$char_traits@G@_STL@@@2@V32@0AAVios_base@2@AAHPAUtm@@@Z 00435420 f i stlport_vc71_static:time_facets.obj
 0001:00034460       ?get_year@?$time_get@GV?$istreambuf_iterator@GV?$char_traits@G@_STL@@@_STL@@@_STL@@QBE?AV?$istreambuf_iterator@GV?$char_traits@G@_STL@@@2@V32@0AAVios_base@2@AAHPAUtm@@@Z 00435460 f i stlport_vc71_static:time_facets.obj
 0001:000344a0       ?put@?$time_put@GV?$ostreambuf_iterator@GV?$char_traits@G@_STL@@@_STL@@@_STL@@QBE?AV?$ostreambuf_iterator@GV?$char_traits@G@_STL@@@2@V32@AAVios_base@2@GPBUtm@@DD@Z 004354a0 f i stlport_vc71_static:time_facets.obj
 0001:000344e0       ?_Ret@?$_BothPtrType@PBDV?$back_insert_iterator@V?$basic_string@DV?$char_traits@D@_STL@@V?$allocator@D@2@@_STL@@@_STL@@@_STL@@SA?AU__false_type@2@XZ 004354e0 f i stlport_vc71_static:time_facets.obj
 0001:000344f0       ?_Ret@?$_BothPtrType@PBDPAD@_STL@@SA?AU__true_type@2@XZ 004354f0 f i stlport_vc71_static:time_facets.obj
 0001:00034500       ??$__copy_ptrs@PBDPAD@_STL@@YAPADPBD0PADABU__true_type@0@@Z 00435500 f i stlport_vc71_static:time_facets.obj
 0001:00034530       ?max@?$_Integer_limits@H$0?IAAAAAAA@$0HPPPPPPP@$0?0$00@_STL@@SAHXZ 00435530 f i stlport_vc71_static:time_facets.obj
 0001:00034540       ??D?$back_insert_iterator@V?$basic_string@DV?$char_traits@D@_STL@@V?$allocator@D@2@@_STL@@@_STL@@QAEAAV01@XZ 00435540 f i stlport_vc71_static:time_facets.obj
 0001:00034550       ??E?$back_insert_iterator@V?$basic_string@DV?$char_traits@D@_STL@@V?$allocator@D@2@@_STL@@@_STL@@QAEAAV01@XZ 00435550 f i stlport_vc71_static:time_facets.obj
 0001:00034560       ?_Ret@?$_BothPtrType@PADV?$ostreambuf_iterator@DV?$char_traits@D@_STL@@@_STL@@@_STL@@SA?AU__false_type@2@XZ 00435560 f i stlport_vc71_static:time_facets.obj
 0001:00034570       ?_Ret@?$_BothPtrType@PAGV?$ostreambuf_iterator@GV?$char_traits@G@_STL@@@_STL@@@_STL@@SA?AU__false_type@2@XZ 00435570 f i stlport_vc71_static:time_facets.obj
 0001:00034580       ??$__copy_aux@PBDPAD@_STL@@YAPADPBD0PADABU__true_type@0@@Z 00435580 f i stlport_vc71_static:time_facets.obj
 0001:000345b0       ??$__copy@PADV?$ostreambuf_iterator@DV?$char_traits@D@_STL@@@_STL@@H@_STL@@YA?AV?$ostreambuf_iterator@DV?$char_traits@D@_STL@@@0@PAD0V10@ABUrandom_access_iterator_tag@0@PAH@Z 004355b0 f i stlport_vc71_static:time_facets.obj
 0001:00034630       ??$copy@PBDPAD@_STL@@YAPADPBD0PAD@Z 00435630 f i stlport_vc71_static:time_facets.obj
 0001:00034660       ?put@?$time_put@DV?$ostreambuf_iterator@DV?$char_traits@D@_STL@@@_STL@@@_STL@@QBE?AV?$ostreambuf_iterator@DV?$char_traits@D@_STL@@@2@V32@AAVios_base@2@DPBUtm@@PBD3@Z 00435660 f i stlport_vc71_static:time_facets.obj
 0001:00034790       ??$__match@V?$istreambuf_iterator@DV?$char_traits@D@_STL@@@_STL@@PAV?$basic_string@DV?$char_traits@D@_STL@@V?$allocator@D@2@@2@@_STL@@YAPAV?$basic_string@DV?$char_traits@D@_STL@@V?$allocator@D@2@@0@AAV?$istreambuf_iterator@DV?$char_traits@D@_STL@@@0@0PAV10@1@Z 00435790 f i stlport_vc71_static:time_facets.obj
 0001:000347b0       ??$__match@V?$istreambuf_iterator@DV?$char_traits@D@_STL@@@_STL@@PBV?$basic_string@DV?$char_traits@D@_STL@@V?$allocator@D@2@@2@@_STL@@YAPBV?$basic_string@DV?$char_traits@D@_STL@@V?$allocator@D@2@@0@AAV?$istreambuf_iterator@DV?$char_traits@D@_STL@@@0@0PBV10@1@Z 004357b0 f i stlport_vc71_static:time_facets.obj
 0001:000347d0       ??$__copy_aux@PADV?$ostreambuf_iterator@DV?$char_traits@D@_STL@@@_STL@@@_STL@@YA?AV?$ostreambuf_iterator@DV?$char_traits@D@_STL@@@0@PAD0V10@ABU__false_type@0@@Z 004357d0 f i stlport_vc71_static:time_facets.obj
 0001:00034800       ?__write_formatted_time@_STL@@YAPADPADDDABV_Time_Info@1@PBUtm@@@Z 00435800 f   stlport_vc71_static:time_facets.obj
 0001:00034db0       ?put@?$time_put@GV?$ostreambuf_iterator@GV?$char_traits@G@_STL@@@_STL@@@_STL@@QBE?AV?$ostreambuf_iterator@GV?$char_traits@G@_STL@@@2@V32@AAVios_base@2@GPBUtm@@PBG3@Z 00435db0 f i stlport_vc71_static:time_facets.obj
 0001:00034ec0       ??$__get_short_or_long_dayname@V?$istreambuf_iterator@DV?$char_traits@D@_STL@@@_STL@@@_STL@@YA_NAAV?$istreambuf_iterator@DV?$char_traits@D@_STL@@@0@0ABV_Time_Info@0@PAUtm@@@Z 00435ec0 f i stlport_vc71_static:time_facets.obj
 0001:00034f20       ??$__get_short_or_long_monthname@V?$istreambuf_iterator@DV?$char_traits@D@_STL@@@_STL@@@_STL@@YA_NAAV?$istreambuf_iterator@DV?$char_traits@D@_STL@@@0@0ABV_Time_Info@0@PAUtm@@@Z 00435f20 f i stlport_vc71_static:time_facets.obj
 0001:00034f80       ??$copy@PADV?$ostreambuf_iterator@DV?$char_traits@D@_STL@@@_STL@@@_STL@@YA?AV?$ostreambuf_iterator@DV?$char_traits@D@_STL@@@0@PAD0V10@@Z 00435f80 f i stlport_vc71_static:time_facets.obj
 0001:00034fb0       ??$__match@V?$istreambuf_iterator@GV?$char_traits@G@_STL@@@_STL@@PAV?$basic_string@DV?$char_traits@D@_STL@@V?$allocator@D@2@@2@@_STL@@YAPAV?$basic_string@DV?$char_traits@D@_STL@@V?$allocator@D@2@@0@AAV?$istreambuf_iterator@GV?$char_traits@G@_STL@@@0@0PAV10@1@Z 00435fb0 f i stlport_vc71_static:time_facets.obj
 0001:00034fd0       ??$__match@V?$istreambuf_iterator@GV?$char_traits@G@_STL@@@_STL@@PBV?$basic_string@DV?$char_traits@D@_STL@@V?$allocator@D@2@@2@@_STL@@YAPBV?$basic_string@DV?$char_traits@D@_STL@@V?$allocator@D@2@@0@AAV?$istreambuf_iterator@GV?$char_traits@G@_STL@@@0@0PBV10@1@Z 00435fd0 f i stlport_vc71_static:time_facets.obj
 0001:00034ff0       ??$__copy_aux@PAGV?$ostreambuf_iterator@GV?$char_traits@G@_STL@@@_STL@@@_STL@@YA?AV?$ostreambuf_iterator@GV?$char_traits@G@_STL@@@0@PAG0V10@ABU__false_type@0@@Z 00435ff0 f i stlport_vc71_static:time_facets.obj
 0001:00035020       ??$__put_time@V?$ostreambuf_iterator@DV?$char_traits@D@_STL@@@_STL@@@_STL@@YA?AV?$ostreambuf_iterator@DV?$char_traits@D@_STL@@@0@PAD0V10@ABVios_base@0@D@Z 00436020 f i stlport_vc71_static:time_facets.obj
 0001:00035050       ??$__get_short_or_long_dayname@V?$istreambuf_iterator@GV?$char_traits@G@_STL@@@_STL@@@_STL@@YA_NAAV?$istreambuf_iterator@GV?$char_traits@G@_STL@@@0@0ABV_Time_Info@0@PAUtm@@@Z 00436050 f i stlport_vc71_static:time_facets.obj
 0001:000350b0       ??$__get_short_or_long_monthname@V?$istreambuf_iterator@GV?$char_traits@G@_STL@@@_STL@@@_STL@@YA_NAAV?$istreambuf_iterator@GV?$char_traits@G@_STL@@@0@0ABV_Time_Info@0@PAUtm@@@Z 004360b0 f i stlport_vc71_static:time_facets.obj
 0001:00035110       ??$copy@PAGV?$ostreambuf_iterator@GV?$char_traits@G@_STL@@@_STL@@@_STL@@YA?AV?$ostreambuf_iterator@GV?$char_traits@G@_STL@@@0@PAG0V10@@Z 00436110 f i stlport_vc71_static:time_facets.obj
 0001:00035140       ??4?$back_insert_iterator@V?$basic_string@DV?$char_traits@D@_STL@@V?$allocator@D@2@@_STL@@@_STL@@QAEAAV01@ABD@Z 00436140 f i stlport_vc71_static:time_facets.obj
 0001:00035160       ??0?$time_get@DV?$istreambuf_iterator@DV?$char_traits@D@_STL@@@_STL@@@_STL@@IAE@PAU_Locale_time@@I@Z 00436160 f i stlport_vc71_static:time_facets.obj
 0001:000351c0       ??0?$time_put@DV?$ostreambuf_iterator@DV?$char_traits@D@_STL@@@_STL@@@_STL@@IAE@PAU_Locale_time@@I@Z 004361c0 f i stlport_vc71_static:time_facets.obj
 0001:00035220       ??0?$time_get@GV?$istreambuf_iterator@GV?$char_traits@G@_STL@@@_STL@@@_STL@@IAE@PAU_Locale_time@@I@Z 00436220 f i stlport_vc71_static:time_facets.obj
 0001:00035280       ??0?$time_put@GV?$ostreambuf_iterator@GV?$char_traits@G@_STL@@@_STL@@@_STL@@IAE@PAU_Locale_time@@I@Z 00436280 f i stlport_vc71_static:time_facets.obj
 0001:000352e0       ??$__copy@PBDV?$back_insert_iterator@V?$basic_string@DV?$char_traits@D@_STL@@V?$allocator@D@2@@_STL@@@_STL@@H@_STL@@YA?AV?$back_insert_iterator@V?$basic_string@DV?$char_traits@D@_STL@@V?$allocator@D@2@@_STL@@@0@PBD0V10@ABUrandom_access_iterator_tag@0@PAH@Z 004362e0 f i stlport_vc71_static:time_facets.obj
 0001:00035360       ??$__copy_aux@PBDV?$back_insert_iterator@V?$basic_string@DV?$char_traits@D@_STL@@V?$allocator@D@2@@_STL@@@_STL@@@_STL@@YA?AV?$back_insert_iterator@V?$basic_string@DV?$char_traits@D@_STL@@V?$allocator@D@2@@_STL@@@0@PBD0V10@ABU__false_type@0@@Z 00436360 f i stlport_vc71_static:time_facets.obj
 0001:00035390       ??$copy@PBDV?$back_insert_iterator@V?$basic_string@DV?$char_traits@D@_STL@@V?$allocator@D@2@@_STL@@@_STL@@@_STL@@YA?AV?$back_insert_iterator@V?$basic_string@DV?$char_traits@D@_STL@@V?$allocator@D@2@@_STL@@@0@PBD0V10@@Z 00436390 f i stlport_vc71_static:time_facets.obj
 0001:000353f0       ?_Init_timeinfo@_STL@@YAXAAV_Time_Info@1@@Z 004363f0 f   stlport_vc71_static:time_facets.obj
 0001:00035530       ?_Init_timeinfo@_STL@@YAXAAV_Time_Info@1@PAU_Locale_time@@@Z 00436530 f   stlport_vc71_static:time_facets.obj
 0001:000357e0       ?infinity@?$numeric_limits@N@_STL@@SANXZ 004367e0 f i stlport_vc71_static:num_get_float.obj
 0001:000357f0       ?infinity@?$numeric_limits@O@_STL@@SAOXZ 004367f0 f i stlport_vc71_static:num_get_float.obj
 0001:00035800       ?_Initialize_get_float@_STL@@YAXABV?$ctype@G@1@AAG111PAG@Z 00436800 f   stlport_vc71_static:num_get_float.obj
 0001:00035890       ?_Stl_mult64@_STL@@YAX_K0AA_K1@Z 00436890 f   stlport_vc71_static:num_get_float.obj
 0001:00035940       ?_Stl_set_exponent@_STL@@YAXAA_K_K@Z 00436940 f i stlport_vc71_static:num_get_float.obj
 0001:00035970       ?_Stl_norm_and_round@_STL@@YAXAA_KAAH_K2@Z 00436970 f   stlport_vc71_static:num_get_float.obj
 0001:00035a60       ?_Stl_tenscale@_STL@@YAXAA_KHAAH@Z 00436a60 f   stlport_vc71_static:num_get_float.obj
 0001:00035c00       ?_Stl_atod@_STL@@YANPADHH@Z 00436c00 f   stlport_vc71_static:num_get_float.obj
 0001:00035ea0       ?_Stl_string_to_double@_STL@@YANPBD@Z 00436ea0 f   stlport_vc71_static:num_get_float.obj
 0001:00036000       ?_Stl_string_to_long_double@_STL@@YAOPBD@Z 00437000 f   stlport_vc71_static:num_get_float.obj
 0001:00036170       ?__string_to_float@_STL@@YAXABV?$basic_string@DV?$char_traits@D@_STL@@V?$allocator@D@2@@1@AAM@Z 00437170 f   stlport_vc71_static:num_get_float.obj
 0001:00036190       ?__string_to_float@_STL@@YAXABV?$basic_string@DV?$char_traits@D@_STL@@V?$allocator@D@2@@1@AAN@Z 00437190 f   stlport_vc71_static:num_get_float.obj
 0001:000361b0       ?__string_to_float@_STL@@YAXABV?$basic_string@DV?$char_traits@D@_STL@@V?$allocator@D@2@@1@AAO@Z 004371b0 f   stlport_vc71_static:num_get_float.obj
 0001:000361d0       ?is@?$ctype@G@_STL@@QBE_NW4mask@ctype_base@2@G@Z 004371d0 f i stlport_vc71_static:monetary.obj
 0001:000361e0       ?decimal_point@?$moneypunct@D$00@_STL@@QBEDXZ 004371e0 f i stlport_vc71_static:monetary.obj
 0001:000361f0       ?thousands_sep@?$moneypunct@D$00@_STL@@QBEDXZ 004371f0 f i stlport_vc71_static:monetary.obj
 0001:00036200       ?frac_digits@?$moneypunct@D$00@_STL@@QBEHXZ 00437200 f i stlport_vc71_static:monetary.obj
 0001:00036210       ?pos_format@?$moneypunct@D$00@_STL@@QBE?AUpattern@money_base@2@XZ 00437210 f i stlport_vc71_static:monetary.obj
 0001:00036230       ?neg_format@?$moneypunct@D$00@_STL@@QBE?AUpattern@money_base@2@XZ 00437230 f i stlport_vc71_static:monetary.obj
 0001:00036250       ?decimal_point@?$moneypunct@D$0A@@_STL@@QBEDXZ 00437250 f i stlport_vc71_static:monetary.obj
 0001:00036260       ?thousands_sep@?$moneypunct@D$0A@@_STL@@QBEDXZ 00437260 f i stlport_vc71_static:monetary.obj
 0001:00036270       ?frac_digits@?$moneypunct@D$0A@@_STL@@QBEHXZ 00437270 f i stlport_vc71_static:monetary.obj
 0001:00036280       ?pos_format@?$moneypunct@D$0A@@_STL@@QBE?AUpattern@money_base@2@XZ 00437280 f i stlport_vc71_static:monetary.obj
 0001:000362a0       ?neg_format@?$moneypunct@D$0A@@_STL@@QBE?AUpattern@money_base@2@XZ 004372a0 f i stlport_vc71_static:monetary.obj
 0001:000362c0       ?decimal_point@?$moneypunct@G$00@_STL@@QBEGXZ 004372c0 f i stlport_vc71_static:monetary.obj
 0001:000362d0       ?thousands_sep@?$moneypunct@G$00@_STL@@QBEGXZ 004372d0 f i stlport_vc71_static:monetary.obj
 0001:000362e0       ?frac_digits@?$moneypunct@G$00@_STL@@QBEHXZ 004372e0 f i stlport_vc71_static:monetary.obj
 0001:000362f0       ?pos_format@?$moneypunct@G$00@_STL@@QBE?AUpattern@money_base@2@XZ 004372f0 f i stlport_vc71_static:monetary.obj
 0001:00036310       ?neg_format@?$moneypunct@G$00@_STL@@QBE?AUpattern@money_base@2@XZ 00437310 f i stlport_vc71_static:monetary.obj
 0001:00036330       ?decimal_point@?$moneypunct@G$0A@@_STL@@QBEGXZ 00437330 f i stlport_vc71_static:monetary.obj
 0001:00036340       ?thousands_sep@?$moneypunct@G$0A@@_STL@@QBEGXZ 00437340 f i stlport_vc71_static:monetary.obj
 0001:00036350       ?frac_digits@?$moneypunct@G$0A@@_STL@@QBEHXZ 00437350 f i stlport_vc71_static:monetary.obj
 0001:00036360       ?pos_format@?$moneypunct@G$0A@@_STL@@QBE?AUpattern@money_base@2@XZ 00437360 f i stlport_vc71_static:monetary.obj
 0001:00036380       ?neg_format@?$moneypunct@G$0A@@_STL@@QBE?AUpattern@money_base@2@XZ 00437380 f i stlport_vc71_static:monetary.obj
 0001:000363a0       ?max@?$numeric_limits@O@_STL@@SAOXZ 004373a0 f i stlport_vc71_static:monetary.obj
 0001:000363d0       ??0?$moneypunct@D$00@_STL@@QAE@I@Z 004373d0 f   stlport_vc71_static:monetary.obj
 0001:00036410       ??1?$moneypunct@D$00@_STL@@MAE@XZ 00437410 f   stlport_vc71_static:monetary.obj
 0001:00036420       ?do_decimal_point@?$moneypunct@D$00@_STL@@MBEDXZ 00437420 f   stlport_vc71_static:monetary.obj
 0001:00036430       ?do_thousands_sep@?$moneypunct@D$00@_STL@@MBEDXZ 00437430 f   stlport_vc71_static:monetary.obj
 0001:00036440       ?do_pos_format@?$moneypunct@D$00@_STL@@MBE?AUpattern@money_base@2@XZ 00437440 f   stlport_vc71_static:monetary.obj
 0001:00036450       ?do_neg_format@?$moneypunct@D$00@_STL@@MBE?AUpattern@money_base@2@XZ 00437450 f   stlport_vc71_static:monetary.obj
 0001:00036460       ?do_frac_digits@?$moneypunct@D$00@_STL@@MBEHXZ 00437460 f   stlport_vc71_static:monetary.obj
 0001:00036470       ??0?$moneypunct@D$0A@@_STL@@QAE@I@Z 00437470 f   stlport_vc71_static:monetary.obj
 0001:000364b0       ??1?$moneypunct@D$0A@@_STL@@MAE@XZ 004374b0 f   stlport_vc71_static:monetary.obj
 0001:000364c0       ?do_decimal_point@?$moneypunct@D$0A@@_STL@@MBEDXZ 004374c0 f   stlport_vc71_static:monetary.obj
 0001:000364d0       ?do_thousands_sep@?$moneypunct@D$0A@@_STL@@MBEDXZ 004374d0 f   stlport_vc71_static:monetary.obj
 0001:000364e0       ?do_pos_format@?$moneypunct@D$0A@@_STL@@MBE?AUpattern@money_base@2@XZ 004374e0 f   stlport_vc71_static:monetary.obj
 0001:000364f0       ?do_neg_format@?$moneypunct@D$0A@@_STL@@MBE?AUpattern@money_base@2@XZ 004374f0 f   stlport_vc71_static:monetary.obj
 0001:00036500       ?do_frac_digits@?$moneypunct@D$0A@@_STL@@MBEHXZ 00437500 f   stlport_vc71_static:monetary.obj
 0001:00036510       ??0?$moneypunct@G$00@_STL@@QAE@I@Z 00437510 f   stlport_vc71_static:monetary.obj
 0001:00036550       ??1?$moneypunct@G$00@_STL@@MAE@XZ 00437550 f   stlport_vc71_static:monetary.obj
 0001:00036560       ?do_decimal_point@?$moneypunct@G$00@_STL@@MBEGXZ 00437560 f   stlport_vc71_static:monetary.obj
 0001:00036570       ?do_thousands_sep@?$moneypunct@G$00@_STL@@MBEGXZ 00437570 f   stlport_vc71_static:monetary.obj
 0001:00036580       ?do_frac_digits@?$moneypunct@G$00@_STL@@MBEHXZ 00437580 f   stlport_vc71_static:monetary.obj
 0001:00036590       ?do_pos_format@?$moneypunct@G$00@_STL@@MBE?AUpattern@money_base@2@XZ 00437590 f   stlport_vc71_static:monetary.obj
 0001:000365a0       ?do_neg_format@?$moneypunct@G$00@_STL@@MBE?AUpattern@money_base@2@XZ 004375a0 f   stlport_vc71_static:monetary.obj
 0001:000365b0       ??0?$moneypunct@G$0A@@_STL@@QAE@I@Z 004375b0 f   stlport_vc71_static:monetary.obj
 0001:000365f0       ??1?$moneypunct@G$0A@@_STL@@MAE@XZ 004375f0 f   stlport_vc71_static:monetary.obj
 0001:00036600       ?do_decimal_point@?$moneypunct@G$0A@@_STL@@MBEGXZ 00437600 f   stlport_vc71_static:monetary.obj
 0001:00036610       ?do_thousands_sep@?$moneypunct@G$0A@@_STL@@MBEGXZ 00437610 f   stlport_vc71_static:monetary.obj
 0001:00036620       ?do_frac_digits@?$moneypunct@G$0A@@_STL@@MBEHXZ 00437620 f   stlport_vc71_static:monetary.obj
 0001:00036630       ?do_pos_format@?$moneypunct@G$0A@@_STL@@MBE?AUpattern@money_base@2@XZ 00437630 f   stlport_vc71_static:monetary.obj
 0001:00036640       ?do_neg_format@?$moneypunct@G$0A@@_STL@@MBE?AUpattern@money_base@2@XZ 00437640 f   stlport_vc71_static:monetary.obj
 0001:00036650       ?get@?$money_get@DV?$istreambuf_iterator@DV?$char_traits@D@_STL@@@_STL@@@_STL@@QBE?AV?$istreambuf_iterator@DV?$char_traits@D@_STL@@@2@V32@0_NAAVios_base@2@AAHAAO@Z 00437650 f i stlport_vc71_static:monetary.obj
 0001:00036690       ?get@?$money_get@DV?$istreambuf_iterator@DV?$char_traits@D@_STL@@@_STL@@@_STL@@QBE?AV?$istreambuf_iterator@DV?$char_traits@D@_STL@@@2@V32@0_NAAVios_base@2@AAHAAV?$basic_string@DV?$char_traits@D@_STL@@V?$allocator@D@2@@2@@Z 00437690 f i stlport_vc71_static:monetary.obj
 0001:000366d0       ?put@?$money_put@DV?$ostreambuf_iterator@DV?$char_traits@D@_STL@@@_STL@@@_STL@@QBE?AV?$ostreambuf_iterator@DV?$char_traits@D@_STL@@@2@V32@_NAAVios_base@2@DO@Z 004376d0 f i stlport_vc71_static:monetary.obj
 0001:00036710       ?put@?$money_put@DV?$ostreambuf_iterator@DV?$char_traits@D@_STL@@@_STL@@@_STL@@QBE?AV?$ostreambuf_iterator@DV?$char_traits@D@_STL@@@2@V32@_NAAVios_base@2@DABV?$basic_string@DV?$char_traits@D@_STL@@V?$allocator@D@2@@2@@Z 00437710 f i stlport_vc71_static:monetary.obj
 0001:00036740       ?get@?$money_get@GV?$istreambuf_iterator@GV?$char_traits@G@_STL@@@_STL@@@_STL@@QBE?AV?$istreambuf_iterator@GV?$char_traits@G@_STL@@@2@V32@0_NAAVios_base@2@AAHAAO@Z 00437740 f i stlport_vc71_static:monetary.obj
 0001:00036780       ?get@?$money_get@GV?$istreambuf_iterator@GV?$char_traits@G@_STL@@@_STL@@@_STL@@QBE?AV?$istreambuf_iterator@GV?$char_traits@G@_STL@@@2@V32@0_NAAVios_base@2@AAHAAV?$basic_string@GV?$char_traits@G@_STL@@V?$allocator@G@2@@2@@Z 00437780 f i stlport_vc71_static:monetary.obj
 0001:000367c0       ?put@?$money_put@GV?$ostreambuf_iterator@GV?$char_traits@G@_STL@@@_STL@@@_STL@@QBE?AV?$ostreambuf_iterator@GV?$char_traits@G@_STL@@@2@V32@_NAAVios_base@2@GO@Z 004377c0 f i stlport_vc71_static:monetary.obj
 0001:00036800       ?put@?$money_put@GV?$ostreambuf_iterator@GV?$char_traits@G@_STL@@@_STL@@@_STL@@QBE?AV?$ostreambuf_iterator@GV?$char_traits@G@_STL@@@2@V32@_NAAVios_base@2@GABV?$basic_string@GV?$char_traits@G@_STL@@V?$allocator@G@2@@2@@Z 00437800 f i stlport_vc71_static:monetary.obj
 0001:00036830       ?begin@?$basic_string@GV?$char_traits@G@_STL@@V?$allocator@G@2@@_STL@@QAEPAGXZ 00437830 f i stlport_vc71_static:monetary.obj
 0001:00036840       ?end@?$basic_string@GV?$char_traits@G@_STL@@V?$allocator@G@2@@_STL@@QAEPAGXZ 00437840 f i stlport_vc71_static:monetary.obj
 0001:00036850       ?begin@?$basic_string@GV?$char_traits@G@_STL@@V?$allocator@G@2@@_STL@@QBEPBGXZ 00437850 f i stlport_vc71_static:monetary.obj
 0001:00036860       ?end@?$basic_string@GV?$char_traits@G@_STL@@V?$allocator@G@2@@_STL@@QBEPBGXZ 00437860 f i stlport_vc71_static:monetary.obj
 0001:00036870       ??A?$basic_string@GV?$char_traits@G@_STL@@V?$allocator@G@2@@_STL@@QAEAAGI@Z 00437870 f i stlport_vc71_static:monetary.obj
 0001:00036880       ?data@?$basic_string@GV?$char_traits@G@_STL@@V?$allocator@G@2@@_STL@@QBEPBGXZ 00437880 f i stlport_vc71_static:monetary.obj
 0001:00036890       ??0?$back_insert_iterator@V?$basic_string@GV?$char_traits@G@_STL@@V?$allocator@G@2@@_STL@@@_STL@@QAE@AAV?$basic_string@GV?$char_traits@G@_STL@@V?$allocator@G@2@@1@@Z 00437890 f i stlport_vc71_static:monetary.obj
 0001:000368a0       ?assign@?$__char_traits_base@GG@_STL@@SAXAAGABG@Z 004378a0 f i stlport_vc71_static:monetary.obj
 0001:000368b0       ?_M_construct_null_aux@?$basic_string@GV?$char_traits@G@_STL@@V?$allocator@G@2@@_STL@@AAEXPAGABU__true_type@2@@Z 004378b0 f i stlport_vc71_static:monetary.obj
 0001:000368c0       ??$use_facet@V?$moneypunct@D$0A@@_STL@@@_STL@@YAABV?$moneypunct@D$0A@@0@ABVlocale@0@@Z 004378c0 f i stlport_vc71_static:monetary.obj
 0001:000368d0       ??$use_facet@V?$moneypunct@D$00@_STL@@@_STL@@YAABV?$moneypunct@D$00@0@ABVlocale@0@@Z 004378d0 f i stlport_vc71_static:monetary.obj
 0001:000368e0       ??$use_facet@V?$moneypunct@G$0A@@_STL@@@_STL@@YAABV?$moneypunct@G$0A@@0@ABVlocale@0@@Z 004378e0 f i stlport_vc71_static:monetary.obj
 0001:000368f0       ??$use_facet@V?$moneypunct@G$00@_STL@@@_STL@@YAABV?$moneypunct@G$00@0@ABVlocale@0@@Z 004378f0 f i stlport_vc71_static:monetary.obj
 0001:00036900       ?move@?$__char_traits_base@GG@_STL@@SAPAGPAGPBGI@Z 00437900 f i stlport_vc71_static:monetary.obj
 0001:00036920       ?capacity@?$basic_string@GV?$char_traits@G@_STL@@V?$allocator@G@2@@_STL@@QBEIXZ 00437920 f i stlport_vc71_static:monetary.obj
 0001:00036930       ??E?$back_insert_iterator@V?$basic_string@DV?$char_traits@D@_STL@@V?$allocator@D@2@@_STL@@@_STL@@QAE?AV01@H@Z 00437930 f i stlport_vc71_static:monetary.obj
 0001:00036940       ??D?$back_insert_iterator@V?$basic_string@GV?$char_traits@G@_STL@@V?$allocator@G@2@@_STL@@@_STL@@QAEAAV01@XZ 00437940 f i stlport_vc71_static:monetary.obj
 0001:00036950       ??E?$back_insert_iterator@V?$basic_string@GV?$char_traits@G@_STL@@V?$allocator@G@2@@_STL@@@_STL@@QAE?AV01@H@Z 00437950 f i stlport_vc71_static:monetary.obj
 0001:00036960       ??$_Construct@GG@_STL@@YAXPAGABG@Z 00437960 f i stlport_vc71_static:monetary.obj
 0001:00036980       ??0?$pair@V?$istreambuf_iterator@DV?$char_traits@D@_STL@@@_STL@@_N@_STL@@QAE@ABV?$istreambuf_iterator@DV?$char_traits@D@_STL@@@1@AB_N@Z 00437980 f i stlport_vc71_static:monetary.obj
 0001:000369a0       ??0?$pair@V?$istreambuf_iterator@GV?$char_traits@G@_STL@@@_STL@@_N@_STL@@QAE@ABV?$istreambuf_iterator@GV?$char_traits@G@_STL@@@1@AB_N@Z 004379a0 f i stlport_vc71_static:monetary.obj
 0001:000369c0       ??0?$pair@V?$istreambuf_iterator@DV?$char_traits@D@_STL@@@_STL@@PAD@_STL@@QAE@ABV?$istreambuf_iterator@DV?$char_traits@D@_STL@@@1@ABQAD@Z 004379c0 f i stlport_vc71_static:monetary.obj
 0001:000369e0       ??0?$pair@V?$istreambuf_iterator@GV?$char_traits@G@_STL@@@_STL@@PAG@_STL@@QAE@ABV?$istreambuf_iterator@GV?$char_traits@G@_STL@@@1@ABQAG@Z 004379e0 f i stlport_vc71_static:monetary.obj
 0001:00036a00       ??_G?$moneypunct@D$00@_STL@@MAEPAXI@Z 00437a00 f i stlport_vc71_static:monetary.obj
 0001:00036a00       ??_E?$moneypunct@D$00@_STL@@MAEPAXI@Z 00437a00 f i stlport_vc71_static:monetary.obj
 0001:00036a20       ??_G?$moneypunct@D$0A@@_STL@@MAEPAXI@Z 00437a20 f i stlport_vc71_static:monetary.obj
 0001:00036a20       ??_E?$moneypunct@D$0A@@_STL@@MAEPAXI@Z 00437a20 f i stlport_vc71_static:monetary.obj
 0001:00036a40       ??_G?$moneypunct@G$00@_STL@@MAEPAXI@Z 00437a40 f i stlport_vc71_static:monetary.obj
 0001:00036a40       ??_E?$moneypunct@G$00@_STL@@MAEPAXI@Z 00437a40 f i stlport_vc71_static:monetary.obj
 0001:00036a60       ??_E?$moneypunct@G$0A@@_STL@@MAEPAXI@Z 00437a60 f i stlport_vc71_static:monetary.obj
 0001:00036a60       ??_G?$moneypunct@G$0A@@_STL@@MAEPAXI@Z 00437a60 f i stlport_vc71_static:monetary.obj
 0001:00036a80       ?_M_construct_null@?$basic_string@GV?$char_traits@G@_STL@@V?$allocator@G@2@@_STL@@AAEXPAG@Z 00437a80 f i stlport_vc71_static:monetary.obj
 0001:00036a90       ??$fill_n@V?$ostreambuf_iterator@DV?$char_traits@D@_STL@@@_STL@@ID@_STL@@YA?AV?$ostreambuf_iterator@DV?$char_traits@D@_STL@@@0@V10@IABD@Z 00437a90 f i stlport_vc71_static:monetary.obj
 0001:00036b10       ?max_size@?$basic_string@GV?$char_traits@G@_STL@@V?$allocator@G@2@@_STL@@QBEIXZ 00437b10 f i stlport_vc71_static:monetary.obj
 0001:00036b20       ??$make_pair@V?$istreambuf_iterator@DV?$char_traits@D@_STL@@@_STL@@_N@_STL@@YA?AU?$pair@V?$istreambuf_iterator@DV?$char_traits@D@_STL@@@_STL@@_N@0@ABV?$istreambuf_iterator@DV?$char_traits@D@_STL@@@0@AB_N@Z 00437b20 f i stlport_vc71_static:monetary.obj
 0001:00036b40       ??$make_pair@V?$istreambuf_iterator@GV?$char_traits@G@_STL@@@_STL@@_N@_STL@@YA?AU?$pair@V?$istreambuf_iterator@GV?$char_traits@G@_STL@@@_STL@@_N@0@ABV?$istreambuf_iterator@GV?$char_traits@G@_STL@@@0@AB_N@Z 00437b40 f i stlport_vc71_static:monetary.obj
 0001:00036b60       ??$__get_string@V?$istreambuf_iterator@DV?$char_traits@D@_STL@@@_STL@@PAD@_STL@@YA?AU?$pair@V?$istreambuf_iterator@DV?$char_traits@D@_STL@@@_STL@@_N@0@V?$istreambuf_iterator@DV?$char_traits@D@_STL@@@0@0PAD1@Z 00437b60 f i stlport_vc71_static:monetary.obj
 0001:00036bb0       ??$fill_n@V?$ostreambuf_iterator@GV?$char_traits@G@_STL@@@_STL@@IG@_STL@@YA?AV?$ostreambuf_iterator@GV?$char_traits@G@_STL@@@0@V10@IABG@Z 00437bb0 f i stlport_vc71_static:monetary.obj
 0001:00036c20       ??4?$back_insert_iterator@V?$basic_string@GV?$char_traits@G@_STL@@V?$allocator@G@2@@_STL@@@_STL@@QAEAAV01@ABG@Z 00437c20 f i stlport_vc71_static:monetary.obj
 0001:00036c40       ??$_M_append_dispatch@PAG@?$basic_string@GV?$char_traits@G@_STL@@V?$allocator@G@2@@_STL@@AAEAAV01@PAG0ABU__false_type@1@@Z 00437c40 f i stlport_vc71_static:monetary.obj
 0001:00036c50       ??$append@PAG@?$basic_string@GV?$char_traits@G@_STL@@V?$allocator@G@2@@_STL@@QAEAAV01@PAG0@Z 00437c50 f i stlport_vc71_static:monetary.obj
 0001:00036c70       ?do_grouping@?$moneypunct@D$00@_STL@@MBE?AV?$basic_string@DV?$char_traits@D@_STL@@V?$allocator@D@2@@2@XZ 00437c70 f   stlport_vc71_static:monetary.obj
 0001:00036ca0       ?do_curr_symbol@?$moneypunct@D$00@_STL@@MBE?AV?$basic_string@DV?$char_traits@D@_STL@@V?$allocator@D@2@@2@XZ 00437ca0 f   stlport_vc71_static:monetary.obj
 0001:00036cd0       ?do_positive_sign@?$moneypunct@D$00@_STL@@MBE?AV?$basic_string@DV?$char_traits@D@_STL@@V?$allocator@D@2@@2@XZ 00437cd0 f   stlport_vc71_static:monetary.obj
 0001:00036d00       ?do_negative_sign@?$moneypunct@D$00@_STL@@MBE?AV?$basic_string@DV?$char_traits@D@_STL@@V?$allocator@D@2@@2@XZ 00437d00 f   stlport_vc71_static:monetary.obj
 0001:00036d30       ?do_grouping@?$moneypunct@D$0A@@_STL@@MBE?AV?$basic_string@DV?$char_traits@D@_STL@@V?$allocator@D@2@@2@XZ 00437d30 f   stlport_vc71_static:monetary.obj
 0001:00036d60       ?do_curr_symbol@?$moneypunct@D$0A@@_STL@@MBE?AV?$basic_string@DV?$char_traits@D@_STL@@V?$allocator@D@2@@2@XZ 00437d60 f   stlport_vc71_static:monetary.obj
 0001:00036d90       ?do_positive_sign@?$moneypunct@D$0A@@_STL@@MBE?AV?$basic_string@DV?$char_traits@D@_STL@@V?$allocator@D@2@@2@XZ 00437d90 f   stlport_vc71_static:monetary.obj
 0001:00036dc0       ?do_negative_sign@?$moneypunct@D$0A@@_STL@@MBE?AV?$basic_string@DV?$char_traits@D@_STL@@V?$allocator@D@2@@2@XZ 00437dc0 f   stlport_vc71_static:monetary.obj
 0001:00036df0       ?do_grouping@?$moneypunct@G$00@_STL@@MBE?AV?$basic_string@DV?$char_traits@D@_STL@@V?$allocator@D@2@@2@XZ 00437df0 f   stlport_vc71_static:monetary.obj
 0001:00036e20       ?do_curr_symbol@?$moneypunct@G$00@_STL@@MBE?AV?$basic_string@GV?$char_traits@G@_STL@@V?$allocator@G@2@@2@XZ 00437e20 f   stlport_vc71_static:monetary.obj
 0001:00036e50       ?do_positive_sign@?$moneypunct@G$00@_STL@@MBE?AV?$basic_string@GV?$char_traits@G@_STL@@V?$allocator@G@2@@2@XZ 00437e50 f   stlport_vc71_static:monetary.obj
 0001:00036e80       ?do_negative_sign@?$moneypunct@G$00@_STL@@MBE?AV?$basic_string@GV?$char_traits@G@_STL@@V?$allocator@G@2@@2@XZ 00437e80 f   stlport_vc71_static:monetary.obj
 0001:00036eb0       ?do_grouping@?$moneypunct@G$0A@@_STL@@MBE?AV?$basic_string@DV?$char_traits@D@_STL@@V?$allocator@D@2@@2@XZ 00437eb0 f   stlport_vc71_static:monetary.obj
 0001:00036ee0       ?do_curr_symbol@?$moneypunct@G$0A@@_STL@@MBE?AV?$basic_string@GV?$char_traits@G@_STL@@V?$allocator@G@2@@2@XZ 00437ee0 f   stlport_vc71_static:monetary.obj
 0001:00036f10       ?do_positive_sign@?$moneypunct@G$0A@@_STL@@MBE?AV?$basic_string@GV?$char_traits@G@_STL@@V?$allocator@G@2@@2@XZ 00437f10 f   stlport_vc71_static:monetary.obj
 0001:00036f40       ?do_negative_sign@?$moneypunct@G$0A@@_STL@@MBE?AV?$basic_string@GV?$char_traits@G@_STL@@V?$allocator@G@2@@2@XZ 00437f40 f   stlport_vc71_static:monetary.obj
 0001:00036f70       ??$assign@PAG@?$basic_string@GV?$char_traits@G@_STL@@V?$allocator@G@2@@_STL@@QAEAAV01@PAG0@Z 00437f70 f i stlport_vc71_static:monetary.obj
 0001:00036f90       ??0?$messages@D@_STL@@QAE@PAV_Messages@1@@Z 00437f90 f   stlport_vc71_static:messages.obj
 0001:00036fc0       ??1?$messages@D@_STL@@MAE@XZ 00437fc0 f   stlport_vc71_static:messages.obj
 0001:00037020       ?do_open@?$messages@D@_STL@@MBEHABV?$basic_string@DV?$char_traits@D@_STL@@V?$allocator@D@2@@2@ABVlocale@2@@Z 00438020 f   stlport_vc71_static:messages.obj
 0001:00037030       ?do_close@?$messages@D@_STL@@MBEXH@Z 00438030 f   stlport_vc71_static:messages.obj
 0001:00037040       ??0_Messages@_STL@@QAE@XZ  00438040 f   stlport_vc71_static:messages.obj
 0001:00037050       ??1_Messages@_STL@@UAE@XZ  00438050 f   stlport_vc71_static:messages.obj
 0001:00037060       ?do_open@_Messages@_STL@@UBEHABV?$basic_string@DV?$char_traits@D@_STL@@V?$allocator@D@2@@2@ABVlocale@2@@Z 00438060 f   stlport_vc71_static:messages.obj
 0001:00037070       ?do_close@_Messages@_STL@@UBEXH@Z 00438070 f   stlport_vc71_static:messages.obj
 0001:00037080       ??0?$messages@G@_STL@@QAE@PAV_Messages@1@@Z 00438080 f   stlport_vc71_static:messages.obj
 0001:000370b0       ??1?$messages@G@_STL@@MAE@XZ 004380b0 f   stlport_vc71_static:messages.obj
 0001:00037110       ?do_open@?$messages@G@_STL@@MBEHABV?$basic_string@DV?$char_traits@D@_STL@@V?$allocator@D@2@@2@ABVlocale@2@@Z 00438110 f   stlport_vc71_static:messages.obj
 0001:00037120       ?do_close@?$messages@G@_STL@@MBEXH@Z 00438120 f   stlport_vc71_static:messages.obj
 0001:00037130       ??_G?$messages@D@_STL@@MAEPAXI@Z 00438130 f i stlport_vc71_static:messages.obj
 0001:00037130       ??_E?$messages@D@_STL@@MAEPAXI@Z 00438130 f i stlport_vc71_static:messages.obj
 0001:00037150       ??_E_Messages@_STL@@UAEPAXI@Z 00438150 f i stlport_vc71_static:messages.obj
 0001:00037150       ??_G_Messages@_STL@@UAEPAXI@Z 00438150 f i stlport_vc71_static:messages.obj
 0001:00037170       ??_G?$messages@G@_STL@@MAEPAXI@Z 00438170 f i stlport_vc71_static:messages.obj
 0001:00037170       ??_E?$messages@G@_STL@@MAEPAXI@Z 00438170 f i stlport_vc71_static:messages.obj
 0001:00037190       ?do_get@?$messages@D@_STL@@MBE?AV?$basic_string@DV?$char_traits@D@_STL@@V?$allocator@D@2@@2@HHHABV32@@Z 00438190 f   stlport_vc71_static:messages.obj
 0001:000371d0       ?do_get@_Messages@_STL@@UBE?AV?$basic_string@DV?$char_traits@D@_STL@@V?$allocator@D@2@@2@HHHABV32@@Z 004381d0 f   stlport_vc71_static:messages.obj
 0001:00037200       ?do_get@?$messages@G@_STL@@MBE?AV?$basic_string@GV?$char_traits@G@_STL@@V?$allocator@G@2@@2@HHHABV32@@Z 00438200 f   stlport_vc71_static:messages.obj
 0001:00037240       ?do_get@_Messages@_STL@@UBE?AV?$basic_string@GV?$char_traits@G@_STL@@V?$allocator@G@2@@2@HHHABV32@@Z 00438240 f   stlport_vc71_static:messages.obj
 0001:00037270       ?_Stl_is_nan_or_inf@_STL@@YA_NN@Z 00438270 f i stlport_vc71_static:num_put_float.obj
 0001:00037290       ?_Stl_is_inf@_STL@@YA_NN@Z 00438290 f i stlport_vc71_static:num_put_float.obj
 0001:000372c0       ?_Stl_is_neg_inf@_STL@@YA_NN@Z 004382c0 f i stlport_vc71_static:num_put_float.obj
 0001:000372e0       ?_Stl_is_neg_nan@_STL@@YA_NN@Z 004382e0 f i stlport_vc71_static:num_put_float.obj
 0001:00037330       ?_Stl_ecvtR@_STL@@YAPADNHPAH0PAD@Z 00438330 f i stlport_vc71_static:num_put_float.obj
 0001:00037360       ?_Stl_fcvtR@_STL@@YAPADNHPAH0PAD@Z 00438360 f i stlport_vc71_static:num_put_float.obj
 0001:00037390       ?_Stl_qecvtR@_STL@@YAPADOHPAH0PAD@Z 00438390 f i stlport_vc71_static:num_put_float.obj
 0001:000373c0       ?_Stl_qfcvtR@_STL@@YAPADOHPAH0PAD@Z 004383c0 f i stlport_vc71_static:num_put_float.obj
 0001:000373f0       ?__format_float_scientific@_STL@@YAXPADPBDHH_NHH2@Z 004383f0 f   stlport_vc71_static:num_put_float.obj
 0001:000374e0       ?__format_nan_or_inf@_STL@@YAXPADNH@Z 004384e0 f   stlport_vc71_static:num_put_float.obj
 0001:00037580       ??$replace@PAGG@_STL@@YAXPAG0ABG1@Z 00438580 f i stlport_vc71_static:num_put_float.obj
 0001:000375b0       ??$replace@PADD@_STL@@YAXPAD0ABD1@Z 004385b0 f i stlport_vc71_static:num_put_float.obj
 0001:000375e0       ?__convert_float_buffer@_STL@@YAPAGPBD0PAGABV?$ctype@G@1@G@Z 004385e0 f   stlport_vc71_static:num_put_float.obj
 0001:00037640       ?__adjust_float_buffer@_STL@@YAXPAD0D@Z 00438640 f   stlport_vc71_static:num_put_float.obj
 0001:00037690       ?__format_float_fixed@_STL@@YAXAAV?$basic_string@DV?$char_traits@D@_STL@@V?$allocator@D@2@@1@PBDHH_NHH2@Z 00438690 f   stlport_vc71_static:num_put_float.obj
 0001:00037d00       ?__write_float@_STL@@YAXAAV?$basic_string@DV?$char_traits@D@_STL@@V?$allocator@D@2@@1@HHN@Z 00438d00 f   stlport_vc71_static:num_put_float.obj
 0001:00037de0       ?__write_float@_STL@@YAXAAV?$basic_string@DV?$char_traits@D@_STL@@V?$allocator@D@2@@1@HHO@Z 00438de0 f   stlport_vc71_static:num_put_float.obj
 0001:00037ec0       ??0stdio_streambuf_base@_SgI@@QAE@PAU_iobuf@@@Z 00438ec0 f   stlport_vc71_static:stdio_streambuf.obj
 0001:00037ee0       ??1stdio_streambuf_base@_SgI@@UAE@XZ 00438ee0 f   stlport_vc71_static:stdio_streambuf.obj
 0001:00037f00       ?setbuf@stdio_streambuf_base@_SgI@@MAEPAV?$basic_streambuf@DV?$char_traits@D@_STL@@@_STL@@PADH@Z 00438f00 f   stlport_vc71_static:stdio_streambuf.obj
 0001:00037f40       ?sync@stdio_streambuf_base@_SgI@@MAEHXZ 00438f40 f   stlport_vc71_static:stdio_streambuf.obj
 0001:00037f60       ??1stdio_istreambuf@_SgI@@UAE@XZ 00438f60 f   stlport_vc71_static:stdio_streambuf.obj
 0001:00037f80       ?showmanyc@stdio_istreambuf@_SgI@@MAEHXZ 00438f80 f   stlport_vc71_static:stdio_streambuf.obj
 0001:00038000       ??1stdio_ostreambuf@_SgI@@UAE@XZ 00439000 f   stlport_vc71_static:stdio_streambuf.obj
 0001:00038020       ?showmanyc@stdio_ostreambuf@_SgI@@MAEHXZ 00439020 f   stlport_vc71_static:stdio_streambuf.obj
 0001:00038030       ??_Estdio_streambuf_base@_SgI@@UAEPAXI@Z 00439030 f i stlport_vc71_static:stdio_streambuf.obj
 0001:00038030       ??_Gstdio_streambuf_base@_SgI@@UAEPAXI@Z 00439030 f i stlport_vc71_static:stdio_streambuf.obj
 0001:00038050       ?seekoff@stdio_streambuf_base@_SgI@@MAE?AV?$fpos@H@_STL@@JHH@Z 00439050 f   stlport_vc71_static:stdio_streambuf.obj
 0001:000380d0       ?seekpos@stdio_streambuf_base@_SgI@@MAE?AV?$fpos@H@_STL@@V34@H@Z 004390d0 f   stlport_vc71_static:stdio_streambuf.obj
 0001:00038120       ?underflow@stdio_istreambuf@_SgI@@MAEHXZ 00439120 f   stlport_vc71_static:stdio_streambuf.obj
 0001:00038150       ?uflow@stdio_istreambuf@_SgI@@MAEHXZ 00439150 f   stlport_vc71_static:stdio_streambuf.obj
 0001:00038170       ?pbackfail@stdio_istreambuf@_SgI@@MAEHH@Z 00439170 f   stlport_vc71_static:stdio_streambuf.obj
 0001:000381b0       ?overflow@stdio_ostreambuf@_SgI@@MAEHH@Z 004391b0 f   stlport_vc71_static:stdio_streambuf.obj
 0001:00038270       __Locale_messages_create   00439270 f   stlport_vc71_static:c_locale.obj
 0001:00038290       __Locale_ctype_destroy     00439290 f   stlport_vc71_static:c_locale.obj
 0001:000382b0       __Locale_numeric_destroy   004392b0 f   stlport_vc71_static:c_locale.obj
 0001:000382e0       __Locale_time_destroy      004392e0 f   stlport_vc71_static:c_locale.obj
 0001:00038360       __Locale_collate_destroy   00439360 f   stlport_vc71_static:c_locale.obj
 0001:00038380       __Locale_monetary_destroy  00439380 f   stlport_vc71_static:c_locale.obj
 0001:000383b0       __Locale_messages_destroy  004393b0 f   stlport_vc71_static:c_locale.obj
 0001:000383d0       __Locale_extract_messages_name 004393d0 f   stlport_vc71_static:c_locale.obj
 0001:00038410       __Locale_compose_name      00439410 f   stlport_vc71_static:c_locale.obj
 0001:000387f0       __Locale_ctype_table       004397f0 f   stlport_vc71_static:c_locale.obj
 0001:00038800       __Locale_wchar_ctype       00439800 f   stlport_vc71_static:c_locale.obj
 0001:00038830       __Locale_wchar_tolower     00439830 f   stlport_vc71_static:c_locale.obj
 0001:00038860       __Locale_wchar_toupper     00439860 f   stlport_vc71_static:c_locale.obj
 0001:00038890       __Locale_mb_cur_max        00439890 f   stlport_vc71_static:c_locale.obj
 0001:000388c0       __Locale_mb_cur_min        004398c0 f   stlport_vc71_static:c_locale.obj
 0001:000388d0       __Locale_is_stateless      004398d0 f   stlport_vc71_static:c_locale.obj
 0001:00038900       __Locale_btowc             00439900 f   stlport_vc71_static:c_locale.obj
 0001:00038940       __Locale_wctob             00439940 f   stlport_vc71_static:c_locale.obj
 0001:00038a00       __Locale_mbtowc            00439a00 f   stlport_vc71_static:c_locale.obj
 0001:00038b00       __Locale_wctomb            00439b00 f   stlport_vc71_static:c_locale.obj
 0001:00038b60       __Locale_unshift           00439b60 f   stlport_vc71_static:c_locale.obj
 0001:00038ba0       __Locale_strwcmp           00439ba0 f   stlport_vc71_static:c_locale.obj
 0001:00038be0       __Locale_strwxfrm          00439be0 f   stlport_vc71_static:c_locale.obj
 0001:00038c10       __Locale_decimal_point     00439c10 f   stlport_vc71_static:c_locale.obj
 0001:00038c20       __Locale_thousands_sep     00439c20 f   stlport_vc71_static:c_locale.obj
 0001:00038c30       __Locale_grouping          00439c30 f   stlport_vc71_static:c_locale.obj
 0001:00038c50       __Locale_true              00439c50 f   stlport_vc71_static:c_locale.obj
 0001:00038c60       __Locale_false             00439c60 f   stlport_vc71_static:c_locale.obj
 0001:00038c70       __Locale_int_curr_symbol   00439c70 f   stlport_vc71_static:c_locale.obj
 0001:00038c80       __Locale_currency_symbol   00439c80 f   stlport_vc71_static:c_locale.obj
 0001:00038c90       __Locale_mon_decimal_point 00439c90 f   stlport_vc71_static:c_locale.obj
 0001:00038ca0       __Locale_mon_thousands_sep 00439ca0 f   stlport_vc71_static:c_locale.obj
 0001:00038cb0       __Locale_mon_grouping      00439cb0 f   stlport_vc71_static:c_locale.obj
 0001:00038cd0       __Locale_positive_sign     00439cd0 f   stlport_vc71_static:c_locale.obj
 0001:00038ce0       __Locale_negative_sign     00439ce0 f   stlport_vc71_static:c_locale.obj
 0001:00038cf0       __Locale_int_frac_digits   00439cf0 f   stlport_vc71_static:c_locale.obj
 0001:00038d00       __Locale_frac_digits       00439d00 f   stlport_vc71_static:c_locale.obj
 0001:00038d10       __Locale_p_cs_precedes     00439d10 f   stlport_vc71_static:c_locale.obj
 0001:00038d50       __Locale_p_sep_by_space    00439d50 f   stlport_vc71_static:c_locale.obj
 0001:00038d90       __Locale_p_sign_posn       00439d90 f   stlport_vc71_static:c_locale.obj
 0001:00038dc0       __Locale_n_cs_precedes     00439dc0 f   stlport_vc71_static:c_locale.obj
 0001:00038e00       __Locale_n_sep_by_space    00439e00 f   stlport_vc71_static:c_locale.obj
 0001:00038e40       __Locale_n_sign_posn       00439e40 f   stlport_vc71_static:c_locale.obj
 0001:00038e70       __Locale_full_monthname    00439e70 f   stlport_vc71_static:c_locale.obj
 0001:00038e80       __Locale_abbrev_monthname  00439e80 f   stlport_vc71_static:c_locale.obj
 0001:00038e90       __Locale_full_dayofweek    00439e90 f   stlport_vc71_static:c_locale.obj
 0001:00038ea0       __Locale_abbrev_dayofweek  00439ea0 f   stlport_vc71_static:c_locale.obj
 0001:00038eb0       ___ConvertDate             00439eb0 f   stlport_vc71_static:c_locale.obj
 0001:00039070       __Locale_catopen           0043a070 f   stlport_vc71_static:c_locale.obj
 0001:00039080       __Locale_catclose          0043a080 f   stlport_vc71_static:c_locale.obj
 0001:00039090       __Locale_catgets           0043a090 f   stlport_vc71_static:c_locale.obj
 0001:000396e0       __Locale_common_default    0043a6e0 f   stlport_vc71_static:c_locale.obj
 0001:00039750       __Locale_ctype_default     0043a750 f   stlport_vc71_static:c_locale.obj
 0001:00039760       __Locale_numeric_default   0043a760 f   stlport_vc71_static:c_locale.obj
 0001:00039770       __Locale_time_default      0043a770 f   stlport_vc71_static:c_locale.obj
 0001:00039780       __Locale_collate_default   0043a780 f   stlport_vc71_static:c_locale.obj
 0001:00039790       __Locale_monetary_default  0043a790 f   stlport_vc71_static:c_locale.obj
 0001:000397a0       __Locale_messages_default  0043a7a0 f   stlport_vc71_static:c_locale.obj
 0001:000397b0       __Locale_ctype_name        0043a7b0 f   stlport_vc71_static:c_locale.obj
 0001:000397e0       __Locale_numeric_name      0043a7e0 f   stlport_vc71_static:c_locale.obj
 0001:00039800       __Locale_time_name         0043a800 f   stlport_vc71_static:c_locale.obj
 0001:00039820       __Locale_collate_name      0043a820 f   stlport_vc71_static:c_locale.obj
 0001:00039840       __Locale_monetary_name     0043a840 f   stlport_vc71_static:c_locale.obj
 0001:00039860       __Locale_messages_name     0043a860 f   stlport_vc71_static:c_locale.obj
 0001:00039880       __Locale_toupper           0043a880 f   stlport_vc71_static:c_locale.obj
 0001:000399b0       __Locale_tolower           0043a9b0 f   stlport_vc71_static:c_locale.obj
 0001:00039ae0       __Locale_strcmp            0043aae0 f   stlport_vc71_static:c_locale.obj
 0001:00039c00       __Locale_strxfrm           0043ac00 f   stlport_vc71_static:c_locale.obj
 0001:00039cf0       __Locale_d_fmt             0043acf0 f   stlport_vc71_static:c_locale.obj
 0001:00039d30       __Locale_long_d_fmt        0043ad30 f   stlport_vc71_static:c_locale.obj
 0001:00039d70       __Locale_t_fmt             0043ad70 f   stlport_vc71_static:c_locale.obj
 0001:00039f20       __Locale_am_str            0043af20 f   stlport_vc71_static:c_locale.obj
 0001:00039f50       __Locale_pm_str            0043af50 f   stlport_vc71_static:c_locale.obj
 0001:00039f80       __Locale_t_fmt_ampm        0043af80 f   stlport_vc71_static:c_locale.obj
 0001:0003a220       __Locale_ctype_create      0043b220 f   stlport_vc71_static:c_locale.obj
 0001:0003a770       __Locale_numeric_create    0043b770 f   stlport_vc71_static:c_locale.obj
 0001:0003a8d0       __Locale_time_create       0043b8d0 f   stlport_vc71_static:c_locale.obj
 0001:0003acc0       __Locale_collate_create    0043bcc0 f   stlport_vc71_static:c_locale.obj
 0001:0003adb0       __Locale_monetary_create   0043bdb0 f   stlport_vc71_static:c_locale.obj
 0001:0003afb0       __Locale_extract_ctype_name 0043bfb0 f   stlport_vc71_static:c_locale.obj
 0001:0003b0c0       __Locale_extract_numeric_name 0043c0c0 f   stlport_vc71_static:c_locale.obj
 0001:0003b1d0       __Locale_extract_time_name 0043c1d0 f   stlport_vc71_static:c_locale.obj
 0001:0003b2e0       __Locale_extract_collate_name 0043c2e0 f   stlport_vc71_static:c_locale.obj
 0001:0003b3f0       __Locale_extract_monetary_name 0043c3f0 f   stlport_vc71_static:c_locale.obj
 0001:0003b500       __Locale_d_t_fmt           0043c500 f   stlport_vc71_static:c_locale.obj
 0001:0003b5a0       __Locale_long_d_t_fmt      0043c5a0 f   stlport_vc71_static:c_locale.obj
 0001:0003b63f       ??2@YAPAXI@Z               0043c63f f   libcpmt:newop.obj
 0001:0003b663       ??_U@YAPAXI@Z              0043c663 f   libcpmt:newaop.obj
 0001:0003b668       ?_Nomemory@std@@YAXXZ      0043c668 f   libcpmt:nomemory.obj
 0001:0003b6d0       _memmove                   0043c6d0 f   LIBCMT:memmove.obj
 0001:0003ba0d       ??3@YAXPAX@Z               0043ca0d f   LIBCMT:delete.obj
 0001:0003ba12       _free                      0043ca12 f   LIBCMT:free.obj
 0001:0003ba83       __CxxThrowException@8      0043ca83 f   LIBCMT:throw.obj
 0001:0003babd       ?_JumpToContinuation@@YGXPAXPAUEHRegistrationNode@@@Z 0043cabd f   LIBCMT:trnsctrl.obj
 0001:0003baed       ?_CallMemberFunction0@@YGXPAX0@Z 0043caed f   LIBCMT:trnsctrl.obj
 0001:0003baf4       ?_CallMemberFunction1@@YGXPAX00@Z 0043caf4 f   LIBCMT:trnsctrl.obj
 0001:0003bafb       ?_CallMemberFunction2@@YGXPAX00H@Z 0043cafb f   LIBCMT:trnsctrl.obj
 0001:0003bb02       ?_UnwindNestedFrames@@YGXPAUEHRegistrationNode@@PAUEHExceptionRecord@@@Z 0043cb02 f   LIBCMT:trnsctrl.obj
 0001:0003bb54       ___CxxFrameHandler         0043cb54 f   LIBCMT:trnsctrl.obj
 0001:0003bb8a       ___CxxLongjmpUnwind@4      0043cb8a f   LIBCMT:trnsctrl.obj
 0001:0003bbdf       ?_CallSETranslator@@YAHPAUEHExceptionRecord@@PAUEHRegistrationNode@@PAX2PBU_s_FuncInfo@@H1@Z 0043cbdf f   LIBCMT:trnsctrl.obj
 0001:0003bd58       ?_GetRangeOfTrysToCheck@@YAPBU_s_TryBlockMapEntry@@PBU_s_FuncInfo@@HHPAI1@Z 0043cd58 f   LIBCMT:trnsctrl.obj
 0001:0003bdd2       ?_CreateFrameInfo@@YAPAUFrameInfo@@PAU1@PAX@Z 0043cdd2 f   LIBCMT:trnsctrl.obj
 0001:0003bdfa       ?IsExceptionObjectToBeDestroyed@@YAHPAX@Z 0043cdfa f   LIBCMT:trnsctrl.obj
 0001:0003be1b       ?_FindAndUnlinkFrame@@YAXPAUFrameInfo@@@Z 0043ce1b f   LIBCMT:trnsctrl.obj
 0001:0003be67       ?_CallCatchBlock2@@YAPAXPAUEHRegistrationNode@@PBU_s_FuncInfo@@PAXHK@Z 0043ce67 f   LIBCMT:trnsctrl.obj
 0001:0003bec0       __global_unwind2           0043cec0 f   LIBCMT:exsup.obj
 0001:0003bf02       __local_unwind2            0043cf02 f   LIBCMT:exsup.obj
 0001:0003bf5a       __NLG_Return2              0043cf5a     LIBCMT:exsup.obj
 0001:0003bf6a       __abnormal_termination     0043cf6a f   LIBCMT:exsup.obj
 0001:0003bf8d       __NLG_Notify1              0043cf8d f   LIBCMT:exsup.obj
 0001:0003bf96       __NLG_Notify               0043cf96 f   LIBCMT:exsup.obj
 0001:0003bfa9       __NLG_Dispatch             0043cfa9     LIBCMT:exsup.obj
 0001:0003bfae       __heap_alloc               0043cfae f   LIBCMT:malloc.obj
 0001:0003c029       __nh_malloc                0043d029 f   LIBCMT:malloc.obj
 0001:0003c055       _malloc                    0043d055 f   LIBCMT:malloc.obj
 0001:0003c067       ??_V@YAXPAX@Z              0043d067 f   LIBCMT:delete2.obj
 0001:0003c06c       _atol                      0043d06c f   LIBCMT:atox.obj
 0001:0003c0f4       _atoi                      0043d0f4 f   LIBCMT:atox.obj
 0001:0003c0f9       __atoi64                   0043d0f9 f   LIBCMT:atox.obj
 0001:0003c220       ___onexitinit              0043d220 f   LIBCMT:onexit.obj
 0001:0003c248       __onexit                   0043d248 f   LIBCMT:onexit.obj
 0001:0003c280       _atexit                    0043d280 f   LIBCMT:onexit.obj
 0001:0003c292       __amsg_exit                0043d292 f   LIBCMT:crt0.obj
 0001:0003c331       _mainCRTStartup            0043d331 f   LIBCMT:crt0.obj
 0001:0003c4f1       __purecall                 0043d4f1 f   LIBCMT:purevirt.obj
 0001:0003c505       __set_purecall_handler     0043d505 f   LIBCMT:purevirt.obj
 0001:0003c515       ??0exception@@QAE@XZ       0043d515 f   LIBCMT:stdexcpt.obj
 0001:0003c526       ??0exception@@QAE@ABQBD@Z  0043d526 f   LIBCMT:stdexcpt.obj
 0001:0003c563       ??0exception@@QAE@ABV0@@Z  0043d563 f   LIBCMT:stdexcpt.obj
 0001:0003c5ad       ??1exception@@UAE@XZ       0043d5ad f   LIBCMT:stdexcpt.obj
 0001:0003c5c3       ?what@exception@@UBEPBDXZ  0043d5c3 f   LIBCMT:stdexcpt.obj
 0001:0003c5d0       ??0bad_cast@@QAE@PBD@Z     0043d5d0 f   LIBCMT:stdexcpt.obj
 0001:0003c5e9       ??0bad_cast@@QAE@ABV0@@Z   0043d5e9 f   LIBCMT:stdexcpt.obj
 0001:0003c601       ??1bad_cast@@UAE@XZ        0043d601 f   LIBCMT:stdexcpt.obj
 0001:0003c60c       ??0bad_typeid@@QAE@PBD@Z   0043d60c f   LIBCMT:stdexcpt.obj
 0001:0003c625       ??0bad_typeid@@QAE@ABV0@@Z 0043d625 f   LIBCMT:stdexcpt.obj
 0001:0003c63d       ??1bad_typeid@@UAE@XZ      0043d63d f   LIBCMT:stdexcpt.obj
 0001:0003c648       ??0__non_rtti_object@@QAE@PBD@Z 0043d648 f   LIBCMT:stdexcpt.obj
 0001:0003c660       ??0__non_rtti_object@@QAE@ABV0@@Z 0043d660 f   LIBCMT:stdexcpt.obj
 0001:0003c678       ??1__non_rtti_object@@UAE@XZ 0043d678 f   LIBCMT:stdexcpt.obj
 0001:0003c683       ??_Eexception@@UAEPAXI@Z   0043d683 f i LIBCMT:stdexcpt.obj
 0001:0003c683       ??_Gexception@@UAEPAXI@Z   0043d683 f i LIBCMT:stdexcpt.obj
 0001:0003c69f       ??4exception@@QAEAAV0@ABV0@@Z 0043d69f f   LIBCMT:stdexcpt.obj
 0001:0003c6be       ??_Ebad_cast@@UAEPAXI@Z    0043d6be f i LIBCMT:stdexcpt.obj
 0001:0003c6be       ??_Gbad_cast@@UAEPAXI@Z    0043d6be f i LIBCMT:stdexcpt.obj
 0001:0003c6da       ??_Gbad_typeid@@UAEPAXI@Z  0043d6da f i LIBCMT:stdexcpt.obj
 0001:0003c6da       ??_Ebad_typeid@@UAEPAXI@Z  0043d6da f i LIBCMT:stdexcpt.obj
 0001:0003c6f6       ??_E__non_rtti_object@@UAEPAXI@Z 0043d6f6 f i LIBCMT:stdexcpt.obj
 0001:0003c6f6       ??_G__non_rtti_object@@UAEPAXI@Z 0043d6f6 f i LIBCMT:stdexcpt.obj
 0001:0003c712       ??1type_info@@UAE@XZ       0043d712 f   LIBCMT:typinfo.obj
 0001:0003c758       ??_Etype_info@@UAEPAXI@Z   0043d758 f i LIBCMT:typinfo.obj
 0001:0003c758       ??_Gtype_info@@UAEPAXI@Z   0043d758 f i LIBCMT:typinfo.obj
 0001:0003c774       ??8type_info@@QBEHABV0@@Z  0043d774 f   LIBCMT:typinfo.obj
 0001:0003c78f       ??9type_info@@QBEHABV0@@Z  0043d78f f   LIBCMT:typinfo.obj
 0001:0003c7ab       ?before@type_info@@QBEHABV1@@Z 0043d7ab f   LIBCMT:typinfo.obj
 0001:0003c7ca       ?raw_name@type_info@@QBEPBDXZ 0043d7ca f   LIBCMT:typinfo.obj
 0001:0003c7ce       ??0type_info@@AAE@ABV0@@Z  0043d7ce f   LIBCMT:typinfo.obj
 0001:0003c7d9       ??4type_info@@AAEAAV0@ABV0@@Z 0043d7d9 f   LIBCMT:typinfo.obj
 0001:0003c7e0       __alloca_probe             0043d7e0     LIBCMT:chkstk.obj
 0001:0003c7e0       __chkstk                   0043d7e0 f   LIBCMT:chkstk.obj
 0001:0003c9dc       _strtol                    0043d9dc f   LIBCMT:strtol.obj
 0001:0003c9f3       _strtoul                   0043d9f3 f   LIBCMT:strtol.obj
 0001:0003ca0a       _isalpha                   0043da0a f   LIBCMT:_ctype.obj
 0001:0003ca49       _isupper                   0043da49 f   LIBCMT:_ctype.obj
 0001:0003ca83       _islower                   0043da83 f   LIBCMT:_ctype.obj
 0001:0003cabd       _isdigit                   0043dabd f   LIBCMT:_ctype.obj
 0001:0003caf7       _isxdigit                  0043daf7 f   LIBCMT:_ctype.obj
 0001:0003cb36       _isspace                   0043db36 f   LIBCMT:_ctype.obj
 0001:0003cb70       _ispunct                   0043db70 f   LIBCMT:_ctype.obj
 0001:0003cbaa       _isalnum                   0043dbaa f   LIBCMT:_ctype.obj
 0001:0003cbe9       _isprint                   0043dbe9 f   LIBCMT:_ctype.obj
 0001:0003cc28       _isgraph                   0043dc28 f   LIBCMT:_ctype.obj
 0001:0003cc67       _iscntrl                   0043dc67 f   LIBCMT:_ctype.obj
 0001:0003cca1       ___isascii                 0043dca1 f   LIBCMT:_ctype.obj
 0001:0003ccae       ___toascii                 0043dcae f   LIBCMT:_ctype.obj
 0001:0003ccb6       ___iscsymf                 0043dcb6 f   LIBCMT:_ctype.obj
 0001:0003ccd0       ___iscsym                  0043dcd0 f   LIBCMT:_ctype.obj
 0001:0003ccea       __fsopen                   0043dcea f   LIBCMT:fopen.obj
 0001:0003cd46       _fopen                     0043dd46 f   LIBCMT:fopen.obj
 0001:0003cd70       _strchr                    0043dd70 f   LIBCMT:strchr.obj
 0001:0003cd76       ___from_strstr_to_strchr   0043dd76     LIBCMT:strchr.obj
 0001:0003ce2e       _fgets                     0043de2e f   LIBCMT:fgets.obj
 0001:0003ceb4       _strtod                    0043deb4 f   LIBCMT:strtod.obj
 0001:0003cf42       __fpclear                  0043df42 f   LIBCMT:fpinit.obj
 0001:0003cf43       __cfltcvt_init             0043df43 f   LIBCMT:fpinit.obj
 0001:0003cf7b       ___setfflag                0043df7b f   LIBCMT:fpinit.obj
 0001:0003cf8b       __fpmath                   0043df8b f   LIBCMT:fpinit.obj
 0001:0003cfa9       __fclose_lk                0043dfa9 f   LIBCMT:fclose.obj
 0001:0003cff5       _fclose                    0043dff5 f   LIBCMT:fclose.obj
 0001:0003d050       __except_handler3          0043e050 f   LIBCMT:exsup3.obj
 0001:0003d136       __seh_longjmp_unwind@4     0043e136 f   LIBCMT:exsup3.obj
 0001:0003d151       _abort                     0043e151 f   LIBCMT:abort.obj
 0001:0003d169       __tolower                  0043e169 f   LIBCMT:tolower.obj
 0001:0003d171       ___tolower_mt              0043e171 f   LIBCMT:tolower.obj
 0001:0003d239       _tolower                   0043e239 f   LIBCMT:tolower.obj
 0001:0003d25b       __toupper                  0043e25b f   LIBCMT:toupper.obj
 0001:0003d263       ___toupper_mt              0043e263 f   LIBCMT:toupper.obj
 0001:0003d32c       _toupper                   0043e32c f   LIBCMT:toupper.obj
 0001:0003d34e       _sprintf                   0043e34e f   LIBCMT:sprintf.obj
 0001:0003d3a6       __scprintf                 0043e3a6 f   LIBCMT:sprintf.obj
 0001:0003d3d7       _printf                    0043e3d7 f   LIBCMT:printf.obj
 0001:0003d43d       __Getdays                  0043e43d f   LIBCMT:strftime.obj
 0001:0003d4bc       __Getmonths                0043e4bc f   LIBCMT:strftime.obj
 0001:0003d551       __Gettnames                0043e551 f   LIBCMT:strftime.obj
 0001:0003df43       __Strftime_mt              0043ef43 f   LIBCMT:strftime.obj
 0001:0003e008       __Strftime                 0043f008 f   LIBCMT:strftime.obj
 0001:0003e03a       _strftime                  0043f03a f   LIBCMT:strftime.obj
 0001:0003e055       _localtime                 0043f055 f   LIBCMT:localtim.obj
 0001:0003e1d5       _time                      0043f1d5 f   LIBCMT:time.obj
 0001:0003e20e       __flush                    0043f20e f   LIBCMT:fflush.obj
 0001:0003e26b       __fflush_lk                0043f26b f   LIBCMT:fflush.obj
 0001:0003e36e       _fflush                    0043f36e f   LIBCMT:fflush.obj
 0001:0003e3be       __flushall                 0043f3be f   LIBCMT:fflush.obj
 0001:0003e3c7       _vfprintf                  0043f3c7 f   LIBCMT:vfprintf.obj
 0001:0003e424       _fprintf                   0043f424 f   LIBCMT:fprintf.obj
 0001:0003e482       _rename                    0043f482 f   LIBCMT:rename.obj
 0001:0003e4b0       ___iob_func                0043f4b0 f   LIBCMT:_file.obj
 0001:0003e4b6       ___initstdio               0043f4b6 f   LIBCMT:_file.obj
 0001:0003e55f       ___endstdio                0043f55f f   LIBCMT:_file.obj
 0001:0003e573       __lock_file                0043f573 f   LIBCMT:_file.obj
 0001:0003e5a2       __lock_file2               0043f5a2 f   LIBCMT:_file.obj
 0001:0003e5c5       __unlock_file              0043f5c5 f   LIBCMT:_file.obj
 0001:0003e5f4       __unlock_file2             0043f5f4 f   LIBCMT:_file.obj
 0001:0003e617       ?set_terminate@@YAP6AXXZP6AXXZ@Z 0043f617 f   LIBCMT:user.obj
 0001:0003e630       ?set_unexpected@@YAP6AXXZP6AXXZ@Z 0043f630 f   LIBCMT:user.obj
 0001:0003e649       ?_set_se_translator@@YAP6AXIPAU_EXCEPTION_POINTERS@@@ZP6AXI0@Z@Z 0043f649 f   LIBCMT:user.obj
 0001:0003e662       ?__set_inconsistency@@YAP6AXXZP6AXXZ@Z 0043f662 f   LIBCMT:user.obj
 0001:0003e672       __mbsrchr                  0043f672 f   LIBCMT:mbsrchr.obj
 0001:0003e6dd       __fwrite_lk                0043f6dd f   LIBCMT:fwrite.obj
 0001:0003e7e4       _fwrite                    0043f7e4 f   LIBCMT:fwrite.obj
 0001:0003e830       __allmul                   0043f830 f   LIBCMT:llmul.obj
 0001:0003e870       __aulldiv                  0043f870 f   LIBCMT:ulldiv.obj
 0001:0003e8e0       __alldiv                   0043f8e0 f   LIBCMT:lldiv.obj
 0001:0003e990       __aulldvrm                 0043f990 f   LIBCMT:ulldvrm.obj
 0001:0003ea37       ?__ArrayUnwind@@YGXPAXIHP6EX0@Z@Z 0043fa37 f   LIBCMT:ehvecdtr.obj
 0001:0003ea95       ??_M@YGXPAXIHP6EX0@Z@Z     0043fa95 f   LIBCMT:ehvecdtr.obj
 0001:0003eaf5       ??_L@YGXPAXIHP6EX0@Z1@Z    0043faf5 f   LIBCMT:ehvecctr.obj
 0001:0003eb60       _strncat                   0043fb60 f   LIBCMT:strncat.obj
 0001:0003ec95       ____setlc_active_func      0043fc95 f   LIBCMT:setlocal.obj
 0001:0003ec9b       ____unguarded_readlc_active_add_func 0043fc9b f   LIBCMT:setlocal.obj
 0001:0003eca1       ___freetlocinfo            0043fca1 f   LIBCMT:setlocal.obj
 0001:0003ee32       ___init_dummy              0043fe32 f   LIBCMT:setlocal.obj
 0001:0003ee35       __strcats                  0043fe35 f   LIBCMT:setlocal.obj
 0001:0003ee59       ___lc_strtolc              0043fe59 f   LIBCMT:setlocal.obj
 0001:0003ef35       ___lc_lctostr              0043ff35 f   LIBCMT:setlocal.obj
 0001:0003ef83       ___updatetlocinfo          0043ff83 f   LIBCMT:setlocal.obj
 0001:0003f07d       __expandlocale             0044007d f   LIBCMT:setlocal.obj
 0001:0003f641       _setlocale                 00440641 f   LIBCMT:setlocal.obj
 0001:0003f79b       _realloc                   0044079b f   LIBCMT:realloc.obj
 0001:0003f948       __ioinit                   00440948 f   LIBCMT:ioinit.obj
 0001:0003fb46       __ioterm                   00440b46 f   LIBCMT:ioinit.obj
 0001:0003fb92       __set_osfhnd               00440b92 f   LIBCMT:osfinfo.obj
 0001:0003fc0e       __free_osfhnd              00440c0e f   LIBCMT:osfinfo.obj
 0001:0003fc8d       __get_osfhandle            00440c8d f   LIBCMT:osfinfo.obj
 0001:0003fcce       __lock_fhandle             00440cce f   LIBCMT:osfinfo.obj
 0001:0003fd6e       __unlock_fhandle           00440d6e f   LIBCMT:osfinfo.obj
 0001:0003fd90       __alloc_osfhnd             00440d90 f   LIBCMT:osfinfo.obj
 0001:0003ff0c       __open_osfhandle           00440f0c f   LIBCMT:osfinfo.obj
 0001:0003ffe0       _memchr                    00440fe0 f   LIBCMT:memchr.obj
 0001:0004008d       __vsnprintf                0044108d f   LIBCMT:vsnprint.obj
 0001:000400f0       _strncpy                   004410f0 f   LIBCMT:strncpy.obj
 0001:00040220       __allshl                   00441220 f   LIBCMT:llshl.obj
 0001:00040240       __aullshr                  00441240 f   LIBCMT:ullshr.obj
 0001:0004025f       __copysign                 0044125f f   LIBCMT:ieeemisc.obj
 0001:00040280       __chgsign                  00441280 f   LIBCMT:ieeemisc.obj
 0001:000402a6       __scalb                    004412a6 f   LIBCMT:ieeemisc.obj
 0001:000402bc       __logb                     004412bc f   LIBCMT:ieeemisc.obj
 0001:000403a7       __nextafter                004413a7 f   LIBCMT:ieeemisc.obj
 0001:0004064a       __finite                   0044164a f   LIBCMT:ieeemisc.obj
 0001:0004065f       __isnan                    0044165f f   LIBCMT:ieeemisc.obj
 0001:0004068d       __fpclass                  0044168d f   LIBCMT:ieeemisc.obj
 0001:00040729       __fpcvt                    00441729 f   LIBCMT:fcvt.obj
 0001:00040786       __fcvt                     00441786 f   LIBCMT:fcvt.obj
 0001:000407c7       __ecvt                     004417c7 f   LIBCMT:fcvt.obj
 0001:00040812       _setvbuf                   00441812 f   LIBCMT:setvbuf.obj
 0001:000408ee       __ftell_lk                 004418ee f   LIBCMT:ftell.obj
 0001:00040a50       _ftell                     00441a50 f   LIBCMT:ftell.obj
 0001:00040a91       _feof                      00441a91 f   LIBCMT:feoferr.obj
 0001:00040a9c       _ferror                    00441a9c f   LIBCMT:feoferr.obj
 0001:00040aa7       _fgetpos                   00441aa7 f   LIBCMT:fgetpos.obj
 0001:00040ac9       __fseek_lk                 00441ac9 f   LIBCMT:fseek.obj
 0001:00040b58       _fseek                     00441b58 f   LIBCMT:fseek.obj
 0001:00040ba1       _fsetpos                   00441ba1 f   LIBCMT:fsetpos.obj
 0001:00040bb9       __ungetc_lk                00441bb9 f   LIBCMT:ungetc.obj
 0001:00040c25       _ungetc                    00441c25 f   LIBCMT:ungetc.obj
 0001:00040c6a       _fgetc                     00441c6a f   LIBCMT:fgetc.obj
 0001:00040cba       _getc                      00441cba f   LIBCMT:fgetc.obj
 0001:00040d0a       _fputc                     00441d0a f   LIBCMT:fputc.obj
 0001:00040d62       _putc                      00441d62 f   LIBCMT:fputc.obj
 0001:00040dc0       _strcspn                   00441dc0 f   LIBCMT:strcspn.obj
 0001:00040e10       _strstr                    00441e10 f   LIBCMT:strstr.obj
 0001:00040e96       ?_set_new_handler@@YAP6AHI@ZP6AHI@Z@Z 00441e96 f   LIBCMT:handler.obj
 0001:00040eba       ?_query_new_handler@@YAP6AHI@ZXZ 00441eba f   LIBCMT:handler.obj
 0001:00040ec0       __callnewh                 00441ec0 f   LIBCMT:handler.obj
 0001:00040edb       ___heap_select             00441edb f   LIBCMT:heapinit.obj
 0001:00040ef5       __heap_init                00441ef5 f   LIBCMT:heapinit.obj
 0001:00040f46       __heap_term                00441f46 f   LIBCMT:heapinit.obj
 0001:00040fc5       __get_heap_handle          00441fc5 f   LIBCMT:heapinit.obj
 0001:00040fcb       __mtinitlocks              00441fcb f   LIBCMT:mlock.obj
 0001:00041014       __mtdeletelocks            00442014 f   LIBCMT:mlock.obj
 0001:00041069       __unlock                   00442069 f   LIBCMT:mlock.obj
 0001:0004107e       __lockerr_exit             0044207e f   LIBCMT:mlock.obj
 0001:00041096       __mtinitlocknum            00442096 f   LIBCMT:mlock.obj
 0001:00041136       __lock                     00442136 f   LIBCMT:mlock.obj
 0001:00041167       __get_sbh_threshold        00442167 f   LIBCMT:sbheap.obj
 0001:0004117c       ___sbh_heap_init           0044217c f   LIBCMT:sbheap.obj
 0001:000411c4       ___sbh_find_block          004421c4 f   LIBCMT:sbheap.obj
 0001:000411ef       ___sbh_free_block          004421ef f   LIBCMT:sbheap.obj
 0001:00041507       ___sbh_alloc_new_region    00442507 f   LIBCMT:sbheap.obj
 0001:000415be       ___sbh_alloc_new_group     004425be f   LIBCMT:sbheap.obj
 0001:000416c4       ___sbh_resize_block        004426c4 f   LIBCMT:sbheap.obj
 0001:000419a3       ___sbh_heapmin             004429a3 f   LIBCMT:sbheap.obj
 0001:00041a74       ___sbh_heap_check          00442a74 f   LIBCMT:sbheap.obj
 0001:00041d8d       __set_sbh_threshold        00442d8d f   LIBCMT:sbheap.obj
 0001:00041de8       ___sbh_alloc_block         00442de8 f   LIBCMT:sbheap.obj
 0001:000420e4       __SEH_prolog               004430e4 f   LIBCMT:sehprolg.obj
 0001:0004211f       __SEH_epilog               0044311f f   LIBCMT:sehprolg.obj
 0001:00042130       ?__CxxUnhandledExceptionFilter@@YGJPAU_EXCEPTION_POINTERS@@@Z 00443130 f   LIBCMT:unhandld.obj
 0001:0004217e       ?__CxxSetUnhandledExceptionFilter@@YAHXZ 0044317e f   LIBCMT:unhandld.obj
 0001:00042191       ?__CxxRestoreUnhandledExceptionFilter@@YAXXZ 00443191 f   LIBCMT:unhandld.obj
 0001:0004220b       ___FrameUnwindToState      0044320b f   LIBCMT:frame.obj
 0001:00042309       ___DestructExceptionObject 00443309 f   LIBCMT:frame.obj
 0001:0004236d       ?__uncaught_exception@@YA_NXZ 0044336d f   LIBCMT:frame.obj
 0001:00042380       ___CxxRegisterExceptionObject 00443380 f   LIBCMT:frame.obj
 0001:00042423       ___CxxDetectRethrow        00443423 f   LIBCMT:frame.obj
 0001:0004245b       ___CxxUnregisterExceptionObject 0044345b f   LIBCMT:frame.obj
 0001:000424f9       ___CxxQueryExceptionSize   004434f9 f   LIBCMT:frame.obj
 0001:000424fd       ___CxxCallUnwindDtor       004434fd f   LIBCMT:frame.obj
 0001:0004252b       ___CxxCallUnwindVecDtor    0044352b f   LIBCMT:frame.obj
 0001:000428a2       ___CxxExceptionFilter      004438a2 f   LIBCMT:frame.obj
 0001:00042cf0       ___InternalCxxFrameHandler 00443cf0 f   LIBCMT:frame.obj
 0001:00042d92       ___crtTlsAlloc@4           00443d92 f   LIBCMT:tidtable.obj
 0001:00042d9b       __mtterm                   00443d9b f   LIBCMT:tidtable.obj
 0001:00042db8       __initptd                  00443db8 f   LIBCMT:tidtable.obj
 0001:00042dcb       __getptd                   00443dcb f   LIBCMT:tidtable.obj
 0001:00042e3c       __freefls@4                00443e3c f   LIBCMT:tidtable.obj
 0001:00042f83       __freeptd                  00443f83 f   LIBCMT:tidtable.obj
 0001:00042fb2       ___threadid                00443fb2 f   LIBCMT:tidtable.obj
 0001:00042fb8       ___threadhandle            00443fb8 f   LIBCMT:tidtable.obj
 0001:00042fbe       __mtinit                   00443fbe f   LIBCMT:tidtable.obj
 0001:000430ad       ?terminate@@YAXXZ          004440ad f   LIBCMT:hooks.obj
 0001:000430e2       ?unexpected@@YAXXZ         004440e2 f   LIBCMT:hooks.obj
 0001:000430fa       ?_inconsistency@@YAXXZ     004440fa f   LIBCMT:hooks.obj
 0001:00043130       __CallSettingFrame@12      00444130 f   LIBCMT:lowhelpr.obj
 0001:00043157       __NLG_Return               00444157     LIBCMT:lowhelpr.obj
 0001:0004317c       ___isctype_mt              0044417c f   LIBCMT:isctype.obj
 0001:000431f3       __isctype                  004441f3 f   LIBCMT:isctype.obj
 0001:0004321a       ___crtExitProcess          0044421a f   LIBCMT:crt0dat.obj
 0001:0004324a       __lockexit                 0044424a f   LIBCMT:crt0dat.obj
 0001:00043253       __unlockexit               00444253 f   LIBCMT:crt0dat.obj
 0001:00043292       __cinit                    00444292 f   LIBCMT:crt0dat.obj
 0001:000433bf       _exit                      004443bf f   LIBCMT:crt0dat.obj
 0001:000433d0       __exit                     004443d0 f   LIBCMT:crt0dat.obj
 0001:000433e1       __cexit                    004443e1 f   LIBCMT:crt0dat.obj
 0001:000433f0       __c_exit                   004443f0 f   LIBCMT:crt0dat.obj
 0001:000433ff       __msize                    004443ff f   LIBCMT:msize.obj
 0001:00043475       __NMSG_WRITE               00444475 f   LIBCMT:crt0msg.obj
 0001:000435ec       __GET_RTERRMSG             004445ec f   LIBCMT:crt0msg.obj
 0001:00043616       __FF_MSGBANNER             00444616 f   LIBCMT:crt0msg.obj
 0001:0004367b       __XcptFilter               0044467b f   LIBCMT:winxfltr.obj
 0001:000437df       ___CppXcptFilter           004447df f   LIBCMT:winxfltr.obj
 0001:000437fa       __setenvp                  004447fa f   LIBCMT:stdenvp.obj
 0001:00043a2d       __setargv                  00444a2d f   LIBCMT:stdargv.obj
 0001:00043acf       ___crtGetEnvironmentStringsA 00444acf f   LIBCMT:a_env.obj
 0001:00043bf1       __RTC_Initialize           00444bf1 f   LIBCMT:initsect.obj
 0001:00043c35       __RTC_Terminate            00444c35 f   LIBCMT:initsect.obj
 0001:00043c80       _strcpy                    00444c80 f   LIBCMT:strcat.obj
 0001:00043c90       _strcat                    00444c90 f   LIBCMT:strcat.obj
 0001:00043d80       _strlen                    00444d80 f   LIBCMT:strlen.obj
 0001:00043e10       _strcmp                    00444e10 f   LIBCMT:strcmp.obj
 0001:00043e98       __errno                    00444e98 f   LIBCMT:dosmap.obj
 0001:00043ea1       ___doserrno                00444ea1 f   LIBCMT:dosmap.obj
 0001:00043eaa       __dosmaperr                00444eaa f   LIBCMT:dosmap.obj
 0001:00043f1d       ___pwctype_func            00444f1d f   LIBCMT:ctype.obj
 0001:00043f23       ___pctype_func             00444f23 f   LIBCMT:ctype.obj
 0001:00043f29       __openfile                 00444f29 f   LIBCMT:_open.obj
 0001:00044091       __getstream                00445091 f   LIBCMT:stream.obj
 0001:000441b3       __filbuf                   004451b3 f   LIBCMT:_filbuf.obj
 0001:00044294       __fltin2                   00445294 f   LIBCMT:cfin.obj
 0001:00044329       __forcdecpt                00445329 f   LIBCMT:cvt.obj
 0001:00044365       __cropzeros                00445365 f   LIBCMT:cvt.obj
 0001:000443b0       __positive                 004453b0 f   LIBCMT:cvt.obj
 0001:000443ca       __fassign                  004453ca f   LIBCMT:cvt.obj
 0001:000444d3       __cftoe                    004454d3 f   LIBCMT:cvt.obj
 0001:000445db       __cftof                    004455db f   LIBCMT:cvt.obj
 0001:0004463d       __cftog                    0044563d f   LIBCMT:cvt.obj
 0001:000446d7       __cfltcvt                  004456d7 f   LIBCMT:cvt.obj
 0001:00044728       __setdefaultprecision      00445728 f   LIBCMT:fp8.obj
 0001:0004473a       __ms_p5_test_fdiv          0044573a f   LIBCMT:testfdiv.obj
 0001:0004477a       __ms_p5_mp_test_fdiv       0044577a f   LIBCMT:testfdiv.obj
 0001:000447a3       __close_lk                 004457a3 f   LIBCMT:close.obj
 0001:00044826       __close                    00445826 f   LIBCMT:close.obj
 0001:000448c1       __freebuf                  004458c1 f   LIBCMT:_freebuf.obj
 0001:000448ec       __ValidateEH3RN            004458ec f   LIBCMT:eh3valid.obj
 0001:00044bd2       ___fpecode                 00445bd2 f   LIBCMT:winsig.obj
 0001:00044bdb       ___pxcptinfoptrs           00445bdb f   LIBCMT:winsig.obj
 0001:00044be4       _signal                    00445be4 f   LIBCMT:winsig.obj
 0001:00044d85       _raise                     00445d85 f   LIBCMT:winsig.obj
 0001:00044f1a       ___crtLCMapStringA         00445f1a f   LIBCMT:a_map.obj
 0001:000452d6       __flsbuf                   004462d6 f   LIBCMT:_flsbuf.obj
 0001:0004549c       __output                   0044649c f   LIBCMT:output.obj
 0001:00045c96       __stbuf                    00446c96 f   LIBCMT:_sftbuf.obj
 0001:00045d1e       __ftbuf                    00446d1e f   LIBCMT:_sftbuf.obj
 0001:00045d50       _memcpy                    00446d50 f   LIBCMT:memcpy.obj
 0001:00046674       ___tzset                   00447674 f   LIBCMT:tzset.obj
 0001:000466c0       __tzset                    004476c0 f   LIBCMT:tzset.obj
 0001:000466f5       __isindst                  004476f5 f   LIBCMT:tzset.obj
 0001:00046740       ___ascii_stricmp           00447740 f   LIBCMT:_stricmp.obj
 0001:0004678e       __resetstkoflw             0044778e f   LIBCMT:resetstk.obj
 0001:00046871       _gmtime                    00447871 f   LIBCMT:gmtime.obj
 0001:00046978       __write_lk                 00447978 f   LIBCMT:write.obj
 0001:00046b46       __write                    00447b46 f   LIBCMT:write.obj
 0001:00046bf1       __commit                   00447bf1 f   LIBCMT:commit.obj
 0001:00046cad       _calloc                    00447cad f   LIBCMT:calloc.obj
 0001:00046d68       __fcloseall                00447d68 f   LIBCMT:closeall.obj
 0001:00046e10       _strrchr                   00447e10 f   LIBCMT:strrchr.obj
 0001:00047067       ___updatetmbcinfo          00448067 f   LIBCMT:mbctype.obj
 0001:00047266       __getmbcp                  00448266 f   LIBCMT:mbctype.obj
 0001:00047276       __setmbcp                  00448276 f   LIBCMT:mbctype.obj
 0001:000473c6       ___initmbctable            004483c6 f   LIBCMT:mbctype.obj
 0001:000473e4       _localeconv                004483e4 f   LIBCMT:lconv.obj
 0001:00047751       ___free_lc_time            00448751 f   LIBCMT:inittime.obj
 0001:000478e1       ___init_time               004488e1 f   LIBCMT:inittime.obj
 0001:00047973       ___free_lconv_num          00448973 f   LIBCMT:initnum.obj
 0001:000479d2       ___init_numeric            004489d2 f   LIBCMT:initnum.obj
 0001:00047bd2       ___free_lconv_mon          00448bd2 f   LIBCMT:initmon.obj
 0001:00047cab       ___init_monetary           00448cab f   LIBCMT:initmon.obj
 0001:00047eea       ___init_ctype              00448eea f   LIBCMT:initctyp.obj
 0001:000480d4       ____mb_cur_max_func        004490d4 f   LIBCMT:initctyp.obj
 0001:000480da       ____lc_codepage_func       004490da f   LIBCMT:initctyp.obj
 0001:000480f3       ____lc_collate_cp_func     004490f3 f   LIBCMT:initctyp.obj
 0001:0004810c       ____lc_handle_func         0044910c f   LIBCMT:initctyp.obj
 0001:00048125       ___init_collate            00449125 f   LIBCMT:initcoll.obj
 0001:00048130       _memset                    00449130 f   LIBCMT:memset.obj
 0001:000488cf       ___get_qualified_locale    004498cf f   LIBCMT:getqloc.obj
 0001:00048ab5       @__security_check_cookie@4 00449ab5 f   LIBCMT:secchk.obj
 0001:00048ad0       _memcmp                    00449ad0 f   LIBCMT:memcmp.obj
 0001:00048b88       ___crtGetStringTypeA       00449b88 f   LIBCMT:a_str.obj
 0001:00048d50       _strncmp                   00449d50 f   LIBCMT:strncmp.obj
 0001:00048d90       _strpbrk                   00449d90 f   LIBCMT:strpbrk.obj
 0001:00048de0       ___crtInitCritSecAndSpinCount 00449de0 f   LIBCMT:initcrit.obj
 0001:00048e6b       _ldexp                     00449e6b f   LIBCMT:ldexp.obj
 0001:00049056       __set_exp                  0044a056 f   LIBCMT:util.obj
 0001:00049080       __get_exp                  0044a080 f   LIBCMT:util.obj
 0001:00049095       __add_exp                  0044a095 f   LIBCMT:util.obj
 0001:000490bf       __set_bexp                 0044a0bf f   LIBCMT:util.obj
 0001:000490e4       __sptype                   0044a0e4 f   LIBCMT:util.obj
 0001:0004913f       __decomp                   0044a13f f   LIBCMT:util.obj
 0001:000491fb       __raise_exc                0044a1fb f   LIBCMT:fpexcept.obj
 0001:000494a0       __handle_exc               0044a4a0 f   LIBCMT:fpexcept.obj
 0001:000496c4       __set_errno                0044a6c4 f   LIBCMT:fpexcept.obj
 0001:0004970c       __errcode                  0044a70c f   LIBCMT:fpexcept.obj
 0001:00049739       __umatherr                 0044a739 f   LIBCMT:fpexcept.obj
 0001:000497d7       __handle_qnan1             0044a7d7 f   LIBCMT:fpexcept.obj
 0001:0004982a       __handle_qnan2             0044a82a f   LIBCMT:fpexcept.obj
 0001:00049889       __except1                  0044a889 f   LIBCMT:fpexcept.obj
 0001:00049941       __except2                  0044a941 f   LIBCMT:fpexcept.obj
 0001:00049a0a       __statfp                   0044aa0a f   LIBCMT:fpctrl.obj
 0001:00049a15       __clrfp                    0044aa15 f   LIBCMT:fpctrl.obj
 0001:00049a21       __ctrlfp                   0044aa21 f   LIBCMT:fpctrl.obj
 0001:00049a45       __set_statfp               0044aa45 f   LIBCMT:fpctrl.obj
 0001:00049a9b       __fptostr                  0044aa9b f   LIBCMT:_fptostr.obj
 0001:00049b12       ___dtold                   0044ab12 f   LIBCMT:cfout.obj
 0001:00049bcc       __fltout2                  0044abcc f   LIBCMT:cfout.obj
 0001:00049c38       __lseek_lk                 0044ac38 f   LIBCMT:lseek.obj
 0001:00049cac       __lseek                    0044acac f   LIBCMT:lseek.obj
 0001:00049d57       __ftelli64_lk              0044ad57 f   LIBCMT:ftelli64.obj
 0001:00049eec       __ftelli64                 0044aeec f   LIBCMT:ftelli64.obj
 0001:00049f33       __fseeki64_lk              0044af33 f   LIBCMT:fseeki64.obj
 0001:00049fc6       __fseeki64                 0044afc6 f   LIBCMT:fseeki64.obj
 0001:0004a012       __getbuf                   0044b012 f   LIBCMT:_getbuf.obj
 0001:0004a056       ?_ValidateRead@@YAHPBXI@Z  0044b056 f   LIBCMT:validate.obj
 0001:0004a072       ?_ValidateWrite@@YAHPAXI@Z 0044b072 f   LIBCMT:validate.obj
 0001:0004a08e       ?_ValidateExecute@@YAHP6GHXZ@Z 0044b08e f   LIBCMT:validate.obj
 0001:0004a0a6       ___crtMessageBoxA          0044b0a6 f   LIBCMT:crtmbox.obj
 0001:0004a486       __open                     0044b486 f   LIBCMT:open.obj
 0001:0004a4db       __sopen                    0044b4db f   LIBCMT:open.obj
 0001:0004a530       __read_lk                  0044b530 f   LIBCMT:read.obj
 0001:0004a70b       __read                     0044b70b f   LIBCMT:read.obj
 0001:0004a7b6       __ZeroTail                 0044b7b6 f   LIBCMT:intrncvt.obj
 0001:0004a7e8       __IncMan                   0044b7e8 f   LIBCMT:intrncvt.obj
 0001:0004a835       __RoundMan                 0044b835 f   LIBCMT:intrncvt.obj
 0001:0004a8a7       __CopyMan                  0044b8a7 f   LIBCMT:intrncvt.obj
 0001:0004a8c2       __FillZeroMan              0044b8c2 f   LIBCMT:intrncvt.obj
 0001:0004a8ce       __IsZeroMan                0044b8ce f   LIBCMT:intrncvt.obj
 0001:0004a8e7       __ShrMan                   0044b8e7 f   LIBCMT:intrncvt.obj
 0001:0004a962       __ld12cvt                  0044b962 f   LIBCMT:intrncvt.obj
 0001:0004aaba       __ld12tod                  0044baba f   LIBCMT:intrncvt.obj
 0001:0004aad0       __ld12tof                  0044bad0 f   LIBCMT:intrncvt.obj
 0001:0004aae6       __ld12told                 0044bae6 f   LIBCMT:intrncvt.obj
 0001:0004ab62       __atodbl                   0044bb62 f   LIBCMT:intrncvt.obj
 0001:0004ab9f       __atoldbl                  0044bb9f f   LIBCMT:intrncvt.obj
 0001:0004abdd       __atoflt                   0044bbdd f   LIBCMT:intrncvt.obj
 0001:0004ac1a       ___strgtold12              0044bc1a f   LIBCMT:strgtold.obj
 0001:0004b04e       ___STRINGTOLD              0044c04e f   LIBCMT:strgtold.obj
 0001:0004b09a       __fptrap                   0044c09a f   LIBCMT:crt0fp.obj
 0001:0004b0a3       __fpreset                  0044c0a3 f   LIBCMT:ieee87.obj
 0001:0004b227       __statusfp                 0044c227 f   LIBCMT:ieee87.obj
 0001:0004b237       __clearfp                  0044c237 f   LIBCMT:ieee87.obj
 0001:0004b248       __control87                0044c248 f   LIBCMT:ieee87.obj
 0001:0004b27a       __controlfp                0044c27a f   LIBCMT:ieee87.obj
 0001:0004b290       ___ansicp                  0044c290 f   LIBCMT:convrtcp.obj
 0001:0004b2d3       ___convertcp               0044c2d3 f   LIBCMT:convrtcp.obj
 0001:0004b49c       __isatty                   0044c49c f   LIBCMT:isatty.obj
 0001:0004b4c6       ___wctomb_mt               0044c4c6 f   LIBCMT:wctomb.obj
 0001:0004b526       _wctomb                    0044c526 f   LIBCMT:wctomb.obj
 0001:0004b54d       __getenv_lk                0044c54d f   LIBCMT:getenv.obj
 0001:0004b5ce       _getenv                    0044c5ce f   LIBCMT:getenv.obj
 0001:0004b60d       __lseeki64_lk              0044c60d f   LIBCMT:lseeki64.obj
 0001:0004b690       __lseeki64                 0044c690 f   LIBCMT:lseeki64.obj
 0001:0004b74e       ___getlocaleinfo           0044c74e f   LIBCMT:inithelp.obj
 0001:0004b875       _stricmp                   0044c875 f   LIBCMT:stricmp.obj
 0001:0004b875       __stricmp                  0044c875 f   LIBCMT:stricmp.obj
 0001:0004b8de       __strnicmp                 0044c8de f   LIBCMT:strnicmp.obj
 0001:0004b99b       __itoa                     0044c99b f   LIBCMT:xtoa.obj
 0001:0004b99b       _itoa                      0044c99b f   LIBCMT:xtoa.obj
 0001:0004b9c5       __ltoa                     0044c9c5 f   LIBCMT:xtoa.obj
 0001:0004b9ec       __ultoa                    0044c9ec f   LIBCMT:xtoa.obj
 0001:0004ba73       __i64toa                   0044ca73 f   LIBCMT:xtoa.obj
 0001:0004baa4       __ui64toa                  0044caa4 f   LIBCMT:xtoa.obj
 0001:0004babf       ___security_init_cookie    0044cabf f   LIBCMT:seccinit.obj
 0001:0004bb25       ___security_error_handler  0044cb25 f   LIBCMT:secfail.obj
 0001:0004bc6d       __set_security_error_handler 0044cc6d f   LIBCMT:secfail.obj
 0001:0004bc7d       ___buffer_overrun          0044cc7d f   LIBCMT:secfail.obj
 0001:0004bc89       ___set_buffer_overrun_handler 0044cc89 f   LIBCMT:secfail.obj
 0001:0004bc99       __matherr                  0044cc99 f   LIBCMT:matherr.obj
 0001:0004bc9c       _$I10_OUTPUT               0044cc9c f   LIBCMT:x10fout.obj
 0001:0004bf2a       __chsize_lk                0044cf2a f   LIBCMT:chsize.obj
 0001:0004c06b       __chsize                   0044d06b f   LIBCMT:chsize.obj
 0001:0004c102       ___addl                    0044d102 f   LIBCMT:mantold.obj
 0001:0004c123       ___add_12                  0044d123 f   LIBCMT:mantold.obj
 0001:0004c181       ___shl_12                  0044d181 f   LIBCMT:mantold.obj
 0001:0004c1af       ___shr_12                  0044d1af f   LIBCMT:mantold.obj
 0001:0004c1dc       ___mtold12                 0044d1dc f   LIBCMT:mantold.obj
 0001:0004c2ba       ___ld12mul                 0044d2ba f   LIBCMT:tenpow.obj
 0001:0004c4ec       ___multtenpow12            0044d4ec f   LIBCMT:tenpow.obj
 0001:0004c572       __mbsnbicoll               0044d572 f   LIBCMT:mbsnbico.obj
 0001:0004c5c0       ___wtomb_environ           0044d5c0 f   LIBCMT:wtombenv.obj
 0001:0004c650       ___crtGetLocaleInfoW       0044d650 f   LIBCMT:w_loc.obj
 0001:0004c780       ___crtGetLocaleInfoA       0044d780 f   LIBCMT:a_loc.obj
 0001:0004c8c0       ___ascii_strnicmp          0044d8c0 f   LIBCMT:_strnicm.obj
 0001:0004c921       __setmode_lk               0044d921 f   LIBCMT:setmode.obj
 0001:0004c98d       __setmode                  0044d98d f   LIBCMT:setmode.obj
 0001:0004ca40       ___crtCompareStringA       0044da40 f   LIBCMT:a_cmp.obj
 0001:0004ce72       ___crtsetenv               0044de72 f   LIBCMT:setenv.obj
 0001:0004d047       __strdup                   0044e047 f   LIBCMT:strdup.obj
 0001:0004d072       __mbschr                   0044e072 f   LIBCMT:mbschr.obj
 0001:0004d0ee       _FreeLibrary@4             0044e0ee f   kernel32:KERNEL32.dll
 0001:0004d0f4       _GetLastError@0            0044e0f4 f   kernel32:KERNEL32.dll
 0001:0004d0fa       _CloseHandle@4             0044e0fa f   kernel32:KERNEL32.dll
 0001:0004d100       _GetCurrentProcess@0       0044e100 f   kernel32:KERNEL32.dll
 0001:0004d106       _GetCurrentProcessId@0     0044e106 f   kernel32:KERNEL32.dll
 0001:0004d10c       _GetCurrentThreadId@0      0044e10c f   kernel32:KERNEL32.dll
 0001:0004d112       _CreateFileA@28            0044e112 f   kernel32:KERNEL32.dll
 0001:0004d118       _GetProcAddress@8          0044e118 f   kernel32:KERNEL32.dll
 0001:0004d11e       _SetUnhandledExceptionFilter@4 0044e11e f   kernel32:KERNEL32.dll
 0001:0004d124       _LoadLibraryA@4            0044e124 f   kernel32:KERNEL32.dll
 0001:0004d12a       _GetModuleFileNameA@12     0044e12a f   kernel32:KERNEL32.dll
 0001:0004d130       _SetConsoleCtrlHandler@8   0044e130 f   kernel32:KERNEL32.dll
 0001:0004d136       _IsDebuggerPresent@0       0044e136 f   kernel32:KERNEL32.dll
 0001:0004d13c       _IsBadReadPtr@8            0044e13c f   kernel32:KERNEL32.dll
 0001:0004d142       _FormatMessageA@28         0044e142 f   kernel32:KERNEL32.dll
 0001:0004d148       _GetModuleHandleA@4        0044e148 f   kernel32:KERNEL32.dll
 0001:0004d14e       _VirtualQuery@12           0044e14e f   kernel32:KERNEL32.dll
 0001:0004d154       _IsBadWritePtr@8           0044e154 f   kernel32:KERNEL32.dll
 0001:0004d15a       _GetCurrentThread@0        0044e15a f   kernel32:KERNEL32.dll
 0001:0004d160       _OutputDebugStringA@4      0044e160 f   kernel32:KERNEL32.dll
 0001:0004d166       _SetFilePointer@16         0044e166 f   kernel32:KERNEL32.dll
 0001:0004d16c       _InterlockedExchange@8     0044e16c f   kernel32:KERNEL32.dll
 0001:0004d172       _Sleep@4                   0044e172 f   kernel32:KERNEL32.dll
 0001:0004d178       _GetFileType@4             0044e178 f   kernel32:KERNEL32.dll
 0001:0004d17e       _GetFileSize@8             0044e17e f   kernel32:KERNEL32.dll
 0001:0004d184       _GetSystemInfo@4           0044e184 f   kernel32:KERNEL32.dll
 0001:0004d18a       _SetEndOfFile@4            0044e18a f   kernel32:KERNEL32.dll
 0001:0004d190       _ReadFile@20               0044e190 f   kernel32:KERNEL32.dll
 0001:0004d196       _UnmapViewOfFile@4         0044e196 f   kernel32:KERNEL32.dll
 0001:0004d19c       _WriteFile@20              0044e19c f   kernel32:KERNEL32.dll
 0001:0004d1a2       _MapViewOfFile@20          0044e1a2 f   kernel32:KERNEL32.dll
 0001:0004d1a8       _CreateFileMappingA@24     0044e1a8 f   kernel32:KERNEL32.dll
 0001:0004d1ae       _GetStringTypeW@16         0044e1ae f   kernel32:KERNEL32.dll
 0001:0004d1b4       _LCMapStringW@24           0044e1b4 f   kernel32:KERNEL32.dll
 0001:0004d1ba       _GetCPInfo@8               0044e1ba f   kernel32:KERNEL32.dll
 0001:0004d1c0       _MultiByteToWideChar@24    0044e1c0 f   kernel32:KERNEL32.dll
 0001:0004d1c6       _WideCharToMultiByte@32    0044e1c6 f   kernel32:KERNEL32.dll
 0001:0004d1cc       _CompareStringW@24         0044e1cc f   kernel32:KERNEL32.dll
 0001:0004d1d2       _GetLocaleInfoA@16         0044e1d2 f   kernel32:KERNEL32.dll
 0001:0004d1d8       _lstrcmpiA@8               0044e1d8 f   kernel32:KERNEL32.dll
 0001:0004d1de       _EnumSystemLocalesA@8      0044e1de f   kernel32:KERNEL32.dll
 0001:0004d1e4       _LCMapStringA@24           0044e1e4 f   kernel32:KERNEL32.dll
 0001:0004d1ea       _CompareStringA@24         0044e1ea f   kernel32:KERNEL32.dll
 0001:0004d1f0       _GetStringTypeA@20         0044e1f0 f   kernel32:KERNEL32.dll
 0001:0004d1f6       _GetVersionExA@4           0044e1f6 f   kernel32:KERNEL32.dll
 0001:0004d1fc       _HeapFree@12               0044e1fc f   kernel32:KERNEL32.dll
 0001:0004d202       _RaiseException@16         0044e202 f   kernel32:KERNEL32.dll
 0001:0004d208       _RtlUnwind@16              0044e208 f   kernel32:KERNEL32.dll
 0001:0004d20e       _HeapAlloc@12              0044e20e f   kernel32:KERNEL32.dll
 0001:0004d214       _GetCommandLineA@0         0044e214 f   kernel32:KERNEL32.dll
 0001:0004d21a       _GetTimeFormatA@24         0044e21a f   kernel32:KERNEL32.dll
 0001:0004d220       _GetDateFormatA@24         0044e220 f   kernel32:KERNEL32.dll
 0001:0004d226       _GetSystemTimeAsFileTime@4 0044e226 f   kernel32:KERNEL32.dll
 0001:0004d22c       _MoveFileA@8               0044e22c f   kernel32:KERNEL32.dll
 0001:0004d232       _EnterCriticalSection@4    0044e232 f   kernel32:KERNEL32.dll
 0001:0004d238       _LeaveCriticalSection@4    0044e238 f   kernel32:KERNEL32.dll
 0001:0004d23e       _HeapReAlloc@16            0044e23e f   kernel32:KERNEL32.dll
 0001:0004d244       _SetHandleCount@4          0044e244 f   kernel32:KERNEL32.dll
 0001:0004d24a       _GetStdHandle@4            0044e24a f   kernel32:KERNEL32.dll
 0001:0004d250       _GetStartupInfoA@4         0044e250 f   kernel32:KERNEL32.dll
 0001:0004d256       _DeleteCriticalSection@4   0044e256 f   kernel32:KERNEL32.dll
 0001:0004d25c       _SetStdHandle@8            0044e25c f   kernel32:KERNEL32.dll
 0001:0004d262       _HeapDestroy@4             0044e262 f   kernel32:KERNEL32.dll
 0001:0004d268       _HeapCreate@12             0044e268 f   kernel32:KERNEL32.dll
 0001:0004d26e       _VirtualFree@12            0044e26e f   kernel32:KERNEL32.dll
 0001:0004d274       _FatalAppExitA@8           0044e274 f   kernel32:KERNEL32.dll
 0001:0004d27a       _VirtualAlloc@16           0044e27a f   kernel32:KERNEL32.dll
 0001:0004d280       _TlsAlloc@0                0044e280 f   kernel32:KERNEL32.dll
 0001:0004d286       _SetLastError@4            0044e286 f   kernel32:KERNEL32.dll
 0001:0004d28c       _TlsFree@4                 0044e28c f   kernel32:KERNEL32.dll
 0001:0004d292       _TlsSetValue@8             0044e292 f   kernel32:KERNEL32.dll
 0001:0004d298       _TlsGetValue@4             0044e298 f   kernel32:KERNEL32.dll
 0001:0004d29e       _ExitProcess@4             0044e29e f   kernel32:KERNEL32.dll
 0001:0004d2a4       _TerminateProcess@8        0044e2a4 f   kernel32:KERNEL32.dll
 0001:0004d2aa       _HeapSize@12               0044e2aa f   kernel32:KERNEL32.dll
 0001:0004d2b0       _UnhandledExceptionFilter@4 0044e2b0 f   kernel32:KERNEL32.dll
 0001:0004d2b6       _FreeEnvironmentStringsA@4 0044e2b6 f   kernel32:KERNEL32.dll
 0001:0004d2bc       _GetEnvironmentStrings@0   0044e2bc f   kernel32:KERNEL32.dll
 0001:0004d2c2       _FreeEnvironmentStringsW@4 0044e2c2 f   kernel32:KERNEL32.dll
 0001:0004d2c8       _GetEnvironmentStringsW@0  0044e2c8 f   kernel32:KERNEL32.dll
 0001:0004d2ce       _GetTimeZoneInformation@4  0044e2ce f   kernel32:KERNEL32.dll
 0001:0004d2d4       _VirtualProtect@16         0044e2d4 f   kernel32:KERNEL32.dll
 0001:0004d2da       _FlushFileBuffers@4        0044e2da f   kernel32:KERNEL32.dll
 0001:0004d2e0       _GetACP@0                  0044e2e0 f   kernel32:KERNEL32.dll
 0001:0004d2e6       _GetOEMCP@0                0044e2e6 f   kernel32:KERNEL32.dll
 0001:0004d2ec       _GetUserDefaultLCID@0      0044e2ec f   kernel32:KERNEL32.dll
 0001:0004d2f2       _IsValidLocale@8           0044e2f2 f   kernel32:KERNEL32.dll
 0001:0004d2f8       _IsValidCodePage@4         0044e2f8 f   kernel32:KERNEL32.dll
 0001:0004d2fe       _InitializeCriticalSection@4 0044e2fe f   kernel32:KERNEL32.dll
 0001:0004d304       _IsBadCodePtr@4            0044e304 f   kernel32:KERNEL32.dll
 0001:0004d30a       _QueryPerformanceCounter@4 0044e30a f   kernel32:KERNEL32.dll
 0001:0004d310       _GetTickCount@0            0044e310 f   kernel32:KERNEL32.dll
 0001:0004d316       _GetLocaleInfoW@16         0044e316 f   kernel32:KERNEL32.dll
 0001:0004d31c       _SetEnvironmentVariableA@8 0044e31c f   kernel32:KERNEL32.dll
 0001:0004d322       _wvsprintfA@12             0044e322 f   user32:USER32.dll
 0001:0004d330       ?fix_slashes@@YA?AV?$basic_string@DV?$char_traits@D@_STL@@V?$allocator@D@2@@_STL@@V12@@Z 0044e330 f   clib:xmain.obj
 0001:0004d690       _main                      0044e690 f   clib:xmain.obj
 0001:0004d7e9       ___dtoxmode                0044e7e9 f   LIBCMT:stat.obj
 0001:0004d913       __stat                     0044e913 f   LIBCMT:stat.obj
 0001:0004d913       _stat                      0044e913 f   LIBCMT:stat.obj
 0001:0004dc5a       _fstat                     0044ec5a f   LIBCMT:fstat.obj
 0001:0004dc5a       __fstat                    0044ec5a f   LIBCMT:fstat.obj
 0001:0004df16       __mbsicmp                  0044ef16 f   LIBCMT:mbsicmp.obj
 0001:0004e061       ___loctotime_t             0044f061 f   LIBCMT:dtoxtime.obj
 0001:0004e16f       __fullpath                 0044f16f f   LIBCMT:fullpath.obj
 0001:0004e219       __getdrive                 0044f219 f   LIBCMT:drive.obj
 0001:0004e2fe       __chdrive                  0044f2fe f   LIBCMT:drive.obj
 0001:0004e38c       __mbctolower               0044f38c f   LIBCMT:mbtolwr.obj
 0001:0004e411       ___mbspbrk_mt              0044f411 f   LIBCMT:mbspbrk.obj
 0001:0004e48d       __mbspbrk                  0044f48d f   LIBCMT:mbspbrk.obj
 0001:0004e4b4       __validdrive               0044f4b4 f   LIBCMT:getcwd.obj
 0001:0004e4eb       __getdcwd_lk               0044f4eb f   LIBCMT:getcwd.obj
 0001:0004e5d6       __getcwd                   0044f5d6 f   LIBCMT:getcwd.obj
 0001:0004e61c       __getdcwd                  0044f61c f   LIBCMT:getcwd.obj
 0001:0004e664       _FindClose@4               0044f664 f   kernel32:KERNEL32.dll
 0001:0004e66a       _FileTimeToSystemTime@8    0044f66a f   kernel32:KERNEL32.dll
 0001:0004e670       _FileTimeToLocalFileTime@8 0044f670 f   kernel32:KERNEL32.dll
 0001:0004e676       _GetDriveTypeA@4           0044f676 f   kernel32:KERNEL32.dll
 0001:0004e67c       _FindFirstFileA@8          0044f67c f   kernel32:KERNEL32.dll
 0001:0004e682       _GetFileInformationByHandle@8 0044f682 f   kernel32:KERNEL32.dll
 0001:0004e688       _PeekNamedPipe@24          0044f688 f   kernel32:KERNEL32.dll
 0001:0004e68e       _GetFullPathNameA@16       0044f68e f   kernel32:KERNEL32.dll
 0001:0004e694       _GetCurrentDirectoryA@8    0044f694 f   kernel32:KERNEL32.dll
 0001:0004e69a       _SetCurrentDirectoryA@4    0044f69a f   kernel32:KERNEL32.dll
 0002:00000000       __imp__FreeLibrary@4       00454000     kernel32:KERNEL32.dll
 0002:00000004       __imp__GetLastError@0      00454004     kernel32:KERNEL32.dll
 0002:00000008       __imp__CloseHandle@4       00454008     kernel32:KERNEL32.dll
 0002:0000000c       __imp__GetCurrentProcess@0 0045400c     kernel32:KERNEL32.dll
 0002:00000010       __imp__GetCurrentProcessId@0 00454010     kernel32:KERNEL32.dll
 0002:00000014       __imp__GetCurrentThreadId@0 00454014     kernel32:KERNEL32.dll
 0002:00000018       __imp__CreateFileA@28      00454018     kernel32:KERNEL32.dll
 0002:0000001c       __imp__GetProcAddress@8    0045401c     kernel32:KERNEL32.dll
 0002:00000020       __imp__SetUnhandledExceptionFilter@4 00454020     kernel32:KERNEL32.dll
 0002:00000024       __imp__LoadLibraryA@4      00454024     kernel32:KERNEL32.dll
 0002:00000028       __imp__GetModuleFileNameA@12 00454028     kernel32:KERNEL32.dll
 0002:0000002c       __imp__SetConsoleCtrlHandler@8 0045402c     kernel32:KERNEL32.dll
 0002:00000030       __imp__IsDebuggerPresent@0 00454030     kernel32:KERNEL32.dll
 0002:00000034       __imp__IsBadReadPtr@8      00454034     kernel32:KERNEL32.dll
 0002:00000038       __imp__FormatMessageA@28   00454038     kernel32:KERNEL32.dll
 0002:0000003c       __imp__GetModuleHandleA@4  0045403c     kernel32:KERNEL32.dll
 0002:00000040       __imp__VirtualQuery@12     00454040     kernel32:KERNEL32.dll
 0002:00000044       __imp__IsBadWritePtr@8     00454044     kernel32:KERNEL32.dll
 0002:00000048       __imp__GetCurrentThread@0  00454048     kernel32:KERNEL32.dll
 0002:0000004c       __imp__OutputDebugStringA@4 0045404c     kernel32:KERNEL32.dll
 0002:00000050       __imp__SetFilePointer@16   00454050     kernel32:KERNEL32.dll
 0002:00000054       __imp__InterlockedExchange@8 00454054     kernel32:KERNEL32.dll
 0002:00000058       __imp__Sleep@4             00454058     kernel32:KERNEL32.dll
 0002:0000005c       __imp__GetFileType@4       0045405c     kernel32:KERNEL32.dll
 0002:00000060       __imp__GetFileSize@8       00454060     kernel32:KERNEL32.dll
 0002:00000064       __imp__GetSystemInfo@4     00454064     kernel32:KERNEL32.dll
 0002:00000068       __imp__SetEndOfFile@4      00454068     kernel32:KERNEL32.dll
 0002:0000006c       __imp__ReadFile@20         0045406c     kernel32:KERNEL32.dll
 0002:00000070       __imp__UnmapViewOfFile@4   00454070     kernel32:KERNEL32.dll
 0002:00000074       __imp__WriteFile@20        00454074     kernel32:KERNEL32.dll
 0002:00000078       __imp__MapViewOfFile@20    00454078     kernel32:KERNEL32.dll
 0002:0000007c       __imp__CreateFileMappingA@24 0045407c     kernel32:KERNEL32.dll
 0002:00000080       __imp__GetStringTypeW@16   00454080     kernel32:KERNEL32.dll
 0002:00000084       __imp__LCMapStringW@24     00454084     kernel32:KERNEL32.dll
 0002:00000088       __imp__GetCPInfo@8         00454088     kernel32:KERNEL32.dll
 0002:0000008c       __imp__MultiByteToWideChar@24 0045408c     kernel32:KERNEL32.dll
 0002:00000090       __imp__WideCharToMultiByte@32 00454090     kernel32:KERNEL32.dll
 0002:00000094       __imp__CompareStringW@24   00454094     kernel32:KERNEL32.dll
 0002:00000098       __imp__GetLocaleInfoA@16   00454098     kernel32:KERNEL32.dll
 0002:0000009c       __imp__lstrcmpiA@8         0045409c     kernel32:KERNEL32.dll
 0002:000000a0       __imp__EnumSystemLocalesA@8 004540a0     kernel32:KERNEL32.dll
 0002:000000a4       __imp__LCMapStringA@24     004540a4     kernel32:KERNEL32.dll
 0002:000000a8       __imp__CompareStringA@24   004540a8     kernel32:KERNEL32.dll
 0002:000000ac       __imp__GetStringTypeA@20   004540ac     kernel32:KERNEL32.dll
 0002:000000b0       __imp__GetVersionExA@4     004540b0     kernel32:KERNEL32.dll
 0002:000000b4       __imp__HeapFree@12         004540b4     kernel32:KERNEL32.dll
 0002:000000b8       __imp__RaiseException@16   004540b8     kernel32:KERNEL32.dll
 0002:000000bc       __imp__RtlUnwind@16        004540bc     kernel32:KERNEL32.dll
 0002:000000c0       __imp__HeapAlloc@12        004540c0     kernel32:KERNEL32.dll
 0002:000000c4       __imp__GetCommandLineA@0   004540c4     kernel32:KERNEL32.dll
 0002:000000c8       __imp__GetTimeFormatA@24   004540c8     kernel32:KERNEL32.dll
 0002:000000cc       __imp__GetDateFormatA@24   004540cc     kernel32:KERNEL32.dll
 0002:000000d0       __imp__GetSystemTimeAsFileTime@4 004540d0     kernel32:KERNEL32.dll
 0002:000000d4       __imp__MoveFileA@8         004540d4     kernel32:KERNEL32.dll
 0002:000000d8       __imp__EnterCriticalSection@4 004540d8     kernel32:KERNEL32.dll
 0002:000000dc       __imp__LeaveCriticalSection@4 004540dc     kernel32:KERNEL32.dll
 0002:000000e0       __imp__HeapReAlloc@16      004540e0     kernel32:KERNEL32.dll
 0002:000000e4       __imp__SetHandleCount@4    004540e4     kernel32:KERNEL32.dll
 0002:000000e8       __imp__GetStdHandle@4      004540e8     kernel32:KERNEL32.dll
 0002:000000ec       __imp__GetStartupInfoA@4   004540ec     kernel32:KERNEL32.dll
 0002:000000f0       __imp__DeleteCriticalSection@4 004540f0     kernel32:KERNEL32.dll
 0002:000000f4       __imp__SetStdHandle@8      004540f4     kernel32:KERNEL32.dll
 0002:000000f8       __imp__HeapDestroy@4       004540f8     kernel32:KERNEL32.dll
 0002:000000fc       __imp__HeapCreate@12       004540fc     kernel32:KERNEL32.dll
 0002:00000100       __imp__VirtualFree@12      00454100     kernel32:KERNEL32.dll
 0002:00000104       __imp__FatalAppExitA@8     00454104     kernel32:KERNEL32.dll
 0002:00000108       __imp__VirtualAlloc@16     00454108     kernel32:KERNEL32.dll
 0002:0000010c       __imp__TlsAlloc@0          0045410c     kernel32:KERNEL32.dll
 0002:00000110       __imp__SetLastError@4      00454110     kernel32:KERNEL32.dll
 0002:00000114       __imp__TlsFree@4           00454114     kernel32:KERNEL32.dll
 0002:00000118       __imp__TlsSetValue@8       00454118     kernel32:KERNEL32.dll
 0002:0000011c       __imp__TlsGetValue@4       0045411c     kernel32:KERNEL32.dll
 0002:00000120       __imp__ExitProcess@4       00454120     kernel32:KERNEL32.dll
 0002:00000124       __imp__TerminateProcess@8  00454124     kernel32:KERNEL32.dll
 0002:00000128       __imp__HeapSize@12         00454128     kernel32:KERNEL32.dll
 0002:0000012c       __imp__UnhandledExceptionFilter@4 0045412c     kernel32:KERNEL32.dll
 0002:00000130       __imp__FreeEnvironmentStringsA@4 00454130     kernel32:KERNEL32.dll
 0002:00000134       __imp__GetEnvironmentStrings@0 00454134     kernel32:KERNEL32.dll
 0002:00000138       __imp__FreeEnvironmentStringsW@4 00454138     kernel32:KERNEL32.dll
 0002:0000013c       __imp__GetEnvironmentStringsW@0 0045413c     kernel32:KERNEL32.dll
 0002:00000140       __imp__GetTimeZoneInformation@4 00454140     kernel32:KERNEL32.dll
 0002:00000144       __imp__VirtualProtect@16   00454144     kernel32:KERNEL32.dll
 0002:00000148       __imp__FlushFileBuffers@4  00454148     kernel32:KERNEL32.dll
 0002:0000014c       __imp__GetACP@0            0045414c     kernel32:KERNEL32.dll
 0002:00000150       __imp__GetOEMCP@0          00454150     kernel32:KERNEL32.dll
 0002:00000154       __imp__GetUserDefaultLCID@0 00454154     kernel32:KERNEL32.dll
 0002:00000158       __imp__IsValidLocale@8     00454158     kernel32:KERNEL32.dll
 0002:0000015c       __imp__IsValidCodePage@4   0045415c     kernel32:KERNEL32.dll
 0002:00000160       __imp__InitializeCriticalSection@4 00454160     kernel32:KERNEL32.dll
 0002:00000164       __imp__IsBadCodePtr@4      00454164     kernel32:KERNEL32.dll
 0002:00000168       __imp__QueryPerformanceCounter@4 00454168     kernel32:KERNEL32.dll
 0002:0000016c       __imp__GetTickCount@0      0045416c     kernel32:KERNEL32.dll
 0002:00000170       __imp__GetLocaleInfoW@16   00454170     kernel32:KERNEL32.dll
 0002:00000174       __imp__SetEnvironmentVariableA@8 00454174     kernel32:KERNEL32.dll
 0002:00000178       __imp__GetCurrentDirectoryA@8 00454178     kernel32:KERNEL32.dll
 0002:0000017c       __imp__GetFullPathNameA@16 0045417c     kernel32:KERNEL32.dll
 0002:00000180       __imp__FindClose@4         00454180     kernel32:KERNEL32.dll
 0002:00000184       __imp__FileTimeToSystemTime@8 00454184     kernel32:KERNEL32.dll
 0002:00000188       __imp__FileTimeToLocalFileTime@8 00454188     kernel32:KERNEL32.dll
 0002:0000018c       __imp__GetDriveTypeA@4     0045418c     kernel32:KERNEL32.dll
 0002:00000190       __imp__FindFirstFileA@8    00454190     kernel32:KERNEL32.dll
 0002:00000194       __imp__GetFileInformationByHandle@8 00454194     kernel32:KERNEL32.dll
 0002:00000198       __imp__PeekNamedPipe@24    00454198     kernel32:KERNEL32.dll
 0002:0000019c       __imp__SetCurrentDirectoryA@4 0045419c     kernel32:KERNEL32.dll
 0002:000001a0       \177KERNEL32_NULL_THUNK_DATA 004541a0     kernel32:KERNEL32.dll
 0002:000001a4       __imp__wvsprintfA@12       004541a4     user32:USER32.dll
 0002:000001a8       \177USER32_NULL_THUNK_DATA 004541a8     user32:USER32.dll
 0002:000001cc       ??_C@_0N@GOPDCEEB@basic_string?$AA@ 004541cc     poltool.obj
 0002:000001e0       ??_C@_0EH@NLJODNIG@?7?5?5mapdump?5x1?5y1?5?$FLx2?5y2?5realm?$FN?5?5@ 004541e0     poltool.obj
 0002:00000228       ??_C@_0BP@OCEBJCGP@Usage?3?5poltool?5?$FLcmd?$FN?5?$FLoptions?$FN?$AA@ 00454228     poltool.obj
 0002:00000248       ??_8?$basic_ostream@DV?$char_traits@D@_STL@@@_STL@@7B@ 00454248     poltool.obj
 0002:00000250       ??_8?$basic_ofstream@DV?$char_traits@D@_STL@@@_STL@@7B@ 00454250     poltool.obj
 0002:00000258       ??_C@_08LHPBPOIK@?$DM?1table?$DO?$AA@ 00454258     poltool.obj
 0002:00000264       ??_C@_0N@JOJAGIMJ@solid?4flags?$DN?$AA@ 00454264     poltool.obj
 0002:00000274       ??_C@_0O@BMNMBBJP@solid?4height?$DN?$AA@ 00454274     poltool.obj
 0002:00000284       ??_C@_08KFCPHCON@solid?4z?$DN?$AA@ 00454284     poltool.obj
 0002:00000290       ??_C@_06MLDPJJIP@flags?$DN?$AA@ 00454290     poltool.obj
 0002:00000298       ??_C@_02DDDAIDNF@z?$DN?$AA@ 00454298     poltool.obj
 0002:0000029c       ??_C@_06DGPLLCGO@tilez?$DN?$AA@ 0045429c     poltool.obj
 0002:000002a4       ??_C@_04NKJDMFKO@?$DMbr?$DO?$AA@ 004542a4     poltool.obj
 0002:000002ac       ??_C@_09HHLLGPMK@landtile?$DN?$AA@ 004542ac     poltool.obj
 0002:000002b8       ??_C@_0BL@BFCBBBDF@?$DMtd?5align?$DNleft?5valign?$DNtop?$DO?$AA@ 004542b8     poltool.obj
 0002:000002d4       ??_C@_0BH@MIALIMGI@?$DMtr?$DO?$DMtd?5valign?$DNcenter?$DO?$AA@ 004542d4     poltool.obj
 0002:000002ec       ??_C@_05IMPJLBNH@?$DM?1tr?$DO?$AA@ 004542ec     poltool.obj
 0002:000002f4       ??_C@_05JEFCGOBF@?$DM?1td?$DO?$AA@ 004542f4     poltool.obj
 0002:000002fc       ??_C@_0BC@HPCADMGB@?$DMtd?5align?$DNcenter?$DO?$AA@ 004542fc     poltool.obj
 0002:00000310       ??_C@_0BE@HLNHNCPK@?$DMtr?$DO?$DMtd?$DO?$CGnbsp?$DL?$DM?1td?$DO?$AA@ 00454310     poltool.obj
 0002:00000324       ??_C@_0CN@KDOLMPLO@?$DMtable?5border?$DN1?5cellpadding?$DN5?5ce@ 00454324     poltool.obj
 0002:00000354       ??_C@_0M@MGMDLEA@polmap?4html?$AA@ 00454354     poltool.obj
 0002:00000360       ??_C@_00CNPNBAHC@?$AA@     00454360     poltool.obj
 0002:00000364       ??_C@_09MFACNIJF@britannia?$AA@ 00454364     poltool.obj
 0002:00000370       ??_C@_0BB@OJJHCCGF@Unknown?5command?5?$AA@ 00454370     poltool.obj
 0002:00000384       ??_C@_07KILDHPMK@mapdump?$AA@ 00454384     poltool.obj
 0002:0000038c       ??_C@_0O@KMBELBAC@DescPrependAn?$AA@ 0045438c     plib:mapfunc.obj
 0002:0000039c       ??_C@_0N@CECAOHE@DescPrependA?$AA@ 0045439c     plib:mapfunc.obj
 0002:000003ac       ??_C@_0L@NEAMDJCL@Equippable?$AA@ 004543ac     plib:mapfunc.obj
 0002:000003b8       ??_C@_07OEPKOJKJ@Movable?$AA@ 004543b8     plib:mapfunc.obj
 0002:000003c0       ??_C@_08FNHBNBED@Blocking?$AA@ 004543c0     plib:mapfunc.obj
 0002:000003cc       ??_C@_09ELAPPNAM@Stackable?$AA@ 004543cc     plib:mapfunc.obj
 0002:000003d8       ??_C@_07LBNEPCAA@Gradual?$AA@ 004543d8     plib:mapfunc.obj
 0002:000003e0       ??_C@_0M@JNPNMFIG@AllowDropOn?$AA@ 004543e0     plib:mapfunc.obj
 0002:000003ec       ??_C@_0L@LFLHHHGN@OverFlight?$AA@ 004543ec     plib:mapfunc.obj
 0002:000003f8       ??_C@_0L@DANGHNEE@BlockSight?$AA@ 004543f8     plib:mapfunc.obj
 0002:00000404       ??_C@_07DCFACOCG@MoveSea?$AA@ 00454404     plib:mapfunc.obj
 0002:0000040c       ??_C@_08LFCAKLEJ@MoveLand?$AA@ 0045440c     plib:mapfunc.obj
 0002:00000418       ??_C@_0CM@OBOJDIMG@?5uses?5Roof?9?5and?5Platform?9Flag?5at@ 00454418     plib:mapfunc.obj
 0002:00000444       ??_C@_0BC@JPEBKDMN@?5Warning?3?5Tile?50x?$AA@ 00454444     plib:mapfunc.obj
 0002:00000458       ??_C@_0IP@LFJPGAA@L?$DNmove?5land?0?5S?$DNmove?5sea?0?5V?$DNblock@ 00454458     plib:mapfunc.obj
 0002:000004e8       ??_C@_01DDCIFGEA@E?$AA@    004544e8     plib:mapfunc.obj
 0002:000004ec       ??_C@_01PLPBNMEI@M?$AA@    004544ec     plib:mapfunc.obj
 0002:000004f0       ??_C@_01HMGJMAIH@B?$AA@    004544f0     plib:mapfunc.obj
 0002:000004f4       ??_C@_01MIFGBAGJ@?$CL?$AA@ 004544f4     plib:mapfunc.obj
 0002:000004f8       ??_C@_01JEJKBAGA@g?$AA@    004544f8     plib:mapfunc.obj
 0002:000004fc       ??_C@_01LPLHEDKD@d?$AA@    004544fc     plib:mapfunc.obj
 0002:00000500       ??_C@_01INIBCBCB@f?$AA@    00454500     plib:mapfunc.obj
 0002:00000504       ??_C@_01FCMHBHNC@V?$AA@    00454504     plib:mapfunc.obj
 0002:00000508       ??_C@_01CPLAODJH@S?$AA@    00454508     plib:mapfunc.obj
 0002:0000050c       ??_C@_01OCOKONAJ@L?$AA@    0045450c     plib:mapfunc.obj
 0002:00000510       ??_C@_0M@OLPDOFPD@maptile?4dat?$AA@ 00454510     plib:maptileserver.obj
 0002:0000051c       ??_C@_06NBFPPGEG@vector?$AA@ 0045451c     plib:mapserver.obj
 0002:00000524       ??_7MapServer@@6B@         00454524     plib:mapserver.obj
 0002:0000052c       ??_C@_0DA@KNNGKEOH@x?5?$DM?5_descriptor?4width?5?$CG?$CG?5y?5?$DM?5_de@ 0045452c     plib:mapserver.obj
 0002:0000055c       ??_C@_0BA@HEDBJGND@?4?2mapserver?4cpp?$AA@ 0045455c     plib:mapserver.obj
 0002:0000056c       ??_C@_0M@KDDKNDLK@solidx1?4dat?$AA@ 0045456c     plib:mapserver.obj
 0002:00000578       ??_C@_0BL@FMMKGCCJ@Undefined?5mapserver?5type?3?5?$AA@ 00454578     plib:mapserver.obj
 0002:00000594       ??_C@_04DAMGJPCA@file?$AA@ 00454594     plib:mapserver.obj
 0002:0000059c       ??_C@_06HLKELJGF@memory?$AA@ 0045459c     plib:mapserver.obj
 0002:000005a4       ??_C@_0BI@NKKAOCPE@idx?5?$DM?5_shapedata?4size?$CI?$CJ?$AA@ 004545a4     plib:mapserver.obj
 0002:000005bc       ??_C@_0CD@NHLDNILK@elem?4baseindex?5?$DM?5_shapedata?4size@ 004545bc     plib:mapserver.obj
 0002:000005e0       ??_C@_0DC@PPLOBEFI@?5does?5not?5contain?5an?5integral?5nu@ 004545e0     plib:mapserver.obj
 0002:00000614       ??_C@_07OLFNNBO@?5bytes?4?$AA@ 00454614     plib:mapserver.obj
 0002:0000061c       ??_C@_0BN@HMAHEDKK@?5must?5have?5size?5of?5at?5least?5?$AA@ 0045461c     plib:mapserver.obj
 0002:0000063c       ??_C@_0M@CFKOKBBE@solidx2?4dat?$AA@ 0045463c     plib:mapserver.obj
 0002:00000648       ??_C@_0L@JMBLBHHB@solids?4dat?$AA@ 00454648     plib:mapserver.obj
 0002:00000654       ??_C@_09MEMOBGDB@mapserver?$AA@ 00454654     plib:realmdescriptor.obj
 0002:00000660       ??_C@_06ICAHOPGF@season?$AA@ 00454660     plib:realmdescriptor.obj
 0002:00000668       ??_C@_0BD@HDJNAPM@num_static_patches?$AA@ 00454668     plib:realmdescriptor.obj
 0002:0000067c       ??_C@_0BA@CNKIPBCP@num_map_patches?$AA@ 0045467c     plib:realmdescriptor.obj
 0002:0000068c       ??_C@_05MOFFHOGI@uodif?$AA@ 0045468c     plib:realmdescriptor.obj
 0002:00000694       ??_C@_07DOADDPIH@uomapid?$AA@ 00454694     plib:realmdescriptor.obj
 0002:0000069c       ??_C@_06LNLHEAAG@height?$AA@ 0045469c     plib:realmdescriptor.obj
 0002:000006a4       ??_C@_05IGKADHGO@width?$AA@ 004546a4     plib:realmdescriptor.obj
 0002:000006ac       ??_C@_01KMDKNFGN@?1?$AA@   004546ac     plib:realmdescriptor.obj
 0002:000006b0       ??_C@_06MGOMAJDC@realm?1?$AA@ 004546b0     plib:realmdescriptor.obj
 0002:000006b8       ??_C@_0CD@COJEKJCK@Unable?5to?5read?5configuration?5fil@ 004546b8     plib:realmdescriptor.obj
 0002:000006dc       ??_C@_05IAJHFKCN@REALM?$AA@ 004546dc     plib:realmdescriptor.obj
 0002:000006e4       ??_C@_0L@LAONLNAG@?1realm?4cfg?$AA@ 004546e4     plib:realmdescriptor.obj
 0002:000006f0       ??_C@_0BE@MCDHFIAD@?4?2filemapserver?4cpp?$AA@ 004546f0     plib:filemapserver.obj
 0002:00000704       ??_C@_08DKGIFKNN@base?4dat?$AA@ 00454704     plib:filemapserver.obj
 0002:00000710       ??_7FileMapServer@@6B@     00454710     plib:filemapserver.obj
 0002:00000718       ??_C@_0BI@EGMBHEEJ@?4?2inmemorymapserver?4cpp?$AA@ 00454718     plib:inmemorymapserver.obj
 0002:00000730       ??_7InMemoryMapServer@@6B@ 00454730     plib:inmemorymapserver.obj
 0002:00000738       ??_7ConfigSource@@6B@      00454738     clib:cfgfile.obj
 0002:00000740       ??_C@_02CBLDBPFN@?1?1?$AA@ 00454740     clib:cfgfile.obj
 0002:00000744       ??_C@_01GPOEFGEJ@?7?$AA@   00454744     clib:cfgfile.obj
 0002:00000748       ??_C@_0CA@DMCBGPEB@?5reading?5configuration?5element?3?$AA@ 00454748     clib:cfgfile.obj
 0002:00000768       ??_C@_07KGMMFLDN@Warning?$AA@ 00454768     clib:cfgfile.obj
 0002:00000770       ??_C@_05NAOIJFC@Error?$AA@ 00454770     clib:cfgfile.obj
 0002:00000778       ??_7?$basic_stringbuf@DV?$char_traits@D@_STL@@V?$allocator@D@2@@_STL@@6B@ 00454778     clib:cfgfile.obj
 0002:000007b0       ??_7?$basic_ostringstream@DV?$char_traits@D@_STL@@V?$allocator@D@2@@_STL@@6B@ 004547b0     clib:cfgfile.obj
 0002:000007b4       ??_7?$basic_istringstream@DV?$char_traits@D@_STL@@V?$allocator@D@2@@_STL@@6B@ 004547b4     clib:cfgfile.obj
 0002:000007b8       ??_C@_0BJ@CFPCDIDI@Configuration?5file?5error?$AA@ 004547b8     clib:cfgfile.obj
 0002:000007d4       ??_C@_0BL@NGMKPCLL@?7Element?5started?5on?5line?3?5?$AA@ 004547d4     clib:cfgfile.obj
 0002:000007f0       ??_C@_0N@GDKGPJLA@?7Near?5line?3?5?$AA@ 004547f0     clib:cfgfile.obj
 0002:00000800       ??_C@_0BB@ILICKBJF@?0?5found?5on?5line?5?$AA@ 00454800     clib:cfgfile.obj
 0002:00000814       ??_C@_01CLKCMJKC@?5?$AA@   00454814     clib:cfgfile.obj
 0002:00000818       ??_C@_0L@HJIFGJNC@?7Element?3?5?$AA@ 00454818     clib:cfgfile.obj
 0002:00000824       ??_C@_01JLIPDDHJ@?3?$AA@   00454824     clib:cfgfile.obj
 0002:00000828       ??_C@_0BN@EPNNHIBO@?5reading?5configuration?5file?5?$AA@ 00454828     clib:cfgfile.obj
 0002:00000848       ??_C@_0BK@CDCAEDIK@Configuration?5file?5error?4?$AA@ 00454848     clib:cfgfile.obj
 0002:00000864       ??_C@_0BE@JBMBFNNG@?$CIGeneric?5exception?$CJ?$AA@ 00454864     clib:cfgfile.obj
 0002:00000878       ??_C@_0BK@KDHHJALE@SERIAL?5property?5not?5found?$AA@ 00454878     clib:cfgfile.obj
 0002:00000894       ??_C@_03FPCGPDIA@?8?3?5?$AA@ 00454894     clib:cfgfile.obj
 0002:00000898       ??_C@_0CD@PFLBBGLA@Poorly?5formed?5number?5in?5property@ 00454898     clib:cfgfile.obj
 0002:000008bc       ??_C@_0BB@HFDPBIJG@?8?5was?5not?5found?4?$AA@ 004548bc     clib:cfgfile.obj
 0002:000008d0       ??_C@_0L@FGHJILGD@Property?5?8?$AA@ 004548d0     clib:cfgfile.obj
 0002:000008dc       ??_C@_0CD@ELJANFA@Unable?5to?5open?5configuration?5fil@ 004548dc     clib:cfgfile.obj
 0002:00000900       ??_C@_02BMJICGCB@rt?$AA@   00454900     clib:cfgfile.obj
 0002:00000904       ??_7ConfigFile@@6B@        00454904     clib:cfgfile.obj
 0002:0000090c       ??_8?$basic_istream@DV?$char_traits@D@_STL@@@_STL@@7B@ 0045490c     clib:cfgfile.obj
 0002:00000914       ??_8?$basic_ostringstream@DV?$char_traits@D@_STL@@V?$allocator@D@2@@_STL@@7B@ 00454914     clib:cfgfile.obj
 0002:0000091c       ??_8?$basic_istringstream@DV?$char_traits@D@_STL@@V?$allocator@D@2@@_STL@@7B@ 0045491c     clib:cfgfile.obj
 0002:00000924       ??_C@_01CELHOKLL@?$HN?$AA@ 00454924     clib:cfgfile.obj
 0002:00000928       ??_C@_0DA@CMPPOEEO@Expected?5?8?$HL?8?5on?5a?5blank?5line?5aft@ 00454928     clib:cfgfile.obj
 0002:00000958       ??_C@_0DG@GLKJAKFA@Expected?5?8?$HN?8?5on?5a?5blank?5line?5aft@ 00454958     clib:cfgfile.obj
 0002:00000990       ??_C@_0CP@MGOIIING@File?5ends?5after?5element?5type?5?9?9?5@ 00454990     clib:cfgfile.obj
 0002:000009c0       ??_C@_0BC@BBCEEEGH@?7Valid?5types?5are?3?$AA@ 004549c0     clib:cfgfile.obj
 0002:000009d4       ??_C@_01GEODFPGF@?8?$AA@   004549d4     clib:cfgfile.obj
 0002:000009d8       ??_C@_0BC@FECHBHAO@Unexpected?5type?5?8?$AA@ 004549d8     clib:cfgfile.obj
 0002:000009ec       ??_C@_0BH@EOMJEOHF@unexpected?5?8?$HN?8?5in?5file?$AA@ 004549ec     clib:cfgfile.obj
 0002:00000a04       ??_C@_05OLAGFFKE@?$DMn?1a?$DO?$AA@ 00454a04     clib:cfgfile.obj
 0002:00000a0c       ??_C@_0L@KDLDJKM@?8?$CJ?5failed?4?$AA@ 00454a0c     clib:binaryfile.obj
 0002:00000a18       ??_C@_03EHINCMEC@?8?0?5?$AA@ 00454a18     clib:binaryfile.obj
 0002:00000a1c       ??_C@_0BD@DNGDAOFO@BinaryFile?3?3Seek?$CI?8?$AA@ 00454a1c     clib:binaryfile.obj
 0002:00000a30       ??_C@_0BA@BNPNGFD@_file?4is_open?$CI?$CJ?$AA@ 00454a30     clib:binaryfile.obj
 0002:00000a40       ??_C@_0BB@MNHBMLJI@?4?2binaryfile?4cpp?$AA@ 00454a40     clib:binaryfile.obj
 0002:00000a54       ??_C@_0BD@NPBMFHKD@?8?$CJ?5failed?5to?5read?5?$AA@ 00454a54     clib:binaryfile.obj
 0002:00000a68       ??_C@_0BD@DGPHLDHM@BinaryFile?3?3Read?$CI?8?$AA@ 00454a68     clib:binaryfile.obj
 0002:00000a7c       ??_C@_0CI@HPNKCBFG@?8?$CJ?5failed?5to?5seek?5to?5original?5po@ 00454a7c     clib:binaryfile.obj
 0002:00000aa4       ??_C@_0CC@BJMIOPMC@?8?$CJ?5could?5not?5determine?5file?5size@ 00454aa4     clib:binaryfile.obj
 0002:00000ac8       ??_C@_0CC@JMEMAEFC@?8?$CJ?5failed?5to?5seek?5to?5end?5of?5file@ 00454ac8     clib:binaryfile.obj
 0002:00000aec       ??_C@_0CI@JLHIADND@?8?5failed?5to?5determine?5current?5po@ 00454aec     clib:binaryfile.obj
 0002:00000b14       ??_C@_0BH@MDHMLICP@BinaryFile?3?3FileSize?$CI?8?$AA@ 00454b14     clib:binaryfile.obj
 0002:00000b2c       ??_C@_0DK@HNFCAMID@?5does?5not?5contain?5an?5integral?5nu@ 00454b2c     clib:binaryfile.obj
 0002:00000b68       ??_C@_09CNJBHKGC@?$CJ?5failed?4?$AA@ 00454b68     clib:binaryfile.obj
 0002:00000b74       ??_C@_02KEGNLNML@?0?5?$AA@ 00454b74     clib:binaryfile.obj
 0002:00000b78       ??_C@_0BD@PJNIJLPO@BinaryFile?3?3Open?$CI?8?$AA@ 00454b78     clib:binaryfile.obj
 0002:00000b8c       ??_C@_0BB@INIOJFAC@?$CB_file?4is_open?$CI?$CJ?$AA@ 00454b8c     clib:binaryfile.obj
 0002:00000ba0       ??_8?$basic_iostream@DV?$char_traits@D@_STL@@@_STL@@7B?$basic_ostream@DV?$char_traits@D@_STL@@@1@@ 00454ba0     clib:binaryfile.obj
 0002:00000ba8       ??_8?$basic_iostream@DV?$char_traits@D@_STL@@@_STL@@7B?$basic_istream@DV?$char_traits@D@_STL@@@1@@ 00454ba8     clib:binaryfile.obj
 0002:00000bb0       ??_8?$basic_fstream@DV?$char_traits@D@_STL@@@_STL@@7B?$basic_ostream@DV?$char_traits@D@_STL@@@1@@ 00454bb0     clib:binaryfile.obj
 0002:00000bb8       ??_8?$basic_fstream@DV?$char_traits@D@_STL@@@_STL@@7B?$basic_istream@DV?$char_traits@D@_STL@@@1@@ 00454bb8     clib:binaryfile.obj
 0002:00000bcc       ??_C@_0CD@DJKAKFIO@Aborting?5due?5to?5assertion?5failur@ 00454bcc     clib:passert.obj
 0002:00000bf0       ??_C@_0CE@PANGOGAI@Aborting?5due?5to?5assertion?5failur@ 00454bf0     clib:passert.obj
 0002:00000c14       ??_C@_0CI@PGFLFMLD@Shutting?5down?5due?5to?5assertion?5f@ 00454c14     clib:passert.obj
 0002:00000c3c       ??_C@_0CJ@KIHBFBOA@Shutting?5down?5due?5to?5assertion?5f@ 00454c3c     clib:passert.obj
 0002:00000c68       ??_C@_0BJ@HAFMFKDH@Forcing?5stack?5backtrace?4?$AA@ 00454c68     clib:passert.obj
 0002:00000c84       ??_C@_0BK@ECCCBBNP@Forcing?5stack?5backtrace?4?6?$AA@ 00454c84     clib:passert.obj
 0002:00000ca0       ??_C@_07BAMMBJFH@?0?5line?5?$AA@ 00454ca0     clib:passert.obj
 0002:00000ca8       ??_C@_0BD@KCLMNMNM@Assertion?5Failed?3?5?$AA@ 00454ca8     clib:passert.obj
 0002:00000cbc       ??_C@_0CD@MAIDLCPF@Assertion?5Failed?3?5?$CFs?0?5?$CFs?0?5line?5?$CF@ 00454cbc     clib:passert.obj
 0002:00000ce0       ??_C@_03KHFCFLHB@?$CJ?0?5?$AA@ 00454ce0     clib:passert.obj
 0002:00000ce4       ??_C@_02GFKOMOKH@?5?$CI?$AA@ 00454ce4     clib:passert.obj
 0002:00000ce8       ??_C@_0CI@KEDMFHCP@Assertion?5Failed?3?5?$CFs?5?$CI?$CFs?$CJ?0?5?$CFs?0?5l@ 00454ce8     clib:passert.obj
 0002:00000d10       ??_C@_01EEMJAFIK@?6?$AA@   00454d10     clib:strutil.obj
 0002:00000d14       ??_C@_02JOGGLHBA@?2n?$AA@  00454d14     clib:strutil.obj
 0002:00000d18       ??_C@_02MCKKLHBJ@?2?$CC?$AA@ 00454d18     clib:strutil.obj
 0002:00000d1c       ??_C@_02HDBGODGB@?2?2?$AA@ 00454d1c     clib:strutil.obj
 0002:00000d20       ??_C@_01BJJEKLCA@?$CC?$AA@ 00454d20     clib:strutil.obj
 0002:00000d24       ??_C@_0BF@EMKMADIF@encodequotedstring?$CI?5?$AA@ 00454d24     clib:strutil.obj
 0002:00000d3c       ??_C@_09JADIPJLK@?5?$CJ?5fails?$CB?$AA@ 00454d3c     clib:strutil.obj
 0002:00000d48       ??_C@_0BF@OBAEBLGD@decodequotedstring?$CI?5?$AA@ 00454d48     clib:strutil.obj
 0002:00000d60       ??_C@_07DAFIKBKK@?$CC?5?2?$CChi?$CC?$AA@ 00454d60     clib:strutil.obj
 0002:00000d68       ??_C@_04NMAKCF@?5?$CChi?$AA@ 00454d68     clib:strutil.obj
 0002:00000d70       ??_C@_06ENIOIJMH@?$CC?5hi?5?$CC?$AA@ 00454d70     clib:strutil.obj
 0002:00000d78       ??_C@_04NEAMCMAH@?5hi?5?$AA@ 00454d78     clib:strutil.obj
 0002:00000d80       ??_C@_05HEMKHOKE@?$CChi?5?$CC?$AA@ 00454d80     clib:strutil.obj
 0002:00000d88       ??_C@_03PCKLCLAC@hi?5?$AA@ 00454d88     clib:strutil.obj
 0002:00000d8c       ??_C@_04JMPKBNOF@?$CChi?$CC?$AA@ 00454d8c     clib:strutil.obj
 0002:00000d94       ??_C@_02PCEFGMJL@hi?$AA@   00454d94     clib:strutil.obj
 0002:00000d98       ??_C@_05NBJECMKO@?5?7?$AN?6?$DN?$AA@ 00454d98     clib:strutil.obj
 0002:00000da0       ??_C@_04HHCDBDLF@?5?7?$AN?6?$AA@ 00454da0     clib:strutil.obj
 0002:00000da8       ??_C@_0L@MGMFBGDG@?$CC?5?$CJ?5fails?$CB?$AA@ 00454da8     clib:strutil.obj
 0002:00000db4       ??_C@_0BC@EOJELKEB@splitnamevalue?$CI?5?$CC?$AA@ 00454db4     clib:strutil.obj
 0002:00000dc8       ??_C@_0CA@CIHAIAG@?5?5nm?5?5value?5is?5multiple?5words?7?5?$AA@ 00454dc8     clib:strutil.obj
 0002:00000de8       ??_C@_0BO@DHJHECAA@?5?5nm?5?5value?5is?5multiple?5words?$AA@ 00454de8     clib:strutil.obj
 0002:00000e08       ??_C@_0BI@BMEHHFMA@value?5is?5multiple?5words?$AA@ 00454e08     clib:strutil.obj
 0002:00000e20       ??_C@_0BA@IHPPFDOH@?5?5nm?5?5?5value?5?5?5?$AA@ 00454e20     clib:strutil.obj
 0002:00000e30       ??_C@_05MFEJDJP@value?$AA@ 00454e30     clib:strutil.obj
 0002:00000e38       ??_C@_09BPPILGJO@?5?5nm?5valu?$AA@ 00454e38     clib:strutil.obj
 0002:00000e44       ??_C@_06OIAFJIJL@?5?5nm?5?5?$AA@ 00454e44     clib:strutil.obj
 0002:00000e4c       ??_C@_04MKDEHLBI@?5?5nm?$AA@ 00454e4c     clib:strutil.obj
 0002:00000e54       ??_C@_07PGLBKBAP@nm?3valu?$AA@ 00454e54     clib:strutil.obj
 0002:00000e5c       ??_C@_07OLLEJBLH@nm?$DNvalu?$AA@ 00454e5c     clib:strutil.obj
 0002:00000e64       ??_C@_02JCKENFCN@nm?$AA@   00454e64     clib:strutil.obj
 0002:00000e68       ??_C@_04NPFADCBM@valu?$AA@ 00454e68     clib:strutil.obj
 0002:00000e70       ??_C@_05PHIANEEC@av?5bx?$AA@ 00454e70     clib:strutil.obj
 0002:00000e78       ??_C@_02DAMOFJIK@av?$AA@   00454e78     clib:strutil.obj
 0002:00000e7c       ??_C@_02KMALMKFN@bx?$AA@   00454e7c     clib:strutil.obj
 0002:00000e80       ??_C@_03DCKHPPEA@a?5b?$AA@ 00454e80     clib:strutil.obj
 0002:00000e84       ??_C@_01MCMALHOG@a?$AA@    00454e84     clib:strutil.obj
 0002:00000e88       ??_C@_01OJONOECF@b?$AA@    00454e88     clib:strutil.obj
 0002:00000e8c       ??_C@_02MDDDDAID@0x?$AA@   00454e8c     clib:strutil.obj
 0002:00000e90       ??_C@_05EEFLCHJG@?5PC?3?5?$AA@ 00454e90     clib:mdump.obj
 0002:00000e98       ??_C@_0O@CEFPEEAB@Last?5Script?3?5?$AA@ 00454e98     clib:mdump.obj
 0002:00000ea8       ??_C@_02DKCKIIND@?$CFs?$AA@ 00454ea8     clib:mdump.obj
 0002:00000eac       ??_C@_0DL@LIFILPEA@?$CD?$CD?$CD?$CD?$CD?$CD?$CD?$CD?$CD?$CD?$CD?$CD?$CD?$CD?$CD?$CD?$CD?$CD?$CD?$CD?$CD?$CD?$CD?$CD?$CD?$CD?$CD?$CD?$CD?$CD?$CD?$CD@ 00454eac     clib:mdump.obj
 0002:00000ee8       ??_C@_0BI@NFDEBJOK@Last?5Script?3?5?$CFs?5PC?3?5?$CFd?6?$AA@ 00454ee8     clib:mdump.obj
 0002:00000f00       ??_C@_0CL@KMCGFKEK@Failed?5to?5create?5dump?5file?5?8?$CFs?8?5@ 00454f00     clib:mdump.obj
 0002:00000f2c       ??_C@_0CM@IDCCJAOB@Failed?5to?5save?5dump?5file?5to?5?8?$CFs?8@ 00454f2c     clib:mdump.obj
 0002:00000f58       ??_C@_0KI@FKNKGNBH@Unhandled?5Exception?$CB?5Writing?5Min@ 00454f58     clib:mdump.obj
 0002:00001000       ??_C@_0CK@IDOOPLDC@Unhandled?5Exception?$CB?5Minidump?5st@ 00455000     clib:mdump.obj
 0002:0000102c       ??_C@_05BHNOFNA@large?$AA@ 0045502c     clib:mdump.obj
 0002:00001034       ??_C@_04JMFINIFG@?4dmp?$AA@ 00455034     clib:mdump.obj
 0002:0000103c       ??_C@_01JOAMLHOP@?9?$AA@   0045503c     clib:mdump.obj
 0002:00001040       ??_C@_0BC@MNIKNFKD@MiniDumpWriteDump?$AA@ 00455040     clib:mdump.obj
 0002:00001054       ??_C@_03OFAPEBGM@?$CFs?6?$AA@ 00455054     clib:mdump.obj
 0002:00001058       ??_C@_0EI@ENNOJGBB@Warning?3?5DBGHELP?4DLL?5not?5found?0?5@ 00455058     clib:mdump.obj
 0002:000010a0       ??_C@_0DF@GGAGCIA@Warning?3?5DBGHELP?4DLL?5too?5old?0?5ve@ 004550a0     clib:mdump.obj
 0002:000010d8       ??_C@_0M@IBNEFJCG@DBGHELP?4DLL?$AA@ 004550d8     clib:mdump.obj
 0002:000010e4       ??_C@_0N@BNMNAMM@?$CFY?$CFm?$CFd?$CFH?$CFM?$CFS?$AA@ 004550e4     clib:mdump.obj
 0002:000010f4       ??_C@_0BO@HJEGABO@Ctrl?9C?5detected?4?5?5Stopping?4?4?4?$AA@ 004550f4     clib:esignal.obj
 0002:00001114       ??_C@_05KJDPJACP@?$FL?$CFs?$FN?5?$AA@ 00455114     clib:logfile.obj
 0002:0000111c       ??_C@_0P@OKAMCJLB@?$CFm?1?$CFd?5?$CFH?3?$CFM?3?$CFS?$AA@ 0045511c     clib:logfile.obj
 0002:0000112c       ??_C@_03CCGKKFHG@a?$CLt?$AA@ 0045512c     clib:logfile.obj
 0002:00001130       ??_C@_04FPOLKAEB@?4log?$AA@ 00455130     clib:logfile.obj
 0002:00001138       ??_C@_08GOBPOGDO@?$CFY?9?$CFm?9?$CFd?$AA@ 00455138     clib:logfile.obj
 0002:00001144       ??_C@_0BB@MHHFGGCN@Logfile?5opened?4?6?$AA@ 00455144     clib:logfile.obj
 0002:00001158       ??_C@_07HMINABEO@logfile?$AA@ 00455158     clib:logfile.obj
 0002:00001160       ??_C@_0BC@EPOEGOCJ@Closing?5logfile?4?6?$AA@ 00455160     clib:logfile.obj
 0002:00001174       ?compiledate@@3QBDB        00455174     clib:progver.obj
 0002:00001180       ?compiletime@@3QBDB        00455180     clib:progver.obj
 0002:0000118c       ??_7structured_exception@@6B@ 0045518c     clib:strexcpt.obj
 0002:00001194       ??_7access_violation@@6B@  00455194     clib:strexcpt.obj
 0002:0000119c       ??_C@_0BB@EFAECGPM@Access?5Violation?$AA@ 0045519c     clib:strexcpt.obj
 0002:000011b0       ??_C@_0BF@DMGIAEPF@Structured?5Exception?$AA@ 004551b0     clib:strexcpt.obj
 0002:000011c8       ??_C@_0BF@CEGABFDF@?$FLCan?8t?5read?5stack?$CB?$FN?6?$AA@ 004551c8     clib:strexcpt.obj
 0002:000011e0       ??_C@_0P@NCCCBGLD@?5?5?5?50x?$CF08?408lx?$AA@ 004551e0     clib:strexcpt.obj
 0002:000011f0       ??_C@_0BI@LKGLNMMK@?5?5?5?5EIP?5?5?5?5?5?5?5?5RETADDR?6?$AA@ 004551f0     clib:strexcpt.obj
 0002:00001208       ??_C@_0BG@JBMEMLGK@?5?5?5?5Stack?5Backtrace?3?6?$AA@ 00455208     clib:strexcpt.obj
 0002:00001220       ??_C@_0BD@NCJFDDNG@?5?5?5?5?5SegSs?3?50x?$CFlx?6?$AA@ 00455220     clib:strexcpt.obj
 0002:00001234       ??_C@_0BD@HNJIPGED@?5?5?5?5?5?5?5Esp?3?50x?$CFlx?6?$AA@ 00455234     clib:strexcpt.obj
 0002:00001248       ??_C@_0BD@LBCGANCJ@?5?5?5?5EFlags?3?50x?$CFlx?6?$AA@ 00455248     clib:strexcpt.obj
 0002:0000125c       ??_C@_0BD@HMGDPHBN@?5?5?5?5?5SegCs?3?50x?$CFlx?6?$AA@ 0045525c     clib:strexcpt.obj
 0002:00001270       ??_C@_0BD@DBMBGKAM@?5?5?5?5?5?5?5Eip?3?50x?$CFlx?6?$AA@ 00455270     clib:strexcpt.obj
 0002:00001284       ??_C@_0BD@BCOAONEI@?5?5?5?5?5?5?5Ebp?3?50x?$CFlx?6?$AA@ 00455284     clib:strexcpt.obj
 0002:00001298       ??_C@_0BE@EJDDGJHM@?5?5CONTEXT_CONTROL?3?6?$AA@ 00455298     clib:strexcpt.obj
 0002:000012ac       ??_C@_0BD@JINFMLLN@?5?5?5?5?5?5?5Eax?3?50x?$CFlx?6?$AA@ 004552ac     clib:strexcpt.obj
 0002:000012c0       ??_C@_0BD@MALJHCHM@?5?5?5?5?5?5?5Ecx?3?50x?$CFlx?6?$AA@ 004552c0     clib:strexcpt.obj
 0002:000012d4       ??_C@_0BD@OJICGHPP@?5?5?5?5?5?5?5Edx?3?50x?$CFlx?6?$AA@ 004552d4     clib:strexcpt.obj
 0002:000012e8       ??_C@_0BD@BDHKNLM@?5?5?5?5?5?5?5Ebx?3?50x?$CFlx?6?$AA@ 004552e8     clib:strexcpt.obj
 0002:000012fc       ??_C@_0BD@KGCDFMGB@?5?5?5?5?5?5?5Esi?3?50x?$CFlx?6?$AA@ 004552fc     clib:strexcpt.obj
 0002:00001310       ??_C@_0BD@CBOOINCJ@?5?5?5?5?5?5?5Edi?3?50x?$CFlx?6?$AA@ 00455310     clib:strexcpt.obj
 0002:00001324       ??_C@_0BE@MMNFPMEK@?5?5CONTEXT_INTEGER?3?6?$AA@ 00455324     clib:strexcpt.obj
 0002:00001338       ??_C@_0BD@FFFIOCJO@?5?5?5?5?5SegDs?3?50x?$CFlx?6?$AA@ 00455338     clib:strexcpt.obj
 0002:0000134c       ??_C@_0BD@JENGDNFO@?5?5?5?5?5SegEs?3?50x?$CFlx?6?$AA@ 0045534c     clib:strexcpt.obj
 0002:00001360       ??_C@_0BD@NDEFLFP@?5?5?5?5?5SegFs?3?50x?$CFlx?6?$AA@ 00455360     clib:strexcpt.obj
 0002:00001374       ??_C@_0BD@MMLKIEJP@?5?5?5?5?5SegGs?3?50x?$CFlx?6?$AA@ 00455374     clib:strexcpt.obj
 0002:00001388       ??_C@_0BF@IOGGNOBC@?5?5CONTEXT_SEGMENTS?3?6?$AA@ 00455388     clib:strexcpt.obj
 0002:000013a0       ??_C@_0BD@FLNFHJDF@?5?5?5?5?5?5?5Dr7?3?50x?$CFlx?6?$AA@ 004553a0     clib:strexcpt.obj
 0002:000013b4       ??_C@_0BD@LEBHBCAL@?5?5?5?5?5?5?5Dr6?3?50x?$CFlx?6?$AA@ 004553b4     clib:strexcpt.obj
 0002:000013c8       ??_C@_0BD@FCDONJEP@?5?5?5?5?5?5?5Dr3?3?50x?$CFlx?6?$AA@ 004553c8     clib:strexcpt.obj
 0002:000013dc       ??_C@_0BD@LNPMLCHB@?5?5?5?5?5?5?5Dr2?3?50x?$CFlx?6?$AA@ 004553dc     clib:strexcpt.obj
 0002:000013f0       ??_C@_0BD@FGMLAJHC@?5?5?5?5?5?5?5Dr1?3?50x?$CFlx?6?$AA@ 004553f0     clib:strexcpt.obj
 0002:00001404       ??_C@_0BD@LJAJGCEM@?5?5?5?5?5?5?5Dr0?3?50x?$CFlx?6?$AA@ 00455404     clib:strexcpt.obj
 0002:00001418       ??_C@_0BM@CDEJFMPK@?5?5CONTEXT_DEBUG_REGISTERS?3?6?$AA@ 00455418     clib:strexcpt.obj
 0002:00001434       ??_C@_0BH@GOJNJENN@?5?5ContextFlags?3?50x?$CFlx?6?$AA@ 00455434     clib:strexcpt.obj
 0002:0000144c       ??_C@_0BA@FHOLEGME@ContextRecord?3?6?$AA@ 0045544c     clib:strexcpt.obj
 0002:0000145c       ??_C@_0M@PCGICAMN@?$CFs0x?$CF08?408x?$AA@ 0045545c     clib:strexcpt.obj
 0002:00001468       ??_C@_02KNHHEEKP@?5?5?$AA@ 00455468     clib:strexcpt.obj
 0002:0000146c       ??_C@_03BMMPKCMF@?6?5?5?$AA@ 0045546c     clib:strexcpt.obj
 0002:00001470       ??_C@_0BJ@COJGEBCC@?5?5Exception?5Information?3?$AA@ 00455470     clib:strexcpt.obj
 0002:0000148c       ??_C@_0BM@FHDBCDAC@?5?5NumberParameters?3?5?50x?$CFlx?6?$AA@ 0045548c     clib:strexcpt.obj
 0002:000014a8       ??_C@_0BM@HJBIGAKP@?5?5Exception?5Address?3?50x?$CFlx?6?$AA@ 004554a8     clib:strexcpt.obj
 0002:000014c4       ??_C@_0BM@DNOGGMPB@?5?5Exception?5Record?3?5?50x?$CFlx?6?$AA@ 004554c4     clib:strexcpt.obj
 0002:000014e0       ??_C@_0BM@EDAOLFCL@?5?5Exception?5Flags?3?5?5?50x?$CFlx?6?$AA@ 004554e0     clib:strexcpt.obj
 0002:000014fc       ??_C@_0BM@CNEGMIEM@?5?5Exception?5Code?3?5?5?5?50x?$CFlx?6?$AA@ 004554fc     clib:strexcpt.obj
 0002:00001518       ??_C@_0BC@GPMKLANJ@ExceptionRecord?3?6?$AA@ 00455518     clib:strexcpt.obj
 0002:0000152c       ??_C@_0CF@BCEMNBFO@Structured?5Exception?5Detected?3?50@ 0045552c     clib:strexcpt.obj
 0002:00001554       ??_C@_0DB@KKFBHFDK@Structured?5exception?5in?5?$CFs?5compi@ 00455554     clib:strexcpt.obj
 0002:00001588       ??_C@_0CA@DDKNCPJJ@recursive?5structured?5exception?6?$AA@ 00455588     clib:strexcpt.obj
 0002:000015a8       ??_C@_0BA@FPCMPEPE@In?5trans_func?4?6?$AA@ 004555a8     clib:strexcpt.obj
 0002:000015b8       ??_C@_09KKJFIDEP@NTDLL?4DLL?$AA@ 004555b8     clib:msjexhnd.obj
 0002:000015c4       ??_C@_0P@FOKFNGCC@STACK_OVERFLOW?$AA@ 004555c4     clib:msjexhnd.obj
 0002:000015d4       ??_C@_0BB@PLLMBPKL@PRIV_INSTRUCTION?$AA@ 004555d4     clib:msjexhnd.obj
 0002:000015e8       ??_C@_0N@NOODLLAE@INT_OVERFLOW?$AA@ 004555e8     clib:msjexhnd.obj
 0002:000015f8       ??_C@_0BD@JEAJAPHP@INT_DIVIDE_BY_ZERO?$AA@ 004555f8     clib:msjexhnd.obj
 0002:0000160c       ??_C@_0O@FPLBLLBA@FLT_UNDERFLOW?$AA@ 0045560c     clib:msjexhnd.obj
 0002:0000161c       ??_C@_0BA@GJKDALBO@FLT_STACK_CHECK?$AA@ 0045561c     clib:msjexhnd.obj
 0002:0000162c       ??_C@_0N@BFKIPAKO@FLT_OVERFLOW?$AA@ 0045562c     clib:msjexhnd.obj
 0002:0000163c       ??_C@_0BG@KHLFFMKF@FLT_INVALID_OPERATION?$AA@ 0045563c     clib:msjexhnd.obj
 0002:00001654       ??_C@_0BD@IOJOCCFC@FLT_INEXACT_RESULT?$AA@ 00455654     clib:msjexhnd.obj
 0002:00001668       ??_C@_0BD@NCECPCDC@FLT_DIVIDE_BY_ZERO?$AA@ 00455668     clib:msjexhnd.obj
 0002:0000167c       ??_C@_0BF@DPHAEECF@FLT_DENORMAL_OPERAND?$AA@ 0045567c     clib:msjexhnd.obj
 0002:00001694       ??_C@_0P@BJHADBBK@INVALID_HANDLE?$AA@ 00455694     clib:msjexhnd.obj
 0002:000016a4       ??_C@_0BE@KNOGEHDH@INVALID_DISPOSITION?$AA@ 004556a4     clib:msjexhnd.obj
 0002:000016b8       ??_C@_0BJ@HONCONAA@NONCONTINUABLE_EXCEPTION?$AA@ 004556b8     clib:msjexhnd.obj
 0002:000016d4       ??_C@_0BE@PPPKHBFF@ILLEGAL_INSTRUCTION?$AA@ 004556d4     clib:msjexhnd.obj
 0002:000016e8       ??_C@_0BG@KDAKIDPK@ARRAY_BOUNDS_EXCEEDED?$AA@ 004556e8     clib:msjexhnd.obj
 0002:00001700       ??_C@_0O@EAPDGJDK@IN_PAGE_ERROR?$AA@ 00455700     clib:msjexhnd.obj
 0002:00001710       ??_C@_0M@DKKFMHBE@SINGLE_STEP?$AA@ 00455710     clib:msjexhnd.obj
 0002:0000171c       ??_C@_0BB@KOKDBDNI@ACCESS_VIOLATION?$AA@ 0045571c     clib:msjexhnd.obj
 0002:00001730       ??_C@_0L@EGBPFLC@BREAKPOINT?$AA@ 00455730     clib:msjexhnd.obj
 0002:0000173c       ??_C@_0L@EECANHFC@GUARD_PAGE?$AA@ 0045573c     clib:msjexhnd.obj
 0002:00001748       ??_C@_0BG@IKBJODCC@DATATYPE_MISALIGNMENT?$AA@ 00455748     clib:msjexhnd.obj
 0002:00001760       ??_C@_0BC@BDHGAJGO@SymGetSymFromAddr?$AA@ 00455760     clib:msjexhnd.obj
 0002:00001774       ??_C@_0BB@KAOAIDAF@SymGetModuleBase?$AA@ 00455774     clib:msjexhnd.obj
 0002:00001788       ??_C@_0BH@PMEMHADK@SymFunctionTableAccess?$AA@ 00455788     clib:msjexhnd.obj
 0002:000017a0       ??_C@_09OJFIDCEK@StackWalk?$AA@ 004557a0     clib:msjexhnd.obj
 0002:000017ac       ??_C@_0L@GDMHENGB@SymCleanup?$AA@ 004557ac     clib:msjexhnd.obj
 0002:000017b8       ??_C@_0O@MCMFENKA@SymInitialize?$AA@ 004557b8     clib:msjexhnd.obj
 0002:000017c8       ??_C@_0N@KBGMOMJO@IMAGEHLP?4DLL?$AA@ 004557c8     clib:msjexhnd.obj
 0002:000017d8       ??_C@_0BK@MJNLGMCB@?$CF08X?5?5?$CF08X?5?5?$CF04X?3?$CF08X?5?$CFs?6?$AA@ 004557d8     clib:msjexhnd.obj
 0002:000017f4       ??_C@_0CK@LMGJEAFH@Address?5?5?5Frame?5?5?5?5?5Logical?5addr@ 004557f4     clib:msjexhnd.obj
 0002:00001820       ??_C@_0O@EENBKIOE@?6Call?5stack?3?6?$AA@ 00455820     clib:msjexhnd.obj
 0002:00001830       ??_C@_0O@GPGOFPM@?$CF04X?3?$CF08X?5?$CFs?6?$AA@ 00455830     clib:msjexhnd.obj
 0002:00001840       ??_C@_07KHBJOHNC@?$CFhs?$CL?$CFX?6?$AA@ 00455840     clib:msjexhnd.obj
 0002:00001848       ??_C@_0N@KCMAFMFB@?$CF08X?5?5?$CF08X?5?5?$AA@ 00455848     clib:msjexhnd.obj
 0002:00001858       ??_C@_0BB@GJANKHOI@Address?5?5?5Frame?6?$AA@ 00455858     clib:msjexhnd.obj
 0002:0000186c       ??_C@_0CN@IANLJJAG@IMAGEHLP?4DLL?5or?5its?5exported?5pro@ 0045586c     clib:msjexhnd.obj
 0002:0000189c       ??_C@_0M@HCMOKLPM@Flags?3?$CF08X?6?$AA@ 0045589c     clib:msjexhnd.obj
 0002:000018a8       ??_C@_0CE@PNFLGDDN@DS?3?$CF04X?5?5ES?3?$CF04X?5?5FS?3?$CF04X?5?5GS?3?$CF0@ 004558a8     clib:msjexhnd.obj
 0002:000018cc       ??_C@_0BM@LNEOPLBE@SS?3ESP?3?$CF04X?3?$CF08X?5?5EBP?3?$CF08X?6?$AA@ 004558cc     clib:msjexhnd.obj
 0002:000018e8       ??_C@_0BC@IGEKIPC@CS?3EIP?3?$CF04X?3?$CF08X?6?$AA@ 004558e8     clib:msjexhnd.obj
 0002:000018fc       ??_C@_0DH@IDOGAMFI@EAX?3?$CF08X?6EBX?3?$CF08X?6ECX?3?$CF08X?6EDX?3?$CF@ 004558fc     clib:msjexhnd.obj
 0002:00001934       ??_C@_0N@LDKGMBPH@?6Registers?3?6?$AA@ 00455934     clib:msjexhnd.obj
 0002:00001944       ??_C@_0CD@PPKJPDGM@Fault?5address?3?5?5?$CF08X?5?$CF02X?3?$CF08X?5?$CF@ 00455944     clib:msjexhnd.obj
 0002:00001968       ??_C@_0BJ@GIBEPMJB@Exception?5code?3?5?$CF08X?5?$CFs?6?$AA@ 00455968     clib:msjexhnd.obj
 0002:00001984       ??_C@_0DJ@HLJAGFEI@?1?1?$DN?$DN?$DN?$DN?$DN?$DN?$DN?$DN?$DN?$DN?$DN?$DN?$DN?$DN?$DN?$DN?$DN?$DN?$DN?$DN?$DN?$DN?$DN?$DN?$DN?$DN?$DN?$DN?$DN?$DN@ 00455984     clib:msjexhnd.obj
 0002:000019c4       ??_7facet@locale@_STL@@6B@ 004559c4     stlport_vc71_static:locale_impl.obj
 0002:000019cc       ??_7runtime_error@_STL@@6B@ 004559cc     stlport_vc71_static:locale_impl.obj
 0002:000019d4       ??_C@_08EPJLHIJG@bad?5cast?$AA@ 004559d4     stlport_vc71_static:locale_impl.obj
 0002:000019e4       ??_7?$money_get@DV?$istreambuf_iterator@DV?$char_traits@D@_STL@@@_STL@@@_STL@@6B@ 004559e4     stlport_vc71_static:locale_impl.obj
 0002:000019f4       ??_7?$money_put@DV?$ostreambuf_iterator@DV?$char_traits@D@_STL@@@_STL@@@_STL@@6B@ 004559f4     stlport_vc71_static:locale_impl.obj
 0002:00001a04       ??_7?$num_get@DV?$istreambuf_iterator@DV?$char_traits@D@_STL@@@_STL@@@_STL@@6B@ 00455a04     stlport_vc71_static:locale_impl.obj
 0002:00001a38       ??_7?$num_put@DV?$ostreambuf_iterator@DV?$char_traits@D@_STL@@@_STL@@@_STL@@6B@ 00455a38     stlport_vc71_static:locale_impl.obj
 0002:00001a60       ??_7?$money_get@GV?$istreambuf_iterator@GV?$char_traits@G@_STL@@@_STL@@@_STL@@6B@ 00455a60     stlport_vc71_static:locale_impl.obj
 0002:00001a70       ??_7?$money_put@GV?$ostreambuf_iterator@GV?$char_traits@G@_STL@@@_STL@@@_STL@@6B@ 00455a70     stlport_vc71_static:locale_impl.obj
 0002:00001a80       ??_7?$num_get@GV?$istreambuf_iterator@GV?$char_traits@G@_STL@@@_STL@@@_STL@@6B@ 00455a80     stlport_vc71_static:locale_impl.obj
 0002:00001ab4       ??_7?$num_put@GV?$ostreambuf_iterator@GV?$char_traits@G@_STL@@@_STL@@@_STL@@6B@ 00455ab4     stlport_vc71_static:locale_impl.obj
 0002:00001adc       ??_7?$ctype@G@_STL@@6B@    00455adc     stlport_vc71_static:locale_impl.obj
 0002:00001b14       ??_7?$codecvt@DDH@_STL@@6B@ 00455b14     stlport_vc71_static:locale_impl.obj
 0002:00001b38       ??_7?$codecvt@GDH@_STL@@6B@ 00455b38     stlport_vc71_static:locale_impl.obj
 0002:00001b5c       ??_7?$collate@D@_STL@@6B@  00455b5c     stlport_vc71_static:locale_impl.obj
 0002:00001b70       ??_7?$collate@G@_STL@@6B@  00455b70     stlport_vc71_static:locale_impl.obj
 0002:00001b84       ??_7?$numpunct@D@_STL@@6B@ 00455b84     stlport_vc71_static:locale_impl.obj
 0002:00001ba0       ??_7?$numpunct@G@_STL@@6B@ 00455ba0     stlport_vc71_static:locale_impl.obj
 0002:00001bbc       ??_7_Locale_impl@_STL@@6B@ 00455bbc     stlport_vc71_static:locale_impl.obj
 0002:00001bc8       ??_C@_0N@GAGJIBBN@locale?5error?$AA@ 00455bc8     stlport_vc71_static:locale_impl.obj
 0002:00001bd8       ??_C@_0BC@EHGKEPPA@bad?5locale?5name?3?5?$AA@ 00455bd8     stlport_vc71_static:locale_impl.obj
 0002:00001bf0       ??_7__Named_exception@_STL@@6B@ 00455bf0     stlport_vc71_static:locale_impl.obj
 0002:00001bfc       ??_7?$time_get@DV?$istreambuf_iterator@DV?$char_traits@D@_STL@@@_STL@@@_STL@@6B@ 00455bfc     stlport_vc71_static:locale_impl.obj
 0002:00001c1c       ??_7?$time_put@DV?$ostreambuf_iterator@DV?$char_traits@D@_STL@@@_STL@@@_STL@@6B@ 00455c1c     stlport_vc71_static:locale_impl.obj
 0002:00001c28       ??_7?$time_get@GV?$istreambuf_iterator@GV?$char_traits@G@_STL@@@_STL@@@_STL@@6B@ 00455c28     stlport_vc71_static:locale_impl.obj
 0002:00001c48       ??_7?$time_put@GV?$ostreambuf_iterator@GV?$char_traits@G@_STL@@@_STL@@@_STL@@6B@ 00455c48     stlport_vc71_static:locale_impl.obj
 0002:00001c50       __real@7fefffffffffffff    00455c50     stlport_vc71_static:locale_impl.obj
 0002:00001c58       __real@0000000000000000    00455c58     stlport_vc71_static:locale_impl.obj
 0002:00001c60       ??_C@_01GFHCPBMG@C?$AA@    00455c60     stlport_vc71_static:locale_impl.obj
 0002:00001c64       ??_C@_01NBENCBCI@?$CK?$AA@ 00455c64     stlport_vc71_static:locale_impl.obj
 0002:00001c6c       ??_7failure@ios_base@_STL@@6B@ 00455c6c     stlport_vc71_static:ios.obj
 0002:00001c74       ??_C@_0M@DGBAOIAO@ios?5failure?$AA@ 00455c74     stlport_vc71_static:ios.obj
 0002:00001c84       ??_7ios_base@_STL@@6B@     00455c84     stlport_vc71_static:ios.obj
 0002:00001c8c       ??_7?$basic_ios@DV?$char_traits@D@_STL@@@_STL@@6B@ 00455c8c     stlport_vc71_static:ios.obj
 0002:00001c94       ??_7?$basic_ios@GV?$char_traits@G@_STL@@@_STL@@6B@ 00455c94     stlport_vc71_static:ios.obj
 0002:00001c9c       ??_7?$basic_streambuf@DV?$char_traits@D@_STL@@@_STL@@6B@ 00455c9c     stlport_vc71_static:streambuf.obj
 0002:00001cd8       ??_7?$basic_streambuf@GV?$char_traits@G@_STL@@@_STL@@6B@ 00455cd8     stlport_vc71_static:streambuf.obj
 0002:00001d14       ??_7?$basic_istream@DV?$char_traits@D@_STL@@@_STL@@6B@ 00455d14     stlport_vc71_static:fstream.obj
 0002:00001d1c       ??_7?$basic_istream@GV?$char_traits@G@_STL@@@_STL@@6B@ 00455d1c     stlport_vc71_static:fstream.obj
 0002:00001d24       ??_7?$basic_ostream@DV?$char_traits@D@_STL@@@_STL@@6B@ 00455d24     stlport_vc71_static:fstream.obj
 0002:00001d2c       ??_7?$basic_iostream@DV?$char_traits@D@_STL@@@_STL@@6B@ 00455d2c     stlport_vc71_static:fstream.obj
 0002:00001d34       ??_7?$basic_ostream@GV?$char_traits@G@_STL@@@_STL@@6B@ 00455d34     stlport_vc71_static:fstream.obj
 0002:00001d3c       ??_7?$basic_iostream@GV?$char_traits@G@_STL@@@_STL@@6B@ 00455d3c     stlport_vc71_static:fstream.obj
 0002:00001d44       ??_7?$basic_filebuf@DV?$char_traits@D@_STL@@@_STL@@6B@ 00455d44     stlport_vc71_static:fstream.obj
 0002:00001d80       ??_7?$basic_filebuf@GV?$char_traits@G@_STL@@@_STL@@6B@ 00455d80     stlport_vc71_static:fstream.obj
 0002:00001dbc       ??_7?$basic_ifstream@DV?$char_traits@D@_STL@@@_STL@@6B@ 00455dbc     stlport_vc71_static:fstream.obj
 0002:00001dc4       ??_7?$basic_ofstream@DV?$char_traits@D@_STL@@@_STL@@6B@ 00455dc4     stlport_vc71_static:fstream.obj
 0002:00001dcc       ??_7?$basic_fstream@DV?$char_traits@D@_STL@@@_STL@@6B@ 00455dcc     stlport_vc71_static:fstream.obj
 0002:00001dd4       ??_7?$basic_ifstream@GV?$char_traits@G@_STL@@@_STL@@6B@ 00455dd4     stlport_vc71_static:fstream.obj
 0002:00001ddc       ??_7?$basic_ofstream@GV?$char_traits@G@_STL@@@_STL@@6B@ 00455ddc     stlport_vc71_static:fstream.obj
 0002:00001de4       ??_7?$basic_fstream@GV?$char_traits@G@_STL@@@_STL@@6B@ 00455de4     stlport_vc71_static:fstream.obj
 0002:00001de8       ??_8?$basic_ostream@GV?$char_traits@G@_STL@@@_STL@@7B@ 00455de8     stlport_vc71_static:fstream.obj
 0002:00001df0       ??_8?$basic_ofstream@GV?$char_traits@G@_STL@@@_STL@@7B@ 00455df0     stlport_vc71_static:fstream.obj
 0002:00001df8       ??_8?$basic_istream@GV?$char_traits@G@_STL@@@_STL@@7B@ 00455df8     stlport_vc71_static:fstream.obj
 0002:00001e00       ??_8?$basic_iostream@GV?$char_traits@G@_STL@@@_STL@@7B?$basic_ostream@GV?$char_traits@G@_STL@@@1@@ 00455e00     stlport_vc71_static:fstream.obj
 0002:00001e08       ??_8?$basic_iostream@GV?$char_traits@G@_STL@@@_STL@@7B?$basic_istream@GV?$char_traits@G@_STL@@@1@@ 00455e08     stlport_vc71_static:fstream.obj
 0002:00001e10       ??_8?$basic_ifstream@DV?$char_traits@D@_STL@@@_STL@@7B@ 00455e10     stlport_vc71_static:fstream.obj
 0002:00001e18       ??_8?$basic_ifstream@GV?$char_traits@G@_STL@@@_STL@@7B@ 00455e18     stlport_vc71_static:fstream.obj
 0002:00001e20       ??_8?$basic_fstream@GV?$char_traits@G@_STL@@@_STL@@7B?$basic_ostream@GV?$char_traits@G@_STL@@@1@@ 00455e20     stlport_vc71_static:fstream.obj
 0002:00001e28       ??_8?$basic_fstream@GV?$char_traits@G@_STL@@@_STL@@7B?$basic_istream@GV?$char_traits@G@_STL@@@1@@ 00455e28     stlport_vc71_static:fstream.obj
 0002:00001e30       ?_M_list@?$_Stl_prime@_N@_STL@@2QBIB 00455e30     stlport_vc71_static:dll_main.obj
 0002:00001ea0       ??_C@_0BA@NLLBABKH@Unknown?5problem?$AA@ 00455ea0     stlport_vc71_static:dll_main.obj
 0002:00001eb0       ??_C@_0EA@KOJNEBJC@Attempt?5to?5dereference?5null?5poin@ 00455eb0     stlport_vc71_static:dll_main.obj
 0002:00001ef0       ??_C@_0EF@FLBLLNJJ@Pointer?5overrrun?5?9?5safety?5margin@ 00455ef0     stlport_vc71_static:dll_main.obj
 0002:00001f38       ??_C@_0EG@KKCAFKAE@Pointer?5underrun?5?9?5safety?5margin@ 00455f38     stlport_vc71_static:dll_main.obj
 0002:00001f80       ??_C@_0DO@BPBCKBEF@Size?5of?5block?5passed?5to?5dealloca@ 00455f80     stlport_vc71_static:dll_main.obj
 0002:00001fc0       ??_C@_0DH@HHPJNEGP@Deallocating?5a?5memory?5block?5allo@ 00455fc0     stlport_vc71_static:dll_main.obj
 0002:00001ff8       ??_C@_0CO@NGPCENLH@Deallocating?5a?5block?5that?5was?5ne@ 00455ff8     stlport_vc71_static:dll_main.obj
 0002:00002028       ??_C@_0BP@EFAMIJFG@Memory?5block?5deallocated?5twice?$AA@ 00456028     stlport_vc71_static:dll_main.obj
 0002:00002048       ??_C@_0DE@GHJIHNIH@Iterator?5is?5singular?5?$CIadvanced?5b@ 00456048     stlport_vc71_static:dll_main.obj
 0002:0000207c       ??_C@_0CL@GBKELPAN@The?5advance?5would?5produce?5invali@ 0045607c     stlport_vc71_static:dll_main.obj
 0002:000020a8       ??_C@_0DC@FJGEJAEM@Range?5?$FLfirst?0last?$CJ?5is?5not?5in?5ran@ 004560a8     stlport_vc71_static:dll_main.obj
 0002:000020dc       ??_C@_0CG@PFONHKBB@Iterator?5is?5not?5in?5range?5?$FLfirst?0@ 004560dc     stlport_vc71_static:dll_main.obj
 0002:00002104       ??_C@_0BO@HLLMKJGB@Range?5?$FLfirst?0last?$CJ?5is?5invalid?$AA@ 00456104     stlport_vc71_static:dll_main.obj
 0002:00002124       ??_C@_0DE@PBHCNJDE@Iterator?5could?5not?5be?5dereferenc@ 00456124     stlport_vc71_static:dll_main.obj
 0002:00002158       ??_C@_0DH@GPMGELFD@Iterators?5used?5in?5expression?5are@ 00456158     stlport_vc71_static:dll_main.obj
 0002:00002190       ??_C@_0FG@EMIFELCF@Uninitialized?5or?5invalidated?5?$CIby@ 00456190     stlport_vc71_static:dll_main.obj
 0002:000021e8       ??_C@_0FF@KPEAILNC@Uninitialized?5or?5invalidated?5?$CIby@ 004561e8     stlport_vc71_static:dll_main.obj
 0002:00002240       ??_C@_0ED@JHICGJHO@Uninitialized?5or?5invalidated?5?$CIby@ 00456240     stlport_vc71_static:dll_main.obj
 0002:00002284       ??_C@_0CD@LKFMBDMP@Container?5doesn?8t?5own?5the?5iterat@ 00456284     stlport_vc71_static:dll_main.obj
 0002:000022a8       ??_C@_0BE@ODCKFBLC@Index?5out?5of?5bounds?$AA@ 004562a8     stlport_vc71_static:dll_main.obj
 0002:000022bc       ??_C@_0CK@GFMBBJOP@Past?9the?9end?5iterator?5could?5not?5@ 004562bc     stlport_vc71_static:dll_main.obj
 0002:000022e8       ??_C@_0DF@FKHJNHDN@Trying?5to?5extract?5an?5object?5out?5@ 004562e8     stlport_vc71_static:dll_main.obj
 0002:00002320       ??_C@_0EH@DNFEIJJC@Taking?5an?5iterator?5out?5of?5destro@ 00456320     stlport_vc71_static:dll_main.obj
 0002:00002368       ??_C@_0DM@GHJGJMPI@Invalid?5argument?5to?5operation?5?$CIs@ 00456368     stlport_vc71_static:dll_main.obj
 0002:000023a8       ??_C@_0EA@CDBFCHJB@?6?$CFs?$CI?$CFd?$CJ?3?5STL?5error?5?3?5?$CFs?6?$CFs?$CI?$CFd?$CJ?3?5@ 004563a8     stlport_vc71_static:dll_main.obj
 0002:000023e8       ??_C@_0CE@DONMGBOA@?$CFs?$CI?$CFd?$CJ?3?5STL?5assertion?5failure?5?3?5@ 004563e8     stlport_vc71_static:dll_main.obj
 0002:0000240c       ??_C@_0BI@BKBHOEBC@?6?$CFs?$CI?$CFd?$CJ?3?5STL?5error?3?5?$CFs?6?$AA@ 0045640c     stlport_vc71_static:dll_main.obj
 0002:00002428       ?_L_sNaN@?$_LimG@_N@_STL@@2T_L_rep@2@B 00456428     stlport_vc71_static:dll_main.obj
 0002:00002438       ?_L_qNaN@?$_LimG@_N@_STL@@2T_L_rep@2@B 00456438     stlport_vc71_static:dll_main.obj
 0002:00002448       ?_L_inf@?$_LimG@_N@_STL@@2T_L_rep@2@B 00456448     stlport_vc71_static:dll_main.obj
 0002:00002458       ?_D_sNaN@?$_LimG@_N@_STL@@2T_D_rep@2@B 00456458     stlport_vc71_static:dll_main.obj
 0002:00002460       ?_D_qNaN@?$_LimG@_N@_STL@@2T_D_rep@2@B 00456460     stlport_vc71_static:dll_main.obj
 0002:00002468       ?_D_inf@?$_LimG@_N@_STL@@2T_D_rep@2@B 00456468     stlport_vc71_static:dll_main.obj
 0002:00002470       ?_F_sNaN@?$_LimG@_N@_STL@@2T_F_rep@2@B 00456470     stlport_vc71_static:dll_main.obj
 0002:00002474       ?_F_qNaN@?$_LimG@_N@_STL@@2T_F_rep@2@B 00456474     stlport_vc71_static:dll_main.obj
 0002:00002478       ?_F_inf@?$_LimG@_N@_STL@@2T_F_rep@2@B 00456478     stlport_vc71_static:dll_main.obj
 0002:00002480       ??_7bad_alloc@std@@6B@     00456480     stlport_vc71_static:dll_main.obj
 0002:0000248c       ??_7logic_error@_STL@@6B@  0045648c     stlport_vc71_static:dll_main.obj
 0002:00002498       ??_7domain_error@_STL@@6B@ 00456498     stlport_vc71_static:dll_main.obj
 0002:000024a4       ??_7invalid_argument@_STL@@6B@ 004564a4     stlport_vc71_static:dll_main.obj
 0002:000024b0       ??_7length_error@_STL@@6B@ 004564b0     stlport_vc71_static:dll_main.obj
 0002:000024bc       ??_7out_of_range@_STL@@6B@ 004564bc     stlport_vc71_static:dll_main.obj
 0002:000024c8       ??_7range_error@_STL@@6B@  004564c8     stlport_vc71_static:dll_main.obj
 0002:000024d4       ??_7overflow_error@_STL@@6B@ 004564d4     stlport_vc71_static:dll_main.obj
 0002:000024e0       ??_7underflow_error@_STL@@6B@ 004564e0     stlport_vc71_static:dll_main.obj
 0002:000024e8       ??_C@_0P@GHFPNOJB@bad?5allocation?$AA@ 004564e8     stlport_vc71_static:dll_main.obj
 0002:000024fc       ??_7stdio_istreambuf@_SgI@@6B@ 004564fc     stlport_vc71_static:iostream.obj
 0002:00002538       ??_7stdio_ostreambuf@_SgI@@6B@ 00456538     stlport_vc71_static:iostream.obj
 0002:00002570       ?_S_classic_table@?$ctype@D@_STL@@0QBW4mask@ctype_base@2@B 00456570     stlport_vc71_static:ctype.obj
 0002:00002978       ?_S_upper@?$ctype@D@_STL@@0QBEB 00456978     stlport_vc71_static:ctype.obj
 0002:00002a78       ?_S_lower@?$ctype@D@_STL@@0QBEB 00456a78     stlport_vc71_static:ctype.obj
 0002:00002b7c       ??_7?$ctype@D@_STL@@6B@    00456b7c     stlport_vc71_static:ctype.obj
 0002:00002ba0       ??_C@_04LOAJBDKD@true?$AA@ 00456ba0     stlport_vc71_static:numpunct.obj
 0002:00002ba8       ??_C@_05LAPONLG@false?$AA@ 00456ba8     stlport_vc71_static:numpunct.obj
 0002:00002bb0       ??_C@_19FKLFLPMF@?$AAt?$AAr?$AAu?$AAe?$AA?$AA@ 00456bb0     stlport_vc71_static:numpunct.obj
 0002:00002bbc       ??_C@_1M@HLGKFCJM@?$AAf?$AAa?$AAl?$AAs?$AAe?$AA?$AA@ 00456bbc     stlport_vc71_static:numpunct.obj
 0002:00002bc8       ?__digit_val_table@_STL@@3QBEB 00456bc8     stlport_vc71_static:num_get.obj
 0002:00002c48       ?__narrow_atoms@_STL@@3QBDB 00456c48     stlport_vc71_static:num_get.obj
 0002:00002c50       ?__hex_char_table_lo@_STL@@3QBDB 00456c50     stlport_vc71_static:num_put.obj
 0002:00002c64       ?__hex_char_table_hi@_STL@@3QBDB 00456c64     stlport_vc71_static:num_put.obj
 0002:00002f80       ??_C@_04CKICAEFL@?$CF2ld?$AA@ 00456f80     stlport_vc71_static:time_facets.obj
 0002:00002f88       ??_C@_03JALODAI@?$CFld?$AA@ 00456f88     stlport_vc71_static:time_facets.obj
 0002:00002f8c       ??_C@_05HNNDPHHB@?$CF?42ld?$AA@ 00456f8c     stlport_vc71_static:time_facets.obj
 0002:00002f94       ??_C@_0BF@PJNFCKMI@?$CFa?5?$CFb?5?$CFe?5?$CFH?3?$CFM?3?$CFS?5?$CFY?$AA@ 00456f94     stlport_vc71_static:time_facets.obj
 0002:00002fac       ??_C@_08KAHCGMHG@?$CFm?1?$CFd?1?$CFy?$AA@ 00456fac     stlport_vc71_static:time_facets.obj
 0002:00002fb8       ??_C@_08OAHPJFNN@?$CFH?3?$CFM?3?$CFS?$AA@ 00456fb8     stlport_vc71_static:time_facets.obj
 0002:00002fc4       ??_C@_02CJNFDJBF@PM?$AA@   00456fc4     stlport_vc71_static:time_facets.obj
 0002:00002fc8       ??_C@_02DEDBPAFC@AM?$AA@   00456fc8     stlport_vc71_static:time_facets.obj
 0002:000032f0       ??_C@_0L@FPFMPDDA@0123456789?$AA@ 004572f0     stlport_vc71_static:num_get_float.obj
 0002:00003300       ??_7?$moneypunct@D$00@_STL@@6B@ 00457300     stlport_vc71_static:monetary.obj
 0002:0000332c       ??_7?$moneypunct@D$0A@@_STL@@6B@ 0045732c     stlport_vc71_static:monetary.obj
 0002:00003358       ??_7?$moneypunct@G$00@_STL@@6B@ 00457358     stlport_vc71_static:monetary.obj
 0002:00003384       ??_7?$moneypunct@G$0A@@_STL@@6B@ 00457384     stlport_vc71_static:monetary.obj
 0002:000033ac       ??_C@_11LOCGONAA@?$AA?$AA@ 004573ac     stlport_vc71_static:monetary.obj
 0002:000033b4       ??_7?$messages@D@_STL@@6B@ 004573b4     stlport_vc71_static:messages.obj
 0002:000033c8       ??_7_Messages@_STL@@6B@    004573c8     stlport_vc71_static:messages.obj
 0002:000033e0       ??_7?$messages@G@_STL@@6B@ 004573e0     stlport_vc71_static:messages.obj
 0002:000033f0       __real@3ff0000000000000    004573f0     stlport_vc71_static:num_put_float.obj
 0002:000033f8       ??_C@_03ICJPMMHB@NaN?$AA@  004573f8     stlport_vc71_static:num_put_float.obj
 0002:000033fc       ??_C@_03LHCJEHON@nan?$AA@  004573fc     stlport_vc71_static:num_put_float.obj
 0002:00003400       ??_C@_03EJEJBNFP@Inf?$AA@  00457400     stlport_vc71_static:num_put_float.obj
 0002:00003404       ??_C@_03OJHLLCGB@inf?$AA@  00457404     stlport_vc71_static:num_put_float.obj
 0002:0000340c       ??_7stdio_streambuf_base@_SgI@@6B@ 0045740c     stlport_vc71_static:stdio_streambuf.obj
 0002:00003444       ??_C@_07LCBHPJJN@LC_TIME?$AA@ 00457444     stlport_vc71_static:c_locale.obj
 0002:0000344c       ??_C@_0L@DLHIECNL@LC_NUMERIC?$AA@ 0045744c     stlport_vc71_static:c_locale.obj
 0002:00003458       ??_C@_0M@MIENIKLA@LC_MONETARY?$AA@ 00457458     stlport_vc71_static:c_locale.obj
 0002:00003464       ??_C@_08EADHIDAD@LC_CTYPE?$AA@ 00457464     stlport_vc71_static:c_locale.obj
 0002:00003470       ??_C@_0L@KFJHEKIK@LC_COLLATE?$AA@ 00457470     stlport_vc71_static:c_locale.obj
 0002:0000347c       ??_C@_06NEFDFEKB@LC_ALL?$AA@ 0045747c     stlport_vc71_static:c_locale.obj
 0002:00003484       ??_C@_0O@FMJNFNKE@united?9states?$AA@ 00457484     stlport_vc71_static:c_locale.obj
 0002:00003494       ??_C@_0P@NDHFFKCA@united?9kingdom?$AA@ 00457494     stlport_vc71_static:c_locale.obj
 0002:000034a4       ??_C@_03IGIAGNLA@TTO?$AA@  004574a4     stlport_vc71_static:c_locale.obj
 0002:000034a8       ??_C@_0BC@HHDADLGF@trinidad?5?$CG?5tobago?$AA@ 004574a8     stlport_vc71_static:c_locale.obj
 0002:000034bc       ??_C@_0M@IOAEBDAC@south?9korea?$AA@ 004574bc     stlport_vc71_static:c_locale.obj
 0002:000034c8       ??_C@_0N@FIELFKIJ@south?9africa?$AA@ 004574c8     stlport_vc71_static:c_locale.obj
 0002:000034d8       ??_C@_03GBOFAKPE@KOR?$AA@  004574d8     stlport_vc71_static:c_locale.obj
 0002:000034dc       ??_C@_0M@OPNDHCMC@south?5korea?$AA@ 004574dc     stlport_vc71_static:c_locale.obj
 0002:000034e8       ??_C@_03KNHAMAFB@ZAF?$AA@  004574e8     stlport_vc71_static:c_locale.obj
 0002:000034ec       ??_C@_0N@MDEOEPFI@south?5africa?$AA@ 004574ec     stlport_vc71_static:c_locale.obj
 0002:000034fc       ??_C@_03HMLPEEGD@SVK?$AA@  004574fc     stlport_vc71_static:c_locale.obj
 0002:00003500       ??_C@_06FKAPCJLB@slovak?$AA@ 00457500     stlport_vc71_static:c_locale.obj
 0002:00003508       ??_C@_03FLDFCBND@PRI?$AA@  00457508     stlport_vc71_static:c_locale.obj
 0002:0000350c       ??_C@_0M@EFJANOAL@puerto?9rico?$AA@ 0045750c     stlport_vc71_static:c_locale.obj
 0002:00003518       ??_C@_08PGOJKDAI@pr?9china?$AA@ 00457518     stlport_vc71_static:c_locale.obj
 0002:00003524       ??_C@_08JHDOMCMI@pr?5china?$AA@ 00457524     stlport_vc71_static:c_locale.obj
 0002:00003530       ??_C@_02JHCHFBLL@nz?$AA@   00457530     stlport_vc71_static:c_locale.obj
 0002:00003534       ??_C@_03JIJHKEIC@NZL?$AA@  00457534     stlport_vc71_static:c_locale.obj
 0002:00003538       ??_C@_0M@LINHDHKP@new?9zealand?$AA@ 00457538     stlport_vc71_static:c_locale.obj
 0002:00003544       ??_C@_03EDOMOLNC@HKG?$AA@  00457544     stlport_vc71_static:c_locale.obj
 0002:00003548       ??_C@_09IIIPPBDB@hong?9kong?$AA@ 00457548     stlport_vc71_static:c_locale.obj
 0002:00003554       ??_C@_03EIOFPBEI@NLD?$AA@  00457554     stlport_vc71_static:c_locale.obj
 0002:00003558       ??_C@_07HJLCKBG@holland?$AA@ 00457558     stlport_vc71_static:c_locale.obj
 0002:00003560       ??_C@_0O@LEHGMHAG@great?5britain?$AA@ 00457560     stlport_vc71_static:c_locale.obj
 0002:00003570       ??_C@_07FACOMELA@england?$AA@ 00457570     stlport_vc71_static:c_locale.obj
 0002:00003578       ??_C@_03LLDPMHBG@CZE?$AA@  00457578     stlport_vc71_static:c_locale.obj
 0002:0000357c       ??_C@_05JIHCEICB@czech?$AA@ 0045757c     stlport_vc71_static:c_locale.obj
 0002:00003584       ??_C@_03EHGJGJMD@CHN?$AA@  00457584     stlport_vc71_static:c_locale.obj
 0002:00003588       ??_C@_05BBJOBLGB@china?$AA@ 00457588     stlport_vc71_static:c_locale.obj
 0002:00003590       ??_C@_03CDOLCGBP@GBR?$AA@  00457590     stlport_vc71_static:c_locale.obj
 0002:00003594       ??_C@_07GPKPHICP@britain?$AA@ 00457594     stlport_vc71_static:c_locale.obj
 0002:0000359c       ??_C@_03KFPADBNO@USA?$AA@  0045759c     stlport_vc71_static:c_locale.obj
 0002:000035a0       ??_C@_07MHIPBHMG@america?$AA@ 004575a0     stlport_vc71_static:c_locale.obj
 0002:000035a8       ??_C@_03KIALPMKC@usa?$AA@  004575a8     stlport_vc71_static:c_locale.obj
 0002:000035ac       ??_C@_02FGJGKGGD@us?$AA@   004575ac     stlport_vc71_static:c_locale.obj
 0002:000035b0       ??_C@_02NEINDODK@uk?$AA@   004575b0     stlport_vc71_static:c_locale.obj
 0002:000035b4       ??_C@_05JMPCFJFJ@swiss?$AA@ 004575b4     stlport_vc71_static:c_locale.obj
 0002:000035bc       ??_C@_03MJBBDKCO@SVF?$AA@  004575bc     stlport_vc71_static:c_locale.obj
 0002:000035c0       ??_C@_0BA@HLOCPIOD@swedish?9finland?$AA@ 004575c0     stlport_vc71_static:c_locale.obj
 0002:000035d0       ??_C@_03PAGKOCNH@ESV?$AA@  004575d0     stlport_vc71_static:c_locale.obj
 0002:000035d4       ??_C@_0BC@PKCNIABK@spanish?9venezuela?$AA@ 004575d4     stlport_vc71_static:c_locale.obj
 0002:000035e8       ??_C@_03HHPCPOBI@ESY?$AA@  004575e8     stlport_vc71_static:c_locale.obj
 0002:000035ec       ??_C@_0BA@GBHHMIJI@spanish?9uruguay?$AA@ 004575ec     stlport_vc71_static:c_locale.obj
 0002:000035fc       ??_C@_03NLEHLBBE@ESU?$AA@  004575fc     stlport_vc71_static:c_locale.obj
 0002:00003600       ??_C@_0BE@BHDOHPMC@spanish?9puerto?5rico?$AA@ 00457600     stlport_vc71_static:c_locale.obj
 0002:00003614       ??_C@_03JEAGCHND@ESR?$AA@  00457614     stlport_vc71_static:c_locale.obj
 0002:00003618       ??_C@_0N@KMOIDGGN@spanish?9peru?$AA@ 00457618     stlport_vc71_static:c_locale.obj
 0002:00003628       ??_C@_03FMNPKNNL@ESZ?$AA@  00457628     stlport_vc71_static:c_locale.obj
 0002:0000362c       ??_C@_0BB@HMHLPGPH@spanish?9paraguay?$AA@ 0045762c     stlport_vc71_static:c_locale.obj
 0002:00003640       ??_C@_03PFOJGGEB@ESA?$AA@  00457640     stlport_vc71_static:c_locale.obj
 0002:00003644       ??_C@_0P@MCPKNGFD@spanish?9panama?$AA@ 00457644     stlport_vc71_static:c_locale.obj
 0002:00003654       ??_C@_03DNDAOMEJ@ESI?$AA@  00457654     stlport_vc71_static:c_locale.obj
 0002:00003658       ??_C@_0BC@IHOHGAIL@spanish?9nicaragua?$AA@ 00457658     stlport_vc71_static:c_locale.obj
 0002:0000366c       ??_C@_03HCHBHKIO@ESN?$AA@  0045766c     stlport_vc71_static:c_locale.obj
 0002:00003670       ??_C@_0P@KLMJDNFJ@spanish?9modern?$AA@ 00457670     stlport_vc71_static:c_locale.obj
 0002:00003680       ??_C@_03FJFMCJEN@ESM?$AA@  00457680     stlport_vc71_static:c_locale.obj
 0002:00003684       ??_C@_0BA@BPAPGBCM@spanish?9mexican?$AA@ 00457684     stlport_vc71_static:c_locale.obj
 0002:00003694       ??_C@_03CECLNNAI@ESH?$AA@  00457694     stlport_vc71_static:c_locale.obj
 0002:00003698       ??_C@_0BB@PDECHHHE@spanish?9honduras?$AA@ 00457698     stlport_vc71_static:c_locale.obj
 0002:000036ac       ??_C@_03KDLDMBMH@ESG?$AA@  004576ac     stlport_vc71_static:c_locale.obj
 0002:000036b0       ??_C@_0BC@KLHKFGDB@spanish?9guatemala?$AA@ 004576b0     stlport_vc71_static:c_locale.obj
 0002:000036c4       ??_C@_03JBIFKDEF@ESE?$AA@  004576c4     stlport_vc71_static:c_locale.obj
 0002:000036c8       ??_C@_0BE@MFOOKJAI@spanish?9el?5salvador?$AA@ 004576c8     stlport_vc71_static:c_locale.obj
 0002:000036dc       ??_C@_03LKKIPAIG@ESF?$AA@  004576dc     stlport_vc71_static:c_locale.obj
 0002:000036e0       ??_C@_0BA@FCOKFPFC@spanish?9ecuador?$AA@ 004576e0     stlport_vc71_static:c_locale.obj
 0002:000036f0       ??_C@_03IIJOJCAE@ESD?$AA@  004576f0     stlport_vc71_static:c_locale.obj
 0002:000036f4       ??_C@_0BL@PLMGIMOO@spanish?9dominican?5republic?$AA@ 004576f4     stlport_vc71_static:c_locale.obj
 0002:00003710       ??_C@_03MHNPAEMD@ESC?$AA@  00457710     stlport_vc71_static:c_locale.obj
 0002:00003714       ??_C@_0BD@HLGDNMHB@spanish?9costa?5rica?$AA@ 00457714     stlport_vc71_static:c_locale.obj
 0002:00003728       ??_C@_03GLGKELMP@ESO?$AA@  00457728     stlport_vc71_static:c_locale.obj
 0002:0000372c       ??_C@_0BB@PKCBKCPE@spanish?9colombia?$AA@ 0045772c     stlport_vc71_static:c_locale.obj
 0002:00003740       ??_C@_03EAEHBIAM@ESL?$AA@  00457740     stlport_vc71_static:c_locale.obj
 0002:00003744       ??_C@_0O@MCBIJGNE@spanish?9chile?$AA@ 00457744     stlport_vc71_static:c_locale.obj
 0002:00003754       ??_C@_03NOMEDFIC@ESB?$AA@  00457754     stlport_vc71_static:c_locale.obj
 0002:00003758       ??_C@_0BA@BEFEIGJJ@spanish?9bolivia?$AA@ 00457758     stlport_vc71_static:c_locale.obj
 0002:00003768       ??_C@_03INBNBGJC@ESS?$AA@  00457768     stlport_vc71_static:c_locale.obj
 0002:0000376c       ??_C@_0BC@EMECMPD@spanish?9argentina?$AA@ 0045776c     stlport_vc71_static:c_locale.obj
 0002:00003780       ??_C@_03LMEMIEKK@PTB?$AA@  00457780     stlport_vc71_static:c_locale.obj
 0002:00003784       ??_C@_0BF@EALFLENP@portuguese?9brazilian?$AA@ 00457784     stlport_vc71_static:c_locale.obj
 0002:0000379c       ??_C@_03LAEMKHJL@NON?$AA@  0045779c     stlport_vc71_static:c_locale.obj
 0002:000037a0       ??_C@_0BC@HBLEBLNN@norwegian?9nynorsk?$AA@ 004577a0     stlport_vc71_static:c_locale.obj
 0002:000037b4       ??_C@_0BB@HMACDDCK@norwegian?9bokmal?$AA@ 004577b4     stlport_vc71_static:c_locale.obj
 0002:000037c8       ??_C@_03FGDLPKMG@NOR?$AA@  004577c8     stlport_vc71_static:c_locale.obj
 0002:000037cc       ??_C@_09BAFFPPHE@norwegian?$AA@ 004577cc     stlport_vc71_static:c_locale.obj
 0002:000037d8       ??_C@_03MCIELPKP@ITS?$AA@  004577d8     stlport_vc71_static:c_locale.obj
 0002:000037dc       ??_C@_0O@EAJFJDFG@italian?9swiss?$AA@ 004577dc     stlport_vc71_static:c_locale.obj
 0002:000037ec       ??_C@_0O@CNOMPGD@irish?9english?$AA@ 004577ec     stlport_vc71_static:c_locale.obj
 0002:000037fc       ??_C@_03CNAKKODF@DES?$AA@  004577fc     stlport_vc71_static:c_locale.obj
 0002:00003800       ??_C@_0N@EDHBGCKG@german?9swiss?$AA@ 00457800     stlport_vc71_static:c_locale.obj
 0002:00003810       ??_C@_03OAFAKAKL@DEL?$AA@  00457810     stlport_vc71_static:c_locale.obj
 0002:00003814       ??_C@_0BC@JACMHNBP@german?9luxembourg?$AA@ 00457814     stlport_vc71_static:c_locale.obj
 0002:00003828       ??_C@_03GHMILMGE@DEC?$AA@  00457828     stlport_vc71_static:c_locale.obj
 0002:0000382c       ??_C@_0BE@HBGMGFEG@german?9lichtenstein?$AA@ 0045782c     stlport_vc71_static:c_locale.obj
 0002:00003840       ??_C@_03FFPONOOG@DEA?$AA@  00457840     stlport_vc71_static:c_locale.obj
 0002:00003844       ??_C@_0BA@HKKBIBKL@german?9austrian?$AA@ 00457844     stlport_vc71_static:c_locale.obj
 0002:00003854       ??_C@_03JOGKNDEL@FRS?$AA@  00457854     stlport_vc71_static:c_locale.obj
 0002:00003858       ??_C@_0N@GCAEPEBK@french?9swiss?$AA@ 00457858     stlport_vc71_static:c_locale.obj
 0002:00003868       ??_C@_03FDDANNNF@FRL?$AA@  00457868     stlport_vc71_static:c_locale.obj
 0002:0000386c       ??_C@_0BC@DJFJJCK@french?9luxembourg?$AA@ 0045786c     stlport_vc71_static:c_locale.obj
 0002:00003880       ??_C@_03NEKIMBBK@FRC?$AA@  00457880     stlport_vc71_static:c_locale.obj
 0002:00003884       ??_C@_0BA@NNCEDFIC@french?9canadian?$AA@ 00457884     stlport_vc71_static:c_locale.obj
 0002:00003894       ??_C@_03MNLDPAFL@FRB?$AA@  00457894     stlport_vc71_static:c_locale.obj
 0002:00003898       ??_C@_0P@CMPOCLM@french?9belgian?$AA@ 00457898     stlport_vc71_static:c_locale.obj
 0002:000038a8       ??_C@_0M@GHHDJOK@english?9usa?$AA@ 004578a8     stlport_vc71_static:c_locale.obj
 0002:000038b4       ??_C@_0L@PLDJKEIL@english?9us?$AA@ 004578b4     stlport_vc71_static:c_locale.obj
 0002:000038c0       ??_C@_03LHENPBOE@ENG?$AA@  004578c0     stlport_vc71_static:c_locale.obj
 0002:000038c4       ??_C@_0L@HJCCDMNC@english?9uk?$AA@ 004578c4     stlport_vc71_static:c_locale.obj
 0002:000038d0       ??_C@_03NGKCLAHG@ENT?$AA@  004578d0     stlport_vc71_static:c_locale.obj
 0002:000038d4       ??_C@_0BK@CKLIAGJB@english?9trinidad?5y?5tobago?$AA@ 004578d4     stlport_vc71_static:c_locale.obj
 0002:000038f0       ??_C@_03JJODCGLB@ENS?$AA@  004578f0     stlport_vc71_static:c_locale.obj
 0002:000038f4       ??_C@_0BF@JMJMGNNF@english?9south?5africa?$AA@ 004578f4     stlport_vc71_static:c_locale.obj
 0002:0000390c       ??_C@_03EICBJNPI@ENZ?$AA@  0045790c     stlport_vc71_static:c_locale.obj
 0002:00003910       ??_C@_0L@DKIIFDFD@english?9nz?$AA@ 00457910     stlport_vc71_static:c_locale.obj
 0002:0000391c       ??_C@_03CODIPKJ@ENJ?$AA@   0045791c     stlport_vc71_static:c_locale.obj
 0002:00003920       ??_C@_0BA@ONHGJCLH@english?9jamaica?$AA@ 00457920     stlport_vc71_static:c_locale.obj
 0002:00003930       ??_C@_03CJMONMGK@ENI?$AA@  00457930     stlport_vc71_static:c_locale.obj
 0002:00003934       ??_C@_0M@HJBGHOPO@english?9ire?$AA@ 00457934     stlport_vc71_static:c_locale.obj
 0002:00003940       ??_C@_03MKDKAFKB@ENB?$AA@  00457940     stlport_vc71_static:c_locale.obj
 0002:00003944       ??_C@_0BC@LFEKMIFB@english?9caribbean?$AA@ 00457944     stlport_vc71_static:c_locale.obj
 0002:00003958       ??_C@_0M@OLDPFKHI@english?9can?$AA@ 00457958     stlport_vc71_static:c_locale.obj
 0002:00003964       ??_C@_03FELJCICP@ENL?$AA@  00457964     stlport_vc71_static:c_locale.obj
 0002:00003968       ??_C@_0P@OMDEHBMP@english?9belize?$AA@ 00457968     stlport_vc71_static:c_locale.obj
 0002:00003978       ??_C@_0M@KFHFPFED@english?9aus?$AA@ 00457978     stlport_vc71_static:c_locale.obj
 0002:00003984       ??_C@_0BB@MNMBKDFE@english?9american?$AA@ 00457984     stlport_vc71_static:c_locale.obj
 0002:00003998       ??_C@_0O@KIDLNNBA@dutch?9belgian?$AA@ 00457998     stlport_vc71_static:c_locale.obj
 0002:000039a8       ??_C@_03PHEEJDBI@CHT?$AA@  004579a8     stlport_vc71_static:c_locale.obj
 0002:000039ac       ??_C@_0BE@JBKABBMH@chinese?9traditional?$AA@ 004579ac     stlport_vc71_static:c_locale.obj
 0002:000039c0       ??_C@_0BC@MJJMPKCG@chinese?9singapore?$AA@ 004579c0     stlport_vc71_static:c_locale.obj
 0002:000039d4       ??_C@_0BD@FDKADDCP@chinese?9simplified?$AA@ 004579d4     stlport_vc71_static:c_locale.obj
 0002:000039e8       ??_C@_0BB@DBEFDDME@chinese?9hongkong?$AA@ 004579e8     stlport_vc71_static:c_locale.obj
 0002:000039fc       ??_C@_03LIAFAFNP@CHS?$AA@  004579fc     stlport_vc71_static:c_locale.obj
 0002:00003a00       ??_C@_07DHNMFMCI@chinese?$AA@ 00457a00     stlport_vc71_static:c_locale.obj
 0002:00003a08       ??_C@_03CFDJOHBB@ZHI?$AA@  00457a08     stlport_vc71_static:c_locale.obj
 0002:00003a0c       ??_C@_03FNDDCHI@chi?$AA@   00457a0c     stlport_vc71_static:c_locale.obj
 0002:00003a10       ??_C@_03DMCCNGFA@ZHH?$AA@  00457a10     stlport_vc71_static:c_locale.obj
 0002:00003a14       ??_C@_03BMMIADDJ@chh?$AA@  00457a14     stlport_vc71_static:c_locale.obj
 0002:00003a18       ??_C@_03NDCBDEOA@ENC?$AA@  00457a18     stlport_vc71_static:c_locale.obj
 0002:00003a1c       ??_C@_08OAIPJDGI@canadian?$AA@ 00457a1c     stlport_vc71_static:c_locale.obj
 0002:00003a28       ??_C@_03BOLPFGMO@NLB?$AA@  00457a28     stlport_vc71_static:c_locale.obj
 0002:00003a2c       ??_C@_07HBPMNPNJ@belgian?$AA@ 00457a2c     stlport_vc71_static:c_locale.obj
 0002:00003a34       ??_C@_03OBBHFGGC@ENA?$AA@  00457a34     stlport_vc71_static:c_locale.obj
 0002:00003a38       ??_C@_0L@OEKOPBEL@australian?$AA@ 00457a38     stlport_vc71_static:c_locale.obj
 0002:00003a44       ??_C@_0BB@MEIMBEDG@american?9english?$AA@ 00457a44     stlport_vc71_static:c_locale.obj
 0002:00003a58       ??_C@_0BB@DFMDPDGB@american?5english?$AA@ 00457a58     stlport_vc71_static:c_locale.obj
 0002:00003a6c       ??_C@_03MPLJIBDH@ENU?$AA@  00457a6c     stlport_vc71_static:c_locale.obj
 0002:00003a70       ??_C@_08IJLOKOLL@american?$AA@ 00457a70     stlport_vc71_static:c_locale.obj
 0002:00003a7c       ??_C@_0N@MLNNDNFA@LC_MESSAGES?$DN?$AA@ 00457a7c     stlport_vc71_static:c_locale.obj
 0002:00003a8c       ??_C@_0N@KBEBLGLI@LC_MONETARY?$DN?$AA@ 00457a8c     stlport_vc71_static:c_locale.obj
 0002:00003a9c       ??_C@_0M@GHCALFMK@LC_COLLATE?$DN?$AA@ 00457a9c     stlport_vc71_static:c_locale.obj
 0002:00003aa8       ??_C@_0M@HLNCDLKA@LC_NUMERIC?$DN?$AA@ 00457aa8     stlport_vc71_static:c_locale.obj
 0002:00003ab4       ??_C@_08OEOELALO@LC_TIME?$DN?$AA@ 00457ab4     stlport_vc71_static:c_locale.obj
 0002:00003ac0       ??_C@_01ICJEACDI@?$DL?$AA@ 00457ac0     stlport_vc71_static:c_locale.obj
 0002:00003ac4       ??_C@_09PDKBCOIH@LC_CTYPE?$DN?$AA@ 00457ac4     stlport_vc71_static:c_locale.obj
 0002:00003ad0       ??_C@_03EGDHDPFD@_?4?0?$AA@ 00457ad0     stlport_vc71_static:c_locale.obj
 0002:00003ad4       ??_C@_01LFCBOECM@?4?$AA@   00457ad4     stlport_vc71_static:c_locale.obj
 0002:00003ad8       ??_C@_01IDAFKMJL@_?$AA@    00457ad8     stlport_vc71_static:c_locale.obj
 0002:00003adc       ??_C@_05NHGECNAB@?$CFS?5?$CFp?$AA@ 00457adc     stlport_vc71_static:c_locale.obj
 0002:00003ae4       ??_C@_02HLOPJDKO@?$CFM?$AA@ 00457ae4     stlport_vc71_static:c_locale.obj
 0002:00003ae8       ??_C@_02GJIGHOL@?$CFH?$AA@ 00457ae8     stlport_vc71_static:c_locale.obj
 0002:00003aec       ??_C@_03NFKLAGEF@OCP?$AA@  00457aec     stlport_vc71_static:c_locale.obj
 0002:00003af0       ??_C@_03DFHEHBHG@ACP?$AA@  00457af0     stlport_vc71_static:c_locale.obj
 0002:00003b58       ??_7exception@@6B@         00457b58     LIBCMT:stdexcpt.obj
 0002:00003b60       ??_C@_0BC@EOODALEL@Unknown?5exception?$AA@ 00457b60     LIBCMT:stdexcpt.obj
 0002:00003b78       ??_7bad_cast@@6B@          00457b78     LIBCMT:stdexcpt.obj
 0002:00003b84       ??_7bad_typeid@@6B@        00457b84     LIBCMT:stdexcpt.obj
 0002:00003b90       ??_7__non_rtti_object@@6B@ 00457b90     LIBCMT:stdexcpt.obj
 0002:00003b9c       ??_7type_info@@6B@         00457b9c     LIBCMT:typinfo.obj
 0002:00003bec       ??_C@_08JCCMCCIL@HH?3mm?3ss?$AA@ 00457bec     LIBCMT:strftime.obj
 0002:00003bf8       ??_C@_0BE@CKGJFCPC@dddd?0?5MMMM?5dd?0?5yyyy?$AA@ 00457bf8     LIBCMT:strftime.obj
 0002:00003c0c       ??_C@_08BPBNCDIB@MM?1dd?1yy?$AA@ 00457c0c     LIBCMT:strftime.obj
 0002:00003c18       ??_C@_08EDHMEBNP@December?$AA@ 00457c18     LIBCMT:strftime.obj
 0002:00003c24       ??_C@_08HCHEGEOA@November?$AA@ 00457c24     LIBCMT:strftime.obj
 0002:00003c30       ??_C@_07JJNFCEND@October?$AA@ 00457c30     LIBCMT:strftime.obj
 0002:00003c38       ??_C@_09BHHEALKD@September?$AA@ 00457c38     LIBCMT:strftime.obj
 0002:00003c44       ??_C@_06LBBHFDDG@August?$AA@ 00457c44     LIBCMT:strftime.obj
 0002:00003c4c       ??_C@_04MIEPOIFP@July?$AA@ 00457c4c     LIBCMT:strftime.obj
 0002:00003c54       ??_C@_04CNLMGBGM@June?$AA@ 00457c54     LIBCMT:strftime.obj
 0002:00003c5c       ??_C@_05DMJDNLEJ@April?$AA@ 00457c5c     LIBCMT:strftime.obj
 0002:00003c64       ??_C@_05HPCKOFNC@March?$AA@ 00457c64     LIBCMT:strftime.obj
 0002:00003c6c       ??_C@_08GNJGEPFN@February?$AA@ 00457c6c     LIBCMT:strftime.obj
 0002:00003c78       ??_C@_07CGJPFGJA@January?$AA@ 00457c78     LIBCMT:strftime.obj
 0002:00003c80       ??_C@_03MKABNOCG@Dec?$AA@  00457c80     LIBCMT:strftime.obj
 0002:00003c84       ??_C@_03JPJOFNIA@Nov?$AA@  00457c84     LIBCMT:strftime.obj
 0002:00003c88       ??_C@_03BMAOKBAD@Oct?$AA@  00457c88     LIBCMT:strftime.obj
 0002:00003c8c       ??_C@_03GGCAPAJC@Sep?$AA@  00457c8c     LIBCMT:strftime.obj
 0002:00003c90       ??_C@_03IFJFEIGA@Aug?$AA@  00457c90     LIBCMT:strftime.obj
 0002:00003c94       ??_C@_03LBGABGKK@Jul?$AA@  00457c94     LIBCMT:strftime.obj
 0002:00003c98       ??_C@_03IDFGHECI@Jun?$AA@  00457c98     LIBCMT:strftime.obj
 0002:00003c9c       ??_C@_03CNMDKL@May?$AA@    00457c9c     LIBCMT:strftime.obj
 0002:00003ca0       ??_C@_03LEOLGMJP@Apr?$AA@  00457ca0     LIBCMT:strftime.obj
